
PaceMaker_303.elf:     file format elf32-littlenios2
PaceMaker_303.elf
architecture: nios2:r1, flags 0x00000112:
EXEC_P, HAS_SYMS, D_PAGED
start address 0x00800244

Program Header:
    LOAD off    0x00001000 vaddr 0x00800000 paddr 0x00800000 align 2**12
         filesz 0x00000020 memsz 0x00000020 flags r-x
    LOAD off    0x00001020 vaddr 0x00800020 paddr 0x00800020 align 2**12
         filesz 0x000141a8 memsz 0x000141a8 flags r-x
    LOAD off    0x000151c8 vaddr 0x008141c8 paddr 0x00815ea4 align 2**12
         filesz 0x00001cdc memsz 0x00001cdc flags rw-
    LOAD off    0x00017b80 vaddr 0x00817b80 paddr 0x00817b80 align 2**12
         filesz 0x00000000 memsz 0x000003cc flags rw-

Sections:
Idx Name          Size      VMA       LMA       File off  Algn
  0 .entry        00000020  00800000  00800000  00001000  2**5
                  CONTENTS, ALLOC, LOAD, READONLY, CODE
  1 .exceptions   00000224  00800020  00800020  00001020  2**2
                  CONTENTS, ALLOC, LOAD, READONLY, CODE
  2 .text         000138d8  00800244  00800244  00001244  2**2
                  CONTENTS, ALLOC, LOAD, READONLY, CODE
  3 .rodata       000006ac  00813b1c  00813b1c  00014b1c  2**2
                  CONTENTS, ALLOC, LOAD, READONLY, DATA
  4 .rwdata       00001cdc  008141c8  00815ea4  000151c8  2**2
                  CONTENTS, ALLOC, LOAD, DATA, SMALL_DATA
  5 .bss          000003cc  00817b80  00817b80  00017b80  2**2
                  ALLOC, SMALL_DATA
  6 .sdram        00000000  00817f4c  00817f4c  00016ea4  2**0
                  CONTENTS
  7 .onchip_mem   00000000  01080000  01080000  00016ea4  2**0
                  CONTENTS
  8 .comment      00000023  00000000  00000000  00016ea4  2**0
                  CONTENTS, READONLY
  9 .debug_aranges 00001120  00000000  00000000  00016ec8  2**3
                  CONTENTS, READONLY, DEBUGGING
 10 .debug_info   0002be52  00000000  00000000  00017fe8  2**0
                  CONTENTS, READONLY, DEBUGGING
 11 .debug_abbrev 0000ae11  00000000  00000000  00043e3a  2**0
                  CONTENTS, READONLY, DEBUGGING
 12 .debug_line   0000ddca  00000000  00000000  0004ec4b  2**0
                  CONTENTS, READONLY, DEBUGGING
 13 .debug_frame  00002a8c  00000000  00000000  0005ca18  2**2
                  CONTENTS, READONLY, DEBUGGING
 14 .debug_str    00004521  00000000  00000000  0005f4a4  2**0
                  CONTENTS, READONLY, DEBUGGING
 15 .debug_loc    000185c1  00000000  00000000  000639c5  2**0
                  CONTENTS, READONLY, DEBUGGING
 16 .debug_alt_sim_info 00000060  00000000  00000000  0007bf88  2**2
                  CONTENTS, READONLY, DEBUGGING
 17 .debug_ranges 00001a10  00000000  00000000  0007bfe8  2**3
                  CONTENTS, READONLY, DEBUGGING
 18 .thread_model 00000003  00000000  00000000  000826d9  2**0
                  CONTENTS, READONLY
 19 .cpu          00000003  00000000  00000000  000826dc  2**0
                  CONTENTS, READONLY
 20 .qsys         00000001  00000000  00000000  000826df  2**0
                  CONTENTS, READONLY
 21 .simulation_enabled 00000001  00000000  00000000  000826e0  2**0
                  CONTENTS, READONLY
 22 .sysid_hash   00000004  00000000  00000000  000826e1  2**0
                  CONTENTS, READONLY
 23 .sysid_base   00000004  00000000  00000000  000826e5  2**0
                  CONTENTS, READONLY
 24 .sysid_time   00000004  00000000  00000000  000826e9  2**0
                  CONTENTS, READONLY
 25 .stderr_dev   00000009  00000000  00000000  000826ed  2**0
                  CONTENTS, READONLY
 26 .stdin_dev    00000009  00000000  00000000  000826f6  2**0
                  CONTENTS, READONLY
 27 .stdout_dev   00000009  00000000  00000000  000826ff  2**0
                  CONTENTS, READONLY
 28 .sopc_system_name 0000000c  00000000  00000000  00082708  2**0
                  CONTENTS, READONLY
 29 .quartus_project_dir 00000003  00000000  00000000  00082714  2**0
                  CONTENTS, READONLY
 30 .sopcinfo     0006b318  00000000  00000000  00082717  2**0
                  CONTENTS, READONLY
SYMBOL TABLE:
00800000 l    d  .entry	00000000 .entry
00800020 l    d  .exceptions	00000000 .exceptions
00800244 l    d  .text	00000000 .text
00813b1c l    d  .rodata	00000000 .rodata
008141c8 l    d  .rwdata	00000000 .rwdata
00817b80 l    d  .bss	00000000 .bss
00817f4c l    d  .sdram	00000000 .sdram
01080000 l    d  .onchip_mem	00000000 .onchip_mem
00000000 l    d  .comment	00000000 .comment
00000000 l    d  .debug_aranges	00000000 .debug_aranges
00000000 l    d  .debug_info	00000000 .debug_info
00000000 l    d  .debug_abbrev	00000000 .debug_abbrev
00000000 l    d  .debug_line	00000000 .debug_line
00000000 l    d  .debug_frame	00000000 .debug_frame
00000000 l    d  .debug_str	00000000 .debug_str
00000000 l    d  .debug_loc	00000000 .debug_loc
00000000 l    d  .debug_alt_sim_info	00000000 .debug_alt_sim_info
00000000 l    d  .debug_ranges	00000000 .debug_ranges
00000000 l    df *ABS*	00000000 ../PaceMaker_303_bsp//obj/HAL/src/crt0.o
0080028c l       .text	00000000 alt_after_alt_main
00000000 l    df *ABS*	00000000 alt_irq_handler.c
00000000 l    df *ABS*	00000000 alt_instruction_exception_entry.c
00000000 l    df *ABS*	00000000 main.c
00817ca4 l     O .bss	00000018 AVI_Timer
00817cbc l     O .bss	00000018 AEI_Timer
00817cd4 l     O .bss	00000018 PVARP_Timer
00817cec l     O .bss	00000018 VRP_Timer
00817d04 l     O .bss	00000018 LRI_Timer
00817d1c l     O .bss	00000018 URI_Timer
00817d34 l     O .bss	00000018 LED_Atrial_Timer
00817d4c l     O .bss	00000018 LED_Ventricular_Timer
00817d64 l     O .bss	00000018 A_Sense_Timer
00817d7c l     O .bss	00000018 V_Sense_Timer
00817d94 l     O .bss	00000018 AVI_Buffer_Timer
00817dac l     O .bss	00000018 AEI_Buffer_Timer
00817dc4 l     O .bss	00000018 PVARP_Buffer_Timer
00817ddc l     O .bss	00000018 VRP_Buffer_Timer
00817df4 l     O .bss	00000018 LRI_Buffer_Timer
00817e0c l     O .bss	00000018 URI_Buffer_Timer
00817b80 l     O .bss	00000004 mode
00817b84 l     O .bss	00000004 ModeChange
00817b88 l     O .bss	00000004 Flag
00817b8c l     O .bss	00000004 t_key1
00817b90 l     O .bss	00000004 t_key2
00817b94 l     O .bss	00000004 LEDVPace
00817b98 l     O .bss	00000004 LEDAPace
00815e58 l     O .rwdata	00000004 LED
00817b9c l     O .bss	00000004 recv_char
00000000 l    df *ABS*	00000000 sccharts.c
00000000 l    df *ABS*	00000000 fflush.c
00000000 l    df *ABS*	00000000 findfp.c
008029ac l     F .text	00000008 __fp_unlock
008029c0 l     F .text	0000019c __sinit.part.1
00802b5c l     F .text	00000008 __fp_lock
00000000 l    df *ABS*	00000000 fopen.c
00000000 l    df *ABS*	00000000 fprintf.c
00000000 l    df *ABS*	00000000 mallocr.c
00000000 l    df *ABS*	00000000 fseek.c
00000000 l    df *ABS*	00000000 fseeko.c
00000000 l    df *ABS*	00000000 fstatr.c
00000000 l    df *ABS*	00000000 fwalk.c
00000000 l    df *ABS*	00000000 fwrite.c
00000000 l    df *ABS*	00000000 impure.c
008141c8 l     O .rwdata	00000424 impure_data
00000000 l    df *ABS*	00000000 int_errno.c
00000000 l    df *ABS*	00000000 makebuf.c
00000000 l    df *ABS*	00000000 mallocr.c
00000000 l    df *ABS*	00000000 memset.c
00000000 l    df *ABS*	00000000 openr.c
00000000 l    df *ABS*	00000000 printf.c
00000000 l    df *ABS*	00000000 puts.c
00000000 l    df *ABS*	00000000 refill.c
008046cc l     F .text	0000001c lflush
00000000 l    df *ABS*	00000000 sbrkr.c
00000000 l    df *ABS*	00000000 stdio.c
00000000 l    df *ABS*	00000000 strlen.c
00000000 l    df *ABS*	00000000 vfprintf.c
00813c82 l     O .rodata	00000010 zeroes.4404
00806cf8 l     F .text	000000bc __sbprintf
00813c92 l     O .rodata	00000010 blanks.4403
00000000 l    df *ABS*	00000000 writer.c
00000000 l    df *ABS*	00000000 wsetup.c
00000000 l    df *ABS*	00000000 closer.c
00000000 l    df *ABS*	00000000 dtoa.c
00806fbc l     F .text	00000200 quorem
00000000 l    df *ABS*	00000000 fclose.c
00000000 l    df *ABS*	00000000 flags.c
00000000 l    df *ABS*	00000000 fvwrite.c
00000000 l    df *ABS*	00000000 isattyr.c
00000000 l    df *ABS*	00000000 locale.c
00814a14 l     O .rwdata	00000020 lc_ctype_charset
008149f4 l     O .rwdata	00000020 lc_message_charset
00814a34 l     O .rwdata	00000038 lconv
00000000 l    df *ABS*	00000000 lseekr.c
00000000 l    df *ABS*	00000000 memchr.c
00000000 l    df *ABS*	00000000 memcpy.c
00000000 l    df *ABS*	00000000 memmove.c
00000000 l    df *ABS*	00000000 mprec.c
00813cc0 l     O .rodata	0000000c p05.2768
00000000 l    df *ABS*	00000000 readr.c
00000000 l    df *ABS*	00000000 mallocr.c
00000000 l    df *ABS*	00000000 s_fpclassify.c
00000000 l    df *ABS*	00000000 strcmp.c
00000000 l    df *ABS*	00000000 vfprintf.c
0080aad8 l     F .text	000000fc __sprint_r.part.0
00813df4 l     O .rodata	00000010 blanks.4348
00813de4 l     O .rodata	00000010 zeroes.4349
0080c064 l     F .text	000000bc __sbprintf
00000000 l    df *ABS*	00000000 mallocr.c
00000000 l    df *ABS*	00000000 fputwc.c
00000000 l    df *ABS*	00000000 wbuf.c
00000000 l    df *ABS*	00000000 wcrtomb.c
00000000 l    df *ABS*	00000000 wctomb_r.c
00000000 l    df *ABS*	00000000 libgcc2.c
00000000 l    df *ABS*	00000000 libgcc2.c
00000000 l    df *ABS*	00000000 lib2-divmod.c
00000000 l    df *ABS*	00000000 adddf3.c
00000000 l    df *ABS*	00000000 divdf3.c
00000000 l    df *ABS*	00000000 eqdf2.c
00000000 l    df *ABS*	00000000 gedf2.c
00000000 l    df *ABS*	00000000 ledf2.c
00000000 l    df *ABS*	00000000 muldf3.c
00000000 l    df *ABS*	00000000 subdf3.c
00000000 l    df *ABS*	00000000 fixdfsi.c
00000000 l    df *ABS*	00000000 floatsidf.c
00000000 l    df *ABS*	00000000 floatunsidf.c
00000000 l    df *ABS*	00000000 libgcc2.c
00000000 l    df *ABS*	00000000 libgcc2.c
00000000 l    df *ABS*	00000000 alt_alarm_start.c
00000000 l    df *ABS*	00000000 alt_close.c
0080fb24 l     F .text	0000003c alt_get_errno
00000000 l    df *ABS*	00000000 alt_dev.c
0080fc30 l     F .text	0000002c alt_dev_null_write
00000000 l    df *ABS*	00000000 alt_errno.c
00000000 l    df *ABS*	00000000 alt_fstat.c
0080fc5c l     F .text	0000003c alt_get_errno
00000000 l    df *ABS*	00000000 alt_isatty.c
0080fd48 l     F .text	0000003c alt_get_errno
00000000 l    df *ABS*	00000000 alt_load.c
0080fe28 l     F .text	00000068 alt_load_section
00000000 l    df *ABS*	00000000 alt_lseek.c
0080ff14 l     F .text	0000003c alt_get_errno
00000000 l    df *ABS*	00000000 alt_main.c
00000000 l    df *ABS*	00000000 alt_malloc_lock.c
00000000 l    df *ABS*	00000000 alt_open.c
008100e8 l     F .text	0000003c alt_get_errno
00810124 l     F .text	000000c4 alt_file_locked
00000000 l    df *ABS*	00000000 alt_read.c
0081033c l     F .text	0000003c alt_get_errno
00000000 l    df *ABS*	00000000 alt_release_fd.c
00000000 l    df *ABS*	00000000 alt_sbrk.c
00815e8c l     O .rwdata	00000004 heap_end
00000000 l    df *ABS*	00000000 alt_tick.c
00000000 l    df *ABS*	00000000 alt_write.c
0081072c l     F .text	0000003c alt_get_errno
00000000 l    df *ABS*	00000000 alt_sys_init.c
00810860 l     F .text	00000034 alt_dev_reg
00814c14 l     O .rwdata	00001060 jtag_uart
00815c74 l     O .rwdata	00000120 lcd
00815d94 l     O .rwdata	000000c4 uart
00000000 l    df *ABS*	00000000 altera_avalon_jtag_uart_fd.c
00000000 l    df *ABS*	00000000 altera_avalon_jtag_uart_init.c
00810b8c l     F .text	0000020c altera_avalon_jtag_uart_irq
00810d98 l     F .text	000000a0 altera_avalon_jtag_uart_timeout
00000000 l    df *ABS*	00000000 altera_avalon_jtag_uart_ioctl.c
00000000 l    df *ABS*	00000000 altera_avalon_jtag_uart_read.c
00000000 l    df *ABS*	00000000 altera_avalon_jtag_uart_write.c
00000000 l    df *ABS*	00000000 altera_avalon_lcd_16207.c
00815e98 l     O .rwdata	00000004 colstart
008113d0 l     F .text	000000b8 lcd_write_command
00811488 l     F .text	000000d8 lcd_write_data
00811560 l     F .text	000000d0 lcd_clear_screen
00811630 l     F .text	000001ec lcd_repaint_screen
0081181c l     F .text	000000cc lcd_scroll_up
008118e8 l     F .text	000002ac lcd_handle_escape
0081206c l     F .text	000000ac alt_lcd_16207_timeout
00000000 l    df *ABS*	00000000 altera_avalon_lcd_16207_fd.c
00000000 l    df *ABS*	00000000 altera_avalon_timer_sc.c
008122ac l     F .text	00000078 alt_avalon_timer_sc_irq
00000000 l    df *ABS*	00000000 altera_avalon_uart_fd.c
00000000 l    df *ABS*	00000000 altera_avalon_uart_init.c
0081255c l     F .text	0000009c altera_avalon_uart_irq
008125f8 l     F .text	000000e4 altera_avalon_uart_rxirq
008126dc l     F .text	00000148 altera_avalon_uart_txirq
00000000 l    df *ABS*	00000000 altera_avalon_uart_read.c
00812878 l     F .text	0000003c alt_get_errno
00000000 l    df *ABS*	00000000 altera_avalon_uart_write.c
00812a90 l     F .text	0000003c alt_get_errno
00000000 l    df *ABS*	00000000 alt_dcache_flush_all.c
00000000 l    df *ABS*	00000000 alt_dev_llist_insert.c
00812cc0 l     F .text	0000003c alt_get_errno
00000000 l    df *ABS*	00000000 alt_do_ctors.c
00000000 l    df *ABS*	00000000 alt_do_dtors.c
00000000 l    df *ABS*	00000000 alt_find_dev.c
00000000 l    df *ABS*	00000000 alt_find_file.c
00000000 l    df *ABS*	00000000 alt_get_fd.c
00000000 l    df *ABS*	00000000 alt_icache_flush_all.c
00000000 l    df *ABS*	00000000 alt_iic.c
00000000 l    df *ABS*	00000000 alt_iic_isr_register.c
00000000 l    df *ABS*	00000000 alt_io_redirect.c
00813370 l     F .text	000000c4 alt_open_fd
00000000 l    df *ABS*	00000000 alt_irq_vars.c
00000000 l    df *ABS*	00000000 alt_usleep.c
00000000 l    df *ABS*	00000000 altera_nios2_gen2_irq.c
00000000 l    df *ABS*	00000000 alt_busy_sleep.c
00000000 l    df *ABS*	00000000 alt_icache_flush.c
00000000 l    df *ABS*	00000000 atexit.c
00000000 l    df *ABS*	00000000 ctype_.c
00814047 l     O .rodata	00000180 _ctype_b
00000000 l    df *ABS*	00000000 exit.c
00000000 l    df *ABS*	00000000 memcmp.c
00000000 l    df *ABS*	00000000 __atexit.c
00000000 l    df *ABS*	00000000 __call_atexit.c
00000000 l    df *ABS*	00000000 alt_exit.c
00817ca0 g     O .bss	00000004 alt_instruction_exception_handler
00817bb0 g     O .bss	00000001 g83
00817bb1 g     O .bss	00000001 g40
0080a24c g     F .text	00000074 _mprec_log10
00817bb2 g     O .bss	00000001 AVI_TO
00800d0c g     F .text	000000b8 lcd_set_mode
0080a338 g     F .text	0000008c __any_on
00808eb0 g     F .text	00000054 _isatty_r
00813ccc g     O .rodata	00000028 __mprec_tinytens
00810024 g     F .text	0000007c alt_main
008045f8 g     F .text	000000c0 _puts_r
00817bb3 g     O .bss	00000001 APace
00817e4c g     O .bss	00000100 alt_irq
00808fe0 g     F .text	00000060 _lseek_r
00817bb4 g     O .bss	00000001 g4
00815ea4 g       *ABS*	00000000 __flash_rwdata_start
00817bb5 g     O .bss	00000001 g85_e1_fix
00817bb6 g     O .bss	00000001 g19
00808948 g     F .text	000000ac __sflags
0080e524 g     F .text	00000088 .hidden __eqdf2
00817f4c g       *ABS*	00000000 __alt_heap_start
00817bb7 g     O .bss	00000001 VRP_TO
008045bc g     F .text	0000003c printf
0080c544 g     F .text	0000009c _wcrtomb_r
008049e8 g     F .text	0000005c __sseek
00802cfc g     F .text	00000010 __sinit
0080c3ec g     F .text	00000140 __swbuf_r
00817bb8 g     O .bss	00000001 g55
00817bb9 g     O .bss	00000001 g27
00817ba0 g     O .bss	00000004 lcd
00808f04 g     F .text	0000007c _setlocale_r
00802b64 g     F .text	00000068 __sfmoreglue
00800470 g     F .text	00000050 LED_Atrial_ISR
008100c4 g     F .text	00000024 __malloc_unlock
00817bba g     O .bss	00000001 g3
00817ba4 g     O .bss	00000004 fp
0080926c g     F .text	0000015c memmove
00817bbb g     O .bss	00000001 g47
00817bbc g     O .bss	00000001 g85
00817bbd g     O .bss	00000001 g42
00802ce4 g     F .text	00000018 _cleanup
008093c8 g     F .text	000000a8 _Balloc
00817bbe g     O .bss	00000001 g9
00800420 g     F .text	00000050 URI_ISR
00817bbf g     O .bss	00000001 _cg7
00817bc0 g     O .bss	00000004 _PRE_GO
00817bc4 g     O .bss	00000001 PRE_g3
0080e5ac g     F .text	000000dc .hidden __gtdf2
008134e0 g     F .text	00000024 altera_nios2_gen2_irq_init
00817bc5 g     O .bss	00000001 PRE_g29
00817bc6 g     O .bss	00000001 AVI_start
00800000 g     F .entry	0000001c __reset
00817bc7 g     O .bss	00000001 _cg52
00800020 g       *ABS*	00000000 __flash_exceptions_start
00803758 g     F .text	0000005c _fstat_r
00817bc8 g     O .bss	00000001 PRE_g72
00817c6c g     O .bss	00000004 errno
00817bc9 g     O .bss	00000001 _cg73
00817bca g     O .bss	00000001 g87
00817bcb g     O .bss	00000001 g44
00804964 g     F .text	00000008 __seofread
00817bcc g     O .bss	00000001 _cg79
00817bcd g     O .bss	00000001 _cg75
00817c8c g     O .bss	00000004 alt_argv
0081de58 g       *ABS*	00000000 _gp
008134b0 g     F .text	00000030 usleep
00800e5c g     F .text	00000080 reset
00817bce g     O .bss	00000001 g77b
00817ba8 g     O .bss	00000004 up
00817bcf g     O .bss	00000001 AVI_stop
00817bd0 g     O .bss	00000001 g1
00800644 g     F .text	0000003c VRP_Buffer_ISR
00800608 g     F .text	0000003c PVARP_Buffer_ISR
00817bd1 g     O .bss	00000001 _DDD_Pacemaker_local_URI_ex
00817bd2 g     O .bss	00000001 g61
00814a94 g     O .rwdata	00000180 alt_fd_list
00817bd3 g     O .bss	00000001 g71
00812e60 g     F .text	00000090 alt_find_dev
00809124 g     F .text	00000148 memcpy
008029b4 g     F .text	0000000c _cleanup_r
0080f810 g     F .text	000000dc .hidden __floatsidf
00817bd4 g     O .bss	00000001 g82
00813434 g     F .text	0000007c alt_io_redirect
0080e688 g     F .text	000000f4 .hidden __ltdf2
00817bd5 g     O .bss	00000001 PRE_g69
00813b1c g       *ABS*	00000000 __DTOR_END__
00817bd6 g     O .bss	00000001 g12
008046b8 g     F .text	00000014 puts
008136ec g     F .text	0000009c alt_exception_cause_generated_bad_addr
00817bd7 g     O .bss	00000001 g52
0080a988 g     F .text	00000074 __fpclassifyd
00817bd8 g     O .bss	00000001 LRI_TO
0080a1a8 g     F .text	000000a4 __ratio
0080c048 g     F .text	0000001c __vfiprintf_internal
00810f90 g     F .text	0000021c altera_avalon_jtag_uart_read
0080458c g     F .text	00000030 _printf_r
00817bd9 g     O .bss	00000001 _cg74
0080d2d4 g     F .text	00000064 .hidden __udivsi3
0080fd84 g     F .text	000000a4 isatty
00817bda g     O .bss	00000001 g17
00817bdb g     O .bss	00000001 PRE_g34
00813d1c g     O .rodata	000000c8 __mprec_tens
00808f80 g     F .text	0000000c __locale_charset
00817bdc g     O .bss	00000001 g76
00817bdd g     O .bss	00000001 g31
00800510 g     F .text	00000040 A_Sense_ISR
0081365c g     F .text	00000090 alt_icache_flush
00817bde g     O .bss	00000001 g37
00817c78 g     O .bss	00000004 __malloc_top_pad
00815e6c g     O .rwdata	00000004 __mb_cur_max
008004c0 g     F .text	00000050 LED_Ventricular_ISR
00808fb0 g     F .text	0000000c _localeconv_r
00817bdf g     O .bss	00000001 g62
008097d4 g     F .text	0000003c __i2b
008089f4 g     F .text	000004bc __sfvwrite_r
008048bc g     F .text	00000054 _sbrk_r
00817be0 g     O .bss	00000001 g84
00817be1 g     O .bss	00000001 g41
00817be2 g     O .bss	00000001 _cg61
0080a3c4 g     F .text	00000060 _read_r
00815e84 g     O .rwdata	00000004 alt_max_fd
00817be3 g     O .bss	00000001 g24_e2
00817be4 g     O .bss	00000001 LRI_stop
00808844 g     F .text	000000f0 _fclose_r
00817be5 g     O .bss	00000001 PRE_g17
0080297c g     F .text	00000030 fflush
00817c74 g     O .bss	00000004 __malloc_max_sbrked_mem
00800680 g     F .text	0000003c LRI_Buffer_ISR
00817be6 g     O .bss	00000001 g18
00817be7 g     O .bss	00000001 g41_e3
00817be8 g     O .bss	00000001 ASense
0080d390 g     F .text	000008ac .hidden __adddf3
00809f50 g     F .text	0000010c __b2d
0080cca4 g     F .text	00000538 .hidden __umoddi3
0080ff50 g     F .text	000000d4 lseek
00815e5c g     O .rwdata	00000004 _global_impure_ptr
00817be9 g     O .bss	00000001 g48
0080a424 g     F .text	00000564 _realloc_r
00817f4c g       *ABS*	00000000 __bss_end
00813280 g     F .text	000000f0 alt_iic_isr_register
00817bea g     O .bss	00000001 g47b
00810624 g     F .text	00000108 alt_tick
00817beb g     O .bss	00000001 _cg58
0080c72c g     F .text	00000578 .hidden __udivdi3
0080c348 g     F .text	00000024 _fputwc_r
00813cf4 g     O .rodata	00000028 __mprec_bigtens
008095b8 g     F .text	00000104 __s2b
0080f8ec g     F .text	000000a8 .hidden __floatunsidf
00817bec g     O .bss	00000001 g38
00809c90 g     F .text	00000060 __mcmp
008124b0 g     F .text	000000ac altera_avalon_uart_init
00802d1c g     F .text	00000018 __fp_lock_all
00813234 g     F .text	0000004c alt_ic_irq_enabled
00817bed g     O .bss	00000001 PRE_g87
00817bee g     O .bss	00000001 g30b
00810588 g     F .text	0000009c alt_alarm_stop
00817c9c g     O .bss	00000004 alt_irq_active
008032f8 g     F .text	00000444 _fseeko_r
00817bef g     O .bss	00000001 g55_e4
00817bf0 g     O .bss	00000001 _cg20
01080000 g       *ABS*	00000000 __alt_mem_onchip_mem
008000fc g     F .exceptions	000000d4 alt_irq_handler
00814a6c g     O .rwdata	00000028 alt_dev_null
00817bf1 g     O .bss	00000001 _DDD_Pacemaker_local_PVARP_ex
00812c78 g     F .text	00000048 alt_dcache_flush_all
008096bc g     F .text	00000068 __hi0bits
00817bf2 g     O .bss	00000001 g22b
00817bf3 g     O .bss	00000001 _cg63
0080f790 g     F .text	00000080 .hidden __fixdfsi
00817bf4 g     O .bss	00000001 g64
00817bf5 g     O .bss	00000001 g21
00817bf6 g     O .bss	00000001 _cg51
00817bf7 g     O .bss	00000001 PRE_g46
00817bf8 g     O .bss	00000001 PRE_g12
00817bf9 g     O .bss	00000001 g79
00817bfa g     O .bss	00000001 g34
00815ea4 g       *ABS*	00000000 __ram_rwdata_end
00817bfb g     O .bss	00000001 g5
00815e7c g     O .rwdata	00000008 alt_dev_list
00817bfc g     O .bss	00000001 g49
00810768 g     F .text	000000f8 write
00817bfd g     O .bss	00000001 g2
00817bfe g     O .bss	00000001 g7
00800b98 g     F .text	0000005c handle_mode_switch
00817bff g     O .bss	00000001 _cg16
008141c8 g       *ABS*	00000000 __ram_rodata_end
0080fc98 g     F .text	000000b0 fstat
00802e80 g     F .text	00000024 fprintf
0080e688 g     F .text	000000f4 .hidden __ledf2
00817c00 g     O .bss	00000001 g80
00817c01 g     O .bss	00000001 _DDD_Pacemaker_local_VRP_ex
00809a08 g     F .text	00000140 __pow5mult
0080abec g     F .text	0000145c ___vfiprintf_internal_r
00817c84 g     O .bss	00000004 __nlocale_changed
0080d338 g     F .text	00000058 .hidden __umodsi3
00817f4c g       *ABS*	00000000 end
00811b94 g     F .text	000004d8 altera_avalon_lcd_16207_write
0080373c g     F .text	0000001c fseeko
00817c02 g     O .bss	00000001 g59
00817c03 g     O .bss	00000001 g54
00812acc g     F .text	000001ac altera_avalon_uart_write
008032dc g     F .text	0000001c fseek
00817c04 g     O .bss	00000001 g66
00817c05 g     O .bss	00000001 g23
00810acc g     F .text	000000c0 altera_avalon_jtag_uart_init
008001d0 g     F .exceptions	00000074 alt_instruction_exception_entry
00817c06 g     O .bss	00000001 _cg44
00813b1c g       *ABS*	00000000 __CTOR_LIST__
01000000 g       *ABS*	00000000 __alt_stack_pointer
00812324 g     F .text	0000007c alt_avalon_timer_sc_init
00812400 g     F .text	00000060 altera_avalon_uart_write_fd
0080f994 g     F .text	00000064 .hidden __clzsi2
00812460 g     F .text	00000050 altera_avalon_uart_close_fd
008111ac g     F .text	00000224 altera_avalon_jtag_uart_write
00802d0c g     F .text	00000004 __sfp_lock_acquire
00809040 g     F .text	000000e4 memchr
00817c07 g     O .bss	00000001 g14
00804ae4 g     F .text	000021f8 ___vfprintf_internal_r
00802fc8 g     F .text	00000310 _free_r
00808f8c g     F .text	00000010 __locale_mb_cur_max
00813968 g     F .text	00000180 __call_exitprocs
00817c80 g     O .bss	00000004 __mlocale_changed
00815e64 g     O .rwdata	00000004 __malloc_sbrk_base
00800244 g     F .text	0000004c _start
00817c94 g     O .bss	00000004 _alt_tick_rate
00817c08 g     O .bss	00000001 g56
00809b48 g     F .text	00000148 __lshift
00817c09 g     O .bss	00000001 VSense
00817c98 g     O .bss	00000004 _alt_nticks
00817c0a g     O .bss	00000001 PRE_g6
00810378 g     F .text	000000fc read
008108cc g     F .text	0000009c alt_sys_init
00817c0b g     O .bss	00000001 g78
00817c0c g     O .bss	00000001 g33
0080452c g     F .text	00000060 _open_r
00813850 g     F .text	00000118 __register_exitproc
00817c0d g     O .bss	00000001 VRP_start
00817c0e g     O .bss	00000001 g35b
00809810 g     F .text	000001f8 __multiply
00810e38 g     F .text	00000068 altera_avalon_jtag_uart_close
008141c8 g       *ABS*	00000000 __ram_rwdata_start
00813b1c g       *ABS*	00000000 __ram_rodata_start
00817e24 g     O .bss	00000028 __malloc_current_mallinfo
0080a05c g     F .text	0000014c __d2b
00810968 g     F .text	00000060 altera_avalon_jtag_uart_read_fd
00817c0f g     O .bss	00000001 g35
00812ff8 g     F .text	000000a4 alt_get_fd
00817c10 g     O .bss	00000001 _cg38
00813504 g     F .text	00000158 alt_busy_sleep
00817c11 g     O .bss	00000001 g15
00806f68 g     F .text	00000054 _close_r
00817c12 g     O .bss	00000001 g90
00817c13 g     O .bss	00000001 _GO
00817c14 g     O .bss	00000001 LRI_start
008137d4 g     F .text	0000007c memcmp
00810a28 g     F .text	00000050 altera_avalon_jtag_uart_close_fd
00817f4c g       *ABS*	00000000 __alt_stack_base
00810a78 g     F .text	00000054 altera_avalon_jtag_uart_ioctl_fd
0080393c g     F .text	000000cc _fwrite_r
00806e14 g     F .text	00000154 __swsetup_r
00800edc g     F .text	00001828 tick
0080dc3c g     F .text	000008e8 .hidden __divdf3
00802bcc g     F .text	00000118 __sfp
00817c15 g     O .bss	00000001 g63
00817c16 g     O .bss	00000001 g20
0080a2c0 g     F .text	00000078 __copybits
00817c17 g     O .bss	00000001 g60
00817bac g     O .bss	00000004 byte
008145ec g     O .rwdata	00000408 __malloc_av_
00802d18 g     F .text	00000004 __sinit_lock_release
0080e77c g     F .text	00000718 .hidden __muldf3
00804910 g     F .text	00000054 __sread
00812ef0 g     F .text	00000108 alt_find_file
00800a0c g     F .text	0000018c AVLEDS
00812cfc g     F .text	000000a4 alt_dev_llist_insert
008100a0 g     F .text	00000024 __malloc_lock
00802e58 g     F .text	00000028 _fprintf_r
008104d8 g     F .text	000000b0 sbrk
00802920 g     F .text	0000005c _fflush_r
0080c120 g     F .text	000000c4 _calloc_r
00800330 g     F .text	00000050 PVARP_ISR
00817c18 g     O .bss	00000001 g21b
008002e0 g     F .text	00000050 AEI_ISR
00802e40 g     F .text	00000018 fopen
00817b80 g       *ABS*	00000000 __bss_start
00817c19 g     O .bss	00000001 g86
00817c1a g     O .bss	00000001 g43
00804404 g     F .text	00000128 memset
00800dc4 g     F .text	00000098 main
00817c90 g     O .bss	00000004 alt_envp
00817c70 g     O .bss	00000004 __malloc_max_total_mem
00817c1b g     O .bss	00000001 PRE_g43
008109c8 g     F .text	00000060 altera_avalon_jtag_uart_write_fd
0080c52c g     F .text	00000018 __swbuf
00817c1c g     O .bss	00000001 PRE_g57
00817c1d g     O .bss	00000001 g36
00812118 g     F .text	00000134 altera_avalon_lcd_16207_init
00817c1e g     O .bss	00000001 g80_e6
00817c1f g     O .bss	00000001 g89
00817c20 g     O .bss	00000001 g46
00804a44 g     F .text	00000008 __sclose
01000000 g       *ABS*	00000000 __alt_heap_limit
00808934 g     F .text	00000014 fclose
00817c21 g     O .bss	00000001 PVARP_start
008071bc g     F .text	00001688 _dtoa_r
00803bf8 g     F .text	0000080c _malloc_r
0080c6a0 g     F .text	00000030 __ascii_wctomb
00815e88 g     O .rwdata	00000004 alt_errno
008037b4 g     F .text	000000c4 _fwalk
00817c22 g     O .bss	00000001 g50
00817c23 g     O .bss	00000001 g89_e2
00817c24 g     O .bss	00000001 g51
0080d1dc g     F .text	00000084 .hidden __divsi3
00802ea4 g     F .text	00000124 _malloc_trim_r
00813b1c g       *ABS*	00000000 __CTOR_END__
00817c25 g     O .bss	00000001 AEI_TO
00817c26 g     O .bss	00000001 PRE_g60
0080a9fc g     F .text	000000dc strcmp
00817c27 g     O .bss	00000001 _cg70
00817c28 g     O .bss	00000001 PRE_g31
00813b1c g       *ABS*	00000000 __flash_rodata_start
00813b1c g       *ABS*	00000000 __DTOR_LIST__
008003d0 g     F .text	00000050 LRI_ISR
00817c29 g     O .bss	00000001 PRE_g48
0080e524 g     F .text	00000088 .hidden __nedf2
00810894 g     F .text	00000038 alt_irq_init
00810474 g     F .text	00000064 alt_release_fd
00817c2a g     O .bss	00000001 g73b
00817c2b g     O .bss	00000001 g13
00813e04 g     O .rodata	00000100 .hidden __clz_tab
00817c7c g     O .bss	00000004 _PathLocale
00817c2c g     O .bss	00000001 g53
00817c2d g     O .bss	00000001 g8
00817c2e g     O .bss	00000001 g57
00813788 g     F .text	00000014 atexit
00817c2f g     O .bss	00000001 AEI_start
00806db4 g     F .text	00000060 _write_r
00817c30 g     O .bss	00000001 g70
00817c31 g     O .bss	00000001 _cg47
00808fbc g     F .text	00000018 setlocale
00817c32 g     O .bss	00000001 g10_e1
00815e60 g     O .rwdata	00000004 _impure_ptr
00817c88 g     O .bss	00000004 alt_argc
00817c33 g     O .bss	00000001 g6
00802704 g     F .text	0000021c __sflush_r
00812e00 g     F .text	00000060 _do_dtors
00808fa8 g     F .text	00000008 __locale_cjk_lang
00817c34 g     O .bss	00000001 g72
008032d8 g     F .text	00000004 _fseek_r
00817c35 g     O .bss	00000001 g81
008046e8 g     F .text	000001d4 __srefill_r
00800020 g       .exceptions	00000000 alt_irq_entry
00817c36 g     O .bss	00000001 PRE_g76
00809eec g     F .text	00000064 __ulp
00802d34 g     F .text	00000018 __fp_unlock_all
00800590 g     F .text	0000003c AVI_Buffer_ISR
0081224c g     F .text	00000060 altera_avalon_lcd_16207_write_fd
00817c37 g     O .bss	00000001 _cg13
00817c38 g     O .bss	00000001 _cg9
00815e74 g     O .rwdata	00000008 alt_fs_list
00817c39 g     O .bss	00000001 g0
00817c3a g     O .bss	00000001 _cg54
00817c3b g     O .bss	00000001 g84_e7
00817c3c g     O .bss	00000001 g75
00817c3d g     O .bss	00000001 g30
00800020 g       *ABS*	00000000 __ram_exceptions_start
00817c3e g     O .bss	00000001 _cg40
00817c3f g     O .bss	00000001 PRE_g15
00808fd4 g     F .text	0000000c localeconv
00817c40 g     O .bss	00000001 PRE_g66
00817c41 g     O .bss	00000001 PRE_g21
00817c42 g     O .bss	00000001 _cg30
00800550 g     F .text	00000040 V_Sense_ISR
00817c43 g     O .bss	00000001 g16
008130d0 g     F .text	00000050 alt_ic_isr_register
00817c44 g     O .bss	00000001 g58
00803a08 g     F .text	00000034 fwrite
00817c45 g     O .bss	00000001 _cg77
00817c46 g     O .bss	00000001 g68
00817c47 g     O .bss	00000001 g25
00815ea4 g       *ABS*	00000000 _edata
008123a0 g     F .text	00000060 altera_avalon_uart_read_fd
00817f4c g       *ABS*	00000000 _end
00817c48 g     O .bss	00000001 g11
0080c1e4 g     F .text	00000164 __fputwc
00800244 g       *ABS*	00000000 __ram_exceptions_end
00810ea0 g     F .text	000000f0 altera_avalon_jtag_uart_ioctl
00817c49 g     O .bss	00000001 g65
00817c4a g     O .bss	00000001 g22
00817c4b g     O .bss	00000001 g28
00817c4c g     O .bss	00000001 g73
00817c4d g     O .bss	00000001 g16b
008131a8 g     F .text	0000008c alt_ic_irq_disable
0080496c g     F .text	0000007c __swrite
00800918 g     F .text	000000f4 ButtonPolling
00815e68 g     O .rwdata	00000004 __malloc_trim_threshold
00808f9c g     F .text	0000000c __locale_msgcharset
0081379c g     F .text	00000038 exit
00803878 g     F .text	000000c4 _fwalk_reent
00809cf0 g     F .text	000001fc __mdiff
00817c4e g     O .bss	00000001 g77
00817c4f g     O .bss	00000001 g32
0080d260 g     F .text	00000074 .hidden __modsi3
00817c50 g     O .bss	00000001 PVARP_TO
00815ea0 g     O .rwdata	00000004 __ctype_ptr__
00817c51 g     O .bss	00000001 PRE_g26
00817c52 g     O .bss	00000001 g88
00817c53 g     O .bss	00000001 g45
01000000 g       *ABS*	00000000 __alt_data_end
00800020 g     F .exceptions	00000000 alt_exception
00800bf4 g     F .text	00000118 uart
008005cc g     F .text	0000003c AEI_Buffer_ISR
00802d10 g     F .text	00000004 __sfp_lock_release
00817c54 g     O .bss	00000001 _cg23
00800000 g       *ABS*	00000000 __alt_mem_sdram
00817c55 g     O .bss	00000001 PRE_g82
00817c56 g     O .bss	00000001 _cg18
00813f46 g     O .rodata	00000101 _ctype_
00812824 g     F .text	00000054 altera_avalon_uart_close
00802d4c g     F .text	000000f4 _fopen_r
00813ae8 g     F .text	00000034 _exit
008006bc g     F .text	0000003c URI_Buffer_ISR
0080f9f8 g     F .text	0000012c alt_alarm_start
00803a3c g     F .text	000001bc __smakebuf_r
00817c57 g     O .bss	00000001 VPace
00804a4c g     F .text	00000098 strlen
00817c58 g     O .bss	00000001 g39
008101e8 g     F .text	00000154 open
00817c59 g     O .bss	00000001 g85_e1
0080e5ac g     F .text	000000dc .hidden __gedf2
00817c5a g     O .bss	00000001 _cg49
00815e70 g     O .rwdata	00000004 __wctomb
008006f8 g     F .text	00000220 TimerConfig
0080abd4 g     F .text	00000018 __sprint_r
0081309c g     F .text	00000034 alt_icache_flush_all
00817c5b g     O .bss	00000001 g29
00817c5c g     O .bss	00000001 _cg4
00817c5d g     O .bss	00000001 g67
00817c5e g     O .bss	00000001 g24
00817c5f g     O .bss	00000001 URI_TO
00800290 g     F .text	00000050 AVI_ISR
00817c60 g     O .bss	00000001 AEI_stop
00800380 g     F .text	00000050 VRP_ISR
00815e9c g     O .rwdata	00000004 alt_priority_mask
00817c61 g     O .bss	00000001 _cg32
00813120 g     F .text	00000088 alt_ic_irq_enable
00806cdc g     F .text	0000001c __vfprintf_internal
008128b4 g     F .text	000001dc altera_avalon_uart_read
0080c6d0 g     F .text	0000005c _wctomb_r
00817c62 g     O .bss	00000001 URI_start
0080ee94 g     F .text	000008fc .hidden __subdf3
00817c63 g     O .bss	00000001 _cg67
00817c64 g     O .bss	00000001 g64_e5
00817c65 g     O .bss	00000001 URI_stop
00817c66 g     O .bss	00000001 _cg36
00809724 g     F .text	000000b0 __lo0bits
00817c67 g     O .bss	00000001 g10
00815e90 g     O .rwdata	00000008 alt_alarm_list
00817c68 g     O .bss	00000001 _cg27
00812da0 g     F .text	00000060 _do_ctors
0080c5e0 g     F .text	000000c0 wcrtomb
00817c69 g     O .bss	00000001 g69
00817c6a g     O .bss	00000001 g26
0080fb60 g     F .text	000000d0 close
0080fe90 g     F .text	00000084 alt_load
0080c36c g     F .text	00000080 fputwc
00802d14 g     F .text	00000004 __sinit_lock_acquire
00809498 g     F .text	00000120 __multadd
00809470 g     F .text	00000028 _Bfree
00817c6b g     O .bss	00000001 g74



Disassembly of section .entry:

00800000 <__reset>:
#if NIOS2_ICACHE_SIZE > 0 && defined(ALT_ALLOW_CODE_AT_RESET) && (!defined(ALT_SIM_OPTIMIZE) || defined(NIOS2_ECC_PRESENT))
    /* Assume the instruction cache size is always a power of two. */
#if NIOS2_ICACHE_SIZE > 0x8000
    movhi r2, %hi(NIOS2_ICACHE_SIZE)
#else
    movui r2, NIOS2_ICACHE_SIZE
  800000:	00840014 	movui	r2,4096
#endif

0:
    initi r2
  800004:	1001483a 	initi	r2
    addi r2, r2, -NIOS2_ICACHE_LINE_SIZE
  800008:	10bff804 	addi	r2,r2,-32
    bgt r2, zero, 0b
  80000c:	00bffd16 	blt	zero,r2,800004 <__alt_mem_onchip_mem+0xff780004>
 * Jump to the _start entry point in the .text section if reset code
 * is allowed or if optimizing for RTL simulation.
 */
#if defined(ALT_ALLOW_CODE_AT_RESET) || defined(ALT_SIM_OPTIMIZE)
    /* Jump to the _start entry point in the .text section. */
    movhi r1, %hi(_start)
  800010:	00402034 	movhi	at,128
    ori r1, r1, %lo(_start)
  800014:	08409114 	ori	at,at,580
    jmp r1
  800018:	0800683a 	jmp	at
  80001c:	00000000 	call	0 <__alt_mem_sdram-0x800000>

Disassembly of section .exceptions:

00800020 <alt_exception>:

#else /* ALT_EXCEPTION_STACK disabled */
        /* 
         * Reserve space on normal stack for registers about to be pushed.
         */
        addi  sp, sp, -76
  800020:	deffed04 	addi	sp,sp,-76
         * documentation for details).
         *
         * Leave a gap in the stack frame at 4(sp) for the muldiv handler to
         * store zero into.
         */
        stw   ra,  0(sp)
  800024:	dfc00015 	stw	ra,0(sp)
        stw   r1,   8(sp)
  800028:	d8400215 	stw	at,8(sp)
        stw   r2,  12(sp)
  80002c:	d8800315 	stw	r2,12(sp)
        stw   r3,  16(sp)
  800030:	d8c00415 	stw	r3,16(sp)
        stw   r4,  20(sp)
  800034:	d9000515 	stw	r4,20(sp)
        stw   r5,  24(sp)
  800038:	d9400615 	stw	r5,24(sp)
        stw   r6,  28(sp)
  80003c:	d9800715 	stw	r6,28(sp)
        stw   r7,  32(sp)
  800040:	d9c00815 	stw	r7,32(sp)
        rdctl r5, estatus   /* Read early to avoid usage stall */
  800044:	000b307a 	rdctl	r5,estatus
        stw   r8,  36(sp)
  800048:	da000915 	stw	r8,36(sp)
        stw   r9,  40(sp)
  80004c:	da400a15 	stw	r9,40(sp)
        stw   r10, 44(sp)
  800050:	da800b15 	stw	r10,44(sp)
        stw   r11, 48(sp)
  800054:	dac00c15 	stw	r11,48(sp)
        stw   r12, 52(sp)
  800058:	db000d15 	stw	r12,52(sp)
        stw   r13, 56(sp)
  80005c:	db400e15 	stw	r13,56(sp)
        stw   r14, 60(sp)
  800060:	db800f15 	stw	r14,60(sp)
        stw   r15, 64(sp)
  800064:	dbc01015 	stw	r15,64(sp)
        /*
         * ea-4 contains the address of the instruction being executed
         * when the exception occured. For interrupt exceptions, we will
         * will be re-issue the isntruction. Store it in 72(sp)
         */
        stw   r5,  68(sp)  /* estatus */
  800068:	d9401115 	stw	r5,68(sp)
        addi  r15, ea, -4  /* instruction that caused exception */
  80006c:	ebffff04 	addi	r15,ea,-4
        stw   r15,  72(sp)
  800070:	dbc01215 	stw	r15,72(sp)
#else
        /*
         * Test to see if the exception was a software exception or caused 
         * by an external interrupt, and vector accordingly.
         */
        rdctl r4, ipending
  800074:	0009313a 	rdctl	r4,ipending
        andi  r2, r5, 1
  800078:	2880004c 	andi	r2,r5,1
        beq   r2, zero, .Lnot_irq
  80007c:	10000326 	beq	r2,zero,80008c <alt_exception+0x6c>
        beq   r4, zero, .Lnot_irq
  800080:	20000226 	beq	r4,zero,80008c <alt_exception+0x6c>
        /*
         * Now that all necessary registers have been preserved, call 
         * alt_irq_handler() to process the interrupts.
         */

        call alt_irq_handler
  800084:	08000fc0 	call	8000fc <alt_irq_handler>

        .section .exceptions.irqreturn, "xa"

        br    .Lexception_exit
  800088:	00000706 	br	8000a8 <alt_exception+0x88>
         * upon completion, so we write ea (address of instruction *after*
         * the one where the exception occured) into 72(sp). The actual
         * instruction that caused the exception is written in r2, which these
         * handlers will utilize.
         */
        stw ea, 72(sp) /* EA is PC+4 so will skip over instruction causing exception */
  80008c:	df401215 	stw	ea,72(sp)
.Lunknown_16bit:
        addi.n r4, r4, 2 /* Need PC+2 to skip over instruction causing exception */
        stw r4, 72(sp)

#else /* CDX is not Enabled and all instructions are 32bits */
        ldw r2, -4(ea) /* Instruction value that caused exception */
  800090:	e8bfff17 	ldw	r2,-4(ea)
         * debugger is present) or go into an infinite loop since the
         * handling behavior is undefined; in that case we will not return here.
         */

        /* Load exception-causing address as first argument (r4) */
        addi   r4, ea, -4
  800094:	e93fff04 	addi	r4,ea,-4

        /* Call the instruction-exception entry */
        call   alt_instruction_exception_entry
  800098:	08001d00 	call	8001d0 <alt_instruction_exception_entry>
         * instruction
         *
         * Return code was 0: Skip. The instruction after the exception is
         * already stored in 72(sp).
         */
        bne   r2, r0, .Lexception_exit
  80009c:	1000021e 	bne	r2,zero,8000a8 <alt_exception+0x88>

        /*
         * Otherwise, modify 72(sp) to re-issue the instruction that caused the
         * exception.
         */
        addi  r15, ea, -4  /* instruction that caused exception */
  8000a0:	ebffff04 	addi	r15,ea,-4
        stw   r15,  72(sp)
  8000a4:	dbc01215 	stw	r15,72(sp)
        /* 
         * Restore the saved registers, so that all general purpose registers 
         * have been restored to their state at the time the interrupt occured.
         */

        ldw   r5,  68(sp)
  8000a8:	d9401117 	ldw	r5,68(sp)
        ldw   ea,  72(sp)  /* This becomes the PC once eret is executed */
  8000ac:	df401217 	ldw	ea,72(sp)
        ldw   ra,   0(sp)
  8000b0:	dfc00017 	ldw	ra,0(sp)

        wrctl estatus, r5
  8000b4:	2801707a 	wrctl	estatus,r5

        ldw   r1,   8(sp)
  8000b8:	d8400217 	ldw	at,8(sp)
        ldw   r2,  12(sp)
  8000bc:	d8800317 	ldw	r2,12(sp)
        ldw   r3,  16(sp)
  8000c0:	d8c00417 	ldw	r3,16(sp)
        ldw   r4,  20(sp)
  8000c4:	d9000517 	ldw	r4,20(sp)
        ldw   r5,  24(sp)
  8000c8:	d9400617 	ldw	r5,24(sp)
        ldw   r6,  28(sp)
  8000cc:	d9800717 	ldw	r6,28(sp)
        ldw   r7,  32(sp)
  8000d0:	d9c00817 	ldw	r7,32(sp)

#if defined(ALT_EXCEPTION_STACK) && defined(ALT_STACK_CHECK)
        ldw   et, %gprel(alt_exception_old_stack_limit)(gp)
#endif

        ldw   r8,  36(sp)
  8000d4:	da000917 	ldw	r8,36(sp)
        ldw   r9,  40(sp)
  8000d8:	da400a17 	ldw	r9,40(sp)
        ldw   r10, 44(sp)
  8000dc:	da800b17 	ldw	r10,44(sp)
        ldw   r11, 48(sp)
  8000e0:	dac00c17 	ldw	r11,48(sp)
        ldw   r12, 52(sp)
  8000e4:	db000d17 	ldw	r12,52(sp)
        ldw   r13, 56(sp)
  8000e8:	db400e17 	ldw	r13,56(sp)
        ldw   r14, 60(sp)
  8000ec:	db800f17 	ldw	r14,60(sp)
        ldw   r15, 64(sp)
  8000f0:	dbc01017 	ldw	r15,64(sp)
        stw   et, %gprel(alt_stack_limit_value)(gp)
        stw   zero, %gprel(alt_exception_old_stack_limit)(gp)
#endif /* ALT_STACK_CHECK */
        ldw   sp,  76(sp)
#else /* ALT_EXCEPTION_STACK disabled */
        addi  sp, sp, 76
  8000f4:	dec01304 	addi	sp,sp,76

        /*
         * Return to the interrupted instruction.
         */

        eret
  8000f8:	ef80083a 	eret

008000fc <alt_irq_handler>:
 * instruction is present if the macro ALT_CI_INTERRUPT_VECTOR defined.
 */

void alt_irq_handler (void) __attribute__ ((section (".exceptions")));
void alt_irq_handler (void)
{
  8000fc:	defff904 	addi	sp,sp,-28
  800100:	dfc00615 	stw	ra,24(sp)
  800104:	df000515 	stw	fp,20(sp)
  800108:	df000504 	addi	fp,sp,20
  
  /*
   * Notify the operating system that we are at interrupt level.
   */ 
  
  ALT_OS_INT_ENTER();
  80010c:	0001883a 	nop
#ifndef NIOS2_EIC_PRESENT
static ALT_INLINE alt_u32 ALT_ALWAYS_INLINE alt_irq_pending (void)
{
  alt_u32 active;

  NIOS2_READ_IPENDING (active);
  800110:	0005313a 	rdctl	r2,ipending
  800114:	e0bffe15 	stw	r2,-8(fp)

  return active;
  800118:	e0bffe17 	ldw	r2,-8(fp)
   * Consider the case where the high priority interupt is asserted during
   * the interrupt entry sequence for a lower priority interrupt to see why
   * this is the case.
   */

  active = alt_irq_pending ();
  80011c:	e0bffb15 	stw	r2,-20(fp)

  do
  {
    i = 0;
  800120:	e03ffd15 	stw	zero,-12(fp)
    mask = 1;
  800124:	00800044 	movi	r2,1
  800128:	e0bffc15 	stw	r2,-16(fp)
     * called to clear the interrupt condition.
     */

    do
    {
      if (active & mask)
  80012c:	e0fffb17 	ldw	r3,-20(fp)
  800130:	e0bffc17 	ldw	r2,-16(fp)
  800134:	1884703a 	and	r2,r3,r2
  800138:	10001426 	beq	r2,zero,80018c <alt_irq_handler+0x90>
      { 
#ifdef ALT_ENHANCED_INTERRUPT_API_PRESENT
        alt_irq[i].handler(alt_irq[i].context); 
  80013c:	00802074 	movhi	r2,129
  800140:	109f9304 	addi	r2,r2,32332
  800144:	e0fffd17 	ldw	r3,-12(fp)
  800148:	180690fa 	slli	r3,r3,3
  80014c:	10c5883a 	add	r2,r2,r3
  800150:	10c00017 	ldw	r3,0(r2)
  800154:	00802074 	movhi	r2,129
  800158:	109f9304 	addi	r2,r2,32332
  80015c:	e13ffd17 	ldw	r4,-12(fp)
  800160:	200890fa 	slli	r4,r4,3
  800164:	1105883a 	add	r2,r2,r4
  800168:	10800104 	addi	r2,r2,4
  80016c:	10800017 	ldw	r2,0(r2)
  800170:	1009883a 	mov	r4,r2
  800174:	183ee83a 	callr	r3
#else
        alt_irq[i].handler(alt_irq[i].context, i); 
#endif
        break;
  800178:	0001883a 	nop
#ifndef NIOS2_EIC_PRESENT
static ALT_INLINE alt_u32 ALT_ALWAYS_INLINE alt_irq_pending (void)
{
  alt_u32 active;

  NIOS2_READ_IPENDING (active);
  80017c:	0005313a 	rdctl	r2,ipending
  800180:	e0bfff15 	stw	r2,-4(fp)

  return active;
  800184:	e0bfff17 	ldw	r2,-4(fp)
  800188:	00000706 	br	8001a8 <alt_irq_handler+0xac>
      }
      mask <<= 1;
  80018c:	e0bffc17 	ldw	r2,-16(fp)
  800190:	1085883a 	add	r2,r2,r2
  800194:	e0bffc15 	stw	r2,-16(fp)
      i++;
  800198:	e0bffd17 	ldw	r2,-12(fp)
  80019c:	10800044 	addi	r2,r2,1
  8001a0:	e0bffd15 	stw	r2,-12(fp)

    } while (1);
  8001a4:	003fe106 	br	80012c <__alt_mem_onchip_mem+0xff78012c>

    active = alt_irq_pending ();
  8001a8:	e0bffb15 	stw	r2,-20(fp)
    
  } while (active);
  8001ac:	e0bffb17 	ldw	r2,-20(fp)
  8001b0:	103fdb1e 	bne	r2,zero,800120 <__alt_mem_onchip_mem+0xff780120>

  /*
   * Notify the operating system that interrupt processing is complete.
   */ 

  ALT_OS_INT_EXIT();
  8001b4:	0001883a 	nop
}
  8001b8:	0001883a 	nop
  8001bc:	e037883a 	mov	sp,fp
  8001c0:	dfc00117 	ldw	ra,4(sp)
  8001c4:	df000017 	ldw	fp,0(sp)
  8001c8:	dec00204 	addi	sp,sp,8
  8001cc:	f800283a 	ret

008001d0 <alt_instruction_exception_entry>:
 * that handler if it has been registered. Absent a handler, it will
 * break break or hang as discussed below.
 */
int 
alt_instruction_exception_entry (alt_u32 exception_pc)
{
  8001d0:	defffb04 	addi	sp,sp,-20
  8001d4:	dfc00415 	stw	ra,16(sp)
  8001d8:	df000315 	stw	fp,12(sp)
  8001dc:	df000304 	addi	fp,sp,12
  8001e0:	e13fff15 	stw	r4,-4(fp)
 * NIOS2_EXCEPTION_CAUSE_NOT_PRESENT. Your handling routine should
 * check the validity of the cause argument before proceeding.
 */
#ifdef NIOS2_HAS_EXTRA_EXCEPTION_INFO
  /* Get exception cause & "badaddr" */
  NIOS2_READ_EXCEPTION(cause);
  8001e4:	000531fa 	rdctl	r2,exception
  8001e8:	e0bffd15 	stw	r2,-12(fp)
  cause = ( (cause & NIOS2_EXCEPTION_REG_CAUSE_MASK) >>
  8001ec:	e0bffd17 	ldw	r2,-12(fp)
  8001f0:	10801f0c 	andi	r2,r2,124
  8001f4:	1004d0ba 	srli	r2,r2,2
  8001f8:	e0bffd15 	stw	r2,-12(fp)
              NIOS2_EXCEPTION_REG_CAUSE_OFST );

  NIOS2_READ_BADADDR(badaddr);
  8001fc:	0005333a 	rdctl	r2,badaddr
  800200:	e0bffe15 	stw	r2,-8(fp)
#else
  cause = NIOS2_EXCEPTION_CAUSE_NOT_PRESENT;
  badaddr = 0;
#endif /* NIOS2_HAS_EXTRA_EXCEPTION_INFO */

  if(alt_instruction_exception_handler) {
  800204:	d0a79217 	ldw	r2,-25016(gp)
  800208:	10000726 	beq	r2,zero,800228 <alt_instruction_exception_entry+0x58>
     * Call handler. Its return value indicates whether the exception-causing
     * instruction should be re-issued. The code that called us,
     * alt_eceptions_entry.S, will look at this value and adjust the ea
     * register as necessary
     */
    return alt_instruction_exception_handler(cause, exception_pc, badaddr);
  80020c:	d0a79217 	ldw	r2,-25016(gp)
  800210:	e0fffd17 	ldw	r3,-12(fp)
  800214:	e1bffe17 	ldw	r6,-8(fp)
  800218:	e17fff17 	ldw	r5,-4(fp)
  80021c:	1809883a 	mov	r4,r3
  800220:	103ee83a 	callr	r2
  800224:	00000206 	br	800230 <alt_instruction_exception_entry+0x60>
   *    (a peripheral which negates its interrupt output before its
   *    interrupt handler has been executed will cause spurious interrupts)
   */
  else {
#ifdef NIOS2_HAS_DEBUG_STUB
    NIOS2_BREAK();
  800228:	003da03a 	break	0
      ;
#endif /* NIOS2_HAS_DEBUG_STUB */
  }

  /* We should not get here. Remove compiler warning. */
  return NIOS2_EXCEPTION_RETURN_REISSUE_INST;
  80022c:	0005883a 	mov	r2,zero
}
  800230:	e037883a 	mov	sp,fp
  800234:	dfc00117 	ldw	ra,4(sp)
  800238:	df000017 	ldw	fp,0(sp)
  80023c:	dec00204 	addi	sp,sp,8
  800240:	f800283a 	ret

Disassembly of section .text:

00800244 <_start>:

    /* Assume the data cache size is always a power of two. */
#if NIOS2_DCACHE_SIZE > 0x8000
    movhi r2, %hi(NIOS2_DCACHE_SIZE)
#else
    movui r2, NIOS2_DCACHE_SIZE
  800244:	00820014 	movui	r2,2048
#endif

0:
    initd 0(r2)
  800248:	10000033 	initd	0(r2)
#ifdef NIOS2_ECC_PRESENT
    addi r2, r2, -4
#else
    addi r2, r2, -NIOS2_DCACHE_LINE_SIZE
  80024c:	10bff804 	addi	r2,r2,-32
#endif
    bgt r2, zero, 0b
  800250:	00bffd16 	blt	zero,r2,800248 <__alt_mem_onchip_mem+0xff780248>

    /*
     * Now that the caches are initialized, set up the stack pointer and global pointer.
     * The values provided by the linker are assumed to be correctly aligned.
     */
    movhi sp, %hi(__alt_stack_pointer)
  800254:	06c04034 	movhi	sp,256
    ori sp, sp, %lo(__alt_stack_pointer)
  800258:	dec00014 	ori	sp,sp,0
    movhi gp, %hi(_gp)
  80025c:	06802074 	movhi	gp,129
    ori gp, gp, %lo(_gp)
  800260:	d6b79614 	ori	gp,gp,56920
 */
#ifndef ALT_SIM_OPTIMIZE
    /* Log that the BSS is about to be cleared. */
    ALT_LOG_PUTS(alt_log_msg_bss)

    movhi r2, %hi(__bss_start)
  800264:	00802074 	movhi	r2,129
    ori r2, r2, %lo(__bss_start)
  800268:	109ee014 	ori	r2,r2,31616

    movhi r3, %hi(__bss_end)
  80026c:	00c02074 	movhi	r3,129
    ori r3, r3, %lo(__bss_end)
  800270:	18dfd314 	ori	r3,r3,32588

    beq r2, r3, 1f
  800274:	10c00326 	beq	r2,r3,800284 <_start+0x40>

0:
    stw zero, (r2)
  800278:	10000015 	stw	zero,0(r2)
    addi r2, r2, 4
  80027c:	10800104 	addi	r2,r2,4
    bltu r2, r3, 0b
  800280:	10fffd36 	bltu	r2,r3,800278 <__alt_mem_onchip_mem+0xff780278>
     * section aren't defined until alt_load() has been called).
     */
    mov   et, zero
#endif

    call alt_load
  800284:	080fe900 	call	80fe90 <alt_load>

    /* Log that alt_main is about to be called. */
    ALT_LOG_PUTS(alt_log_msg_alt_main)

    /* Call the C entry point. It should never return. */
    call alt_main
  800288:	08100240 	call	810024 <alt_main>

0080028c <alt_after_alt_main>:

    /* Wait in infinite loop in case alt_main does return. */
alt_after_alt_main:
    br alt_after_alt_main
  80028c:	003fff06 	br	80028c <__alt_mem_onchip_mem+0xff78028c>

00800290 <AVI_ISR>:
#include "main.h"

// Timer interrupts that timeout on pre-defined values for each signal
alt_u32 AVI_ISR(void* context) {
  800290:	defffd04 	addi	sp,sp,-12
  800294:	dfc00215 	stw	ra,8(sp)
  800298:	df000115 	stw	fp,4(sp)
  80029c:	df000104 	addi	fp,sp,4
  8002a0:	e13fff15 	stw	r4,-4(fp)
	AVI_TO = 1;
  8002a4:	00800044 	movi	r2,1
  8002a8:	d0a75685 	stb	r2,-25254(gp)
	alt_alarm_start(&AVI_Buffer_Timer, SIGNAL_BUFFER, AVI_Buffer_ISR, NULL);
  8002ac:	000f883a 	mov	r7,zero
  8002b0:	01802034 	movhi	r6,128
  8002b4:	31816404 	addi	r6,r6,1424
  8002b8:	01400044 	movi	r5,1
  8002bc:	01002074 	movhi	r4,129
  8002c0:	211f6504 	addi	r4,r4,32148
  8002c4:	080f9f80 	call	80f9f8 <alt_alarm_start>
	return 0;
  8002c8:	0005883a 	mov	r2,zero
}
  8002cc:	e037883a 	mov	sp,fp
  8002d0:	dfc00117 	ldw	ra,4(sp)
  8002d4:	df000017 	ldw	fp,0(sp)
  8002d8:	dec00204 	addi	sp,sp,8
  8002dc:	f800283a 	ret

008002e0 <AEI_ISR>:

alt_u32 AEI_ISR(void* context) {
  8002e0:	defffd04 	addi	sp,sp,-12
  8002e4:	dfc00215 	stw	ra,8(sp)
  8002e8:	df000115 	stw	fp,4(sp)
  8002ec:	df000104 	addi	fp,sp,4
  8002f0:	e13fff15 	stw	r4,-4(fp)
	AEI_TO = 1;
  8002f4:	00800044 	movi	r2,1
  8002f8:	d0a77345 	stb	r2,-25139(gp)
	alt_alarm_start(&AEI_Buffer_Timer, SIGNAL_BUFFER, AEI_Buffer_ISR, NULL);
  8002fc:	000f883a 	mov	r7,zero
  800300:	01802034 	movhi	r6,128
  800304:	31817304 	addi	r6,r6,1484
  800308:	01400044 	movi	r5,1
  80030c:	01002074 	movhi	r4,129
  800310:	211f6b04 	addi	r4,r4,32172
  800314:	080f9f80 	call	80f9f8 <alt_alarm_start>
	return 0;
  800318:	0005883a 	mov	r2,zero
}
  80031c:	e037883a 	mov	sp,fp
  800320:	dfc00117 	ldw	ra,4(sp)
  800324:	df000017 	ldw	fp,0(sp)
  800328:	dec00204 	addi	sp,sp,8
  80032c:	f800283a 	ret

00800330 <PVARP_ISR>:

alt_u32 PVARP_ISR(void* context) {
  800330:	defffd04 	addi	sp,sp,-12
  800334:	dfc00215 	stw	ra,8(sp)
  800338:	df000115 	stw	fp,4(sp)
  80033c:	df000104 	addi	fp,sp,4
  800340:	e13fff15 	stw	r4,-4(fp)
	PVARP_TO = 1;
  800344:	00800044 	movi	r2,1
  800348:	d0a77e05 	stb	r2,-25096(gp)
	alt_alarm_start(&PVARP_Buffer_Timer, SIGNAL_BUFFER, PVARP_Buffer_ISR, NULL);
  80034c:	000f883a 	mov	r7,zero
  800350:	01802034 	movhi	r6,128
  800354:	31818204 	addi	r6,r6,1544
  800358:	01400044 	movi	r5,1
  80035c:	01002074 	movhi	r4,129
  800360:	211f7104 	addi	r4,r4,32196
  800364:	080f9f80 	call	80f9f8 <alt_alarm_start>
	return 0;
  800368:	0005883a 	mov	r2,zero
}
  80036c:	e037883a 	mov	sp,fp
  800370:	dfc00117 	ldw	ra,4(sp)
  800374:	df000017 	ldw	fp,0(sp)
  800378:	dec00204 	addi	sp,sp,8
  80037c:	f800283a 	ret

00800380 <VRP_ISR>:

alt_u32 VRP_ISR(void* context) {
  800380:	defffd04 	addi	sp,sp,-12
  800384:	dfc00215 	stw	ra,8(sp)
  800388:	df000115 	stw	fp,4(sp)
  80038c:	df000104 	addi	fp,sp,4
  800390:	e13fff15 	stw	r4,-4(fp)
	VRP_TO = 1;
  800394:	00800044 	movi	r2,1
  800398:	d0a757c5 	stb	r2,-25249(gp)
	alt_alarm_start(&VRP_Buffer_Timer, SIGNAL_BUFFER, VRP_Buffer_ISR, NULL);
  80039c:	000f883a 	mov	r7,zero
  8003a0:	01802034 	movhi	r6,128
  8003a4:	31819104 	addi	r6,r6,1604
  8003a8:	01400044 	movi	r5,1
  8003ac:	01002074 	movhi	r4,129
  8003b0:	211f7704 	addi	r4,r4,32220
  8003b4:	080f9f80 	call	80f9f8 <alt_alarm_start>
	return 0;
  8003b8:	0005883a 	mov	r2,zero
}
  8003bc:	e037883a 	mov	sp,fp
  8003c0:	dfc00117 	ldw	ra,4(sp)
  8003c4:	df000017 	ldw	fp,0(sp)
  8003c8:	dec00204 	addi	sp,sp,8
  8003cc:	f800283a 	ret

008003d0 <LRI_ISR>:

alt_u32 LRI_ISR(void* context) {
  8003d0:	defffd04 	addi	sp,sp,-12
  8003d4:	dfc00215 	stw	ra,8(sp)
  8003d8:	df000115 	stw	fp,4(sp)
  8003dc:	df000104 	addi	fp,sp,4
  8003e0:	e13fff15 	stw	r4,-4(fp)
	LRI_TO = 1;
  8003e4:	00800044 	movi	r2,1
  8003e8:	d0a76005 	stb	r2,-25216(gp)
	alt_alarm_start(&LRI_Buffer_Timer, SIGNAL_BUFFER, LRI_Buffer_ISR, NULL);
  8003ec:	000f883a 	mov	r7,zero
  8003f0:	01802034 	movhi	r6,128
  8003f4:	3181a004 	addi	r6,r6,1664
  8003f8:	01400044 	movi	r5,1
  8003fc:	01002074 	movhi	r4,129
  800400:	211f7d04 	addi	r4,r4,32244
  800404:	080f9f80 	call	80f9f8 <alt_alarm_start>
	return 0;
  800408:	0005883a 	mov	r2,zero
}
  80040c:	e037883a 	mov	sp,fp
  800410:	dfc00117 	ldw	ra,4(sp)
  800414:	df000017 	ldw	fp,0(sp)
  800418:	dec00204 	addi	sp,sp,8
  80041c:	f800283a 	ret

00800420 <URI_ISR>:

alt_u32 URI_ISR(void* context) {
  800420:	defffd04 	addi	sp,sp,-12
  800424:	dfc00215 	stw	ra,8(sp)
  800428:	df000115 	stw	fp,4(sp)
  80042c:	df000104 	addi	fp,sp,4
  800430:	e13fff15 	stw	r4,-4(fp)
	URI_TO = 1;
  800434:	00800044 	movi	r2,1
  800438:	d0a781c5 	stb	r2,-25081(gp)
	alt_alarm_start(&URI_Buffer_Timer, SIGNAL_BUFFER, URI_Buffer_ISR, NULL);
  80043c:	000f883a 	mov	r7,zero
  800440:	01802034 	movhi	r6,128
  800444:	3181af04 	addi	r6,r6,1724
  800448:	01400044 	movi	r5,1
  80044c:	01002074 	movhi	r4,129
  800450:	211f8304 	addi	r4,r4,32268
  800454:	080f9f80 	call	80f9f8 <alt_alarm_start>
	return 0;
  800458:	0005883a 	mov	r2,zero
}
  80045c:	e037883a 	mov	sp,fp
  800460:	dfc00117 	ldw	ra,4(sp)
  800464:	df000017 	ldw	fp,0(sp)
  800468:	dec00204 	addi	sp,sp,8
  80046c:	f800283a 	ret

00800470 <LED_Atrial_ISR>:

// LED timers to make LEDs stay on for a length of time
alt_u32 LED_Atrial_ISR(void* context) {
  800470:	defffd04 	addi	sp,sp,-12
  800474:	dfc00215 	stw	ra,8(sp)
  800478:	df000115 	stw	fp,4(sp)
  80047c:	df000104 	addi	fp,sp,4
  800480:	e13fff15 	stw	r4,-4(fp)
	printf("%d", mode);
  800484:	d0a74a17 	ldw	r2,-25304(gp)
  800488:	100b883a 	mov	r5,r2
  80048c:	01002074 	movhi	r4,129
  800490:	210ec704 	addi	r4,r4,15132
  800494:	08045bc0 	call	8045bc <printf>
	printf("LED0\n");
  800498:	01002074 	movhi	r4,129
  80049c:	210ec804 	addi	r4,r4,15136
  8004a0:	08046b80 	call	8046b8 <puts>
	LEDAPace = 0;
  8004a4:	d0275015 	stw	zero,-25280(gp)
	return 0;
  8004a8:	0005883a 	mov	r2,zero
}
  8004ac:	e037883a 	mov	sp,fp
  8004b0:	dfc00117 	ldw	ra,4(sp)
  8004b4:	df000017 	ldw	fp,0(sp)
  8004b8:	dec00204 	addi	sp,sp,8
  8004bc:	f800283a 	ret

008004c0 <LED_Ventricular_ISR>:

alt_u32 LED_Ventricular_ISR(void* context) {
  8004c0:	defffd04 	addi	sp,sp,-12
  8004c4:	dfc00215 	stw	ra,8(sp)
  8004c8:	df000115 	stw	fp,4(sp)
  8004cc:	df000104 	addi	fp,sp,4
  8004d0:	e13fff15 	stw	r4,-4(fp)
	printf("%d", mode);
  8004d4:	d0a74a17 	ldw	r2,-25304(gp)
  8004d8:	100b883a 	mov	r5,r2
  8004dc:	01002074 	movhi	r4,129
  8004e0:	210ec704 	addi	r4,r4,15132
  8004e4:	08045bc0 	call	8045bc <printf>
	printf("LED1\n");
  8004e8:	01002074 	movhi	r4,129
  8004ec:	210eca04 	addi	r4,r4,15144
  8004f0:	08046b80 	call	8046b8 <puts>
	LEDVPace = 0;
  8004f4:	d0274f15 	stw	zero,-25284(gp)
	return 0;
  8004f8:	0005883a 	mov	r2,zero
}
  8004fc:	e037883a 	mov	sp,fp
  800500:	dfc00117 	ldw	ra,4(sp)
  800504:	df000017 	ldw	fp,0(sp)
  800508:	dec00204 	addi	sp,sp,8
  80050c:	f800283a 	ret

00800510 <A_Sense_ISR>:

// Timers that set the signal back to zero to prevent signal propagation through ticks in SCCharts.
alt_u32 A_Sense_ISR(void* context) {
  800510:	defffd04 	addi	sp,sp,-12
  800514:	dfc00215 	stw	ra,8(sp)
  800518:	df000115 	stw	fp,4(sp)
  80051c:	df000104 	addi	fp,sp,4
  800520:	e13fff15 	stw	r4,-4(fp)
	printf("A_Sense_Timer\n");
  800524:	01002074 	movhi	r4,129
  800528:	210ecc04 	addi	r4,r4,15152
  80052c:	08046b80 	call	8046b8 <puts>
	ASense = 0;
  800530:	d0276405 	stb	zero,-25200(gp)
	Flag = 0;
  800534:	d0274c15 	stw	zero,-25296(gp)
	return 0;
  800538:	0005883a 	mov	r2,zero
}
  80053c:	e037883a 	mov	sp,fp
  800540:	dfc00117 	ldw	ra,4(sp)
  800544:	df000017 	ldw	fp,0(sp)
  800548:	dec00204 	addi	sp,sp,8
  80054c:	f800283a 	ret

00800550 <V_Sense_ISR>:

alt_u32 V_Sense_ISR(void* context) {
  800550:	defffd04 	addi	sp,sp,-12
  800554:	dfc00215 	stw	ra,8(sp)
  800558:	df000115 	stw	fp,4(sp)
  80055c:	df000104 	addi	fp,sp,4
  800560:	e13fff15 	stw	r4,-4(fp)
	printf("V_Sense_Timer\n");
  800564:	01002074 	movhi	r4,129
  800568:	210ed004 	addi	r4,r4,15168
  80056c:	08046b80 	call	8046b8 <puts>
	VSense = 0;
  800570:	d0276c45 	stb	zero,-25167(gp)
	Flag = 0;
  800574:	d0274c15 	stw	zero,-25296(gp)
	return 0;
  800578:	0005883a 	mov	r2,zero
}
  80057c:	e037883a 	mov	sp,fp
  800580:	dfc00117 	ldw	ra,4(sp)
  800584:	df000017 	ldw	fp,0(sp)
  800588:	dec00204 	addi	sp,sp,8
  80058c:	f800283a 	ret

00800590 <AVI_Buffer_ISR>:

alt_u32 AVI_Buffer_ISR(void* context) {
  800590:	defffd04 	addi	sp,sp,-12
  800594:	dfc00215 	stw	ra,8(sp)
  800598:	df000115 	stw	fp,4(sp)
  80059c:	df000104 	addi	fp,sp,4
  8005a0:	e13fff15 	stw	r4,-4(fp)
	printf("AVI_Buffer_ISR\n");
  8005a4:	01002074 	movhi	r4,129
  8005a8:	210ed404 	addi	r4,r4,15184
  8005ac:	08046b80 	call	8046b8 <puts>
	AVI_TO = 0;
  8005b0:	d0275685 	stb	zero,-25254(gp)
	return 0;
  8005b4:	0005883a 	mov	r2,zero
}
  8005b8:	e037883a 	mov	sp,fp
  8005bc:	dfc00117 	ldw	ra,4(sp)
  8005c0:	df000017 	ldw	fp,0(sp)
  8005c4:	dec00204 	addi	sp,sp,8
  8005c8:	f800283a 	ret

008005cc <AEI_Buffer_ISR>:

alt_u32 AEI_Buffer_ISR(void* context) {
  8005cc:	defffd04 	addi	sp,sp,-12
  8005d0:	dfc00215 	stw	ra,8(sp)
  8005d4:	df000115 	stw	fp,4(sp)
  8005d8:	df000104 	addi	fp,sp,4
  8005dc:	e13fff15 	stw	r4,-4(fp)
	printf("AEI_Buffer_ISR\n");
  8005e0:	01002074 	movhi	r4,129
  8005e4:	210ed804 	addi	r4,r4,15200
  8005e8:	08046b80 	call	8046b8 <puts>
	AEI_TO = 0;
  8005ec:	d0277345 	stb	zero,-25139(gp)
	return 0;
  8005f0:	0005883a 	mov	r2,zero
}
  8005f4:	e037883a 	mov	sp,fp
  8005f8:	dfc00117 	ldw	ra,4(sp)
  8005fc:	df000017 	ldw	fp,0(sp)
  800600:	dec00204 	addi	sp,sp,8
  800604:	f800283a 	ret

00800608 <PVARP_Buffer_ISR>:

alt_u32 PVARP_Buffer_ISR(void* context) {
  800608:	defffd04 	addi	sp,sp,-12
  80060c:	dfc00215 	stw	ra,8(sp)
  800610:	df000115 	stw	fp,4(sp)
  800614:	df000104 	addi	fp,sp,4
  800618:	e13fff15 	stw	r4,-4(fp)
	printf("PVARP_Buffer_ISR\n");
  80061c:	01002074 	movhi	r4,129
  800620:	210edc04 	addi	r4,r4,15216
  800624:	08046b80 	call	8046b8 <puts>
	PVARP_TO = 0;
  800628:	d0277e05 	stb	zero,-25096(gp)
	return 0;
  80062c:	0005883a 	mov	r2,zero
}
  800630:	e037883a 	mov	sp,fp
  800634:	dfc00117 	ldw	ra,4(sp)
  800638:	df000017 	ldw	fp,0(sp)
  80063c:	dec00204 	addi	sp,sp,8
  800640:	f800283a 	ret

00800644 <VRP_Buffer_ISR>:

alt_u32 VRP_Buffer_ISR(void* context) {
  800644:	defffd04 	addi	sp,sp,-12
  800648:	dfc00215 	stw	ra,8(sp)
  80064c:	df000115 	stw	fp,4(sp)
  800650:	df000104 	addi	fp,sp,4
  800654:	e13fff15 	stw	r4,-4(fp)
	printf("VRP_Buffer_ISR\n");
  800658:	01002074 	movhi	r4,129
  80065c:	210ee104 	addi	r4,r4,15236
  800660:	08046b80 	call	8046b8 <puts>
	VRP_TO = 0;
  800664:	d02757c5 	stb	zero,-25249(gp)
	return 0;
  800668:	0005883a 	mov	r2,zero
}
  80066c:	e037883a 	mov	sp,fp
  800670:	dfc00117 	ldw	ra,4(sp)
  800674:	df000017 	ldw	fp,0(sp)
  800678:	dec00204 	addi	sp,sp,8
  80067c:	f800283a 	ret

00800680 <LRI_Buffer_ISR>:

alt_u32 LRI_Buffer_ISR(void* context) {
  800680:	defffd04 	addi	sp,sp,-12
  800684:	dfc00215 	stw	ra,8(sp)
  800688:	df000115 	stw	fp,4(sp)
  80068c:	df000104 	addi	fp,sp,4
  800690:	e13fff15 	stw	r4,-4(fp)
	printf("LRI_Buffer_ISR\n");
  800694:	01002074 	movhi	r4,129
  800698:	210ee504 	addi	r4,r4,15252
  80069c:	08046b80 	call	8046b8 <puts>
	LRI_TO = 0;
  8006a0:	d0276005 	stb	zero,-25216(gp)
	return 0;
  8006a4:	0005883a 	mov	r2,zero
}
  8006a8:	e037883a 	mov	sp,fp
  8006ac:	dfc00117 	ldw	ra,4(sp)
  8006b0:	df000017 	ldw	fp,0(sp)
  8006b4:	dec00204 	addi	sp,sp,8
  8006b8:	f800283a 	ret

008006bc <URI_Buffer_ISR>:

alt_u32 URI_Buffer_ISR(void* context) {
  8006bc:	defffd04 	addi	sp,sp,-12
  8006c0:	dfc00215 	stw	ra,8(sp)
  8006c4:	df000115 	stw	fp,4(sp)
  8006c8:	df000104 	addi	fp,sp,4
  8006cc:	e13fff15 	stw	r4,-4(fp)
	printf("URI_Buffer_ISR\n");
  8006d0:	01002074 	movhi	r4,129
  8006d4:	210ee904 	addi	r4,r4,15268
  8006d8:	08046b80 	call	8046b8 <puts>
	URI_TO = 0;
  8006dc:	d02781c5 	stb	zero,-25081(gp)
	return 0;
  8006e0:	0005883a 	mov	r2,zero
}
  8006e4:	e037883a 	mov	sp,fp
  8006e8:	dfc00117 	ldw	ra,4(sp)
  8006ec:	df000017 	ldw	fp,0(sp)
  8006f0:	dec00204 	addi	sp,sp,8
  8006f4:	f800283a 	ret

008006f8 <TimerConfig>:

/*
 * Starts and stops timers based on inputs from the
 * SCCharts generated code.
 */
void TimerConfig() {
  8006f8:	defffe04 	addi	sp,sp,-8
  8006fc:	dfc00115 	stw	ra,4(sp)
  800700:	df000015 	stw	fp,0(sp)
  800704:	d839883a 	mov	fp,sp
	// Stopping and starting the timers for the SCCharts
	if (AVI_start > 0) {
  800708:	d0a75b83 	ldbu	r2,-25234(gp)
  80070c:	10803fcc 	andi	r2,r2,255
  800710:	1080201c 	xori	r2,r2,128
  800714:	10bfe004 	addi	r2,r2,-128
  800718:	00800b0e 	bge	zero,r2,800748 <TimerConfig+0x50>
		AVI_TO = 0;
  80071c:	d0275685 	stb	zero,-25254(gp)
		alt_alarm_stop(&AVI_Timer);
  800720:	01002074 	movhi	r4,129
  800724:	211f2904 	addi	r4,r4,31908
  800728:	08105880 	call	810588 <alt_alarm_stop>
		alt_alarm_start(&AVI_Timer, AVI_VALUE, AVI_ISR, NULL);
  80072c:	000f883a 	mov	r7,zero
  800730:	01802034 	movhi	r6,128
  800734:	3180a404 	addi	r6,r6,656
  800738:	01404b04 	movi	r5,300
  80073c:	01002074 	movhi	r4,129
  800740:	211f2904 	addi	r4,r4,31908
  800744:	080f9f80 	call	80f9f8 <alt_alarm_start>
	}
	if (PVARP_start > 0) {
  800748:	d0a77243 	ldbu	r2,-25143(gp)
  80074c:	10803fcc 	andi	r2,r2,255
  800750:	1080201c 	xori	r2,r2,128
  800754:	10bfe004 	addi	r2,r2,-128
  800758:	00800b0e 	bge	zero,r2,800788 <TimerConfig+0x90>
		PVARP_TO = 0;
  80075c:	d0277e05 	stb	zero,-25096(gp)
		alt_alarm_stop(&PVARP_Timer);
  800760:	01002074 	movhi	r4,129
  800764:	211f3504 	addi	r4,r4,31956
  800768:	08105880 	call	810588 <alt_alarm_stop>
		alt_alarm_start(&PVARP_Timer, PVARP_VALUE, PVARP_ISR, NULL);
  80076c:	000f883a 	mov	r7,zero
  800770:	01802034 	movhi	r6,128
  800774:	3180cc04 	addi	r6,r6,816
  800778:	01400c84 	movi	r5,50
  80077c:	01002074 	movhi	r4,129
  800780:	211f3504 	addi	r4,r4,31956
  800784:	080f9f80 	call	80f9f8 <alt_alarm_start>
	}
	if (VRP_start > 0) {
  800788:	d0a76d43 	ldbu	r2,-25163(gp)
  80078c:	10803fcc 	andi	r2,r2,255
  800790:	1080201c 	xori	r2,r2,128
  800794:	10bfe004 	addi	r2,r2,-128
  800798:	0080080e 	bge	zero,r2,8007bc <TimerConfig+0xc4>
		VRP_TO = 0;
  80079c:	d02757c5 	stb	zero,-25249(gp)
		alt_alarm_start(&VRP_Timer, VRP_VALUE, VRP_ISR, NULL);
  8007a0:	000f883a 	mov	r7,zero
  8007a4:	01802034 	movhi	r6,128
  8007a8:	3180e004 	addi	r6,r6,896
  8007ac:	01402584 	movi	r5,150
  8007b0:	01002074 	movhi	r4,129
  8007b4:	211f3b04 	addi	r4,r4,31980
  8007b8:	080f9f80 	call	80f9f8 <alt_alarm_start>
	}
	if (AEI_start > 0) {
  8007bc:	d0a775c3 	ldbu	r2,-25129(gp)
  8007c0:	10803fcc 	andi	r2,r2,255
  8007c4:	1080201c 	xori	r2,r2,128
  8007c8:	10bfe004 	addi	r2,r2,-128
  8007cc:	00800b0e 	bge	zero,r2,8007fc <TimerConfig+0x104>
		AEI_TO = 0;
  8007d0:	d0277345 	stb	zero,-25139(gp)
		alt_alarm_stop(&AEI_Timer);
  8007d4:	01002074 	movhi	r4,129
  8007d8:	211f2f04 	addi	r4,r4,31932
  8007dc:	08105880 	call	810588 <alt_alarm_stop>
		alt_alarm_start(&AEI_Timer, AEI_VALUE, AEI_ISR, NULL);
  8007e0:	000f883a 	mov	r7,zero
  8007e4:	01802034 	movhi	r6,128
  8007e8:	3180b804 	addi	r6,r6,736
  8007ec:	0140c804 	movi	r5,800
  8007f0:	01002074 	movhi	r4,129
  8007f4:	211f2f04 	addi	r4,r4,31932
  8007f8:	080f9f80 	call	80f9f8 <alt_alarm_start>
	}
	if (LRI_start > 0) {
  8007fc:	d0a76f03 	ldbu	r2,-25156(gp)
  800800:	10803fcc 	andi	r2,r2,255
  800804:	1080201c 	xori	r2,r2,128
  800808:	10bfe004 	addi	r2,r2,-128
  80080c:	0080080e 	bge	zero,r2,800830 <TimerConfig+0x138>
		LRI_TO = 0;
  800810:	d0276005 	stb	zero,-25216(gp)
		alt_alarm_start(&LRI_Timer, LRI_VALUE, LRI_ISR, NULL);
  800814:	000f883a 	mov	r7,zero
  800818:	01802034 	movhi	r6,128
  80081c:	3180f404 	addi	r6,r6,976
  800820:	0140ed84 	movi	r5,950
  800824:	01002074 	movhi	r4,129
  800828:	211f4104 	addi	r4,r4,32004
  80082c:	080f9f80 	call	80f9f8 <alt_alarm_start>
	}
	if (URI_start > 0) {
  800830:	d0a78283 	ldbu	r2,-25078(gp)
  800834:	10803fcc 	andi	r2,r2,255
  800838:	1080201c 	xori	r2,r2,128
  80083c:	10bfe004 	addi	r2,r2,-128
  800840:	00800b0e 	bge	zero,r2,800870 <TimerConfig+0x178>
		URI_TO = 0;
  800844:	d02781c5 	stb	zero,-25081(gp)
		alt_alarm_stop(&URI_Timer);
  800848:	01002074 	movhi	r4,129
  80084c:	211f4704 	addi	r4,r4,32028
  800850:	08105880 	call	810588 <alt_alarm_stop>
		alt_alarm_start(&URI_Timer, URI_VALUE, URI_ISR, NULL);
  800854:	000f883a 	mov	r7,zero
  800858:	01802034 	movhi	r6,128
  80085c:	31810804 	addi	r6,r6,1056
  800860:	0140e104 	movi	r5,900
  800864:	01002074 	movhi	r4,129
  800868:	211f4704 	addi	r4,r4,32028
  80086c:	080f9f80 	call	80f9f8 <alt_alarm_start>
	}

	// Stopping the timers for the SCCharts
	if (AVI_stop > 0) {
  800870:	d0a75dc3 	ldbu	r2,-25225(gp)
  800874:	10803fcc 	andi	r2,r2,255
  800878:	1080201c 	xori	r2,r2,128
  80087c:	10bfe004 	addi	r2,r2,-128
  800880:	0080040e 	bge	zero,r2,800894 <TimerConfig+0x19c>
		alt_alarm_stop(&AVI_Timer);
  800884:	01002074 	movhi	r4,129
  800888:	211f2904 	addi	r4,r4,31908
  80088c:	08105880 	call	810588 <alt_alarm_stop>
		AVI_TO = 0;
  800890:	d0275685 	stb	zero,-25254(gp)
	}
	if (AEI_stop > 0) {
  800894:	d0a78203 	ldbu	r2,-25080(gp)
  800898:	10803fcc 	andi	r2,r2,255
  80089c:	1080201c 	xori	r2,r2,128
  8008a0:	10bfe004 	addi	r2,r2,-128
  8008a4:	0080040e 	bge	zero,r2,8008b8 <TimerConfig+0x1c0>
		alt_alarm_stop(&AEI_Timer);
  8008a8:	01002074 	movhi	r4,129
  8008ac:	211f2f04 	addi	r4,r4,31932
  8008b0:	08105880 	call	810588 <alt_alarm_stop>
		AEI_TO = 0;
  8008b4:	d0277345 	stb	zero,-25139(gp)
	}
	if (LRI_stop > 0) {
  8008b8:	d0a76303 	ldbu	r2,-25204(gp)
  8008bc:	10803fcc 	andi	r2,r2,255
  8008c0:	1080201c 	xori	r2,r2,128
  8008c4:	10bfe004 	addi	r2,r2,-128
  8008c8:	0080040e 	bge	zero,r2,8008dc <TimerConfig+0x1e4>
		alt_alarm_stop(&LRI_Timer);
  8008cc:	01002074 	movhi	r4,129
  8008d0:	211f4104 	addi	r4,r4,32004
  8008d4:	08105880 	call	810588 <alt_alarm_stop>
		LRI_TO = 0;
  8008d8:	d0276005 	stb	zero,-25216(gp)
	}
	if (URI_stop > 0) {
  8008dc:	d0a78343 	ldbu	r2,-25075(gp)
  8008e0:	10803fcc 	andi	r2,r2,255
  8008e4:	1080201c 	xori	r2,r2,128
  8008e8:	10bfe004 	addi	r2,r2,-128
  8008ec:	0080040e 	bge	zero,r2,800900 <TimerConfig+0x208>
		alt_alarm_stop(&URI_Timer);
  8008f0:	01002074 	movhi	r4,129
  8008f4:	211f4704 	addi	r4,r4,32028
  8008f8:	08105880 	call	810588 <alt_alarm_stop>
		URI_TO = 0;
  8008fc:	d02781c5 	stb	zero,-25081(gp)
	}
}
  800900:	0001883a 	nop
  800904:	e037883a 	mov	sp,fp
  800908:	dfc00117 	ldw	ra,4(sp)
  80090c:	df000017 	ldw	fp,0(sp)
  800910:	dec00204 	addi	sp,sp,8
  800914:	f800283a 	ret

00800918 <ButtonPolling>:

void ButtonPolling() {
  800918:	defffb04 	addi	sp,sp,-20
  80091c:	dfc00415 	stw	ra,16(sp)
  800920:	df000315 	stw	fp,12(sp)
  800924:	df000304 	addi	fp,sp,12
	// Check if a button was pressed
	unsigned keyval = 0;
  800928:	e03ffd15 	stw	zero,-12(fp)
	keyval = IORD_ALTERA_AVALON_PIO_DATA(BUTTONS_BASE);
  80092c:	00804434 	movhi	r2,272
  800930:	10842804 	addi	r2,r2,4256
  800934:	10800037 	ldwio	r2,0(r2)
  800938:	e0bffd15 	stw	r2,-12(fp)
	int key0 = keyval & 0x01;
  80093c:	e0bffd17 	ldw	r2,-12(fp)
  800940:	1080004c 	andi	r2,r2,1
  800944:	e0bffe15 	stw	r2,-8(fp)
	int key1 = keyval & 0x02;
  800948:	e0bffd17 	ldw	r2,-12(fp)
  80094c:	1080008c 	andi	r2,r2,2
  800950:	e0bfff15 	stw	r2,-4(fp)

	// Key 0 simulates the Ventricular
	if (key0 == 0) {
  800954:	e0bffe17 	ldw	r2,-8(fp)
  800958:	1000111e 	bne	r2,zero,8009a0 <ButtonPolling+0x88>
		if (t_key2 == 0) {
  80095c:	d0a74e17 	ldw	r2,-25288(gp)
  800960:	10000c1e 	bne	r2,zero,800994 <ButtonPolling+0x7c>
			VSense = 1;
  800964:	00800044 	movi	r2,1
  800968:	d0a76c45 	stb	r2,-25167(gp)
			alt_alarm_start(&V_Sense_Timer, SIGNAL_BUFFER, V_Sense_ISR,
  80096c:	000f883a 	mov	r7,zero
  800970:	01802034 	movhi	r6,128
  800974:	31815404 	addi	r6,r6,1360
  800978:	01400044 	movi	r5,1
  80097c:	01002074 	movhi	r4,129
  800980:	211f5f04 	addi	r4,r4,32124
  800984:	080f9f80 	call	80f9f8 <alt_alarm_start>
			NULL);
			printf("Button0 ");
  800988:	01002074 	movhi	r4,129
  80098c:	210eed04 	addi	r4,r4,15284
  800990:	08045bc0 	call	8045bc <printf>
		}
		t_key2 = 1;
  800994:	00800044 	movi	r2,1
  800998:	d0a74e15 	stw	r2,-25288(gp)
  80099c:	00000106 	br	8009a4 <ButtonPolling+0x8c>
	} else {
		t_key2 = 0;
  8009a0:	d0274e15 	stw	zero,-25288(gp)
	}

	// Key 1 simulates the Atrial
	if (key1 == 0) {
  8009a4:	e0bfff17 	ldw	r2,-4(fp)
  8009a8:	1000111e 	bne	r2,zero,8009f0 <ButtonPolling+0xd8>
		if (t_key1 == 0) {
  8009ac:	d0a74d17 	ldw	r2,-25292(gp)
  8009b0:	10000c1e 	bne	r2,zero,8009e4 <ButtonPolling+0xcc>
			ASense = 1;
  8009b4:	00800044 	movi	r2,1
  8009b8:	d0a76405 	stb	r2,-25200(gp)
			alt_alarm_start(&A_Sense_Timer, SIGNAL_BUFFER, A_Sense_ISR,
  8009bc:	000f883a 	mov	r7,zero
  8009c0:	01802034 	movhi	r6,128
  8009c4:	31814404 	addi	r6,r6,1296
  8009c8:	01400044 	movi	r5,1
  8009cc:	01002074 	movhi	r4,129
  8009d0:	211f5904 	addi	r4,r4,32100
  8009d4:	080f9f80 	call	80f9f8 <alt_alarm_start>
			NULL);
			printf("Button1 ");
  8009d8:	01002074 	movhi	r4,129
  8009dc:	210ef004 	addi	r4,r4,15296
  8009e0:	08045bc0 	call	8045bc <printf>
		}
		t_key1 = 1;
  8009e4:	00800044 	movi	r2,1
  8009e8:	d0a74d15 	stw	r2,-25292(gp)
	} else {
		t_key1 = 0;
	}
}
  8009ec:	00000106 	br	8009f4 <ButtonPolling+0xdc>
			NULL);
			printf("Button1 ");
		}
		t_key1 = 1;
	} else {
		t_key1 = 0;
  8009f0:	d0274d15 	stw	zero,-25292(gp)
	}
}
  8009f4:	0001883a 	nop
  8009f8:	e037883a 	mov	sp,fp
  8009fc:	dfc00117 	ldw	ra,4(sp)
  800a00:	df000017 	ldw	fp,0(sp)
  800a04:	dec00204 	addi	sp,sp,8
  800a08:	f800283a 	ret

00800a0c <AVLEDS>:

void AVLEDS() {
  800a0c:	defffe04 	addi	sp,sp,-8
  800a10:	dfc00115 	stw	ra,4(sp)
  800a14:	df000015 	stw	fp,0(sp)
  800a18:	d839883a 	mov	fp,sp
	// Send pacing signals to UART
	if (APace > 0) {
  800a1c:	d0a756c3 	ldbu	r2,-25253(gp)
  800a20:	10803fcc 	andi	r2,r2,255
  800a24:	1080201c 	xori	r2,r2,128
  800a28:	10bfe004 	addi	r2,r2,-128
  800a2c:	0080190e 	bge	zero,r2,800a94 <AVLEDS+0x88>
		if (mode == 1) {
  800a30:	d0a74a17 	ldw	r2,-25304(gp)
  800a34:	10800058 	cmpnei	r2,r2,1
  800a38:	10000a1e 	bne	r2,zero,800a64 <AVLEDS+0x58>
			fprintf(fp, "\nA");
  800a3c:	d0a75317 	ldw	r2,-25268(gp)
  800a40:	100f883a 	mov	r7,r2
  800a44:	01800084 	movi	r6,2
  800a48:	01400044 	movi	r5,1
  800a4c:	01002074 	movhi	r4,129
  800a50:	210ef304 	addi	r4,r4,15308
  800a54:	0803a080 	call	803a08 <fwrite>
			fflush(fp);
  800a58:	d0a75317 	ldw	r2,-25268(gp)
  800a5c:	1009883a 	mov	r4,r2
  800a60:	080297c0 	call	80297c <fflush>
		}
		// Start LED timer for LED to stay on for a length of time
		LEDAPace = 1;
  800a64:	00800044 	movi	r2,1
  800a68:	d0a75015 	stw	r2,-25280(gp)
		alt_alarm_stop(&LED_Atrial_Timer);
  800a6c:	01002074 	movhi	r4,129
  800a70:	211f4d04 	addi	r4,r4,32052
  800a74:	08105880 	call	810588 <alt_alarm_stop>
		alt_alarm_start(&LED_Atrial_Timer, LED_BUFFER, LED_Atrial_ISR, NULL);
  800a78:	000f883a 	mov	r7,zero
  800a7c:	01802034 	movhi	r6,128
  800a80:	31811c04 	addi	r6,r6,1136
  800a84:	01403204 	movi	r5,200
  800a88:	01002074 	movhi	r4,129
  800a8c:	211f4d04 	addi	r4,r4,32052
  800a90:	080f9f80 	call	80f9f8 <alt_alarm_start>
	}
	if (VPace > 0) {
  800a94:	d0a77fc3 	ldbu	r2,-25089(gp)
  800a98:	10803fcc 	andi	r2,r2,255
  800a9c:	1080201c 	xori	r2,r2,128
  800aa0:	10bfe004 	addi	r2,r2,-128
  800aa4:	0080190e 	bge	zero,r2,800b0c <AVLEDS+0x100>
		if (mode == 1) {
  800aa8:	d0a74a17 	ldw	r2,-25304(gp)
  800aac:	10800058 	cmpnei	r2,r2,1
  800ab0:	10000a1e 	bne	r2,zero,800adc <AVLEDS+0xd0>
			fprintf(fp, "\nV");
  800ab4:	d0a75317 	ldw	r2,-25268(gp)
  800ab8:	100f883a 	mov	r7,r2
  800abc:	01800084 	movi	r6,2
  800ac0:	01400044 	movi	r5,1
  800ac4:	01002074 	movhi	r4,129
  800ac8:	210ef404 	addi	r4,r4,15312
  800acc:	0803a080 	call	803a08 <fwrite>
			fflush(fp);
  800ad0:	d0a75317 	ldw	r2,-25268(gp)
  800ad4:	1009883a 	mov	r4,r2
  800ad8:	080297c0 	call	80297c <fflush>
		}
		// Start LED timer for LED to stay on for a length of time
		LEDVPace = 1;
  800adc:	00800044 	movi	r2,1
  800ae0:	d0a74f15 	stw	r2,-25284(gp)
		alt_alarm_stop(&LED_Ventricular_Timer);
  800ae4:	01002074 	movhi	r4,129
  800ae8:	211f5304 	addi	r4,r4,32076
  800aec:	08105880 	call	810588 <alt_alarm_stop>
		alt_alarm_start(&LED_Ventricular_Timer, LED_BUFFER, LED_Ventricular_ISR,
  800af0:	000f883a 	mov	r7,zero
  800af4:	01802034 	movhi	r6,128
  800af8:	31813004 	addi	r6,r6,1216
  800afc:	01403204 	movi	r5,200
  800b00:	01002074 	movhi	r4,129
  800b04:	211f5304 	addi	r4,r4,32076
  800b08:	080f9f80 	call	80f9f8 <alt_alarm_start>
		NULL);
	}
	// Change the state of the LED
	if (LEDVPace > 0) {
  800b0c:	d0a74f17 	ldw	r2,-25284(gp)
  800b10:	10000e26 	beq	r2,zero,800b4c <AVLEDS+0x140>
		if (LEDAPace > 0)
  800b14:	d0a75017 	ldw	r2,-25280(gp)
  800b18:	10000626 	beq	r2,zero,800b34 <AVLEDS+0x128>
			IOWR_ALTERA_AVALON_PIO_DATA(LEDS_GREEN_BASE, LED[3]);
  800b1c:	d0a000c3 	ldbu	r2,-32765(gp)
  800b20:	10c03fcc 	andi	r3,r2,255
  800b24:	00804434 	movhi	r2,272
  800b28:	10841c04 	addi	r2,r2,4208
  800b2c:	10c00035 	stwio	r3,0(r2)
		if (LEDAPace > 0)
			IOWR_ALTERA_AVALON_PIO_DATA(LEDS_GREEN_BASE, LED[2]);
		else
			IOWR_ALTERA_AVALON_PIO_DATA(LEDS_GREEN_BASE, LED[0]);
	}
}
  800b30:	00001306 	br	800b80 <AVLEDS+0x174>
	// Change the state of the LED
	if (LEDVPace > 0) {
		if (LEDAPace > 0)
			IOWR_ALTERA_AVALON_PIO_DATA(LEDS_GREEN_BASE, LED[3]);
		else
			IOWR_ALTERA_AVALON_PIO_DATA(LEDS_GREEN_BASE, LED[1]);
  800b34:	d0a00043 	ldbu	r2,-32767(gp)
  800b38:	10c03fcc 	andi	r3,r2,255
  800b3c:	00804434 	movhi	r2,272
  800b40:	10841c04 	addi	r2,r2,4208
  800b44:	10c00035 	stwio	r3,0(r2)
		if (LEDAPace > 0)
			IOWR_ALTERA_AVALON_PIO_DATA(LEDS_GREEN_BASE, LED[2]);
		else
			IOWR_ALTERA_AVALON_PIO_DATA(LEDS_GREEN_BASE, LED[0]);
	}
}
  800b48:	00000d06 	br	800b80 <AVLEDS+0x174>
		if (LEDAPace > 0)
			IOWR_ALTERA_AVALON_PIO_DATA(LEDS_GREEN_BASE, LED[3]);
		else
			IOWR_ALTERA_AVALON_PIO_DATA(LEDS_GREEN_BASE, LED[1]);
	} else {
		if (LEDAPace > 0)
  800b4c:	d0a75017 	ldw	r2,-25280(gp)
  800b50:	10000626 	beq	r2,zero,800b6c <AVLEDS+0x160>
			IOWR_ALTERA_AVALON_PIO_DATA(LEDS_GREEN_BASE, LED[2]);
  800b54:	d0a00083 	ldbu	r2,-32766(gp)
  800b58:	10c03fcc 	andi	r3,r2,255
  800b5c:	00804434 	movhi	r2,272
  800b60:	10841c04 	addi	r2,r2,4208
  800b64:	10c00035 	stwio	r3,0(r2)
		else
			IOWR_ALTERA_AVALON_PIO_DATA(LEDS_GREEN_BASE, LED[0]);
	}
}
  800b68:	00000506 	br	800b80 <AVLEDS+0x174>
			IOWR_ALTERA_AVALON_PIO_DATA(LEDS_GREEN_BASE, LED[1]);
	} else {
		if (LEDAPace > 0)
			IOWR_ALTERA_AVALON_PIO_DATA(LEDS_GREEN_BASE, LED[2]);
		else
			IOWR_ALTERA_AVALON_PIO_DATA(LEDS_GREEN_BASE, LED[0]);
  800b6c:	d0a00003 	ldbu	r2,-32768(gp)
  800b70:	10c03fcc 	andi	r3,r2,255
  800b74:	00804434 	movhi	r2,272
  800b78:	10841c04 	addi	r2,r2,4208
  800b7c:	10c00035 	stwio	r3,0(r2)
	}
}
  800b80:	0001883a 	nop
  800b84:	e037883a 	mov	sp,fp
  800b88:	dfc00117 	ldw	ra,4(sp)
  800b8c:	df000017 	ldw	fp,0(sp)
  800b90:	dec00204 	addi	sp,sp,8
  800b94:	f800283a 	ret

00800b98 <handle_mode_switch>:

void handle_mode_switch() {
  800b98:	defffe04 	addi	sp,sp,-8
  800b9c:	dfc00115 	stw	ra,4(sp)
  800ba0:	df000015 	stw	fp,0(sp)
  800ba4:	d839883a 	mov	fp,sp
	// Check switch 0 only
	ModeChange = IORD_ALTERA_AVALON_PIO_DATA(SWITCHES_BASE) & 0x01;
  800ba8:	00804434 	movhi	r2,272
  800bac:	10842404 	addi	r2,r2,4240
  800bb0:	10800037 	ldwio	r2,0(r2)
  800bb4:	1080004c 	andi	r2,r2,1
  800bb8:	d0a74b15 	stw	r2,-25300(gp)

	//Check for mode change
	if ((ModeChange != mode)) {
  800bbc:	d0e74b17 	ldw	r3,-25300(gp)
  800bc0:	d0a74a17 	ldw	r2,-25304(gp)
  800bc4:	18800526 	beq	r3,r2,800bdc <handle_mode_switch+0x44>
		mode = ModeChange;
  800bc8:	d0a74b17 	ldw	r2,-25300(gp)
  800bcc:	d0a74a15 	stw	r2,-25304(gp)
		lcd_set_mode(mode);
  800bd0:	d0a74a17 	ldw	r2,-25304(gp)
  800bd4:	1009883a 	mov	r4,r2
  800bd8:	0800d0c0 	call	800d0c <lcd_set_mode>
	}
}
  800bdc:	0001883a 	nop
  800be0:	e037883a 	mov	sp,fp
  800be4:	dfc00117 	ldw	ra,4(sp)
  800be8:	df000017 	ldw	fp,0(sp)
  800bec:	dec00204 	addi	sp,sp,8
  800bf0:	f800283a 	ret

00800bf4 <uart>:

void uart() {
  800bf4:	defffe04 	addi	sp,sp,-8
  800bf8:	dfc00115 	stw	ra,4(sp)
  800bfc:	df000015 	stw	fp,0(sp)
  800c00:	d839883a 	mov	fp,sp
	//if a byte has been read
	if (read(up, byte, 1) > 0) {
  800c04:	d0a75417 	ldw	r2,-25264(gp)
  800c08:	d0e75517 	ldw	r3,-25260(gp)
  800c0c:	01800044 	movi	r6,1
  800c10:	180b883a 	mov	r5,r3
  800c14:	1009883a 	mov	r4,r2
  800c18:	08103780 	call	810378 <read>
  800c1c:	0080330e 	bge	zero,r2,800cec <uart+0xf8>
		if (*byte == 'A') {
  800c20:	d0a75517 	ldw	r2,-25260(gp)
  800c24:	10800003 	ldbu	r2,0(r2)
  800c28:	10803fcc 	andi	r2,r2,255
  800c2c:	1080201c 	xori	r2,r2,128
  800c30:	10bfe004 	addi	r2,r2,-128
  800c34:	10801058 	cmpnei	r2,r2,65
  800c38:	1000111e 	bne	r2,zero,800c80 <uart+0x8c>
			if (Flag == 0) {
  800c3c:	d0a74c17 	ldw	r2,-25296(gp)
  800c40:	10002c1e 	bne	r2,zero,800cf4 <uart+0x100>
				ASense = 1; //set ASense high
  800c44:	00800044 	movi	r2,1
  800c48:	d0a76405 	stb	r2,-25200(gp)
				alt_alarm_start(&A_Sense_Timer, SIGNAL_BUFFER, A_Sense_ISR,
  800c4c:	000f883a 	mov	r7,zero
  800c50:	01802034 	movhi	r6,128
  800c54:	31814404 	addi	r6,r6,1296
  800c58:	01400044 	movi	r5,1
  800c5c:	01002074 	movhi	r4,129
  800c60:	211f5904 	addi	r4,r4,32100
  800c64:	080f9f80 	call	80f9f8 <alt_alarm_start>
				NULL);
				Flag = 1;
  800c68:	00800044 	movi	r2,1
  800c6c:	d0a74c15 	stw	r2,-25296(gp)
				printf("ASense UART\n");
  800c70:	01002074 	movhi	r4,129
  800c74:	210ef504 	addi	r4,r4,15316
  800c78:	08046b80 	call	8046b8 <puts>
		//reset buffers if nothing read
		VSense = 0;
		ASense = 0;
	}

}
  800c7c:	00001d06 	br	800cf4 <uart+0x100>
				alt_alarm_start(&A_Sense_Timer, SIGNAL_BUFFER, A_Sense_ISR,
				NULL);
				Flag = 1;
				printf("ASense UART\n");
			}
		} else if (*byte == 'V') {
  800c80:	d0a75517 	ldw	r2,-25260(gp)
  800c84:	10800003 	ldbu	r2,0(r2)
  800c88:	10803fcc 	andi	r2,r2,255
  800c8c:	1080201c 	xori	r2,r2,128
  800c90:	10bfe004 	addi	r2,r2,-128
  800c94:	10801598 	cmpnei	r2,r2,86
  800c98:	1000111e 	bne	r2,zero,800ce0 <uart+0xec>
			if (Flag == 0) {
  800c9c:	d0a74c17 	ldw	r2,-25296(gp)
  800ca0:	1000141e 	bne	r2,zero,800cf4 <uart+0x100>
				VSense = 1; //set VSense high
  800ca4:	00800044 	movi	r2,1
  800ca8:	d0a76c45 	stb	r2,-25167(gp)
				alt_alarm_start(&V_Sense_Timer, SIGNAL_BUFFER, V_Sense_ISR,
  800cac:	000f883a 	mov	r7,zero
  800cb0:	01802034 	movhi	r6,128
  800cb4:	31815404 	addi	r6,r6,1360
  800cb8:	01400044 	movi	r5,1
  800cbc:	01002074 	movhi	r4,129
  800cc0:	211f5f04 	addi	r4,r4,32124
  800cc4:	080f9f80 	call	80f9f8 <alt_alarm_start>
				NULL);
				Flag = 1;
  800cc8:	00800044 	movi	r2,1
  800ccc:	d0a74c15 	stw	r2,-25296(gp)
				printf("VSense UART\n");
  800cd0:	01002074 	movhi	r4,129
  800cd4:	210ef804 	addi	r4,r4,15328
  800cd8:	08046b80 	call	8046b8 <puts>
		//reset buffers if nothing read
		VSense = 0;
		ASense = 0;
	}

}
  800cdc:	00000506 	br	800cf4 <uart+0x100>
				Flag = 1;
				printf("VSense UART\n");
			}
		} else {
			//reset buffers if invalid data
			VSense = 0;
  800ce0:	d0276c45 	stb	zero,-25167(gp)
			ASense = 0;
  800ce4:	d0276405 	stb	zero,-25200(gp)
		//reset buffers if nothing read
		VSense = 0;
		ASense = 0;
	}

}
  800ce8:	00000206 	br	800cf4 <uart+0x100>
			VSense = 0;
			ASense = 0;
		}
	} else {
		//reset buffers if nothing read
		VSense = 0;
  800cec:	d0276c45 	stb	zero,-25167(gp)
		ASense = 0;
  800cf0:	d0276405 	stb	zero,-25200(gp)
	}

}
  800cf4:	0001883a 	nop
  800cf8:	e037883a 	mov	sp,fp
  800cfc:	dfc00117 	ldw	ra,4(sp)
  800d00:	df000017 	ldw	fp,0(sp)
  800d04:	dec00204 	addi	sp,sp,8
  800d08:	f800283a 	ret

00800d0c <lcd_set_mode>:

void lcd_set_mode(unsigned int mode) {
  800d0c:	defffd04 	addi	sp,sp,-12
  800d10:	dfc00215 	stw	ra,8(sp)
  800d14:	df000115 	stw	fp,4(sp)
  800d18:	df000104 	addi	fp,sp,4
  800d1c:	e13fff15 	stw	r4,-4(fp)
	if (lcd != NULL) {
  800d20:	d0a75217 	ldw	r2,-25272(gp)
  800d24:	10002126 	beq	r2,zero,800dac <lcd_set_mode+0xa0>
		fprintf(lcd, "%c%s", 27, "[2J");
  800d28:	d0a75217 	ldw	r2,-25272(gp)
  800d2c:	01c02074 	movhi	r7,129
  800d30:	39cefb04 	addi	r7,r7,15340
  800d34:	018006c4 	movi	r6,27
  800d38:	01402074 	movhi	r5,129
  800d3c:	294efc04 	addi	r5,r5,15344
  800d40:	1009883a 	mov	r4,r2
  800d44:	0802e800 	call	802e80 <fprintf>
		fprintf(lcd, "Mode: %d\n", mode + 1);
  800d48:	d0e75217 	ldw	r3,-25272(gp)
  800d4c:	e0bfff17 	ldw	r2,-4(fp)
  800d50:	10800044 	addi	r2,r2,1
  800d54:	100d883a 	mov	r6,r2
  800d58:	01402074 	movhi	r5,129
  800d5c:	294efe04 	addi	r5,r5,15352
  800d60:	1809883a 	mov	r4,r3
  800d64:	0802e800 	call	802e80 <fprintf>
		if (mode == 0) {
  800d68:	e0bfff17 	ldw	r2,-4(fp)
  800d6c:	1000081e 	bne	r2,zero,800d90 <lcd_set_mode+0x84>
			fprintf(lcd, "Buttons\n");
  800d70:	d0a75217 	ldw	r2,-25272(gp)
  800d74:	100f883a 	mov	r7,r2
  800d78:	01800204 	movi	r6,8
  800d7c:	01400044 	movi	r5,1
  800d80:	01002074 	movhi	r4,129
  800d84:	210f0104 	addi	r4,r4,15364
  800d88:	0803a080 	call	803a08 <fwrite>
		} else {
			fprintf(lcd, "UART\n");
		}
	}
}
  800d8c:	00000706 	br	800dac <lcd_set_mode+0xa0>
		fprintf(lcd, "%c%s", 27, "[2J");
		fprintf(lcd, "Mode: %d\n", mode + 1);
		if (mode == 0) {
			fprintf(lcd, "Buttons\n");
		} else {
			fprintf(lcd, "UART\n");
  800d90:	d0a75217 	ldw	r2,-25272(gp)
  800d94:	100f883a 	mov	r7,r2
  800d98:	01800144 	movi	r6,5
  800d9c:	01400044 	movi	r5,1
  800da0:	01002074 	movhi	r4,129
  800da4:	210f0404 	addi	r4,r4,15376
  800da8:	0803a080 	call	803a08 <fwrite>
		}
	}
}
  800dac:	0001883a 	nop
  800db0:	e037883a 	mov	sp,fp
  800db4:	dfc00117 	ldw	ra,4(sp)
  800db8:	df000017 	ldw	fp,0(sp)
  800dbc:	dec00204 	addi	sp,sp,8
  800dc0:	f800283a 	ret

00800dc4 <main>:

int main() {
  800dc4:	defffe04 	addi	sp,sp,-8
  800dc8:	dfc00115 	stw	ra,4(sp)
  800dcc:	df000015 	stw	fp,0(sp)
  800dd0:	d839883a 	mov	fp,sp
	// LCD
	lcd = fopen(LCD_NAME, "w");
  800dd4:	01402074 	movhi	r5,129
  800dd8:	294f0604 	addi	r5,r5,15384
  800ddc:	01002074 	movhi	r4,129
  800de0:	210f0704 	addi	r4,r4,15388
  800de4:	0802e400 	call	802e40 <fopen>
  800de8:	d0a75215 	stw	r2,-25272(gp)
	lcd_set_mode(0);
  800dec:	0009883a 	mov	r4,zero
  800df0:	0800d0c0 	call	800d0c <lcd_set_mode>

	// Non-blocking Uart
	up = open(UART_NAME, O_RDWR | O_NONBLOCK);
  800df4:	01500084 	movi	r5,16386
  800df8:	01002074 	movhi	r4,129
  800dfc:	210f0a04 	addi	r4,r4,15400
  800e00:	08101e80 	call	8101e8 <open>
  800e04:	d0a75415 	stw	r2,-25264(gp)
	fp = fopen(UART_NAME, "w+");
  800e08:	01402074 	movhi	r5,129
  800e0c:	294f0d04 	addi	r5,r5,15412
  800e10:	01002074 	movhi	r4,129
  800e14:	210f0a04 	addi	r4,r4,15400
  800e18:	0802e400 	call	802e40 <fopen>
  800e1c:	d0a75315 	stw	r2,-25268(gp)
	reset();
  800e20:	0800e5c0 	call	800e5c <reset>

	while (1) {
		switch (mode) {
  800e24:	d0a74a17 	ldw	r2,-25304(gp)
  800e28:	10000326 	beq	r2,zero,800e38 <main+0x74>
  800e2c:	10800060 	cmpeqi	r2,r2,1
  800e30:	1000031e 	bne	r2,zero,800e40 <main+0x7c>
  800e34:	00000406 	br	800e48 <main+0x84>
		// Mode 1
		case 0:
			ButtonPolling();
  800e38:	08009180 	call	800918 <ButtonPolling>
			break;
  800e3c:	00000206 	br	800e48 <main+0x84>
			// Mode 2
		case 1:
			uart();
  800e40:	0800bf40 	call	800bf4 <uart>
			break;
  800e44:	0001883a 	nop
		}

		tick();
  800e48:	0800edc0 	call	800edc <tick>
		TimerConfig();
  800e4c:	08006f80 	call	8006f8 <TimerConfig>
		AVLEDS();
  800e50:	0800a0c0 	call	800a0c <AVLEDS>
		handle_mode_switch();
  800e54:	0800b980 	call	800b98 <handle_mode_switch>
	}
  800e58:	003ff206 	br	800e24 <__alt_mem_onchip_mem+0xff780e24>

00800e5c <reset>:
char g84_e7;
char g85_e1_fix;
char g85_e1;
char g89_e2;
int _PRE_GO;
void reset(){
  800e5c:	deffff04 	addi	sp,sp,-4
  800e60:	df000015 	stw	fp,0(sp)
  800e64:	d839883a 	mov	fp,sp
   _GO = 1;
  800e68:	00800044 	movi	r2,1
  800e6c:	d0a76ec5 	stb	r2,-25157(gp)
   _PRE_GO = 0;
  800e70:	d0275a15 	stw	zero,-25240(gp)
   PRE_g3 = 0;
  800e74:	d0275b05 	stb	zero,-25236(gp)
   PRE_g6 = 0;
  800e78:	d0276c85 	stb	zero,-25166(gp)
   PRE_g12 = 0;
  800e7c:	d0276805 	stb	zero,-25184(gp)
   PRE_g15 = 0;
  800e80:	d02779c5 	stb	zero,-25113(gp)
   PRE_g17 = 0;
  800e84:	d0276345 	stb	zero,-25203(gp)
   PRE_g21 = 0;
  800e88:	d0277a45 	stb	zero,-25111(gp)
   PRE_g26 = 0;
  800e8c:	d0277e45 	stb	zero,-25095(gp)
   PRE_g29 = 0;
  800e90:	d0275b45 	stb	zero,-25235(gp)
   PRE_g31 = 0;
  800e94:	d0277405 	stb	zero,-25136(gp)
   PRE_g34 = 0;
  800e98:	d02760c5 	stb	zero,-25213(gp)
   PRE_g43 = 0;
  800e9c:	d02770c5 	stb	zero,-25149(gp)
   PRE_g46 = 0;
  800ea0:	d02767c5 	stb	zero,-25185(gp)
   PRE_g48 = 0;
  800ea4:	d0277445 	stb	zero,-25135(gp)
   PRE_g57 = 0;
  800ea8:	d0277105 	stb	zero,-25148(gp)
   PRE_g60 = 0;
  800eac:	d0277385 	stb	zero,-25138(gp)
   PRE_g66 = 0;
  800eb0:	d0277a05 	stb	zero,-25112(gp)
   PRE_g69 = 0;
  800eb4:	d0275f45 	stb	zero,-25219(gp)
   PRE_g72 = 0;
  800eb8:	d0275c05 	stb	zero,-25232(gp)
   PRE_g76 = 0;
  800ebc:	d0277785 	stb	zero,-25122(gp)
   PRE_g82 = 0;
  800ec0:	d0277f45 	stb	zero,-25091(gp)
   PRE_g87 = 0;
  800ec4:	d0276545 	stb	zero,-25195(gp)
   return;
  800ec8:	0001883a 	nop
}
  800ecc:	e037883a 	mov	sp,fp
  800ed0:	df000017 	ldw	fp,0(sp)
  800ed4:	dec00104 	addi	sp,sp,4
  800ed8:	f800283a 	ret

00800edc <tick>:
void tick(){
  800edc:	deffff04 	addi	sp,sp,-4
  800ee0:	df000015 	stw	fp,0(sp)
  800ee4:	d839883a 	mov	fp,sp
   if(_PRE_GO == 1){
  800ee8:	d0a75a17 	ldw	r2,-25240(gp)
  800eec:	10800058 	cmpnei	r2,r2,1
  800ef0:	1000011e 	bne	r2,zero,800ef8 <tick+0x1c>
      _GO = 0;
  800ef4:	d0276ec5 	stb	zero,-25157(gp)
   }
   {
      g0 = _GO;
  800ef8:	d0a76ec3 	ldbu	r2,-25157(gp)
  800efc:	d0a77845 	stb	r2,-25119(gp)
      g1 = g0;
  800f00:	d0a77843 	ldbu	r2,-25119(gp)
  800f04:	d0a75e05 	stb	r2,-25224(gp)
      g2 = g1;
  800f08:	d0a75e03 	ldbu	r2,-25224(gp)
  800f0c:	d0a76945 	stb	r2,-25179(gp)
      g88 =(PRE_g87);
  800f10:	d0a76543 	ldbu	r2,-25195(gp)
  800f14:	d0a77e85 	stb	r2,-25094(gp)
      g86 = g0;
  800f18:	d0a77843 	ldbu	r2,-25119(gp)
  800f1c:	d0a77045 	stb	r2,-25151(gp)
      g87 =(g88||g86);
  800f20:	d0a77e83 	ldbu	r2,-25094(gp)
  800f24:	10803fcc 	andi	r2,r2,255
  800f28:	1080201c 	xori	r2,r2,128
  800f2c:	10bfe004 	addi	r2,r2,-128
  800f30:	1000051e 	bne	r2,zero,800f48 <tick+0x6c>
  800f34:	d0a77043 	ldbu	r2,-25151(gp)
  800f38:	10803fcc 	andi	r2,r2,255
  800f3c:	1080201c 	xori	r2,r2,128
  800f40:	10bfe004 	addi	r2,r2,-128
  800f44:	10000226 	beq	r2,zero,800f50 <tick+0x74>
  800f48:	00800044 	movi	r2,1
  800f4c:	00000106 	br	800f54 <tick+0x78>
  800f50:	0005883a 	mov	r2,zero
  800f54:	d0a75c85 	stb	r2,-25230(gp)
      if(g87){
  800f58:	d0a75c83 	ldbu	r2,-25230(gp)
  800f5c:	10803fcc 	andi	r2,r2,255
  800f60:	1080201c 	xori	r2,r2,128
  800f64:	10bfe004 	addi	r2,r2,-128
  800f68:	10000c26 	beq	r2,zero,800f9c <tick+0xc0>
         VPace = 0;
  800f6c:	d0277fc5 	stb	zero,-25089(gp)
         APace = 0;
  800f70:	d02756c5 	stb	zero,-25253(gp)
         VRP_start = 0;
  800f74:	d0276d45 	stb	zero,-25163(gp)
         LRI_start = 0;
  800f78:	d0276f05 	stb	zero,-25156(gp)
         URI_start = 0;
  800f7c:	d0278285 	stb	zero,-25078(gp)
         AEI_start = 0;
  800f80:	d02775c5 	stb	zero,-25129(gp)
         PVARP_start = 0;
  800f84:	d0277245 	stb	zero,-25143(gp)
         AVI_start = 0;
  800f88:	d0275b85 	stb	zero,-25234(gp)
         LRI_stop = 0;
  800f8c:	d0276305 	stb	zero,-25204(gp)
         AEI_stop = 0;
  800f90:	d0278205 	stb	zero,-25080(gp)
         AVI_stop = 0;
  800f94:	d0275dc5 	stb	zero,-25225(gp)
         URI_stop = 0;
  800f98:	d0278345 	stb	zero,-25075(gp)
      }
      g81 = g1;
  800f9c:	d0a75e03 	ldbu	r2,-25224(gp)
  800fa0:	d0a77745 	stb	r2,-25123(gp)
      g83 =(PRE_g82);
  800fa4:	d0a77f43 	ldbu	r2,-25091(gp)
  800fa8:	d0a75605 	stb	r2,-25256(gp)
      g82 =(g81||g83);
  800fac:	d0a77743 	ldbu	r2,-25123(gp)
  800fb0:	10803fcc 	andi	r2,r2,255
  800fb4:	1080201c 	xori	r2,r2,128
  800fb8:	10bfe004 	addi	r2,r2,-128
  800fbc:	1000051e 	bne	r2,zero,800fd4 <tick+0xf8>
  800fc0:	d0a75603 	ldbu	r2,-25256(gp)
  800fc4:	10803fcc 	andi	r2,r2,255
  800fc8:	1080201c 	xori	r2,r2,128
  800fcc:	10bfe004 	addi	r2,r2,-128
  800fd0:	10000226 	beq	r2,zero,800fdc <tick+0x100>
  800fd4:	00800044 	movi	r2,1
  800fd8:	00000106 	br	800fe0 <tick+0x104>
  800fdc:	0005883a 	mov	r2,zero
  800fe0:	d0a75f05 	stb	r2,-25220(gp)
      if(g82){
  800fe4:	d0a75f03 	ldbu	r2,-25220(gp)
  800fe8:	10803fcc 	andi	r2,r2,255
  800fec:	1080201c 	xori	r2,r2,128
  800ff0:	10bfe004 	addi	r2,r2,-128
  800ff4:	10000326 	beq	r2,zero,801004 <tick+0x128>
         _DDD_Pacemaker_local_PVARP_ex = 0;
  800ff8:	d0276645 	stb	zero,-25191(gp)
         _DDD_Pacemaker_local_VRP_ex = 0;
  800ffc:	d0276a45 	stb	zero,-25175(gp)
         _DDD_Pacemaker_local_URI_ex = 0;
  801000:	d0275e45 	stb	zero,-25223(gp)
      }
      g18 =(PRE_g17);
  801004:	d0a76343 	ldbu	r2,-25203(gp)
  801008:	d0a76385 	stb	r2,-25202(gp)
      _cg18 = URI_TO;
  80100c:	d0a781c3 	ldbu	r2,-25081(gp)
  801010:	d0a77f85 	stb	r2,-25090(gp)
      g20 =(g18&&(!(_cg18)));
  801014:	d0a76383 	ldbu	r2,-25202(gp)
  801018:	10803fcc 	andi	r2,r2,255
  80101c:	1080201c 	xori	r2,r2,128
  801020:	10bfe004 	addi	r2,r2,-128
  801024:	10000726 	beq	r2,zero,801044 <tick+0x168>
  801028:	d0a77f83 	ldbu	r2,-25090(gp)
  80102c:	10803fcc 	andi	r2,r2,255
  801030:	1080201c 	xori	r2,r2,128
  801034:	10bfe004 	addi	r2,r2,-128
  801038:	1000021e 	bne	r2,zero,801044 <tick+0x168>
  80103c:	00800044 	movi	r2,1
  801040:	00000106 	br	801048 <tick+0x16c>
  801044:	0005883a 	mov	r2,zero
  801048:	d0a76f85 	stb	r2,-25154(gp)
      _cg20 = VSense;
  80104c:	d0a76c43 	ldbu	r2,-25167(gp)
  801050:	d0a76605 	stb	r2,-25192(gp)
      g21 =(g20&&_cg20);
  801054:	d0a76f83 	ldbu	r2,-25154(gp)
  801058:	10803fcc 	andi	r2,r2,255
  80105c:	1080201c 	xori	r2,r2,128
  801060:	10bfe004 	addi	r2,r2,-128
  801064:	10000726 	beq	r2,zero,801084 <tick+0x1a8>
  801068:	d0a76603 	ldbu	r2,-25192(gp)
  80106c:	10803fcc 	andi	r2,r2,255
  801070:	1080201c 	xori	r2,r2,128
  801074:	10bfe004 	addi	r2,r2,-128
  801078:	10000226 	beq	r2,zero,801084 <tick+0x1a8>
  80107c:	00800044 	movi	r2,1
  801080:	00000106 	br	801088 <tick+0x1ac>
  801084:	0005883a 	mov	r2,zero
  801088:	d0a76745 	stb	r2,-25187(gp)
      if(g21){
  80108c:	d0a76743 	ldbu	r2,-25187(gp)
  801090:	10803fcc 	andi	r2,r2,255
  801094:	1080201c 	xori	r2,r2,128
  801098:	10bfe004 	addi	r2,r2,-128
  80109c:	10000226 	beq	r2,zero,8010a8 <tick+0x1cc>
         URI_stop =(URI_stop||1);
  8010a0:	00800044 	movi	r2,1
  8010a4:	d0a78345 	stb	r2,-25075(gp)
      }
      g21b = g21;
  8010a8:	d0a76743 	ldbu	r2,-25187(gp)
  8010ac:	d0a77005 	stb	r2,-25152(gp)
      if(g21b){
  8010b0:	d0a77003 	ldbu	r2,-25152(gp)
  8010b4:	10803fcc 	andi	r2,r2,255
  8010b8:	1080201c 	xori	r2,r2,128
  8010bc:	10bfe004 	addi	r2,r2,-128
  8010c0:	10000226 	beq	r2,zero,8010cc <tick+0x1f0>
         _DDD_Pacemaker_local_URI_ex =(_DDD_Pacemaker_local_URI_ex||1);
  8010c4:	00800044 	movi	r2,1
  8010c8:	d0a75e45 	stb	r2,-25223(gp)
      }
      g19 =(g18&&_cg18);
  8010cc:	d0a76383 	ldbu	r2,-25202(gp)
  8010d0:	10803fcc 	andi	r2,r2,255
  8010d4:	1080201c 	xori	r2,r2,128
  8010d8:	10bfe004 	addi	r2,r2,-128
  8010dc:	10000726 	beq	r2,zero,8010fc <tick+0x220>
  8010e0:	d0a77f83 	ldbu	r2,-25090(gp)
  8010e4:	10803fcc 	andi	r2,r2,255
  8010e8:	1080201c 	xori	r2,r2,128
  8010ec:	10bfe004 	addi	r2,r2,-128
  8010f0:	10000226 	beq	r2,zero,8010fc <tick+0x220>
  8010f4:	00800044 	movi	r2,1
  8010f8:	00000106 	br	801100 <tick+0x224>
  8010fc:	0005883a 	mov	r2,zero
  801100:	d0a75785 	stb	r2,-25250(gp)
      if(g19){
  801104:	d0a75783 	ldbu	r2,-25250(gp)
  801108:	10803fcc 	andi	r2,r2,255
  80110c:	1080201c 	xori	r2,r2,128
  801110:	10bfe004 	addi	r2,r2,-128
  801114:	10000226 	beq	r2,zero,801120 <tick+0x244>
         _DDD_Pacemaker_local_URI_ex =(_DDD_Pacemaker_local_URI_ex||1);
  801118:	00800044 	movi	r2,1
  80111c:	d0a75e45 	stb	r2,-25223(gp)
      }
      g77 =(PRE_g76);
  801120:	d0a77783 	ldbu	r2,-25122(gp)
  801124:	d0a77d85 	stb	r2,-25098(gp)
      g77b = g77;
  801128:	d0a77d83 	ldbu	r2,-25098(gp)
  80112c:	d0a75d85 	stb	r2,-25226(gp)
      _cg77 = _DDD_Pacemaker_local_URI_ex;
  801130:	d0a75e43 	ldbu	r2,-25223(gp)
  801134:	d0a77b45 	stb	r2,-25107(gp)
      g78 =(g77b&&_cg77);
  801138:	d0a75d83 	ldbu	r2,-25226(gp)
  80113c:	10803fcc 	andi	r2,r2,255
  801140:	1080201c 	xori	r2,r2,128
  801144:	10bfe004 	addi	r2,r2,-128
  801148:	10000726 	beq	r2,zero,801168 <tick+0x28c>
  80114c:	d0a77b43 	ldbu	r2,-25107(gp)
  801150:	10803fcc 	andi	r2,r2,255
  801154:	1080201c 	xori	r2,r2,128
  801158:	10bfe004 	addi	r2,r2,-128
  80115c:	10000226 	beq	r2,zero,801168 <tick+0x28c>
  801160:	00800044 	movi	r2,1
  801164:	00000106 	br	80116c <tick+0x290>
  801168:	0005883a 	mov	r2,zero
  80116c:	d0a76cc5 	stb	r2,-25165(gp)
      if(g78){
  801170:	d0a76cc3 	ldbu	r2,-25165(gp)
  801174:	10803fcc 	andi	r2,r2,255
  801178:	1080201c 	xori	r2,r2,128
  80117c:	10bfe004 	addi	r2,r2,-128
  801180:	10000226 	beq	r2,zero,80118c <tick+0x2b0>
         VPace =(VPace||1);
  801184:	00800044 	movi	r2,1
  801188:	d0a77fc5 	stb	r2,-25089(gp)
      }
      g32 =(PRE_g31);
  80118c:	d0a77403 	ldbu	r2,-25136(gp)
  801190:	d0a77dc5 	stb	r2,-25097(gp)
      _cg32 = VSense;
  801194:	d0a76c43 	ldbu	r2,-25167(gp)
  801198:	d0a78245 	stb	r2,-25079(gp)
      g36 =(g32&&(!(_cg32)));
  80119c:	d0a77dc3 	ldbu	r2,-25097(gp)
  8011a0:	10803fcc 	andi	r2,r2,255
  8011a4:	1080201c 	xori	r2,r2,128
  8011a8:	10bfe004 	addi	r2,r2,-128
  8011ac:	10000726 	beq	r2,zero,8011cc <tick+0x2f0>
  8011b0:	d0a78243 	ldbu	r2,-25079(gp)
  8011b4:	10803fcc 	andi	r2,r2,255
  8011b8:	1080201c 	xori	r2,r2,128
  8011bc:	10bfe004 	addi	r2,r2,-128
  8011c0:	1000021e 	bne	r2,zero,8011cc <tick+0x2f0>
  8011c4:	00800044 	movi	r2,1
  8011c8:	00000106 	br	8011d0 <tick+0x2f4>
  8011cc:	0005883a 	mov	r2,zero
  8011d0:	d0a77145 	stb	r2,-25147(gp)
      _cg36 = VPace;
  8011d4:	d0a77fc3 	ldbu	r2,-25089(gp)
  8011d8:	d0a78385 	stb	r2,-25074(gp)
      g38 =(g36&&(!(_cg36)));
  8011dc:	d0a77143 	ldbu	r2,-25147(gp)
  8011e0:	10803fcc 	andi	r2,r2,255
  8011e4:	1080201c 	xori	r2,r2,128
  8011e8:	10bfe004 	addi	r2,r2,-128
  8011ec:	10000726 	beq	r2,zero,80120c <tick+0x330>
  8011f0:	d0a78383 	ldbu	r2,-25074(gp)
  8011f4:	10803fcc 	andi	r2,r2,255
  8011f8:	1080201c 	xori	r2,r2,128
  8011fc:	10bfe004 	addi	r2,r2,-128
  801200:	1000021e 	bne	r2,zero,80120c <tick+0x330>
  801204:	00800044 	movi	r2,1
  801208:	00000106 	br	801210 <tick+0x334>
  80120c:	0005883a 	mov	r2,zero
  801210:	d0a76505 	stb	r2,-25196(gp)
      _cg38 = LRI_TO;
  801214:	d0a76003 	ldbu	r2,-25216(gp)
  801218:	d0a76e05 	stb	r2,-25160(gp)
      g39 =(g38&&_cg38);
  80121c:	d0a76503 	ldbu	r2,-25196(gp)
  801220:	10803fcc 	andi	r2,r2,255
  801224:	1080201c 	xori	r2,r2,128
  801228:	10bfe004 	addi	r2,r2,-128
  80122c:	10000726 	beq	r2,zero,80124c <tick+0x370>
  801230:	d0a76e03 	ldbu	r2,-25160(gp)
  801234:	10803fcc 	andi	r2,r2,255
  801238:	1080201c 	xori	r2,r2,128
  80123c:	10bfe004 	addi	r2,r2,-128
  801240:	10000226 	beq	r2,zero,80124c <tick+0x370>
  801244:	00800044 	movi	r2,1
  801248:	00000106 	br	801250 <tick+0x374>
  80124c:	0005883a 	mov	r2,zero
  801250:	d0a78005 	stb	r2,-25088(gp)
      if(g39){
  801254:	d0a78003 	ldbu	r2,-25088(gp)
  801258:	10803fcc 	andi	r2,r2,255
  80125c:	1080201c 	xori	r2,r2,128
  801260:	10bfe004 	addi	r2,r2,-128
  801264:	10000226 	beq	r2,zero,801270 <tick+0x394>
         VPace =(VPace||1);
  801268:	00800044 	movi	r2,1
  80126c:	d0a77fc5 	stb	r2,-25089(gp)
      }
      g4 =(PRE_g3);
  801270:	d0a75b03 	ldbu	r2,-25236(gp)
  801274:	d0a75705 	stb	r2,-25252(gp)
      _cg4 = VSense;
  801278:	d0a76c43 	ldbu	r2,-25167(gp)
  80127c:	d0a78105 	stb	r2,-25084(gp)
      g9 =(g4&&(!(_cg4)));
  801280:	d0a75703 	ldbu	r2,-25252(gp)
  801284:	10803fcc 	andi	r2,r2,255
  801288:	1080201c 	xori	r2,r2,128
  80128c:	10bfe004 	addi	r2,r2,-128
  801290:	10000726 	beq	r2,zero,8012b0 <tick+0x3d4>
  801294:	d0a78103 	ldbu	r2,-25084(gp)
  801298:	10803fcc 	andi	r2,r2,255
  80129c:	1080201c 	xori	r2,r2,128
  8012a0:	10bfe004 	addi	r2,r2,-128
  8012a4:	1000021e 	bne	r2,zero,8012b0 <tick+0x3d4>
  8012a8:	00800044 	movi	r2,1
  8012ac:	00000106 	br	8012b4 <tick+0x3d8>
  8012b0:	0005883a 	mov	r2,zero
  8012b4:	d0a75985 	stb	r2,-25242(gp)
      _cg9 = VPace;
  8012b8:	d0a77fc3 	ldbu	r2,-25089(gp)
  8012bc:	d0a77805 	stb	r2,-25120(gp)
      g7 =(PRE_g6);
  8012c0:	d0a76c83 	ldbu	r2,-25166(gp)
  8012c4:	d0a76985 	stb	r2,-25178(gp)
      _cg7 = VRP_TO;
  8012c8:	d0a757c3 	ldbu	r2,-25249(gp)
  8012cc:	d0a759c5 	stb	r2,-25241(gp)
      g8 =(g7&&_cg7);
  8012d0:	d0a76983 	ldbu	r2,-25178(gp)
  8012d4:	10803fcc 	andi	r2,r2,255
  8012d8:	1080201c 	xori	r2,r2,128
  8012dc:	10bfe004 	addi	r2,r2,-128
  8012e0:	10000726 	beq	r2,zero,801300 <tick+0x424>
  8012e4:	d0a759c3 	ldbu	r2,-25241(gp)
  8012e8:	10803fcc 	andi	r2,r2,255
  8012ec:	1080201c 	xori	r2,r2,128
  8012f0:	10bfe004 	addi	r2,r2,-128
  8012f4:	10000226 	beq	r2,zero,801300 <tick+0x424>
  8012f8:	00800044 	movi	r2,1
  8012fc:	00000106 	br	801304 <tick+0x428>
  801300:	0005883a 	mov	r2,zero
  801304:	d0a77545 	stb	r2,-25131(gp)
      if(g8){
  801308:	d0a77543 	ldbu	r2,-25131(gp)
  80130c:	10803fcc 	andi	r2,r2,255
  801310:	1080201c 	xori	r2,r2,128
  801314:	10bfe004 	addi	r2,r2,-128
  801318:	10000226 	beq	r2,zero,801324 <tick+0x448>
         _DDD_Pacemaker_local_VRP_ex =(_DDD_Pacemaker_local_VRP_ex||1);
  80131c:	00800044 	movi	r2,1
  801320:	d0a76a45 	stb	r2,-25175(gp)
      }
      g3 =(g2||(g9&&(!(_cg9)))||g8);
  801324:	d0a76943 	ldbu	r2,-25179(gp)
  801328:	10803fcc 	andi	r2,r2,255
  80132c:	1080201c 	xori	r2,r2,128
  801330:	10bfe004 	addi	r2,r2,-128
  801334:	10000f1e 	bne	r2,zero,801374 <tick+0x498>
  801338:	d0a75983 	ldbu	r2,-25242(gp)
  80133c:	10803fcc 	andi	r2,r2,255
  801340:	1080201c 	xori	r2,r2,128
  801344:	10bfe004 	addi	r2,r2,-128
  801348:	10000526 	beq	r2,zero,801360 <tick+0x484>
  80134c:	d0a77803 	ldbu	r2,-25120(gp)
  801350:	10803fcc 	andi	r2,r2,255
  801354:	1080201c 	xori	r2,r2,128
  801358:	10bfe004 	addi	r2,r2,-128
  80135c:	10000526 	beq	r2,zero,801374 <tick+0x498>
  801360:	d0a77543 	ldbu	r2,-25131(gp)
  801364:	10803fcc 	andi	r2,r2,255
  801368:	1080201c 	xori	r2,r2,128
  80136c:	10bfe004 	addi	r2,r2,-128
  801370:	10000226 	beq	r2,zero,80137c <tick+0x4a0>
  801374:	00800044 	movi	r2,1
  801378:	00000106 	br	801380 <tick+0x4a4>
  80137c:	0005883a 	mov	r2,zero
  801380:	d0a75885 	stb	r2,-25246(gp)
      g5 =((g4&&_cg4)||(g9&&_cg9));
  801384:	d0a75703 	ldbu	r2,-25252(gp)
  801388:	10803fcc 	andi	r2,r2,255
  80138c:	1080201c 	xori	r2,r2,128
  801390:	10bfe004 	addi	r2,r2,-128
  801394:	10000526 	beq	r2,zero,8013ac <tick+0x4d0>
  801398:	d0a78103 	ldbu	r2,-25084(gp)
  80139c:	10803fcc 	andi	r2,r2,255
  8013a0:	1080201c 	xori	r2,r2,128
  8013a4:	10bfe004 	addi	r2,r2,-128
  8013a8:	10000a1e 	bne	r2,zero,8013d4 <tick+0x4f8>
  8013ac:	d0a75983 	ldbu	r2,-25242(gp)
  8013b0:	10803fcc 	andi	r2,r2,255
  8013b4:	1080201c 	xori	r2,r2,128
  8013b8:	10bfe004 	addi	r2,r2,-128
  8013bc:	10000726 	beq	r2,zero,8013dc <tick+0x500>
  8013c0:	d0a77803 	ldbu	r2,-25120(gp)
  8013c4:	10803fcc 	andi	r2,r2,255
  8013c8:	1080201c 	xori	r2,r2,128
  8013cc:	10bfe004 	addi	r2,r2,-128
  8013d0:	10000226 	beq	r2,zero,8013dc <tick+0x500>
  8013d4:	00800044 	movi	r2,1
  8013d8:	00000106 	br	8013e0 <tick+0x504>
  8013dc:	0005883a 	mov	r2,zero
  8013e0:	d0a768c5 	stb	r2,-25181(gp)
      if(g5){
  8013e4:	d0a768c3 	ldbu	r2,-25181(gp)
  8013e8:	10803fcc 	andi	r2,r2,255
  8013ec:	1080201c 	xori	r2,r2,128
  8013f0:	10bfe004 	addi	r2,r2,-128
  8013f4:	10000226 	beq	r2,zero,801400 <tick+0x524>
         VRP_start =(VRP_start||1);
  8013f8:	00800044 	movi	r2,1
  8013fc:	d0a76d45 	stb	r2,-25163(gp)
      }
      g6 =((g7&&(!(_cg7)))||g5);
  801400:	d0a76983 	ldbu	r2,-25178(gp)
  801404:	10803fcc 	andi	r2,r2,255
  801408:	1080201c 	xori	r2,r2,128
  80140c:	10bfe004 	addi	r2,r2,-128
  801410:	10000526 	beq	r2,zero,801428 <tick+0x54c>
  801414:	d0a759c3 	ldbu	r2,-25241(gp)
  801418:	10803fcc 	andi	r2,r2,255
  80141c:	1080201c 	xori	r2,r2,128
  801420:	10bfe004 	addi	r2,r2,-128
  801424:	10000526 	beq	r2,zero,80143c <tick+0x560>
  801428:	d0a768c3 	ldbu	r2,-25181(gp)
  80142c:	10803fcc 	andi	r2,r2,255
  801430:	1080201c 	xori	r2,r2,128
  801434:	10bfe004 	addi	r2,r2,-128
  801438:	10000226 	beq	r2,zero,801444 <tick+0x568>
  80143c:	00800044 	movi	r2,1
  801440:	00000106 	br	801448 <tick+0x56c>
  801444:	0005883a 	mov	r2,zero
  801448:	d0a776c5 	stb	r2,-25125(gp)
      g11 = g1;
  80144c:	d0a75e03 	ldbu	r2,-25224(gp)
  801450:	d0a77c05 	stb	r2,-25104(gp)
      g13 =(PRE_g12);
  801454:	d0a76803 	ldbu	r2,-25184(gp)
  801458:	d0a774c5 	stb	r2,-25133(gp)
      _cg13 = VSense;
  80145c:	d0a76c43 	ldbu	r2,-25167(gp)
  801460:	d0a777c5 	stb	r2,-25121(gp)
      g23 =(g13&&(!(_cg13)));
  801464:	d0a774c3 	ldbu	r2,-25133(gp)
  801468:	10803fcc 	andi	r2,r2,255
  80146c:	1080201c 	xori	r2,r2,128
  801470:	10bfe004 	addi	r2,r2,-128
  801474:	10000726 	beq	r2,zero,801494 <tick+0x5b8>
  801478:	d0a777c3 	ldbu	r2,-25121(gp)
  80147c:	10803fcc 	andi	r2,r2,255
  801480:	1080201c 	xori	r2,r2,128
  801484:	10bfe004 	addi	r2,r2,-128
  801488:	1000021e 	bne	r2,zero,801494 <tick+0x5b8>
  80148c:	00800044 	movi	r2,1
  801490:	00000106 	br	801498 <tick+0x5bc>
  801494:	0005883a 	mov	r2,zero
  801498:	d0a76b45 	stb	r2,-25171(gp)
      _cg23 = VPace;
  80149c:	d0a77fc3 	ldbu	r2,-25089(gp)
  8014a0:	d0a77f05 	stb	r2,-25092(gp)
      g12 =(g19||(g23&&(!(_cg23)))||g11);
  8014a4:	d0a75783 	ldbu	r2,-25250(gp)
  8014a8:	10803fcc 	andi	r2,r2,255
  8014ac:	1080201c 	xori	r2,r2,128
  8014b0:	10bfe004 	addi	r2,r2,-128
  8014b4:	10000f1e 	bne	r2,zero,8014f4 <tick+0x618>
  8014b8:	d0a76b43 	ldbu	r2,-25171(gp)
  8014bc:	10803fcc 	andi	r2,r2,255
  8014c0:	1080201c 	xori	r2,r2,128
  8014c4:	10bfe004 	addi	r2,r2,-128
  8014c8:	10000526 	beq	r2,zero,8014e0 <tick+0x604>
  8014cc:	d0a77f03 	ldbu	r2,-25092(gp)
  8014d0:	10803fcc 	andi	r2,r2,255
  8014d4:	1080201c 	xori	r2,r2,128
  8014d8:	10bfe004 	addi	r2,r2,-128
  8014dc:	10000526 	beq	r2,zero,8014f4 <tick+0x618>
  8014e0:	d0a77c03 	ldbu	r2,-25104(gp)
  8014e4:	10803fcc 	andi	r2,r2,255
  8014e8:	1080201c 	xori	r2,r2,128
  8014ec:	10bfe004 	addi	r2,r2,-128
  8014f0:	10000226 	beq	r2,zero,8014fc <tick+0x620>
  8014f4:	00800044 	movi	r2,1
  8014f8:	00000106 	br	801500 <tick+0x624>
  8014fc:	0005883a 	mov	r2,zero
  801500:	d0a75f85 	stb	r2,-25218(gp)
      g14 =((g13&&_cg13)||(g23&&_cg23));
  801504:	d0a774c3 	ldbu	r2,-25133(gp)
  801508:	10803fcc 	andi	r2,r2,255
  80150c:	1080201c 	xori	r2,r2,128
  801510:	10bfe004 	addi	r2,r2,-128
  801514:	10000526 	beq	r2,zero,80152c <tick+0x650>
  801518:	d0a777c3 	ldbu	r2,-25121(gp)
  80151c:	10803fcc 	andi	r2,r2,255
  801520:	1080201c 	xori	r2,r2,128
  801524:	10bfe004 	addi	r2,r2,-128
  801528:	10000a1e 	bne	r2,zero,801554 <tick+0x678>
  80152c:	d0a76b43 	ldbu	r2,-25171(gp)
  801530:	10803fcc 	andi	r2,r2,255
  801534:	1080201c 	xori	r2,r2,128
  801538:	10bfe004 	addi	r2,r2,-128
  80153c:	10000726 	beq	r2,zero,80155c <tick+0x680>
  801540:	d0a77f03 	ldbu	r2,-25092(gp)
  801544:	10803fcc 	andi	r2,r2,255
  801548:	1080201c 	xori	r2,r2,128
  80154c:	10bfe004 	addi	r2,r2,-128
  801550:	10000226 	beq	r2,zero,80155c <tick+0x680>
  801554:	00800044 	movi	r2,1
  801558:	00000106 	br	801560 <tick+0x684>
  80155c:	0005883a 	mov	r2,zero
  801560:	d0a76bc5 	stb	r2,-25169(gp)
      if(g14){
  801564:	d0a76bc3 	ldbu	r2,-25169(gp)
  801568:	10803fcc 	andi	r2,r2,255
  80156c:	1080201c 	xori	r2,r2,128
  801570:	10bfe004 	addi	r2,r2,-128
  801574:	10000226 	beq	r2,zero,801580 <tick+0x6a4>
         URI_start =(URI_start||1);
  801578:	00800044 	movi	r2,1
  80157c:	d0a78285 	stb	r2,-25078(gp)
      }
      g22 =(PRE_g21);
  801580:	d0a77a43 	ldbu	r2,-25111(gp)
  801584:	d0a77c85 	stb	r2,-25102(gp)
      g22b = g22;
  801588:	d0a77c83 	ldbu	r2,-25102(gp)
  80158c:	d0a76685 	stb	r2,-25190(gp)
      if(g22b){
  801590:	d0a76683 	ldbu	r2,-25190(gp)
  801594:	10803fcc 	andi	r2,r2,255
  801598:	1080201c 	xori	r2,r2,128
  80159c:	10bfe004 	addi	r2,r2,-128
  8015a0:	10000226 	beq	r2,zero,8015ac <tick+0x6d0>
         URI_start =(URI_start||1);
  8015a4:	00800044 	movi	r2,1
  8015a8:	d0a78285 	stb	r2,-25078(gp)
      }
      g16 =(PRE_g15);
  8015ac:	d0a779c3 	ldbu	r2,-25113(gp)
  8015b0:	d0a77ac5 	stb	r2,-25109(gp)
      g16b = g16;
  8015b4:	d0a77ac3 	ldbu	r2,-25109(gp)
  8015b8:	d0a77d45 	stb	r2,-25099(gp)
      _cg16 = _DDD_Pacemaker_local_VRP_ex;
  8015bc:	d0a76a43 	ldbu	r2,-25175(gp)
  8015c0:	d0a769c5 	stb	r2,-25177(gp)
      g15 =(g22b||g14||(g16b&&(!(_cg16))));
  8015c4:	d0a76683 	ldbu	r2,-25190(gp)
  8015c8:	10803fcc 	andi	r2,r2,255
  8015cc:	1080201c 	xori	r2,r2,128
  8015d0:	10bfe004 	addi	r2,r2,-128
  8015d4:	10000f1e 	bne	r2,zero,801614 <tick+0x738>
  8015d8:	d0a76bc3 	ldbu	r2,-25169(gp)
  8015dc:	10803fcc 	andi	r2,r2,255
  8015e0:	1080201c 	xori	r2,r2,128
  8015e4:	10bfe004 	addi	r2,r2,-128
  8015e8:	10000a1e 	bne	r2,zero,801614 <tick+0x738>
  8015ec:	d0a77d43 	ldbu	r2,-25099(gp)
  8015f0:	10803fcc 	andi	r2,r2,255
  8015f4:	1080201c 	xori	r2,r2,128
  8015f8:	10bfe004 	addi	r2,r2,-128
  8015fc:	10000726 	beq	r2,zero,80161c <tick+0x740>
  801600:	d0a769c3 	ldbu	r2,-25177(gp)
  801604:	10803fcc 	andi	r2,r2,255
  801608:	1080201c 	xori	r2,r2,128
  80160c:	10bfe004 	addi	r2,r2,-128
  801610:	1000021e 	bne	r2,zero,80161c <tick+0x740>
  801614:	00800044 	movi	r2,1
  801618:	00000106 	br	801620 <tick+0x744>
  80161c:	0005883a 	mov	r2,zero
  801620:	d0a76e45 	stb	r2,-25159(gp)
      g17 =((g20&&(!(_cg20)))||(g16b&&_cg16));
  801624:	d0a76f83 	ldbu	r2,-25154(gp)
  801628:	10803fcc 	andi	r2,r2,255
  80162c:	1080201c 	xori	r2,r2,128
  801630:	10bfe004 	addi	r2,r2,-128
  801634:	10000526 	beq	r2,zero,80164c <tick+0x770>
  801638:	d0a76603 	ldbu	r2,-25192(gp)
  80163c:	10803fcc 	andi	r2,r2,255
  801640:	1080201c 	xori	r2,r2,128
  801644:	10bfe004 	addi	r2,r2,-128
  801648:	10000a26 	beq	r2,zero,801674 <tick+0x798>
  80164c:	d0a77d43 	ldbu	r2,-25099(gp)
  801650:	10803fcc 	andi	r2,r2,255
  801654:	1080201c 	xori	r2,r2,128
  801658:	10bfe004 	addi	r2,r2,-128
  80165c:	10000726 	beq	r2,zero,80167c <tick+0x7a0>
  801660:	d0a769c3 	ldbu	r2,-25177(gp)
  801664:	10803fcc 	andi	r2,r2,255
  801668:	1080201c 	xori	r2,r2,128
  80166c:	10bfe004 	addi	r2,r2,-128
  801670:	10000226 	beq	r2,zero,80167c <tick+0x7a0>
  801674:	00800044 	movi	r2,1
  801678:	00000106 	br	801680 <tick+0x7a4>
  80167c:	0005883a 	mov	r2,zero
  801680:	d0a76085 	stb	r2,-25214(gp)
      g25 = g1;
  801684:	d0a75e03 	ldbu	r2,-25224(gp)
  801688:	d0a77bc5 	stb	r2,-25105(gp)
      g27 =(PRE_g26);
  80168c:	d0a77e43 	ldbu	r2,-25095(gp)
  801690:	d0a75845 	stb	r2,-25247(gp)
      _cg27 = VSense;
  801694:	d0a76c43 	ldbu	r2,-25167(gp)
  801698:	d0a78405 	stb	r2,-25072(gp)
      g40 =(g27&&(!(_cg27)));
  80169c:	d0a75843 	ldbu	r2,-25247(gp)
  8016a0:	10803fcc 	andi	r2,r2,255
  8016a4:	1080201c 	xori	r2,r2,128
  8016a8:	10bfe004 	addi	r2,r2,-128
  8016ac:	10000726 	beq	r2,zero,8016cc <tick+0x7f0>
  8016b0:	d0a78403 	ldbu	r2,-25072(gp)
  8016b4:	10803fcc 	andi	r2,r2,255
  8016b8:	1080201c 	xori	r2,r2,128
  8016bc:	10bfe004 	addi	r2,r2,-128
  8016c0:	1000021e 	bne	r2,zero,8016cc <tick+0x7f0>
  8016c4:	00800044 	movi	r2,1
  8016c8:	00000106 	br	8016d0 <tick+0x7f4>
  8016cc:	0005883a 	mov	r2,zero
  8016d0:	d0a75645 	stb	r2,-25255(gp)
      _cg40 = VPace;
  8016d4:	d0a77fc3 	ldbu	r2,-25089(gp)
  8016d8:	d0a77985 	stb	r2,-25114(gp)
      g26 =(g25||(g40&&(!(_cg40))));
  8016dc:	d0a77bc3 	ldbu	r2,-25105(gp)
  8016e0:	10803fcc 	andi	r2,r2,255
  8016e4:	1080201c 	xori	r2,r2,128
  8016e8:	10bfe004 	addi	r2,r2,-128
  8016ec:	10000a1e 	bne	r2,zero,801718 <tick+0x83c>
  8016f0:	d0a75643 	ldbu	r2,-25255(gp)
  8016f4:	10803fcc 	andi	r2,r2,255
  8016f8:	1080201c 	xori	r2,r2,128
  8016fc:	10bfe004 	addi	r2,r2,-128
  801700:	10000726 	beq	r2,zero,801720 <tick+0x844>
  801704:	d0a77983 	ldbu	r2,-25114(gp)
  801708:	10803fcc 	andi	r2,r2,255
  80170c:	1080201c 	xori	r2,r2,128
  801710:	10bfe004 	addi	r2,r2,-128
  801714:	1000021e 	bne	r2,zero,801720 <tick+0x844>
  801718:	00800044 	movi	r2,1
  80171c:	00000106 	br	801724 <tick+0x848>
  801720:	0005883a 	mov	r2,zero
  801724:	d0a78485 	stb	r2,-25070(gp)
      g28 =((g40&&_cg40)||(g27&&_cg27));
  801728:	d0a75643 	ldbu	r2,-25255(gp)
  80172c:	10803fcc 	andi	r2,r2,255
  801730:	1080201c 	xori	r2,r2,128
  801734:	10bfe004 	addi	r2,r2,-128
  801738:	10000526 	beq	r2,zero,801750 <tick+0x874>
  80173c:	d0a77983 	ldbu	r2,-25114(gp)
  801740:	10803fcc 	andi	r2,r2,255
  801744:	1080201c 	xori	r2,r2,128
  801748:	10bfe004 	addi	r2,r2,-128
  80174c:	10000a1e 	bne	r2,zero,801778 <tick+0x89c>
  801750:	d0a75843 	ldbu	r2,-25247(gp)
  801754:	10803fcc 	andi	r2,r2,255
  801758:	1080201c 	xori	r2,r2,128
  80175c:	10bfe004 	addi	r2,r2,-128
  801760:	10000726 	beq	r2,zero,801780 <tick+0x8a4>
  801764:	d0a78403 	ldbu	r2,-25072(gp)
  801768:	10803fcc 	andi	r2,r2,255
  80176c:	1080201c 	xori	r2,r2,128
  801770:	10bfe004 	addi	r2,r2,-128
  801774:	10000226 	beq	r2,zero,801780 <tick+0x8a4>
  801778:	00800044 	movi	r2,1
  80177c:	00000106 	br	801784 <tick+0x8a8>
  801780:	0005883a 	mov	r2,zero
  801784:	d0a77cc5 	stb	r2,-25101(gp)
      if(g28){
  801788:	d0a77cc3 	ldbu	r2,-25101(gp)
  80178c:	10803fcc 	andi	r2,r2,255
  801790:	1080201c 	xori	r2,r2,128
  801794:	10bfe004 	addi	r2,r2,-128
  801798:	10000226 	beq	r2,zero,8017a4 <tick+0x8c8>
         LRI_start =(LRI_start||1);
  80179c:	00800044 	movi	r2,1
  8017a0:	d0a76f05 	stb	r2,-25156(gp)
      }
      g35 =(PRE_g34);
  8017a4:	d0a760c3 	ldbu	r2,-25213(gp)
  8017a8:	d0a76dc5 	stb	r2,-25161(gp)
      g35b = g35;
  8017ac:	d0a76dc3 	ldbu	r2,-25161(gp)
  8017b0:	d0a76d85 	stb	r2,-25162(gp)
      if(g35b){
  8017b4:	d0a76d83 	ldbu	r2,-25162(gp)
  8017b8:	10803fcc 	andi	r2,r2,255
  8017bc:	1080201c 	xori	r2,r2,128
  8017c0:	10bfe004 	addi	r2,r2,-128
  8017c4:	10000226 	beq	r2,zero,8017d0 <tick+0x8f4>
         LRI_start =(LRI_start||1);
  8017c8:	00800044 	movi	r2,1
  8017cc:	d0a76f05 	stb	r2,-25156(gp)
      }
      g30 =(PRE_g29);
  8017d0:	d0a75b43 	ldbu	r2,-25235(gp)
  8017d4:	d0a77945 	stb	r2,-25115(gp)
      g30b = g30;
  8017d8:	d0a77943 	ldbu	r2,-25115(gp)
  8017dc:	d0a76585 	stb	r2,-25194(gp)
      _cg30 = _DDD_Pacemaker_local_VRP_ex;
  8017e0:	d0a76a43 	ldbu	r2,-25175(gp)
  8017e4:	d0a77a85 	stb	r2,-25110(gp)
      g29 =(g28||g35b||(g30b&&(!(_cg30))));
  8017e8:	d0a77cc3 	ldbu	r2,-25101(gp)
  8017ec:	10803fcc 	andi	r2,r2,255
  8017f0:	1080201c 	xori	r2,r2,128
  8017f4:	10bfe004 	addi	r2,r2,-128
  8017f8:	10000f1e 	bne	r2,zero,801838 <tick+0x95c>
  8017fc:	d0a76d83 	ldbu	r2,-25162(gp)
  801800:	10803fcc 	andi	r2,r2,255
  801804:	1080201c 	xori	r2,r2,128
  801808:	10bfe004 	addi	r2,r2,-128
  80180c:	10000a1e 	bne	r2,zero,801838 <tick+0x95c>
  801810:	d0a76583 	ldbu	r2,-25194(gp)
  801814:	10803fcc 	andi	r2,r2,255
  801818:	1080201c 	xori	r2,r2,128
  80181c:	10bfe004 	addi	r2,r2,-128
  801820:	10000726 	beq	r2,zero,801840 <tick+0x964>
  801824:	d0a77a83 	ldbu	r2,-25110(gp)
  801828:	10803fcc 	andi	r2,r2,255
  80182c:	1080201c 	xori	r2,r2,128
  801830:	10bfe004 	addi	r2,r2,-128
  801834:	1000021e 	bne	r2,zero,801840 <tick+0x964>
  801838:	00800044 	movi	r2,1
  80183c:	00000106 	br	801844 <tick+0x968>
  801840:	0005883a 	mov	r2,zero
  801844:	d0a780c5 	stb	r2,-25085(gp)
      g31 =((g30b&&_cg30)||(g38&&(!(_cg38))));
  801848:	d0a76583 	ldbu	r2,-25194(gp)
  80184c:	10803fcc 	andi	r2,r2,255
  801850:	1080201c 	xori	r2,r2,128
  801854:	10bfe004 	addi	r2,r2,-128
  801858:	10000526 	beq	r2,zero,801870 <tick+0x994>
  80185c:	d0a77a83 	ldbu	r2,-25110(gp)
  801860:	10803fcc 	andi	r2,r2,255
  801864:	1080201c 	xori	r2,r2,128
  801868:	10bfe004 	addi	r2,r2,-128
  80186c:	10000a1e 	bne	r2,zero,801898 <tick+0x9bc>
  801870:	d0a76503 	ldbu	r2,-25196(gp)
  801874:	10803fcc 	andi	r2,r2,255
  801878:	1080201c 	xori	r2,r2,128
  80187c:	10bfe004 	addi	r2,r2,-128
  801880:	10000726 	beq	r2,zero,8018a0 <tick+0x9c4>
  801884:	d0a76e03 	ldbu	r2,-25160(gp)
  801888:	10803fcc 	andi	r2,r2,255
  80188c:	1080201c 	xori	r2,r2,128
  801890:	10bfe004 	addi	r2,r2,-128
  801894:	1000021e 	bne	r2,zero,8018a0 <tick+0x9c4>
  801898:	00800044 	movi	r2,1
  80189c:	00000106 	br	8018a4 <tick+0x9c8>
  8018a0:	0005883a 	mov	r2,zero
  8018a4:	d0a76145 	stb	r2,-25211(gp)
      g33 =(g32&&_cg32);
  8018a8:	d0a77dc3 	ldbu	r2,-25097(gp)
  8018ac:	10803fcc 	andi	r2,r2,255
  8018b0:	1080201c 	xori	r2,r2,128
  8018b4:	10bfe004 	addi	r2,r2,-128
  8018b8:	10000726 	beq	r2,zero,8018d8 <tick+0x9fc>
  8018bc:	d0a78243 	ldbu	r2,-25079(gp)
  8018c0:	10803fcc 	andi	r2,r2,255
  8018c4:	1080201c 	xori	r2,r2,128
  8018c8:	10bfe004 	addi	r2,r2,-128
  8018cc:	10000226 	beq	r2,zero,8018d8 <tick+0x9fc>
  8018d0:	00800044 	movi	r2,1
  8018d4:	00000106 	br	8018dc <tick+0xa00>
  8018d8:	0005883a 	mov	r2,zero
  8018dc:	d0a76d05 	stb	r2,-25164(gp)
      if(g33){
  8018e0:	d0a76d03 	ldbu	r2,-25164(gp)
  8018e4:	10803fcc 	andi	r2,r2,255
  8018e8:	1080201c 	xori	r2,r2,128
  8018ec:	10bfe004 	addi	r2,r2,-128
  8018f0:	10000226 	beq	r2,zero,8018fc <tick+0xa20>
         LRI_stop =(LRI_stop||1);
  8018f4:	00800044 	movi	r2,1
  8018f8:	d0a76305 	stb	r2,-25204(gp)
      }
      g37 =(g36&&_cg36);
  8018fc:	d0a77143 	ldbu	r2,-25147(gp)
  801900:	10803fcc 	andi	r2,r2,255
  801904:	1080201c 	xori	r2,r2,128
  801908:	10bfe004 	addi	r2,r2,-128
  80190c:	10000726 	beq	r2,zero,80192c <tick+0xa50>
  801910:	d0a78383 	ldbu	r2,-25074(gp)
  801914:	10803fcc 	andi	r2,r2,255
  801918:	1080201c 	xori	r2,r2,128
  80191c:	10bfe004 	addi	r2,r2,-128
  801920:	10000226 	beq	r2,zero,80192c <tick+0xa50>
  801924:	00800044 	movi	r2,1
  801928:	00000106 	br	801930 <tick+0xa54>
  80192c:	0005883a 	mov	r2,zero
  801930:	d0a76185 	stb	r2,-25210(gp)
      if(g37){
  801934:	d0a76183 	ldbu	r2,-25210(gp)
  801938:	10803fcc 	andi	r2,r2,255
  80193c:	1080201c 	xori	r2,r2,128
  801940:	10bfe004 	addi	r2,r2,-128
  801944:	10000226 	beq	r2,zero,801950 <tick+0xa74>
         LRI_stop =(LRI_stop||1);
  801948:	00800044 	movi	r2,1
  80194c:	d0a76305 	stb	r2,-25204(gp)
      }
      g34 =(g33||g37||g39);
  801950:	d0a76d03 	ldbu	r2,-25164(gp)
  801954:	10803fcc 	andi	r2,r2,255
  801958:	1080201c 	xori	r2,r2,128
  80195c:	10bfe004 	addi	r2,r2,-128
  801960:	10000a1e 	bne	r2,zero,80198c <tick+0xab0>
  801964:	d0a76183 	ldbu	r2,-25210(gp)
  801968:	10803fcc 	andi	r2,r2,255
  80196c:	1080201c 	xori	r2,r2,128
  801970:	10bfe004 	addi	r2,r2,-128
  801974:	1000051e 	bne	r2,zero,80198c <tick+0xab0>
  801978:	d0a78003 	ldbu	r2,-25088(gp)
  80197c:	10803fcc 	andi	r2,r2,255
  801980:	1080201c 	xori	r2,r2,128
  801984:	10bfe004 	addi	r2,r2,-128
  801988:	10000226 	beq	r2,zero,801994 <tick+0xab8>
  80198c:	00800044 	movi	r2,1
  801990:	00000106 	br	801998 <tick+0xabc>
  801994:	0005883a 	mov	r2,zero
  801998:	d0a76885 	stb	r2,-25182(gp)
      g42 = g1;
  80199c:	d0a75e03 	ldbu	r2,-25224(gp)
  8019a0:	d0a75945 	stb	r2,-25243(gp)
      g49 =(PRE_g48);
  8019a4:	d0a77443 	ldbu	r2,-25135(gp)
  8019a8:	d0a76905 	stb	r2,-25180(gp)
      _cg49 = ASense;
  8019ac:	d0a76403 	ldbu	r2,-25200(gp)
  8019b0:	d0a78085 	stb	r2,-25086(gp)
      g51 =(g49&&(!(_cg49)));
  8019b4:	d0a76903 	ldbu	r2,-25180(gp)
  8019b8:	10803fcc 	andi	r2,r2,255
  8019bc:	1080201c 	xori	r2,r2,128
  8019c0:	10bfe004 	addi	r2,r2,-128
  8019c4:	10000726 	beq	r2,zero,8019e4 <tick+0xb08>
  8019c8:	d0a78083 	ldbu	r2,-25086(gp)
  8019cc:	10803fcc 	andi	r2,r2,255
  8019d0:	1080201c 	xori	r2,r2,128
  8019d4:	10bfe004 	addi	r2,r2,-128
  8019d8:	1000021e 	bne	r2,zero,8019e4 <tick+0xb08>
  8019dc:	00800044 	movi	r2,1
  8019e0:	00000106 	br	8019e8 <tick+0xb0c>
  8019e4:	0005883a 	mov	r2,zero
  8019e8:	d0a77305 	stb	r2,-25140(gp)
      _cg51 = APace;
  8019ec:	d0a756c3 	ldbu	r2,-25253(gp)
  8019f0:	d0a76785 	stb	r2,-25186(gp)
      g52 =(g51&&(!(_cg51)));
  8019f4:	d0a77303 	ldbu	r2,-25140(gp)
  8019f8:	10803fcc 	andi	r2,r2,255
  8019fc:	1080201c 	xori	r2,r2,128
  801a00:	10bfe004 	addi	r2,r2,-128
  801a04:	10000726 	beq	r2,zero,801a24 <tick+0xb48>
  801a08:	d0a76783 	ldbu	r2,-25186(gp)
  801a0c:	10803fcc 	andi	r2,r2,255
  801a10:	1080201c 	xori	r2,r2,128
  801a14:	10bfe004 	addi	r2,r2,-128
  801a18:	1000021e 	bne	r2,zero,801a24 <tick+0xb48>
  801a1c:	00800044 	movi	r2,1
  801a20:	00000106 	br	801a28 <tick+0xb4c>
  801a24:	0005883a 	mov	r2,zero
  801a28:	d0a75fc5 	stb	r2,-25217(gp)
      _cg52 = AEI_TO;
  801a2c:	d0a77343 	ldbu	r2,-25139(gp)
  801a30:	d0a75bc5 	stb	r2,-25233(gp)
      g53 =(g52&&_cg52);
  801a34:	d0a75fc3 	ldbu	r2,-25217(gp)
  801a38:	10803fcc 	andi	r2,r2,255
  801a3c:	1080201c 	xori	r2,r2,128
  801a40:	10bfe004 	addi	r2,r2,-128
  801a44:	10000726 	beq	r2,zero,801a64 <tick+0xb88>
  801a48:	d0a75bc3 	ldbu	r2,-25233(gp)
  801a4c:	10803fcc 	andi	r2,r2,255
  801a50:	1080201c 	xori	r2,r2,128
  801a54:	10bfe004 	addi	r2,r2,-128
  801a58:	10000226 	beq	r2,zero,801a64 <tick+0xb88>
  801a5c:	00800044 	movi	r2,1
  801a60:	00000106 	br	801a68 <tick+0xb8c>
  801a64:	0005883a 	mov	r2,zero
  801a68:	d0a77505 	stb	r2,-25132(gp)
      if(g53){
  801a6c:	d0a77503 	ldbu	r2,-25132(gp)
  801a70:	10803fcc 	andi	r2,r2,255
  801a74:	1080201c 	xori	r2,r2,128
  801a78:	10bfe004 	addi	r2,r2,-128
  801a7c:	10000226 	beq	r2,zero,801a88 <tick+0xbac>
         APace =(APace||1);
  801a80:	00800044 	movi	r2,1
  801a84:	d0a756c5 	stb	r2,-25253(gp)
      }
      g50 =((g51&&_cg51)||(g49&&_cg49));
  801a88:	d0a77303 	ldbu	r2,-25140(gp)
  801a8c:	10803fcc 	andi	r2,r2,255
  801a90:	1080201c 	xori	r2,r2,128
  801a94:	10bfe004 	addi	r2,r2,-128
  801a98:	10000526 	beq	r2,zero,801ab0 <tick+0xbd4>
  801a9c:	d0a76783 	ldbu	r2,-25186(gp)
  801aa0:	10803fcc 	andi	r2,r2,255
  801aa4:	1080201c 	xori	r2,r2,128
  801aa8:	10bfe004 	addi	r2,r2,-128
  801aac:	10000a1e 	bne	r2,zero,801ad8 <tick+0xbfc>
  801ab0:	d0a76903 	ldbu	r2,-25180(gp)
  801ab4:	10803fcc 	andi	r2,r2,255
  801ab8:	1080201c 	xori	r2,r2,128
  801abc:	10bfe004 	addi	r2,r2,-128
  801ac0:	10000726 	beq	r2,zero,801ae0 <tick+0xc04>
  801ac4:	d0a78083 	ldbu	r2,-25086(gp)
  801ac8:	10803fcc 	andi	r2,r2,255
  801acc:	1080201c 	xori	r2,r2,128
  801ad0:	10bfe004 	addi	r2,r2,-128
  801ad4:	10000226 	beq	r2,zero,801ae0 <tick+0xc04>
  801ad8:	00800044 	movi	r2,1
  801adc:	00000106 	br	801ae4 <tick+0xc08>
  801ae0:	0005883a 	mov	r2,zero
  801ae4:	d0a77285 	stb	r2,-25142(gp)
      if(g50){
  801ae8:	d0a77283 	ldbu	r2,-25142(gp)
  801aec:	10803fcc 	andi	r2,r2,255
  801af0:	1080201c 	xori	r2,r2,128
  801af4:	10bfe004 	addi	r2,r2,-128
  801af8:	10000226 	beq	r2,zero,801b04 <tick+0xc28>
         AEI_stop =(AEI_stop||1);
  801afc:	00800044 	movi	r2,1
  801b00:	d0a78205 	stb	r2,-25080(gp)
      }
      g44 =(PRE_g43);
  801b04:	d0a770c3 	ldbu	r2,-25149(gp)
  801b08:	d0a75cc5 	stb	r2,-25229(gp)
      _cg44 = VSense;
  801b0c:	d0a76c43 	ldbu	r2,-25167(gp)
  801b10:	d0a76b85 	stb	r2,-25170(gp)
      g54 =(g44&&(!(_cg44)));
  801b14:	d0a75cc3 	ldbu	r2,-25229(gp)
  801b18:	10803fcc 	andi	r2,r2,255
  801b1c:	1080201c 	xori	r2,r2,128
  801b20:	10bfe004 	addi	r2,r2,-128
  801b24:	10000726 	beq	r2,zero,801b44 <tick+0xc68>
  801b28:	d0a76b83 	ldbu	r2,-25170(gp)
  801b2c:	10803fcc 	andi	r2,r2,255
  801b30:	1080201c 	xori	r2,r2,128
  801b34:	10bfe004 	addi	r2,r2,-128
  801b38:	1000021e 	bne	r2,zero,801b44 <tick+0xc68>
  801b3c:	00800044 	movi	r2,1
  801b40:	00000106 	br	801b48 <tick+0xc6c>
  801b44:	0005883a 	mov	r2,zero
  801b48:	d0a76ac5 	stb	r2,-25173(gp)
      _cg54 = VPace;
  801b4c:	d0a77fc3 	ldbu	r2,-25089(gp)
  801b50:	d0a77885 	stb	r2,-25118(gp)
      g43 =(g53||g42||g50||(g54&&(!(_cg54))));
  801b54:	d0a77503 	ldbu	r2,-25132(gp)
  801b58:	10803fcc 	andi	r2,r2,255
  801b5c:	1080201c 	xori	r2,r2,128
  801b60:	10bfe004 	addi	r2,r2,-128
  801b64:	1000141e 	bne	r2,zero,801bb8 <tick+0xcdc>
  801b68:	d0a75943 	ldbu	r2,-25243(gp)
  801b6c:	10803fcc 	andi	r2,r2,255
  801b70:	1080201c 	xori	r2,r2,128
  801b74:	10bfe004 	addi	r2,r2,-128
  801b78:	10000f1e 	bne	r2,zero,801bb8 <tick+0xcdc>
  801b7c:	d0a77283 	ldbu	r2,-25142(gp)
  801b80:	10803fcc 	andi	r2,r2,255
  801b84:	1080201c 	xori	r2,r2,128
  801b88:	10bfe004 	addi	r2,r2,-128
  801b8c:	10000a1e 	bne	r2,zero,801bb8 <tick+0xcdc>
  801b90:	d0a76ac3 	ldbu	r2,-25173(gp)
  801b94:	10803fcc 	andi	r2,r2,255
  801b98:	1080201c 	xori	r2,r2,128
  801b9c:	10bfe004 	addi	r2,r2,-128
  801ba0:	10000726 	beq	r2,zero,801bc0 <tick+0xce4>
  801ba4:	d0a77883 	ldbu	r2,-25118(gp)
  801ba8:	10803fcc 	andi	r2,r2,255
  801bac:	1080201c 	xori	r2,r2,128
  801bb0:	10bfe004 	addi	r2,r2,-128
  801bb4:	1000021e 	bne	r2,zero,801bc0 <tick+0xce4>
  801bb8:	00800044 	movi	r2,1
  801bbc:	00000106 	br	801bc4 <tick+0xce8>
  801bc0:	0005883a 	mov	r2,zero
  801bc4:	d0a77085 	stb	r2,-25150(gp)
      g45 =((g44&&_cg44)||(g54&&_cg54));
  801bc8:	d0a75cc3 	ldbu	r2,-25229(gp)
  801bcc:	10803fcc 	andi	r2,r2,255
  801bd0:	1080201c 	xori	r2,r2,128
  801bd4:	10bfe004 	addi	r2,r2,-128
  801bd8:	10000526 	beq	r2,zero,801bf0 <tick+0xd14>
  801bdc:	d0a76b83 	ldbu	r2,-25170(gp)
  801be0:	10803fcc 	andi	r2,r2,255
  801be4:	1080201c 	xori	r2,r2,128
  801be8:	10bfe004 	addi	r2,r2,-128
  801bec:	10000a1e 	bne	r2,zero,801c18 <tick+0xd3c>
  801bf0:	d0a76ac3 	ldbu	r2,-25173(gp)
  801bf4:	10803fcc 	andi	r2,r2,255
  801bf8:	1080201c 	xori	r2,r2,128
  801bfc:	10bfe004 	addi	r2,r2,-128
  801c00:	10000726 	beq	r2,zero,801c20 <tick+0xd44>
  801c04:	d0a77883 	ldbu	r2,-25118(gp)
  801c08:	10803fcc 	andi	r2,r2,255
  801c0c:	1080201c 	xori	r2,r2,128
  801c10:	10bfe004 	addi	r2,r2,-128
  801c14:	10000226 	beq	r2,zero,801c20 <tick+0xd44>
  801c18:	00800044 	movi	r2,1
  801c1c:	00000106 	br	801c24 <tick+0xd48>
  801c20:	0005883a 	mov	r2,zero
  801c24:	d0a77ec5 	stb	r2,-25093(gp)
      if(g45){
  801c28:	d0a77ec3 	ldbu	r2,-25093(gp)
  801c2c:	10803fcc 	andi	r2,r2,255
  801c30:	1080201c 	xori	r2,r2,128
  801c34:	10bfe004 	addi	r2,r2,-128
  801c38:	10000226 	beq	r2,zero,801c44 <tick+0xd68>
         AEI_start =(AEI_start||1);
  801c3c:	00800044 	movi	r2,1
  801c40:	d0a775c5 	stb	r2,-25129(gp)
      }
      g61 =(PRE_g60);
  801c44:	d0a77383 	ldbu	r2,-25138(gp)
  801c48:	d0a75e85 	stb	r2,-25222(gp)
      _cg61 = PVARP_TO;
  801c4c:	d0a77e03 	ldbu	r2,-25096(gp)
  801c50:	d0a76285 	stb	r2,-25206(gp)
      g62 =(g61&&_cg61);
  801c54:	d0a75e83 	ldbu	r2,-25222(gp)
  801c58:	10803fcc 	andi	r2,r2,255
  801c5c:	1080201c 	xori	r2,r2,128
  801c60:	10bfe004 	addi	r2,r2,-128
  801c64:	10000726 	beq	r2,zero,801c84 <tick+0xda8>
  801c68:	d0a76283 	ldbu	r2,-25206(gp)
  801c6c:	10803fcc 	andi	r2,r2,255
  801c70:	1080201c 	xori	r2,r2,128
  801c74:	10bfe004 	addi	r2,r2,-128
  801c78:	10000226 	beq	r2,zero,801c84 <tick+0xda8>
  801c7c:	00800044 	movi	r2,1
  801c80:	00000106 	br	801c88 <tick+0xdac>
  801c84:	0005883a 	mov	r2,zero
  801c88:	d0a761c5 	stb	r2,-25209(gp)
      if(g62){
  801c8c:	d0a761c3 	ldbu	r2,-25209(gp)
  801c90:	10803fcc 	andi	r2,r2,255
  801c94:	1080201c 	xori	r2,r2,128
  801c98:	10bfe004 	addi	r2,r2,-128
  801c9c:	10000226 	beq	r2,zero,801ca8 <tick+0xdcc>
         _DDD_Pacemaker_local_PVARP_ex =(_DDD_Pacemaker_local_PVARP_ex||1);
  801ca0:	00800044 	movi	r2,1
  801ca4:	d0a76645 	stb	r2,-25191(gp)
      }
      g47 =(PRE_g46);
  801ca8:	d0a767c3 	ldbu	r2,-25185(gp)
  801cac:	d0a758c5 	stb	r2,-25245(gp)
      g47b = g47;
  801cb0:	d0a758c3 	ldbu	r2,-25245(gp)
  801cb4:	d0a76485 	stb	r2,-25198(gp)
      _cg47 = _DDD_Pacemaker_local_PVARP_ex;
  801cb8:	d0a76643 	ldbu	r2,-25191(gp)
  801cbc:	d0a77645 	stb	r2,-25127(gp)
      g46 =((g47b&&(!(_cg47)))||g45);
  801cc0:	d0a76483 	ldbu	r2,-25198(gp)
  801cc4:	10803fcc 	andi	r2,r2,255
  801cc8:	1080201c 	xori	r2,r2,128
  801ccc:	10bfe004 	addi	r2,r2,-128
  801cd0:	10000526 	beq	r2,zero,801ce8 <tick+0xe0c>
  801cd4:	d0a77643 	ldbu	r2,-25127(gp)
  801cd8:	10803fcc 	andi	r2,r2,255
  801cdc:	1080201c 	xori	r2,r2,128
  801ce0:	10bfe004 	addi	r2,r2,-128
  801ce4:	10000526 	beq	r2,zero,801cfc <tick+0xe20>
  801ce8:	d0a77ec3 	ldbu	r2,-25093(gp)
  801cec:	10803fcc 	andi	r2,r2,255
  801cf0:	1080201c 	xori	r2,r2,128
  801cf4:	10bfe004 	addi	r2,r2,-128
  801cf8:	10000226 	beq	r2,zero,801d04 <tick+0xe28>
  801cfc:	00800044 	movi	r2,1
  801d00:	00000106 	br	801d08 <tick+0xe2c>
  801d04:	0005883a 	mov	r2,zero
  801d08:	d0a77205 	stb	r2,-25144(gp)
      g48 =((g47b&&_cg47)||(g52&&(!(_cg52))));
  801d0c:	d0a76483 	ldbu	r2,-25198(gp)
  801d10:	10803fcc 	andi	r2,r2,255
  801d14:	1080201c 	xori	r2,r2,128
  801d18:	10bfe004 	addi	r2,r2,-128
  801d1c:	10000526 	beq	r2,zero,801d34 <tick+0xe58>
  801d20:	d0a77643 	ldbu	r2,-25127(gp)
  801d24:	10803fcc 	andi	r2,r2,255
  801d28:	1080201c 	xori	r2,r2,128
  801d2c:	10bfe004 	addi	r2,r2,-128
  801d30:	10000a1e 	bne	r2,zero,801d5c <tick+0xe80>
  801d34:	d0a75fc3 	ldbu	r2,-25217(gp)
  801d38:	10803fcc 	andi	r2,r2,255
  801d3c:	1080201c 	xori	r2,r2,128
  801d40:	10bfe004 	addi	r2,r2,-128
  801d44:	10000726 	beq	r2,zero,801d64 <tick+0xe88>
  801d48:	d0a75bc3 	ldbu	r2,-25233(gp)
  801d4c:	10803fcc 	andi	r2,r2,255
  801d50:	1080201c 	xori	r2,r2,128
  801d54:	10bfe004 	addi	r2,r2,-128
  801d58:	1000021e 	bne	r2,zero,801d64 <tick+0xe88>
  801d5c:	00800044 	movi	r2,1
  801d60:	00000106 	br	801d68 <tick+0xe8c>
  801d64:	0005883a 	mov	r2,zero
  801d68:	d0a76445 	stb	r2,-25199(gp)
      g56 = g1;
  801d6c:	d0a75e03 	ldbu	r2,-25224(gp)
  801d70:	d0a76c05 	stb	r2,-25168(gp)
      g58 =(PRE_g57);
  801d74:	d0a77103 	ldbu	r2,-25148(gp)
  801d78:	d0a77b05 	stb	r2,-25108(gp)
      _cg58 = VSense;
  801d7c:	d0a76c43 	ldbu	r2,-25167(gp)
  801d80:	d0a764c5 	stb	r2,-25197(gp)
      g63 =(g58&&(!(_cg58)));
  801d84:	d0a77b03 	ldbu	r2,-25108(gp)
  801d88:	10803fcc 	andi	r2,r2,255
  801d8c:	1080201c 	xori	r2,r2,128
  801d90:	10bfe004 	addi	r2,r2,-128
  801d94:	10000726 	beq	r2,zero,801db4 <tick+0xed8>
  801d98:	d0a764c3 	ldbu	r2,-25197(gp)
  801d9c:	10803fcc 	andi	r2,r2,255
  801da0:	1080201c 	xori	r2,r2,128
  801da4:	10bfe004 	addi	r2,r2,-128
  801da8:	1000021e 	bne	r2,zero,801db4 <tick+0xed8>
  801dac:	00800044 	movi	r2,1
  801db0:	00000106 	br	801db8 <tick+0xedc>
  801db4:	0005883a 	mov	r2,zero
  801db8:	d0a76f45 	stb	r2,-25155(gp)
      _cg63 = VPace;
  801dbc:	d0a77fc3 	ldbu	r2,-25089(gp)
  801dc0:	d0a766c5 	stb	r2,-25189(gp)
      g57 =(g62||(g63&&(!(_cg63)))||g56);
  801dc4:	d0a761c3 	ldbu	r2,-25209(gp)
  801dc8:	10803fcc 	andi	r2,r2,255
  801dcc:	1080201c 	xori	r2,r2,128
  801dd0:	10bfe004 	addi	r2,r2,-128
  801dd4:	10000f1e 	bne	r2,zero,801e14 <tick+0xf38>
  801dd8:	d0a76f43 	ldbu	r2,-25155(gp)
  801ddc:	10803fcc 	andi	r2,r2,255
  801de0:	1080201c 	xori	r2,r2,128
  801de4:	10bfe004 	addi	r2,r2,-128
  801de8:	10000526 	beq	r2,zero,801e00 <tick+0xf24>
  801dec:	d0a766c3 	ldbu	r2,-25189(gp)
  801df0:	10803fcc 	andi	r2,r2,255
  801df4:	1080201c 	xori	r2,r2,128
  801df8:	10bfe004 	addi	r2,r2,-128
  801dfc:	10000526 	beq	r2,zero,801e14 <tick+0xf38>
  801e00:	d0a76c03 	ldbu	r2,-25168(gp)
  801e04:	10803fcc 	andi	r2,r2,255
  801e08:	1080201c 	xori	r2,r2,128
  801e0c:	10bfe004 	addi	r2,r2,-128
  801e10:	10000226 	beq	r2,zero,801e1c <tick+0xf40>
  801e14:	00800044 	movi	r2,1
  801e18:	00000106 	br	801e20 <tick+0xf44>
  801e1c:	0005883a 	mov	r2,zero
  801e20:	d0a77585 	stb	r2,-25130(gp)
      g59 =((g58&&_cg58)||(g63&&_cg63));
  801e24:	d0a77b03 	ldbu	r2,-25108(gp)
  801e28:	10803fcc 	andi	r2,r2,255
  801e2c:	1080201c 	xori	r2,r2,128
  801e30:	10bfe004 	addi	r2,r2,-128
  801e34:	10000526 	beq	r2,zero,801e4c <tick+0xf70>
  801e38:	d0a764c3 	ldbu	r2,-25197(gp)
  801e3c:	10803fcc 	andi	r2,r2,255
  801e40:	1080201c 	xori	r2,r2,128
  801e44:	10bfe004 	addi	r2,r2,-128
  801e48:	10000a1e 	bne	r2,zero,801e74 <tick+0xf98>
  801e4c:	d0a76f43 	ldbu	r2,-25155(gp)
  801e50:	10803fcc 	andi	r2,r2,255
  801e54:	1080201c 	xori	r2,r2,128
  801e58:	10bfe004 	addi	r2,r2,-128
  801e5c:	10000726 	beq	r2,zero,801e7c <tick+0xfa0>
  801e60:	d0a766c3 	ldbu	r2,-25189(gp)
  801e64:	10803fcc 	andi	r2,r2,255
  801e68:	1080201c 	xori	r2,r2,128
  801e6c:	10bfe004 	addi	r2,r2,-128
  801e70:	10000226 	beq	r2,zero,801e7c <tick+0xfa0>
  801e74:	00800044 	movi	r2,1
  801e78:	00000106 	br	801e80 <tick+0xfa4>
  801e7c:	0005883a 	mov	r2,zero
  801e80:	d0a76a85 	stb	r2,-25174(gp)
      if(g59){
  801e84:	d0a76a83 	ldbu	r2,-25174(gp)
  801e88:	10803fcc 	andi	r2,r2,255
  801e8c:	1080201c 	xori	r2,r2,128
  801e90:	10bfe004 	addi	r2,r2,-128
  801e94:	10000226 	beq	r2,zero,801ea0 <tick+0xfc4>
         PVARP_start =(PVARP_start||1);
  801e98:	00800044 	movi	r2,1
  801e9c:	d0a77245 	stb	r2,-25143(gp)
      }
      g60 =(g59||(g61&&(!(_cg61))));
  801ea0:	d0a76a83 	ldbu	r2,-25174(gp)
  801ea4:	10803fcc 	andi	r2,r2,255
  801ea8:	1080201c 	xori	r2,r2,128
  801eac:	10bfe004 	addi	r2,r2,-128
  801eb0:	10000a1e 	bne	r2,zero,801edc <tick+0x1000>
  801eb4:	d0a75e83 	ldbu	r2,-25222(gp)
  801eb8:	10803fcc 	andi	r2,r2,255
  801ebc:	1080201c 	xori	r2,r2,128
  801ec0:	10bfe004 	addi	r2,r2,-128
  801ec4:	10000726 	beq	r2,zero,801ee4 <tick+0x1008>
  801ec8:	d0a76283 	ldbu	r2,-25206(gp)
  801ecc:	10803fcc 	andi	r2,r2,255
  801ed0:	1080201c 	xori	r2,r2,128
  801ed4:	10bfe004 	addi	r2,r2,-128
  801ed8:	1000021e 	bne	r2,zero,801ee4 <tick+0x1008>
  801edc:	00800044 	movi	r2,1
  801ee0:	00000106 	br	801ee8 <tick+0x100c>
  801ee4:	0005883a 	mov	r2,zero
  801ee8:	d0a76fc5 	stb	r2,-25153(gp)
      g65 = g1;
  801eec:	d0a75e03 	ldbu	r2,-25224(gp)
  801ef0:	d0a77c45 	stb	r2,-25103(gp)
      g73 =(PRE_g72);
  801ef4:	d0a75c03 	ldbu	r2,-25232(gp)
  801ef8:	d0a77d05 	stb	r2,-25100(gp)
      g73b = g73;
  801efc:	d0a77d03 	ldbu	r2,-25100(gp)
  801f00:	d0a77485 	stb	r2,-25134(gp)
      _cg73 = _DDD_Pacemaker_local_PVARP_ex;
  801f04:	d0a76643 	ldbu	r2,-25191(gp)
  801f08:	d0a75c45 	stb	r2,-25231(gp)
      g67 =(PRE_g66);
  801f0c:	d0a77a03 	ldbu	r2,-25112(gp)
  801f10:	d0a78145 	stb	r2,-25083(gp)
      _cg67 = ASense;
  801f14:	d0a76403 	ldbu	r2,-25200(gp)
  801f18:	d0a782c5 	stb	r2,-25077(gp)
      g79 =(g67&&(!(_cg67)));
  801f1c:	d0a78143 	ldbu	r2,-25083(gp)
  801f20:	10803fcc 	andi	r2,r2,255
  801f24:	1080201c 	xori	r2,r2,128
  801f28:	10bfe004 	addi	r2,r2,-128
  801f2c:	10000726 	beq	r2,zero,801f4c <tick+0x1070>
  801f30:	d0a782c3 	ldbu	r2,-25077(gp)
  801f34:	10803fcc 	andi	r2,r2,255
  801f38:	1080201c 	xori	r2,r2,128
  801f3c:	10bfe004 	addi	r2,r2,-128
  801f40:	1000021e 	bne	r2,zero,801f4c <tick+0x1070>
  801f44:	00800044 	movi	r2,1
  801f48:	00000106 	br	801f50 <tick+0x1074>
  801f4c:	0005883a 	mov	r2,zero
  801f50:	d0a76845 	stb	r2,-25183(gp)
      _cg79 = APace;
  801f54:	d0a756c3 	ldbu	r2,-25253(gp)
  801f58:	d0a75d05 	stb	r2,-25228(gp)
      g66 =((g73b&&_cg73)||g65||g78||(g79&&(!(_cg79))));
  801f5c:	d0a77483 	ldbu	r2,-25134(gp)
  801f60:	10803fcc 	andi	r2,r2,255
  801f64:	1080201c 	xori	r2,r2,128
  801f68:	10bfe004 	addi	r2,r2,-128
  801f6c:	10000526 	beq	r2,zero,801f84 <tick+0x10a8>
  801f70:	d0a75c43 	ldbu	r2,-25231(gp)
  801f74:	10803fcc 	andi	r2,r2,255
  801f78:	1080201c 	xori	r2,r2,128
  801f7c:	10bfe004 	addi	r2,r2,-128
  801f80:	1000141e 	bne	r2,zero,801fd4 <tick+0x10f8>
  801f84:	d0a77c43 	ldbu	r2,-25103(gp)
  801f88:	10803fcc 	andi	r2,r2,255
  801f8c:	1080201c 	xori	r2,r2,128
  801f90:	10bfe004 	addi	r2,r2,-128
  801f94:	10000f1e 	bne	r2,zero,801fd4 <tick+0x10f8>
  801f98:	d0a76cc3 	ldbu	r2,-25165(gp)
  801f9c:	10803fcc 	andi	r2,r2,255
  801fa0:	1080201c 	xori	r2,r2,128
  801fa4:	10bfe004 	addi	r2,r2,-128
  801fa8:	10000a1e 	bne	r2,zero,801fd4 <tick+0x10f8>
  801fac:	d0a76843 	ldbu	r2,-25183(gp)
  801fb0:	10803fcc 	andi	r2,r2,255
  801fb4:	1080201c 	xori	r2,r2,128
  801fb8:	10bfe004 	addi	r2,r2,-128
  801fbc:	10000726 	beq	r2,zero,801fdc <tick+0x1100>
  801fc0:	d0a75d03 	ldbu	r2,-25228(gp)
  801fc4:	10803fcc 	andi	r2,r2,255
  801fc8:	1080201c 	xori	r2,r2,128
  801fcc:	10bfe004 	addi	r2,r2,-128
  801fd0:	1000021e 	bne	r2,zero,801fdc <tick+0x1100>
  801fd4:	00800044 	movi	r2,1
  801fd8:	00000106 	br	801fe0 <tick+0x1104>
  801fdc:	0005883a 	mov	r2,zero
  801fe0:	d0a76b05 	stb	r2,-25172(gp)
      g68 =((g67&&_cg67)||(g79&&_cg79));
  801fe4:	d0a78143 	ldbu	r2,-25083(gp)
  801fe8:	10803fcc 	andi	r2,r2,255
  801fec:	1080201c 	xori	r2,r2,128
  801ff0:	10bfe004 	addi	r2,r2,-128
  801ff4:	10000526 	beq	r2,zero,80200c <tick+0x1130>
  801ff8:	d0a782c3 	ldbu	r2,-25077(gp)
  801ffc:	10803fcc 	andi	r2,r2,255
  802000:	1080201c 	xori	r2,r2,128
  802004:	10bfe004 	addi	r2,r2,-128
  802008:	10000a1e 	bne	r2,zero,802034 <tick+0x1158>
  80200c:	d0a76843 	ldbu	r2,-25183(gp)
  802010:	10803fcc 	andi	r2,r2,255
  802014:	1080201c 	xori	r2,r2,128
  802018:	10bfe004 	addi	r2,r2,-128
  80201c:	10000726 	beq	r2,zero,80203c <tick+0x1160>
  802020:	d0a75d03 	ldbu	r2,-25228(gp)
  802024:	10803fcc 	andi	r2,r2,255
  802028:	1080201c 	xori	r2,r2,128
  80202c:	10bfe004 	addi	r2,r2,-128
  802030:	10000226 	beq	r2,zero,80203c <tick+0x1160>
  802034:	00800044 	movi	r2,1
  802038:	00000106 	br	802040 <tick+0x1164>
  80203c:	0005883a 	mov	r2,zero
  802040:	d0a77b85 	stb	r2,-25106(gp)
      if(g68){
  802044:	d0a77b83 	ldbu	r2,-25106(gp)
  802048:	10803fcc 	andi	r2,r2,255
  80204c:	1080201c 	xori	r2,r2,128
  802050:	10bfe004 	addi	r2,r2,-128
  802054:	10000226 	beq	r2,zero,802060 <tick+0x1184>
         AVI_start =(AVI_start||1);
  802058:	00800044 	movi	r2,1
  80205c:	d0a75b85 	stb	r2,-25234(gp)
      }
      g70 =(PRE_g69);
  802060:	d0a75f43 	ldbu	r2,-25219(gp)
  802064:	d0a77605 	stb	r2,-25128(gp)
      _cg70 = VSense;
  802068:	d0a76c43 	ldbu	r2,-25167(gp)
  80206c:	d0a773c5 	stb	r2,-25137(gp)
      g74 =(g70&&(!(_cg70)));
  802070:	d0a77603 	ldbu	r2,-25128(gp)
  802074:	10803fcc 	andi	r2,r2,255
  802078:	1080201c 	xori	r2,r2,128
  80207c:	10bfe004 	addi	r2,r2,-128
  802080:	10000726 	beq	r2,zero,8020a0 <tick+0x11c4>
  802084:	d0a773c3 	ldbu	r2,-25137(gp)
  802088:	10803fcc 	andi	r2,r2,255
  80208c:	1080201c 	xori	r2,r2,128
  802090:	10bfe004 	addi	r2,r2,-128
  802094:	1000021e 	bne	r2,zero,8020a0 <tick+0x11c4>
  802098:	00800044 	movi	r2,1
  80209c:	00000106 	br	8020a4 <tick+0x11c8>
  8020a0:	0005883a 	mov	r2,zero
  8020a4:	d0a784c5 	stb	r2,-25069(gp)
      _cg74 = VPace;
  8020a8:	d0a77fc3 	ldbu	r2,-25089(gp)
  8020ac:	d0a76045 	stb	r2,-25215(gp)
      g75 =(g74&&(!(_cg74)));
  8020b0:	d0a784c3 	ldbu	r2,-25069(gp)
  8020b4:	10803fcc 	andi	r2,r2,255
  8020b8:	1080201c 	xori	r2,r2,128
  8020bc:	10bfe004 	addi	r2,r2,-128
  8020c0:	10000726 	beq	r2,zero,8020e0 <tick+0x1204>
  8020c4:	d0a76043 	ldbu	r2,-25215(gp)
  8020c8:	10803fcc 	andi	r2,r2,255
  8020cc:	1080201c 	xori	r2,r2,128
  8020d0:	10bfe004 	addi	r2,r2,-128
  8020d4:	1000021e 	bne	r2,zero,8020e0 <tick+0x1204>
  8020d8:	00800044 	movi	r2,1
  8020dc:	00000106 	br	8020e4 <tick+0x1208>
  8020e0:	0005883a 	mov	r2,zero
  8020e4:	d0a77905 	stb	r2,-25116(gp)
      _cg75 = AVI_TO;
  8020e8:	d0a75683 	ldbu	r2,-25254(gp)
  8020ec:	d0a75d45 	stb	r2,-25227(gp)
      g69 =(g68||(g75&&(!(_cg75))));
  8020f0:	d0a77b83 	ldbu	r2,-25106(gp)
  8020f4:	10803fcc 	andi	r2,r2,255
  8020f8:	1080201c 	xori	r2,r2,128
  8020fc:	10bfe004 	addi	r2,r2,-128
  802100:	10000a1e 	bne	r2,zero,80212c <tick+0x1250>
  802104:	d0a77903 	ldbu	r2,-25116(gp)
  802108:	10803fcc 	andi	r2,r2,255
  80210c:	1080201c 	xori	r2,r2,128
  802110:	10bfe004 	addi	r2,r2,-128
  802114:	10000726 	beq	r2,zero,802134 <tick+0x1258>
  802118:	d0a75d43 	ldbu	r2,-25227(gp)
  80211c:	10803fcc 	andi	r2,r2,255
  802120:	1080201c 	xori	r2,r2,128
  802124:	10bfe004 	addi	r2,r2,-128
  802128:	1000021e 	bne	r2,zero,802134 <tick+0x1258>
  80212c:	00800044 	movi	r2,1
  802130:	00000106 	br	802138 <tick+0x125c>
  802134:	0005883a 	mov	r2,zero
  802138:	d0a78445 	stb	r2,-25071(gp)
      g71 =((g70&&_cg70)||(g74&&_cg74));
  80213c:	d0a77603 	ldbu	r2,-25128(gp)
  802140:	10803fcc 	andi	r2,r2,255
  802144:	1080201c 	xori	r2,r2,128
  802148:	10bfe004 	addi	r2,r2,-128
  80214c:	10000526 	beq	r2,zero,802164 <tick+0x1288>
  802150:	d0a773c3 	ldbu	r2,-25137(gp)
  802154:	10803fcc 	andi	r2,r2,255
  802158:	1080201c 	xori	r2,r2,128
  80215c:	10bfe004 	addi	r2,r2,-128
  802160:	10000a1e 	bne	r2,zero,80218c <tick+0x12b0>
  802164:	d0a784c3 	ldbu	r2,-25069(gp)
  802168:	10803fcc 	andi	r2,r2,255
  80216c:	1080201c 	xori	r2,r2,128
  802170:	10bfe004 	addi	r2,r2,-128
  802174:	10000726 	beq	r2,zero,802194 <tick+0x12b8>
  802178:	d0a76043 	ldbu	r2,-25215(gp)
  80217c:	10803fcc 	andi	r2,r2,255
  802180:	1080201c 	xori	r2,r2,128
  802184:	10bfe004 	addi	r2,r2,-128
  802188:	10000226 	beq	r2,zero,802194 <tick+0x12b8>
  80218c:	00800044 	movi	r2,1
  802190:	00000106 	br	802198 <tick+0x12bc>
  802194:	0005883a 	mov	r2,zero
  802198:	d0a75ec5 	stb	r2,-25221(gp)
      if(g71){
  80219c:	d0a75ec3 	ldbu	r2,-25221(gp)
  8021a0:	10803fcc 	andi	r2,r2,255
  8021a4:	1080201c 	xori	r2,r2,128
  8021a8:	10bfe004 	addi	r2,r2,-128
  8021ac:	10000226 	beq	r2,zero,8021b8 <tick+0x12dc>
         AVI_stop =(AVI_stop||1);
  8021b0:	00800044 	movi	r2,1
  8021b4:	d0a75dc5 	stb	r2,-25225(gp)
      }
      g72 =(g71||(g73b&&(!(_cg73))));
  8021b8:	d0a75ec3 	ldbu	r2,-25221(gp)
  8021bc:	10803fcc 	andi	r2,r2,255
  8021c0:	1080201c 	xori	r2,r2,128
  8021c4:	10bfe004 	addi	r2,r2,-128
  8021c8:	10000a1e 	bne	r2,zero,8021f4 <tick+0x1318>
  8021cc:	d0a77483 	ldbu	r2,-25134(gp)
  8021d0:	10803fcc 	andi	r2,r2,255
  8021d4:	1080201c 	xori	r2,r2,128
  8021d8:	10bfe004 	addi	r2,r2,-128
  8021dc:	10000726 	beq	r2,zero,8021fc <tick+0x1320>
  8021e0:	d0a75c43 	ldbu	r2,-25231(gp)
  8021e4:	10803fcc 	andi	r2,r2,255
  8021e8:	1080201c 	xori	r2,r2,128
  8021ec:	10bfe004 	addi	r2,r2,-128
  8021f0:	1000021e 	bne	r2,zero,8021fc <tick+0x1320>
  8021f4:	00800044 	movi	r2,1
  8021f8:	00000106 	br	802200 <tick+0x1324>
  8021fc:	0005883a 	mov	r2,zero
  802200:	d0a77705 	stb	r2,-25124(gp)
      g76 =((g77b&&(!(_cg77)))||(g75&&_cg75));
  802204:	d0a75d83 	ldbu	r2,-25226(gp)
  802208:	10803fcc 	andi	r2,r2,255
  80220c:	1080201c 	xori	r2,r2,128
  802210:	10bfe004 	addi	r2,r2,-128
  802214:	10000526 	beq	r2,zero,80222c <tick+0x1350>
  802218:	d0a77b43 	ldbu	r2,-25107(gp)
  80221c:	10803fcc 	andi	r2,r2,255
  802220:	1080201c 	xori	r2,r2,128
  802224:	10bfe004 	addi	r2,r2,-128
  802228:	10000a26 	beq	r2,zero,802254 <tick+0x1378>
  80222c:	d0a77903 	ldbu	r2,-25116(gp)
  802230:	10803fcc 	andi	r2,r2,255
  802234:	1080201c 	xori	r2,r2,128
  802238:	10bfe004 	addi	r2,r2,-128
  80223c:	10000726 	beq	r2,zero,80225c <tick+0x1380>
  802240:	d0a75d43 	ldbu	r2,-25227(gp)
  802244:	10803fcc 	andi	r2,r2,255
  802248:	1080201c 	xori	r2,r2,128
  80224c:	10bfe004 	addi	r2,r2,-128
  802250:	10000226 	beq	r2,zero,80225c <tick+0x1380>
  802254:	00800044 	movi	r2,1
  802258:	00000106 	br	802260 <tick+0x1384>
  80225c:	0005883a 	mov	r2,zero
  802260:	d0a76105 	stb	r2,-25212(gp)
      g10_e1 =(!((g4||g7)));
  802264:	d0a75703 	ldbu	r2,-25252(gp)
  802268:	10803fcc 	andi	r2,r2,255
  80226c:	1080201c 	xori	r2,r2,128
  802270:	10bfe004 	addi	r2,r2,-128
  802274:	1000071e 	bne	r2,zero,802294 <tick+0x13b8>
  802278:	d0a76983 	ldbu	r2,-25178(gp)
  80227c:	10803fcc 	andi	r2,r2,255
  802280:	1080201c 	xori	r2,r2,128
  802284:	10bfe004 	addi	r2,r2,-128
  802288:	1000021e 	bne	r2,zero,802294 <tick+0x13b8>
  80228c:	00800044 	movi	r2,1
  802290:	00000106 	br	802298 <tick+0x13bc>
  802294:	0005883a 	mov	r2,zero
  802298:	d0a77685 	stb	r2,-25126(gp)
      g24_e2 =(!((g13||g16||g18||g22)));
  80229c:	d0a774c3 	ldbu	r2,-25133(gp)
  8022a0:	10803fcc 	andi	r2,r2,255
  8022a4:	1080201c 	xori	r2,r2,128
  8022a8:	10bfe004 	addi	r2,r2,-128
  8022ac:	1000111e 	bne	r2,zero,8022f4 <tick+0x1418>
  8022b0:	d0a77ac3 	ldbu	r2,-25109(gp)
  8022b4:	10803fcc 	andi	r2,r2,255
  8022b8:	1080201c 	xori	r2,r2,128
  8022bc:	10bfe004 	addi	r2,r2,-128
  8022c0:	10000c1e 	bne	r2,zero,8022f4 <tick+0x1418>
  8022c4:	d0a76383 	ldbu	r2,-25202(gp)
  8022c8:	10803fcc 	andi	r2,r2,255
  8022cc:	1080201c 	xori	r2,r2,128
  8022d0:	10bfe004 	addi	r2,r2,-128
  8022d4:	1000071e 	bne	r2,zero,8022f4 <tick+0x1418>
  8022d8:	d0a77c83 	ldbu	r2,-25102(gp)
  8022dc:	10803fcc 	andi	r2,r2,255
  8022e0:	1080201c 	xori	r2,r2,128
  8022e4:	10bfe004 	addi	r2,r2,-128
  8022e8:	1000021e 	bne	r2,zero,8022f4 <tick+0x1418>
  8022ec:	00800044 	movi	r2,1
  8022f0:	00000106 	br	8022f8 <tick+0x141c>
  8022f4:	0005883a 	mov	r2,zero
  8022f8:	d0a762c5 	stb	r2,-25205(gp)
      g41_e3 =(!((g27||g30||g32||g35)));
  8022fc:	d0a75843 	ldbu	r2,-25247(gp)
  802300:	10803fcc 	andi	r2,r2,255
  802304:	1080201c 	xori	r2,r2,128
  802308:	10bfe004 	addi	r2,r2,-128
  80230c:	1000111e 	bne	r2,zero,802354 <tick+0x1478>
  802310:	d0a77943 	ldbu	r2,-25115(gp)
  802314:	10803fcc 	andi	r2,r2,255
  802318:	1080201c 	xori	r2,r2,128
  80231c:	10bfe004 	addi	r2,r2,-128
  802320:	10000c1e 	bne	r2,zero,802354 <tick+0x1478>
  802324:	d0a77dc3 	ldbu	r2,-25097(gp)
  802328:	10803fcc 	andi	r2,r2,255
  80232c:	1080201c 	xori	r2,r2,128
  802330:	10bfe004 	addi	r2,r2,-128
  802334:	1000071e 	bne	r2,zero,802354 <tick+0x1478>
  802338:	d0a76dc3 	ldbu	r2,-25161(gp)
  80233c:	10803fcc 	andi	r2,r2,255
  802340:	1080201c 	xori	r2,r2,128
  802344:	10bfe004 	addi	r2,r2,-128
  802348:	1000021e 	bne	r2,zero,802354 <tick+0x1478>
  80234c:	00800044 	movi	r2,1
  802350:	00000106 	br	802358 <tick+0x147c>
  802354:	0005883a 	mov	r2,zero
  802358:	d0a763c5 	stb	r2,-25201(gp)
      g55_e4 =(!((g44||g47||g49)));
  80235c:	d0a75cc3 	ldbu	r2,-25229(gp)
  802360:	10803fcc 	andi	r2,r2,255
  802364:	1080201c 	xori	r2,r2,128
  802368:	10bfe004 	addi	r2,r2,-128
  80236c:	10000c1e 	bne	r2,zero,8023a0 <tick+0x14c4>
  802370:	d0a758c3 	ldbu	r2,-25245(gp)
  802374:	10803fcc 	andi	r2,r2,255
  802378:	1080201c 	xori	r2,r2,128
  80237c:	10bfe004 	addi	r2,r2,-128
  802380:	1000071e 	bne	r2,zero,8023a0 <tick+0x14c4>
  802384:	d0a76903 	ldbu	r2,-25180(gp)
  802388:	10803fcc 	andi	r2,r2,255
  80238c:	1080201c 	xori	r2,r2,128
  802390:	10bfe004 	addi	r2,r2,-128
  802394:	1000021e 	bne	r2,zero,8023a0 <tick+0x14c4>
  802398:	00800044 	movi	r2,1
  80239c:	00000106 	br	8023a4 <tick+0x14c8>
  8023a0:	0005883a 	mov	r2,zero
  8023a4:	d0a765c5 	stb	r2,-25193(gp)
      g64_e5 =(!((g58||g61)));
  8023a8:	d0a77b03 	ldbu	r2,-25108(gp)
  8023ac:	10803fcc 	andi	r2,r2,255
  8023b0:	1080201c 	xori	r2,r2,128
  8023b4:	10bfe004 	addi	r2,r2,-128
  8023b8:	1000071e 	bne	r2,zero,8023d8 <tick+0x14fc>
  8023bc:	d0a75e83 	ldbu	r2,-25222(gp)
  8023c0:	10803fcc 	andi	r2,r2,255
  8023c4:	1080201c 	xori	r2,r2,128
  8023c8:	10bfe004 	addi	r2,r2,-128
  8023cc:	1000021e 	bne	r2,zero,8023d8 <tick+0x14fc>
  8023d0:	00800044 	movi	r2,1
  8023d4:	00000106 	br	8023dc <tick+0x1500>
  8023d8:	0005883a 	mov	r2,zero
  8023dc:	d0a78305 	stb	r2,-25076(gp)
      g80_e6 =(!((g67||g70||g73||g77)));
  8023e0:	d0a78143 	ldbu	r2,-25083(gp)
  8023e4:	10803fcc 	andi	r2,r2,255
  8023e8:	1080201c 	xori	r2,r2,128
  8023ec:	10bfe004 	addi	r2,r2,-128
  8023f0:	1000111e 	bne	r2,zero,802438 <tick+0x155c>
  8023f4:	d0a77603 	ldbu	r2,-25128(gp)
  8023f8:	10803fcc 	andi	r2,r2,255
  8023fc:	1080201c 	xori	r2,r2,128
  802400:	10bfe004 	addi	r2,r2,-128
  802404:	10000c1e 	bne	r2,zero,802438 <tick+0x155c>
  802408:	d0a77d03 	ldbu	r2,-25100(gp)
  80240c:	10803fcc 	andi	r2,r2,255
  802410:	1080201c 	xori	r2,r2,128
  802414:	10bfe004 	addi	r2,r2,-128
  802418:	1000071e 	bne	r2,zero,802438 <tick+0x155c>
  80241c:	d0a77d83 	ldbu	r2,-25098(gp)
  802420:	10803fcc 	andi	r2,r2,255
  802424:	1080201c 	xori	r2,r2,128
  802428:	10bfe004 	addi	r2,r2,-128
  80242c:	1000021e 	bne	r2,zero,802438 <tick+0x155c>
  802430:	00800044 	movi	r2,1
  802434:	00000106 	br	80243c <tick+0x1560>
  802438:	0005883a 	mov	r2,zero
  80243c:	d0a77185 	stb	r2,-25146(gp)
      g84_e7 =(!(g83));
  802440:	d0a75603 	ldbu	r2,-25256(gp)
  802444:	10803fcc 	andi	r2,r2,255
  802448:	1080201c 	xori	r2,r2,128
  80244c:	10bfe004 	addi	r2,r2,-128
  802450:	1005003a 	cmpeq	r2,r2,zero
  802454:	d0a778c5 	stb	r2,-25117(gp)
      g85_e1_fix =(g30||g47||g61||g70||g83||g18||g32||g49||g73||g77||g35);
  802458:	d0a77943 	ldbu	r2,-25115(gp)
  80245c:	10803fcc 	andi	r2,r2,255
  802460:	1080201c 	xori	r2,r2,128
  802464:	10bfe004 	addi	r2,r2,-128
  802468:	1000321e 	bne	r2,zero,802534 <tick+0x1658>
  80246c:	d0a758c3 	ldbu	r2,-25245(gp)
  802470:	10803fcc 	andi	r2,r2,255
  802474:	1080201c 	xori	r2,r2,128
  802478:	10bfe004 	addi	r2,r2,-128
  80247c:	10002d1e 	bne	r2,zero,802534 <tick+0x1658>
  802480:	d0a75e83 	ldbu	r2,-25222(gp)
  802484:	10803fcc 	andi	r2,r2,255
  802488:	1080201c 	xori	r2,r2,128
  80248c:	10bfe004 	addi	r2,r2,-128
  802490:	1000281e 	bne	r2,zero,802534 <tick+0x1658>
  802494:	d0a77603 	ldbu	r2,-25128(gp)
  802498:	10803fcc 	andi	r2,r2,255
  80249c:	1080201c 	xori	r2,r2,128
  8024a0:	10bfe004 	addi	r2,r2,-128
  8024a4:	1000231e 	bne	r2,zero,802534 <tick+0x1658>
  8024a8:	d0a75603 	ldbu	r2,-25256(gp)
  8024ac:	10803fcc 	andi	r2,r2,255
  8024b0:	1080201c 	xori	r2,r2,128
  8024b4:	10bfe004 	addi	r2,r2,-128
  8024b8:	10001e1e 	bne	r2,zero,802534 <tick+0x1658>
  8024bc:	d0a76383 	ldbu	r2,-25202(gp)
  8024c0:	10803fcc 	andi	r2,r2,255
  8024c4:	1080201c 	xori	r2,r2,128
  8024c8:	10bfe004 	addi	r2,r2,-128
  8024cc:	1000191e 	bne	r2,zero,802534 <tick+0x1658>
  8024d0:	d0a77dc3 	ldbu	r2,-25097(gp)
  8024d4:	10803fcc 	andi	r2,r2,255
  8024d8:	1080201c 	xori	r2,r2,128
  8024dc:	10bfe004 	addi	r2,r2,-128
  8024e0:	1000141e 	bne	r2,zero,802534 <tick+0x1658>
  8024e4:	d0a76903 	ldbu	r2,-25180(gp)
  8024e8:	10803fcc 	andi	r2,r2,255
  8024ec:	1080201c 	xori	r2,r2,128
  8024f0:	10bfe004 	addi	r2,r2,-128
  8024f4:	10000f1e 	bne	r2,zero,802534 <tick+0x1658>
  8024f8:	d0a77d03 	ldbu	r2,-25100(gp)
  8024fc:	10803fcc 	andi	r2,r2,255
  802500:	1080201c 	xori	r2,r2,128
  802504:	10bfe004 	addi	r2,r2,-128
  802508:	10000a1e 	bne	r2,zero,802534 <tick+0x1658>
  80250c:	d0a77d83 	ldbu	r2,-25098(gp)
  802510:	10803fcc 	andi	r2,r2,255
  802514:	1080201c 	xori	r2,r2,128
  802518:	10bfe004 	addi	r2,r2,-128
  80251c:	1000051e 	bne	r2,zero,802534 <tick+0x1658>
  802520:	d0a76dc3 	ldbu	r2,-25161(gp)
  802524:	10803fcc 	andi	r2,r2,255
  802528:	1080201c 	xori	r2,r2,128
  80252c:	10bfe004 	addi	r2,r2,-128
  802530:	10000226 	beq	r2,zero,80253c <tick+0x1660>
  802534:	00800044 	movi	r2,1
  802538:	00000106 	br	802540 <tick+0x1664>
  80253c:	0005883a 	mov	r2,zero
  802540:	d0a75745 	stb	r2,-25251(gp)
      g85_e1 =(!((g4||g13||g27||g44||g58||g67||g7||g16||g22||g85_e1_fix)));
  802544:	d0a75703 	ldbu	r2,-25252(gp)
  802548:	10803fcc 	andi	r2,r2,255
  80254c:	1080201c 	xori	r2,r2,128
  802550:	10bfe004 	addi	r2,r2,-128
  802554:	10002f1e 	bne	r2,zero,802614 <tick+0x1738>
  802558:	d0a774c3 	ldbu	r2,-25133(gp)
  80255c:	10803fcc 	andi	r2,r2,255
  802560:	1080201c 	xori	r2,r2,128
  802564:	10bfe004 	addi	r2,r2,-128
  802568:	10002a1e 	bne	r2,zero,802614 <tick+0x1738>
  80256c:	d0a75843 	ldbu	r2,-25247(gp)
  802570:	10803fcc 	andi	r2,r2,255
  802574:	1080201c 	xori	r2,r2,128
  802578:	10bfe004 	addi	r2,r2,-128
  80257c:	1000251e 	bne	r2,zero,802614 <tick+0x1738>
  802580:	d0a75cc3 	ldbu	r2,-25229(gp)
  802584:	10803fcc 	andi	r2,r2,255
  802588:	1080201c 	xori	r2,r2,128
  80258c:	10bfe004 	addi	r2,r2,-128
  802590:	1000201e 	bne	r2,zero,802614 <tick+0x1738>
  802594:	d0a77b03 	ldbu	r2,-25108(gp)
  802598:	10803fcc 	andi	r2,r2,255
  80259c:	1080201c 	xori	r2,r2,128
  8025a0:	10bfe004 	addi	r2,r2,-128
  8025a4:	10001b1e 	bne	r2,zero,802614 <tick+0x1738>
  8025a8:	d0a78143 	ldbu	r2,-25083(gp)
  8025ac:	10803fcc 	andi	r2,r2,255
  8025b0:	1080201c 	xori	r2,r2,128
  8025b4:	10bfe004 	addi	r2,r2,-128
  8025b8:	1000161e 	bne	r2,zero,802614 <tick+0x1738>
  8025bc:	d0a76983 	ldbu	r2,-25178(gp)
  8025c0:	10803fcc 	andi	r2,r2,255
  8025c4:	1080201c 	xori	r2,r2,128
  8025c8:	10bfe004 	addi	r2,r2,-128
  8025cc:	1000111e 	bne	r2,zero,802614 <tick+0x1738>
  8025d0:	d0a77ac3 	ldbu	r2,-25109(gp)
  8025d4:	10803fcc 	andi	r2,r2,255
  8025d8:	1080201c 	xori	r2,r2,128
  8025dc:	10bfe004 	addi	r2,r2,-128
  8025e0:	10000c1e 	bne	r2,zero,802614 <tick+0x1738>
  8025e4:	d0a77c83 	ldbu	r2,-25102(gp)
  8025e8:	10803fcc 	andi	r2,r2,255
  8025ec:	1080201c 	xori	r2,r2,128
  8025f0:	10bfe004 	addi	r2,r2,-128
  8025f4:	1000071e 	bne	r2,zero,802614 <tick+0x1738>
  8025f8:	d0a75743 	ldbu	r2,-25251(gp)
  8025fc:	10803fcc 	andi	r2,r2,255
  802600:	1080201c 	xori	r2,r2,128
  802604:	10bfe004 	addi	r2,r2,-128
  802608:	1000021e 	bne	r2,zero,802614 <tick+0x1738>
  80260c:	00800044 	movi	r2,1
  802610:	00000106 	br	802618 <tick+0x173c>
  802614:	0005883a 	mov	r2,zero
  802618:	d0a78045 	stb	r2,-25087(gp)
      g89_e2 =(!(g88));
  80261c:	d0a77e83 	ldbu	r2,-25094(gp)
  802620:	10803fcc 	andi	r2,r2,255
  802624:	1080201c 	xori	r2,r2,128
  802628:	10bfe004 	addi	r2,r2,-128
  80262c:	1005003a 	cmpeq	r2,r2,zero
  802630:	d0a772c5 	stb	r2,-25141(gp)
   }
   PRE_g3 = g3;
  802634:	d0a75883 	ldbu	r2,-25246(gp)
  802638:	d0a75b05 	stb	r2,-25236(gp)
   PRE_g6 = g6;
  80263c:	d0a776c3 	ldbu	r2,-25125(gp)
  802640:	d0a76c85 	stb	r2,-25166(gp)
   PRE_g12 = g12;
  802644:	d0a75f83 	ldbu	r2,-25218(gp)
  802648:	d0a76805 	stb	r2,-25184(gp)
   PRE_g15 = g15;
  80264c:	d0a76e43 	ldbu	r2,-25159(gp)
  802650:	d0a779c5 	stb	r2,-25113(gp)
   PRE_g17 = g17;
  802654:	d0a76083 	ldbu	r2,-25214(gp)
  802658:	d0a76345 	stb	r2,-25203(gp)
   PRE_g21 = g21;
  80265c:	d0a76743 	ldbu	r2,-25187(gp)
  802660:	d0a77a45 	stb	r2,-25111(gp)
   PRE_g26 = g26;
  802664:	d0a78483 	ldbu	r2,-25070(gp)
  802668:	d0a77e45 	stb	r2,-25095(gp)
   PRE_g29 = g29;
  80266c:	d0a780c3 	ldbu	r2,-25085(gp)
  802670:	d0a75b45 	stb	r2,-25235(gp)
   PRE_g31 = g31;
  802674:	d0a76143 	ldbu	r2,-25211(gp)
  802678:	d0a77405 	stb	r2,-25136(gp)
   PRE_g34 = g34;
  80267c:	d0a76883 	ldbu	r2,-25182(gp)
  802680:	d0a760c5 	stb	r2,-25213(gp)
   PRE_g43 = g43;
  802684:	d0a77083 	ldbu	r2,-25150(gp)
  802688:	d0a770c5 	stb	r2,-25149(gp)
   PRE_g46 = g46;
  80268c:	d0a77203 	ldbu	r2,-25144(gp)
  802690:	d0a767c5 	stb	r2,-25185(gp)
   PRE_g48 = g48;
  802694:	d0a76443 	ldbu	r2,-25199(gp)
  802698:	d0a77445 	stb	r2,-25135(gp)
   PRE_g57 = g57;
  80269c:	d0a77583 	ldbu	r2,-25130(gp)
  8026a0:	d0a77105 	stb	r2,-25148(gp)
   PRE_g60 = g60;
  8026a4:	d0a76fc3 	ldbu	r2,-25153(gp)
  8026a8:	d0a77385 	stb	r2,-25138(gp)
   PRE_g66 = g66;
  8026ac:	d0a76b03 	ldbu	r2,-25172(gp)
  8026b0:	d0a77a05 	stb	r2,-25112(gp)
   PRE_g69 = g69;
  8026b4:	d0a78443 	ldbu	r2,-25071(gp)
  8026b8:	d0a75f45 	stb	r2,-25219(gp)
   PRE_g72 = g72;
  8026bc:	d0a77703 	ldbu	r2,-25124(gp)
  8026c0:	d0a75c05 	stb	r2,-25232(gp)
   PRE_g76 = g76;
  8026c4:	d0a76103 	ldbu	r2,-25212(gp)
  8026c8:	d0a77785 	stb	r2,-25122(gp)
   PRE_g82 = g82;
  8026cc:	d0a75f03 	ldbu	r2,-25220(gp)
  8026d0:	d0a77f45 	stb	r2,-25091(gp)
   PRE_g87 = g87;
  8026d4:	d0a75c83 	ldbu	r2,-25230(gp)
  8026d8:	d0a76545 	stb	r2,-25195(gp)
   _PRE_GO = _GO;
  8026dc:	d0a76ec3 	ldbu	r2,-25157(gp)
  8026e0:	10803fcc 	andi	r2,r2,255
  8026e4:	1080201c 	xori	r2,r2,128
  8026e8:	10bfe004 	addi	r2,r2,-128
  8026ec:	d0a75a15 	stw	r2,-25240(gp)
   return;
  8026f0:	0001883a 	nop
}
  8026f4:	e037883a 	mov	sp,fp
  8026f8:	df000017 	ldw	fp,0(sp)
  8026fc:	dec00104 	addi	sp,sp,4
  802700:	f800283a 	ret

00802704 <__sflush_r>:
  802704:	2880030b 	ldhu	r2,12(r5)
  802708:	defffb04 	addi	sp,sp,-20
  80270c:	dcc00315 	stw	r19,12(sp)
  802710:	dc400115 	stw	r17,4(sp)
  802714:	dfc00415 	stw	ra,16(sp)
  802718:	dc800215 	stw	r18,8(sp)
  80271c:	dc000015 	stw	r16,0(sp)
  802720:	10c0020c 	andi	r3,r2,8
  802724:	2823883a 	mov	r17,r5
  802728:	2027883a 	mov	r19,r4
  80272c:	1800311e 	bne	r3,zero,8027f4 <__sflush_r+0xf0>
  802730:	28c00117 	ldw	r3,4(r5)
  802734:	10820014 	ori	r2,r2,2048
  802738:	2880030d 	sth	r2,12(r5)
  80273c:	00c04b0e 	bge	zero,r3,80286c <__sflush_r+0x168>
  802740:	8a000a17 	ldw	r8,40(r17)
  802744:	40002326 	beq	r8,zero,8027d4 <__sflush_r+0xd0>
  802748:	9c000017 	ldw	r16,0(r19)
  80274c:	10c4000c 	andi	r3,r2,4096
  802750:	98000015 	stw	zero,0(r19)
  802754:	18004826 	beq	r3,zero,802878 <__sflush_r+0x174>
  802758:	89801417 	ldw	r6,80(r17)
  80275c:	10c0010c 	andi	r3,r2,4
  802760:	18000626 	beq	r3,zero,80277c <__sflush_r+0x78>
  802764:	88c00117 	ldw	r3,4(r17)
  802768:	88800c17 	ldw	r2,48(r17)
  80276c:	30cdc83a 	sub	r6,r6,r3
  802770:	10000226 	beq	r2,zero,80277c <__sflush_r+0x78>
  802774:	88800f17 	ldw	r2,60(r17)
  802778:	308dc83a 	sub	r6,r6,r2
  80277c:	89400717 	ldw	r5,28(r17)
  802780:	000f883a 	mov	r7,zero
  802784:	9809883a 	mov	r4,r19
  802788:	403ee83a 	callr	r8
  80278c:	00ffffc4 	movi	r3,-1
  802790:	10c04426 	beq	r2,r3,8028a4 <__sflush_r+0x1a0>
  802794:	88c0030b 	ldhu	r3,12(r17)
  802798:	89000417 	ldw	r4,16(r17)
  80279c:	88000115 	stw	zero,4(r17)
  8027a0:	197dffcc 	andi	r5,r3,63487
  8027a4:	8940030d 	sth	r5,12(r17)
  8027a8:	89000015 	stw	r4,0(r17)
  8027ac:	18c4000c 	andi	r3,r3,4096
  8027b0:	18002c1e 	bne	r3,zero,802864 <__sflush_r+0x160>
  8027b4:	89400c17 	ldw	r5,48(r17)
  8027b8:	9c000015 	stw	r16,0(r19)
  8027bc:	28000526 	beq	r5,zero,8027d4 <__sflush_r+0xd0>
  8027c0:	88801004 	addi	r2,r17,64
  8027c4:	28800226 	beq	r5,r2,8027d0 <__sflush_r+0xcc>
  8027c8:	9809883a 	mov	r4,r19
  8027cc:	0802fc80 	call	802fc8 <_free_r>
  8027d0:	88000c15 	stw	zero,48(r17)
  8027d4:	0005883a 	mov	r2,zero
  8027d8:	dfc00417 	ldw	ra,16(sp)
  8027dc:	dcc00317 	ldw	r19,12(sp)
  8027e0:	dc800217 	ldw	r18,8(sp)
  8027e4:	dc400117 	ldw	r17,4(sp)
  8027e8:	dc000017 	ldw	r16,0(sp)
  8027ec:	dec00504 	addi	sp,sp,20
  8027f0:	f800283a 	ret
  8027f4:	2c800417 	ldw	r18,16(r5)
  8027f8:	903ff626 	beq	r18,zero,8027d4 <__alt_mem_onchip_mem+0xff7827d4>
  8027fc:	2c000017 	ldw	r16,0(r5)
  802800:	108000cc 	andi	r2,r2,3
  802804:	2c800015 	stw	r18,0(r5)
  802808:	84a1c83a 	sub	r16,r16,r18
  80280c:	1000131e 	bne	r2,zero,80285c <__sflush_r+0x158>
  802810:	28800517 	ldw	r2,20(r5)
  802814:	88800215 	stw	r2,8(r17)
  802818:	04000316 	blt	zero,r16,802828 <__sflush_r+0x124>
  80281c:	003fed06 	br	8027d4 <__alt_mem_onchip_mem+0xff7827d4>
  802820:	90a5883a 	add	r18,r18,r2
  802824:	043feb0e 	bge	zero,r16,8027d4 <__alt_mem_onchip_mem+0xff7827d4>
  802828:	88800917 	ldw	r2,36(r17)
  80282c:	89400717 	ldw	r5,28(r17)
  802830:	800f883a 	mov	r7,r16
  802834:	900d883a 	mov	r6,r18
  802838:	9809883a 	mov	r4,r19
  80283c:	103ee83a 	callr	r2
  802840:	80a1c83a 	sub	r16,r16,r2
  802844:	00bff616 	blt	zero,r2,802820 <__alt_mem_onchip_mem+0xff782820>
  802848:	88c0030b 	ldhu	r3,12(r17)
  80284c:	00bfffc4 	movi	r2,-1
  802850:	18c01014 	ori	r3,r3,64
  802854:	88c0030d 	sth	r3,12(r17)
  802858:	003fdf06 	br	8027d8 <__alt_mem_onchip_mem+0xff7827d8>
  80285c:	0005883a 	mov	r2,zero
  802860:	003fec06 	br	802814 <__alt_mem_onchip_mem+0xff782814>
  802864:	88801415 	stw	r2,80(r17)
  802868:	003fd206 	br	8027b4 <__alt_mem_onchip_mem+0xff7827b4>
  80286c:	28c00f17 	ldw	r3,60(r5)
  802870:	00ffb316 	blt	zero,r3,802740 <__alt_mem_onchip_mem+0xff782740>
  802874:	003fd706 	br	8027d4 <__alt_mem_onchip_mem+0xff7827d4>
  802878:	89400717 	ldw	r5,28(r17)
  80287c:	000d883a 	mov	r6,zero
  802880:	01c00044 	movi	r7,1
  802884:	9809883a 	mov	r4,r19
  802888:	403ee83a 	callr	r8
  80288c:	100d883a 	mov	r6,r2
  802890:	00bfffc4 	movi	r2,-1
  802894:	30801426 	beq	r6,r2,8028e8 <__sflush_r+0x1e4>
  802898:	8880030b 	ldhu	r2,12(r17)
  80289c:	8a000a17 	ldw	r8,40(r17)
  8028a0:	003fae06 	br	80275c <__alt_mem_onchip_mem+0xff78275c>
  8028a4:	98c00017 	ldw	r3,0(r19)
  8028a8:	183fba26 	beq	r3,zero,802794 <__alt_mem_onchip_mem+0xff782794>
  8028ac:	01000744 	movi	r4,29
  8028b0:	19000626 	beq	r3,r4,8028cc <__sflush_r+0x1c8>
  8028b4:	01000584 	movi	r4,22
  8028b8:	19000426 	beq	r3,r4,8028cc <__sflush_r+0x1c8>
  8028bc:	88c0030b 	ldhu	r3,12(r17)
  8028c0:	18c01014 	ori	r3,r3,64
  8028c4:	88c0030d 	sth	r3,12(r17)
  8028c8:	003fc306 	br	8027d8 <__alt_mem_onchip_mem+0xff7827d8>
  8028cc:	8880030b 	ldhu	r2,12(r17)
  8028d0:	88c00417 	ldw	r3,16(r17)
  8028d4:	88000115 	stw	zero,4(r17)
  8028d8:	10bdffcc 	andi	r2,r2,63487
  8028dc:	8880030d 	sth	r2,12(r17)
  8028e0:	88c00015 	stw	r3,0(r17)
  8028e4:	003fb306 	br	8027b4 <__alt_mem_onchip_mem+0xff7827b4>
  8028e8:	98800017 	ldw	r2,0(r19)
  8028ec:	103fea26 	beq	r2,zero,802898 <__alt_mem_onchip_mem+0xff782898>
  8028f0:	00c00744 	movi	r3,29
  8028f4:	10c00226 	beq	r2,r3,802900 <__sflush_r+0x1fc>
  8028f8:	00c00584 	movi	r3,22
  8028fc:	10c0031e 	bne	r2,r3,80290c <__sflush_r+0x208>
  802900:	9c000015 	stw	r16,0(r19)
  802904:	0005883a 	mov	r2,zero
  802908:	003fb306 	br	8027d8 <__alt_mem_onchip_mem+0xff7827d8>
  80290c:	88c0030b 	ldhu	r3,12(r17)
  802910:	3005883a 	mov	r2,r6
  802914:	18c01014 	ori	r3,r3,64
  802918:	88c0030d 	sth	r3,12(r17)
  80291c:	003fae06 	br	8027d8 <__alt_mem_onchip_mem+0xff7827d8>

00802920 <_fflush_r>:
  802920:	defffd04 	addi	sp,sp,-12
  802924:	dc000115 	stw	r16,4(sp)
  802928:	dfc00215 	stw	ra,8(sp)
  80292c:	2021883a 	mov	r16,r4
  802930:	20000226 	beq	r4,zero,80293c <_fflush_r+0x1c>
  802934:	20800e17 	ldw	r2,56(r4)
  802938:	10000c26 	beq	r2,zero,80296c <_fflush_r+0x4c>
  80293c:	2880030f 	ldh	r2,12(r5)
  802940:	1000051e 	bne	r2,zero,802958 <_fflush_r+0x38>
  802944:	0005883a 	mov	r2,zero
  802948:	dfc00217 	ldw	ra,8(sp)
  80294c:	dc000117 	ldw	r16,4(sp)
  802950:	dec00304 	addi	sp,sp,12
  802954:	f800283a 	ret
  802958:	8009883a 	mov	r4,r16
  80295c:	dfc00217 	ldw	ra,8(sp)
  802960:	dc000117 	ldw	r16,4(sp)
  802964:	dec00304 	addi	sp,sp,12
  802968:	08027041 	jmpi	802704 <__sflush_r>
  80296c:	d9400015 	stw	r5,0(sp)
  802970:	0802cfc0 	call	802cfc <__sinit>
  802974:	d9400017 	ldw	r5,0(sp)
  802978:	003ff006 	br	80293c <__alt_mem_onchip_mem+0xff78293c>

0080297c <fflush>:
  80297c:	20000526 	beq	r4,zero,802994 <fflush+0x18>
  802980:	00802074 	movhi	r2,129
  802984:	10979804 	addi	r2,r2,24160
  802988:	200b883a 	mov	r5,r4
  80298c:	11000017 	ldw	r4,0(r2)
  802990:	08029201 	jmpi	802920 <_fflush_r>
  802994:	00802074 	movhi	r2,129
  802998:	10979704 	addi	r2,r2,24156
  80299c:	11000017 	ldw	r4,0(r2)
  8029a0:	01402034 	movhi	r5,128
  8029a4:	294a4804 	addi	r5,r5,10528
  8029a8:	08038781 	jmpi	803878 <_fwalk_reent>

008029ac <__fp_unlock>:
  8029ac:	0005883a 	mov	r2,zero
  8029b0:	f800283a 	ret

008029b4 <_cleanup_r>:
  8029b4:	01402074 	movhi	r5,129
  8029b8:	29621104 	addi	r5,r5,-30652
  8029bc:	08038781 	jmpi	803878 <_fwalk_reent>

008029c0 <__sinit.part.1>:
  8029c0:	defff704 	addi	sp,sp,-36
  8029c4:	00c02034 	movhi	r3,128
  8029c8:	dfc00815 	stw	ra,32(sp)
  8029cc:	ddc00715 	stw	r23,28(sp)
  8029d0:	dd800615 	stw	r22,24(sp)
  8029d4:	dd400515 	stw	r21,20(sp)
  8029d8:	dd000415 	stw	r20,16(sp)
  8029dc:	dcc00315 	stw	r19,12(sp)
  8029e0:	dc800215 	stw	r18,8(sp)
  8029e4:	dc400115 	stw	r17,4(sp)
  8029e8:	dc000015 	stw	r16,0(sp)
  8029ec:	18ca6d04 	addi	r3,r3,10676
  8029f0:	24000117 	ldw	r16,4(r4)
  8029f4:	20c00f15 	stw	r3,60(r4)
  8029f8:	2080bb04 	addi	r2,r4,748
  8029fc:	00c000c4 	movi	r3,3
  802a00:	20c0b915 	stw	r3,740(r4)
  802a04:	2080ba15 	stw	r2,744(r4)
  802a08:	2000b815 	stw	zero,736(r4)
  802a0c:	05c00204 	movi	r23,8
  802a10:	00800104 	movi	r2,4
  802a14:	2025883a 	mov	r18,r4
  802a18:	b80d883a 	mov	r6,r23
  802a1c:	81001704 	addi	r4,r16,92
  802a20:	000b883a 	mov	r5,zero
  802a24:	80000015 	stw	zero,0(r16)
  802a28:	80000115 	stw	zero,4(r16)
  802a2c:	80000215 	stw	zero,8(r16)
  802a30:	8080030d 	sth	r2,12(r16)
  802a34:	80001915 	stw	zero,100(r16)
  802a38:	8000038d 	sth	zero,14(r16)
  802a3c:	80000415 	stw	zero,16(r16)
  802a40:	80000515 	stw	zero,20(r16)
  802a44:	80000615 	stw	zero,24(r16)
  802a48:	08044040 	call	804404 <memset>
  802a4c:	05802034 	movhi	r22,128
  802a50:	94400217 	ldw	r17,8(r18)
  802a54:	05402034 	movhi	r21,128
  802a58:	05002034 	movhi	r20,128
  802a5c:	04c02034 	movhi	r19,128
  802a60:	b5924404 	addi	r22,r22,18704
  802a64:	ad525b04 	addi	r21,r21,18796
  802a68:	a5127a04 	addi	r20,r20,18920
  802a6c:	9cd29104 	addi	r19,r19,19012
  802a70:	85800815 	stw	r22,32(r16)
  802a74:	85400915 	stw	r21,36(r16)
  802a78:	85000a15 	stw	r20,40(r16)
  802a7c:	84c00b15 	stw	r19,44(r16)
  802a80:	84000715 	stw	r16,28(r16)
  802a84:	00800284 	movi	r2,10
  802a88:	8880030d 	sth	r2,12(r17)
  802a8c:	00800044 	movi	r2,1
  802a90:	b80d883a 	mov	r6,r23
  802a94:	89001704 	addi	r4,r17,92
  802a98:	000b883a 	mov	r5,zero
  802a9c:	88000015 	stw	zero,0(r17)
  802aa0:	88000115 	stw	zero,4(r17)
  802aa4:	88000215 	stw	zero,8(r17)
  802aa8:	88001915 	stw	zero,100(r17)
  802aac:	8880038d 	sth	r2,14(r17)
  802ab0:	88000415 	stw	zero,16(r17)
  802ab4:	88000515 	stw	zero,20(r17)
  802ab8:	88000615 	stw	zero,24(r17)
  802abc:	08044040 	call	804404 <memset>
  802ac0:	94000317 	ldw	r16,12(r18)
  802ac4:	00800484 	movi	r2,18
  802ac8:	8c400715 	stw	r17,28(r17)
  802acc:	8d800815 	stw	r22,32(r17)
  802ad0:	8d400915 	stw	r21,36(r17)
  802ad4:	8d000a15 	stw	r20,40(r17)
  802ad8:	8cc00b15 	stw	r19,44(r17)
  802adc:	8080030d 	sth	r2,12(r16)
  802ae0:	00800084 	movi	r2,2
  802ae4:	80000015 	stw	zero,0(r16)
  802ae8:	80000115 	stw	zero,4(r16)
  802aec:	80000215 	stw	zero,8(r16)
  802af0:	80001915 	stw	zero,100(r16)
  802af4:	8080038d 	sth	r2,14(r16)
  802af8:	80000415 	stw	zero,16(r16)
  802afc:	80000515 	stw	zero,20(r16)
  802b00:	80000615 	stw	zero,24(r16)
  802b04:	b80d883a 	mov	r6,r23
  802b08:	000b883a 	mov	r5,zero
  802b0c:	81001704 	addi	r4,r16,92
  802b10:	08044040 	call	804404 <memset>
  802b14:	00800044 	movi	r2,1
  802b18:	84000715 	stw	r16,28(r16)
  802b1c:	85800815 	stw	r22,32(r16)
  802b20:	85400915 	stw	r21,36(r16)
  802b24:	85000a15 	stw	r20,40(r16)
  802b28:	84c00b15 	stw	r19,44(r16)
  802b2c:	90800e15 	stw	r2,56(r18)
  802b30:	dfc00817 	ldw	ra,32(sp)
  802b34:	ddc00717 	ldw	r23,28(sp)
  802b38:	dd800617 	ldw	r22,24(sp)
  802b3c:	dd400517 	ldw	r21,20(sp)
  802b40:	dd000417 	ldw	r20,16(sp)
  802b44:	dcc00317 	ldw	r19,12(sp)
  802b48:	dc800217 	ldw	r18,8(sp)
  802b4c:	dc400117 	ldw	r17,4(sp)
  802b50:	dc000017 	ldw	r16,0(sp)
  802b54:	dec00904 	addi	sp,sp,36
  802b58:	f800283a 	ret

00802b5c <__fp_lock>:
  802b5c:	0005883a 	mov	r2,zero
  802b60:	f800283a 	ret

00802b64 <__sfmoreglue>:
  802b64:	defffc04 	addi	sp,sp,-16
  802b68:	dc400115 	stw	r17,4(sp)
  802b6c:	2c7fffc4 	addi	r17,r5,-1
  802b70:	8c401a24 	muli	r17,r17,104
  802b74:	dc800215 	stw	r18,8(sp)
  802b78:	2825883a 	mov	r18,r5
  802b7c:	89401d04 	addi	r5,r17,116
  802b80:	dc000015 	stw	r16,0(sp)
  802b84:	dfc00315 	stw	ra,12(sp)
  802b88:	0803bf80 	call	803bf8 <_malloc_r>
  802b8c:	1021883a 	mov	r16,r2
  802b90:	10000726 	beq	r2,zero,802bb0 <__sfmoreglue+0x4c>
  802b94:	11000304 	addi	r4,r2,12
  802b98:	10000015 	stw	zero,0(r2)
  802b9c:	14800115 	stw	r18,4(r2)
  802ba0:	11000215 	stw	r4,8(r2)
  802ba4:	89801a04 	addi	r6,r17,104
  802ba8:	000b883a 	mov	r5,zero
  802bac:	08044040 	call	804404 <memset>
  802bb0:	8005883a 	mov	r2,r16
  802bb4:	dfc00317 	ldw	ra,12(sp)
  802bb8:	dc800217 	ldw	r18,8(sp)
  802bbc:	dc400117 	ldw	r17,4(sp)
  802bc0:	dc000017 	ldw	r16,0(sp)
  802bc4:	dec00404 	addi	sp,sp,16
  802bc8:	f800283a 	ret

00802bcc <__sfp>:
  802bcc:	defffb04 	addi	sp,sp,-20
  802bd0:	dc000015 	stw	r16,0(sp)
  802bd4:	04002074 	movhi	r16,129
  802bd8:	84179704 	addi	r16,r16,24156
  802bdc:	dcc00315 	stw	r19,12(sp)
  802be0:	2027883a 	mov	r19,r4
  802be4:	81000017 	ldw	r4,0(r16)
  802be8:	dfc00415 	stw	ra,16(sp)
  802bec:	dc800215 	stw	r18,8(sp)
  802bf0:	20800e17 	ldw	r2,56(r4)
  802bf4:	dc400115 	stw	r17,4(sp)
  802bf8:	1000021e 	bne	r2,zero,802c04 <__sfp+0x38>
  802bfc:	08029c00 	call	8029c0 <__sinit.part.1>
  802c00:	81000017 	ldw	r4,0(r16)
  802c04:	2480b804 	addi	r18,r4,736
  802c08:	047fffc4 	movi	r17,-1
  802c0c:	91000117 	ldw	r4,4(r18)
  802c10:	94000217 	ldw	r16,8(r18)
  802c14:	213fffc4 	addi	r4,r4,-1
  802c18:	20000a16 	blt	r4,zero,802c44 <__sfp+0x78>
  802c1c:	8080030f 	ldh	r2,12(r16)
  802c20:	10000c26 	beq	r2,zero,802c54 <__sfp+0x88>
  802c24:	80c01d04 	addi	r3,r16,116
  802c28:	00000206 	br	802c34 <__sfp+0x68>
  802c2c:	18bfe60f 	ldh	r2,-104(r3)
  802c30:	10000826 	beq	r2,zero,802c54 <__sfp+0x88>
  802c34:	213fffc4 	addi	r4,r4,-1
  802c38:	1c3ffd04 	addi	r16,r3,-12
  802c3c:	18c01a04 	addi	r3,r3,104
  802c40:	247ffa1e 	bne	r4,r17,802c2c <__alt_mem_onchip_mem+0xff782c2c>
  802c44:	90800017 	ldw	r2,0(r18)
  802c48:	10001d26 	beq	r2,zero,802cc0 <__sfp+0xf4>
  802c4c:	1025883a 	mov	r18,r2
  802c50:	003fee06 	br	802c0c <__alt_mem_onchip_mem+0xff782c0c>
  802c54:	00bfffc4 	movi	r2,-1
  802c58:	8080038d 	sth	r2,14(r16)
  802c5c:	00800044 	movi	r2,1
  802c60:	8080030d 	sth	r2,12(r16)
  802c64:	80001915 	stw	zero,100(r16)
  802c68:	80000015 	stw	zero,0(r16)
  802c6c:	80000215 	stw	zero,8(r16)
  802c70:	80000115 	stw	zero,4(r16)
  802c74:	80000415 	stw	zero,16(r16)
  802c78:	80000515 	stw	zero,20(r16)
  802c7c:	80000615 	stw	zero,24(r16)
  802c80:	01800204 	movi	r6,8
  802c84:	000b883a 	mov	r5,zero
  802c88:	81001704 	addi	r4,r16,92
  802c8c:	08044040 	call	804404 <memset>
  802c90:	8005883a 	mov	r2,r16
  802c94:	80000c15 	stw	zero,48(r16)
  802c98:	80000d15 	stw	zero,52(r16)
  802c9c:	80001115 	stw	zero,68(r16)
  802ca0:	80001215 	stw	zero,72(r16)
  802ca4:	dfc00417 	ldw	ra,16(sp)
  802ca8:	dcc00317 	ldw	r19,12(sp)
  802cac:	dc800217 	ldw	r18,8(sp)
  802cb0:	dc400117 	ldw	r17,4(sp)
  802cb4:	dc000017 	ldw	r16,0(sp)
  802cb8:	dec00504 	addi	sp,sp,20
  802cbc:	f800283a 	ret
  802cc0:	01400104 	movi	r5,4
  802cc4:	9809883a 	mov	r4,r19
  802cc8:	0802b640 	call	802b64 <__sfmoreglue>
  802ccc:	90800015 	stw	r2,0(r18)
  802cd0:	103fde1e 	bne	r2,zero,802c4c <__alt_mem_onchip_mem+0xff782c4c>
  802cd4:	00800304 	movi	r2,12
  802cd8:	98800015 	stw	r2,0(r19)
  802cdc:	0005883a 	mov	r2,zero
  802ce0:	003ff006 	br	802ca4 <__alt_mem_onchip_mem+0xff782ca4>

00802ce4 <_cleanup>:
  802ce4:	00802074 	movhi	r2,129
  802ce8:	10979704 	addi	r2,r2,24156
  802cec:	11000017 	ldw	r4,0(r2)
  802cf0:	01402074 	movhi	r5,129
  802cf4:	29621104 	addi	r5,r5,-30652
  802cf8:	08038781 	jmpi	803878 <_fwalk_reent>

00802cfc <__sinit>:
  802cfc:	20800e17 	ldw	r2,56(r4)
  802d00:	10000126 	beq	r2,zero,802d08 <__sinit+0xc>
  802d04:	f800283a 	ret
  802d08:	08029c01 	jmpi	8029c0 <__sinit.part.1>

00802d0c <__sfp_lock_acquire>:
  802d0c:	f800283a 	ret

00802d10 <__sfp_lock_release>:
  802d10:	f800283a 	ret

00802d14 <__sinit_lock_acquire>:
  802d14:	f800283a 	ret

00802d18 <__sinit_lock_release>:
  802d18:	f800283a 	ret

00802d1c <__fp_lock_all>:
  802d1c:	00802074 	movhi	r2,129
  802d20:	10979804 	addi	r2,r2,24160
  802d24:	11000017 	ldw	r4,0(r2)
  802d28:	01402034 	movhi	r5,128
  802d2c:	294ad704 	addi	r5,r5,11100
  802d30:	08037b41 	jmpi	8037b4 <_fwalk>

00802d34 <__fp_unlock_all>:
  802d34:	00802074 	movhi	r2,129
  802d38:	10979804 	addi	r2,r2,24160
  802d3c:	11000017 	ldw	r4,0(r2)
  802d40:	01402034 	movhi	r5,128
  802d44:	294a6b04 	addi	r5,r5,10668
  802d48:	08037b41 	jmpi	8037b4 <_fwalk>

00802d4c <_fopen_r>:
  802d4c:	defffa04 	addi	sp,sp,-24
  802d50:	3005883a 	mov	r2,r6
  802d54:	dcc00415 	stw	r19,16(sp)
  802d58:	d80d883a 	mov	r6,sp
  802d5c:	2827883a 	mov	r19,r5
  802d60:	100b883a 	mov	r5,r2
  802d64:	dc800315 	stw	r18,12(sp)
  802d68:	dfc00515 	stw	ra,20(sp)
  802d6c:	dc400215 	stw	r17,8(sp)
  802d70:	dc000115 	stw	r16,4(sp)
  802d74:	2025883a 	mov	r18,r4
  802d78:	08089480 	call	808948 <__sflags>
  802d7c:	10002726 	beq	r2,zero,802e1c <_fopen_r+0xd0>
  802d80:	9009883a 	mov	r4,r18
  802d84:	1023883a 	mov	r17,r2
  802d88:	0802bcc0 	call	802bcc <__sfp>
  802d8c:	1021883a 	mov	r16,r2
  802d90:	10002226 	beq	r2,zero,802e1c <_fopen_r+0xd0>
  802d94:	d9800017 	ldw	r6,0(sp)
  802d98:	01c06d84 	movi	r7,438
  802d9c:	980b883a 	mov	r5,r19
  802da0:	9009883a 	mov	r4,r18
  802da4:	080452c0 	call	80452c <_open_r>
  802da8:	10001916 	blt	r2,zero,802e10 <_fopen_r+0xc4>
  802dac:	8080038d 	sth	r2,14(r16)
  802db0:	00802034 	movhi	r2,128
  802db4:	10924404 	addi	r2,r2,18704
  802db8:	80800815 	stw	r2,32(r16)
  802dbc:	00802034 	movhi	r2,128
  802dc0:	10925b04 	addi	r2,r2,18796
  802dc4:	80800915 	stw	r2,36(r16)
  802dc8:	00802034 	movhi	r2,128
  802dcc:	10927a04 	addi	r2,r2,18920
  802dd0:	80800a15 	stw	r2,40(r16)
  802dd4:	00802034 	movhi	r2,128
  802dd8:	10929104 	addi	r2,r2,19012
  802ddc:	8440030d 	sth	r17,12(r16)
  802de0:	84000715 	stw	r16,28(r16)
  802de4:	80800b15 	stw	r2,44(r16)
  802de8:	8c40400c 	andi	r17,r17,256
  802dec:	88000d1e 	bne	r17,zero,802e24 <_fopen_r+0xd8>
  802df0:	8005883a 	mov	r2,r16
  802df4:	dfc00517 	ldw	ra,20(sp)
  802df8:	dcc00417 	ldw	r19,16(sp)
  802dfc:	dc800317 	ldw	r18,12(sp)
  802e00:	dc400217 	ldw	r17,8(sp)
  802e04:	dc000117 	ldw	r16,4(sp)
  802e08:	dec00604 	addi	sp,sp,24
  802e0c:	f800283a 	ret
  802e10:	0802d0c0 	call	802d0c <__sfp_lock_acquire>
  802e14:	8000030d 	sth	zero,12(r16)
  802e18:	0802d100 	call	802d10 <__sfp_lock_release>
  802e1c:	0005883a 	mov	r2,zero
  802e20:	003ff406 	br	802df4 <__alt_mem_onchip_mem+0xff782df4>
  802e24:	01c00084 	movi	r7,2
  802e28:	000d883a 	mov	r6,zero
  802e2c:	800b883a 	mov	r5,r16
  802e30:	9009883a 	mov	r4,r18
  802e34:	08032d80 	call	8032d8 <_fseek_r>
  802e38:	8005883a 	mov	r2,r16
  802e3c:	003fed06 	br	802df4 <__alt_mem_onchip_mem+0xff782df4>

00802e40 <fopen>:
  802e40:	00802074 	movhi	r2,129
  802e44:	10979804 	addi	r2,r2,24160
  802e48:	280d883a 	mov	r6,r5
  802e4c:	200b883a 	mov	r5,r4
  802e50:	11000017 	ldw	r4,0(r2)
  802e54:	0802d4c1 	jmpi	802d4c <_fopen_r>

00802e58 <_fprintf_r>:
  802e58:	defffe04 	addi	sp,sp,-8
  802e5c:	2809883a 	mov	r4,r5
  802e60:	300b883a 	mov	r5,r6
  802e64:	dfc00015 	stw	ra,0(sp)
  802e68:	d9c00115 	stw	r7,4(sp)
  802e6c:	d9800104 	addi	r6,sp,4
  802e70:	0806cdc0 	call	806cdc <__vfprintf_internal>
  802e74:	dfc00017 	ldw	ra,0(sp)
  802e78:	dec00204 	addi	sp,sp,8
  802e7c:	f800283a 	ret

00802e80 <fprintf>:
  802e80:	defffd04 	addi	sp,sp,-12
  802e84:	dfc00015 	stw	ra,0(sp)
  802e88:	d9800115 	stw	r6,4(sp)
  802e8c:	d9c00215 	stw	r7,8(sp)
  802e90:	d9800104 	addi	r6,sp,4
  802e94:	0806cdc0 	call	806cdc <__vfprintf_internal>
  802e98:	dfc00017 	ldw	ra,0(sp)
  802e9c:	dec00304 	addi	sp,sp,12
  802ea0:	f800283a 	ret

00802ea4 <_malloc_trim_r>:
  802ea4:	defffb04 	addi	sp,sp,-20
  802ea8:	dcc00315 	stw	r19,12(sp)
  802eac:	04c02074 	movhi	r19,129
  802eb0:	dc800215 	stw	r18,8(sp)
  802eb4:	dc400115 	stw	r17,4(sp)
  802eb8:	dc000015 	stw	r16,0(sp)
  802ebc:	dfc00415 	stw	ra,16(sp)
  802ec0:	2821883a 	mov	r16,r5
  802ec4:	9cd17b04 	addi	r19,r19,17900
  802ec8:	2025883a 	mov	r18,r4
  802ecc:	08100a00 	call	8100a0 <__malloc_lock>
  802ed0:	98800217 	ldw	r2,8(r19)
  802ed4:	14400117 	ldw	r17,4(r2)
  802ed8:	00bfff04 	movi	r2,-4
  802edc:	88a2703a 	and	r17,r17,r2
  802ee0:	8c21c83a 	sub	r16,r17,r16
  802ee4:	8403fbc4 	addi	r16,r16,4079
  802ee8:	8020d33a 	srli	r16,r16,12
  802eec:	0083ffc4 	movi	r2,4095
  802ef0:	843fffc4 	addi	r16,r16,-1
  802ef4:	8020933a 	slli	r16,r16,12
  802ef8:	1400060e 	bge	r2,r16,802f14 <_malloc_trim_r+0x70>
  802efc:	000b883a 	mov	r5,zero
  802f00:	9009883a 	mov	r4,r18
  802f04:	08048bc0 	call	8048bc <_sbrk_r>
  802f08:	98c00217 	ldw	r3,8(r19)
  802f0c:	1c47883a 	add	r3,r3,r17
  802f10:	10c00a26 	beq	r2,r3,802f3c <_malloc_trim_r+0x98>
  802f14:	9009883a 	mov	r4,r18
  802f18:	08100c40 	call	8100c4 <__malloc_unlock>
  802f1c:	0005883a 	mov	r2,zero
  802f20:	dfc00417 	ldw	ra,16(sp)
  802f24:	dcc00317 	ldw	r19,12(sp)
  802f28:	dc800217 	ldw	r18,8(sp)
  802f2c:	dc400117 	ldw	r17,4(sp)
  802f30:	dc000017 	ldw	r16,0(sp)
  802f34:	dec00504 	addi	sp,sp,20
  802f38:	f800283a 	ret
  802f3c:	040bc83a 	sub	r5,zero,r16
  802f40:	9009883a 	mov	r4,r18
  802f44:	08048bc0 	call	8048bc <_sbrk_r>
  802f48:	00ffffc4 	movi	r3,-1
  802f4c:	10c00d26 	beq	r2,r3,802f84 <_malloc_trim_r+0xe0>
  802f50:	00c02074 	movhi	r3,129
  802f54:	18df8904 	addi	r3,r3,32292
  802f58:	18800017 	ldw	r2,0(r3)
  802f5c:	99000217 	ldw	r4,8(r19)
  802f60:	8c23c83a 	sub	r17,r17,r16
  802f64:	8c400054 	ori	r17,r17,1
  802f68:	1421c83a 	sub	r16,r2,r16
  802f6c:	24400115 	stw	r17,4(r4)
  802f70:	9009883a 	mov	r4,r18
  802f74:	1c000015 	stw	r16,0(r3)
  802f78:	08100c40 	call	8100c4 <__malloc_unlock>
  802f7c:	00800044 	movi	r2,1
  802f80:	003fe706 	br	802f20 <__alt_mem_onchip_mem+0xff782f20>
  802f84:	000b883a 	mov	r5,zero
  802f88:	9009883a 	mov	r4,r18
  802f8c:	08048bc0 	call	8048bc <_sbrk_r>
  802f90:	99000217 	ldw	r4,8(r19)
  802f94:	014003c4 	movi	r5,15
  802f98:	1107c83a 	sub	r3,r2,r4
  802f9c:	28ffdd0e 	bge	r5,r3,802f14 <__alt_mem_onchip_mem+0xff782f14>
  802fa0:	01402074 	movhi	r5,129
  802fa4:	29579904 	addi	r5,r5,24164
  802fa8:	29400017 	ldw	r5,0(r5)
  802fac:	18c00054 	ori	r3,r3,1
  802fb0:	20c00115 	stw	r3,4(r4)
  802fb4:	00c02074 	movhi	r3,129
  802fb8:	1145c83a 	sub	r2,r2,r5
  802fbc:	18df8904 	addi	r3,r3,32292
  802fc0:	18800015 	stw	r2,0(r3)
  802fc4:	003fd306 	br	802f14 <__alt_mem_onchip_mem+0xff782f14>

00802fc8 <_free_r>:
  802fc8:	28004126 	beq	r5,zero,8030d0 <_free_r+0x108>
  802fcc:	defffd04 	addi	sp,sp,-12
  802fd0:	dc400115 	stw	r17,4(sp)
  802fd4:	dc000015 	stw	r16,0(sp)
  802fd8:	2023883a 	mov	r17,r4
  802fdc:	2821883a 	mov	r16,r5
  802fe0:	dfc00215 	stw	ra,8(sp)
  802fe4:	08100a00 	call	8100a0 <__malloc_lock>
  802fe8:	81ffff17 	ldw	r7,-4(r16)
  802fec:	00bfff84 	movi	r2,-2
  802ff0:	01002074 	movhi	r4,129
  802ff4:	81bffe04 	addi	r6,r16,-8
  802ff8:	3884703a 	and	r2,r7,r2
  802ffc:	21117b04 	addi	r4,r4,17900
  803000:	308b883a 	add	r5,r6,r2
  803004:	2a400117 	ldw	r9,4(r5)
  803008:	22000217 	ldw	r8,8(r4)
  80300c:	00ffff04 	movi	r3,-4
  803010:	48c6703a 	and	r3,r9,r3
  803014:	2a005726 	beq	r5,r8,803174 <_free_r+0x1ac>
  803018:	28c00115 	stw	r3,4(r5)
  80301c:	39c0004c 	andi	r7,r7,1
  803020:	3800091e 	bne	r7,zero,803048 <_free_r+0x80>
  803024:	823ffe17 	ldw	r8,-8(r16)
  803028:	22400204 	addi	r9,r4,8
  80302c:	320dc83a 	sub	r6,r6,r8
  803030:	31c00217 	ldw	r7,8(r6)
  803034:	1205883a 	add	r2,r2,r8
  803038:	3a406526 	beq	r7,r9,8031d0 <_free_r+0x208>
  80303c:	32000317 	ldw	r8,12(r6)
  803040:	3a000315 	stw	r8,12(r7)
  803044:	41c00215 	stw	r7,8(r8)
  803048:	28cf883a 	add	r7,r5,r3
  80304c:	39c00117 	ldw	r7,4(r7)
  803050:	39c0004c 	andi	r7,r7,1
  803054:	38003a26 	beq	r7,zero,803140 <_free_r+0x178>
  803058:	10c00054 	ori	r3,r2,1
  80305c:	30c00115 	stw	r3,4(r6)
  803060:	3087883a 	add	r3,r6,r2
  803064:	18800015 	stw	r2,0(r3)
  803068:	00c07fc4 	movi	r3,511
  80306c:	18801936 	bltu	r3,r2,8030d4 <_free_r+0x10c>
  803070:	1004d0fa 	srli	r2,r2,3
  803074:	01c00044 	movi	r7,1
  803078:	21400117 	ldw	r5,4(r4)
  80307c:	10c00044 	addi	r3,r2,1
  803080:	18c7883a 	add	r3,r3,r3
  803084:	1005d0ba 	srai	r2,r2,2
  803088:	18c7883a 	add	r3,r3,r3
  80308c:	18c7883a 	add	r3,r3,r3
  803090:	1907883a 	add	r3,r3,r4
  803094:	3884983a 	sll	r2,r7,r2
  803098:	19c00017 	ldw	r7,0(r3)
  80309c:	1a3ffe04 	addi	r8,r3,-8
  8030a0:	1144b03a 	or	r2,r2,r5
  8030a4:	32000315 	stw	r8,12(r6)
  8030a8:	31c00215 	stw	r7,8(r6)
  8030ac:	20800115 	stw	r2,4(r4)
  8030b0:	19800015 	stw	r6,0(r3)
  8030b4:	39800315 	stw	r6,12(r7)
  8030b8:	8809883a 	mov	r4,r17
  8030bc:	dfc00217 	ldw	ra,8(sp)
  8030c0:	dc400117 	ldw	r17,4(sp)
  8030c4:	dc000017 	ldw	r16,0(sp)
  8030c8:	dec00304 	addi	sp,sp,12
  8030cc:	08100c41 	jmpi	8100c4 <__malloc_unlock>
  8030d0:	f800283a 	ret
  8030d4:	100ad27a 	srli	r5,r2,9
  8030d8:	00c00104 	movi	r3,4
  8030dc:	19404a36 	bltu	r3,r5,803208 <_free_r+0x240>
  8030e0:	100ad1ba 	srli	r5,r2,6
  8030e4:	28c00e44 	addi	r3,r5,57
  8030e8:	18c7883a 	add	r3,r3,r3
  8030ec:	29400e04 	addi	r5,r5,56
  8030f0:	18c7883a 	add	r3,r3,r3
  8030f4:	18c7883a 	add	r3,r3,r3
  8030f8:	1909883a 	add	r4,r3,r4
  8030fc:	20c00017 	ldw	r3,0(r4)
  803100:	01c02074 	movhi	r7,129
  803104:	213ffe04 	addi	r4,r4,-8
  803108:	39d17b04 	addi	r7,r7,17900
  80310c:	20c04426 	beq	r4,r3,803220 <_free_r+0x258>
  803110:	01ffff04 	movi	r7,-4
  803114:	19400117 	ldw	r5,4(r3)
  803118:	29ca703a 	and	r5,r5,r7
  80311c:	1140022e 	bgeu	r2,r5,803128 <_free_r+0x160>
  803120:	18c00217 	ldw	r3,8(r3)
  803124:	20fffb1e 	bne	r4,r3,803114 <__alt_mem_onchip_mem+0xff783114>
  803128:	19000317 	ldw	r4,12(r3)
  80312c:	31000315 	stw	r4,12(r6)
  803130:	30c00215 	stw	r3,8(r6)
  803134:	21800215 	stw	r6,8(r4)
  803138:	19800315 	stw	r6,12(r3)
  80313c:	003fde06 	br	8030b8 <__alt_mem_onchip_mem+0xff7830b8>
  803140:	29c00217 	ldw	r7,8(r5)
  803144:	10c5883a 	add	r2,r2,r3
  803148:	00c02074 	movhi	r3,129
  80314c:	18d17d04 	addi	r3,r3,17908
  803150:	38c03b26 	beq	r7,r3,803240 <_free_r+0x278>
  803154:	2a000317 	ldw	r8,12(r5)
  803158:	11400054 	ori	r5,r2,1
  80315c:	3087883a 	add	r3,r6,r2
  803160:	3a000315 	stw	r8,12(r7)
  803164:	41c00215 	stw	r7,8(r8)
  803168:	31400115 	stw	r5,4(r6)
  80316c:	18800015 	stw	r2,0(r3)
  803170:	003fbd06 	br	803068 <__alt_mem_onchip_mem+0xff783068>
  803174:	39c0004c 	andi	r7,r7,1
  803178:	10c5883a 	add	r2,r2,r3
  80317c:	3800071e 	bne	r7,zero,80319c <_free_r+0x1d4>
  803180:	81fffe17 	ldw	r7,-8(r16)
  803184:	31cdc83a 	sub	r6,r6,r7
  803188:	30c00317 	ldw	r3,12(r6)
  80318c:	31400217 	ldw	r5,8(r6)
  803190:	11c5883a 	add	r2,r2,r7
  803194:	28c00315 	stw	r3,12(r5)
  803198:	19400215 	stw	r5,8(r3)
  80319c:	10c00054 	ori	r3,r2,1
  8031a0:	30c00115 	stw	r3,4(r6)
  8031a4:	00c02074 	movhi	r3,129
  8031a8:	18d79a04 	addi	r3,r3,24168
  8031ac:	18c00017 	ldw	r3,0(r3)
  8031b0:	21800215 	stw	r6,8(r4)
  8031b4:	10ffc036 	bltu	r2,r3,8030b8 <__alt_mem_onchip_mem+0xff7830b8>
  8031b8:	00802074 	movhi	r2,129
  8031bc:	109f1e04 	addi	r2,r2,31864
  8031c0:	11400017 	ldw	r5,0(r2)
  8031c4:	8809883a 	mov	r4,r17
  8031c8:	0802ea40 	call	802ea4 <_malloc_trim_r>
  8031cc:	003fba06 	br	8030b8 <__alt_mem_onchip_mem+0xff7830b8>
  8031d0:	28c9883a 	add	r4,r5,r3
  8031d4:	21000117 	ldw	r4,4(r4)
  8031d8:	2100004c 	andi	r4,r4,1
  8031dc:	2000391e 	bne	r4,zero,8032c4 <_free_r+0x2fc>
  8031e0:	29c00217 	ldw	r7,8(r5)
  8031e4:	29000317 	ldw	r4,12(r5)
  8031e8:	1885883a 	add	r2,r3,r2
  8031ec:	10c00054 	ori	r3,r2,1
  8031f0:	39000315 	stw	r4,12(r7)
  8031f4:	21c00215 	stw	r7,8(r4)
  8031f8:	30c00115 	stw	r3,4(r6)
  8031fc:	308d883a 	add	r6,r6,r2
  803200:	30800015 	stw	r2,0(r6)
  803204:	003fac06 	br	8030b8 <__alt_mem_onchip_mem+0xff7830b8>
  803208:	00c00504 	movi	r3,20
  80320c:	19401536 	bltu	r3,r5,803264 <_free_r+0x29c>
  803210:	28c01704 	addi	r3,r5,92
  803214:	18c7883a 	add	r3,r3,r3
  803218:	294016c4 	addi	r5,r5,91
  80321c:	003fb406 	br	8030f0 <__alt_mem_onchip_mem+0xff7830f0>
  803220:	280bd0ba 	srai	r5,r5,2
  803224:	00c00044 	movi	r3,1
  803228:	38800117 	ldw	r2,4(r7)
  80322c:	194a983a 	sll	r5,r3,r5
  803230:	2007883a 	mov	r3,r4
  803234:	2884b03a 	or	r2,r5,r2
  803238:	38800115 	stw	r2,4(r7)
  80323c:	003fbb06 	br	80312c <__alt_mem_onchip_mem+0xff78312c>
  803240:	21800515 	stw	r6,20(r4)
  803244:	21800415 	stw	r6,16(r4)
  803248:	10c00054 	ori	r3,r2,1
  80324c:	31c00315 	stw	r7,12(r6)
  803250:	31c00215 	stw	r7,8(r6)
  803254:	30c00115 	stw	r3,4(r6)
  803258:	308d883a 	add	r6,r6,r2
  80325c:	30800015 	stw	r2,0(r6)
  803260:	003f9506 	br	8030b8 <__alt_mem_onchip_mem+0xff7830b8>
  803264:	00c01504 	movi	r3,84
  803268:	19400536 	bltu	r3,r5,803280 <_free_r+0x2b8>
  80326c:	100ad33a 	srli	r5,r2,12
  803270:	28c01bc4 	addi	r3,r5,111
  803274:	18c7883a 	add	r3,r3,r3
  803278:	29401b84 	addi	r5,r5,110
  80327c:	003f9c06 	br	8030f0 <__alt_mem_onchip_mem+0xff7830f0>
  803280:	00c05504 	movi	r3,340
  803284:	19400536 	bltu	r3,r5,80329c <_free_r+0x2d4>
  803288:	100ad3fa 	srli	r5,r2,15
  80328c:	28c01e04 	addi	r3,r5,120
  803290:	18c7883a 	add	r3,r3,r3
  803294:	29401dc4 	addi	r5,r5,119
  803298:	003f9506 	br	8030f0 <__alt_mem_onchip_mem+0xff7830f0>
  80329c:	00c15504 	movi	r3,1364
  8032a0:	19400536 	bltu	r3,r5,8032b8 <_free_r+0x2f0>
  8032a4:	100ad4ba 	srli	r5,r2,18
  8032a8:	28c01f44 	addi	r3,r5,125
  8032ac:	18c7883a 	add	r3,r3,r3
  8032b0:	29401f04 	addi	r5,r5,124
  8032b4:	003f8e06 	br	8030f0 <__alt_mem_onchip_mem+0xff7830f0>
  8032b8:	00c03f84 	movi	r3,254
  8032bc:	01401f84 	movi	r5,126
  8032c0:	003f8b06 	br	8030f0 <__alt_mem_onchip_mem+0xff7830f0>
  8032c4:	10c00054 	ori	r3,r2,1
  8032c8:	30c00115 	stw	r3,4(r6)
  8032cc:	308d883a 	add	r6,r6,r2
  8032d0:	30800015 	stw	r2,0(r6)
  8032d4:	003f7806 	br	8030b8 <__alt_mem_onchip_mem+0xff7830b8>

008032d8 <_fseek_r>:
  8032d8:	08032f81 	jmpi	8032f8 <_fseeko_r>

008032dc <fseek>:
  8032dc:	00802074 	movhi	r2,129
  8032e0:	10979804 	addi	r2,r2,24160
  8032e4:	300f883a 	mov	r7,r6
  8032e8:	280d883a 	mov	r6,r5
  8032ec:	200b883a 	mov	r5,r4
  8032f0:	11000017 	ldw	r4,0(r2)
  8032f4:	08032f81 	jmpi	8032f8 <_fseeko_r>

008032f8 <_fseeko_r>:
  8032f8:	deffe804 	addi	sp,sp,-96
  8032fc:	dd401415 	stw	r21,80(sp)
  803300:	dc801115 	stw	r18,68(sp)
  803304:	dc401015 	stw	r17,64(sp)
  803308:	dc000f15 	stw	r16,60(sp)
  80330c:	dfc01715 	stw	ra,92(sp)
  803310:	ddc01615 	stw	r23,88(sp)
  803314:	dd801515 	stw	r22,84(sp)
  803318:	dd001315 	stw	r20,76(sp)
  80331c:	dcc01215 	stw	r19,72(sp)
  803320:	2023883a 	mov	r17,r4
  803324:	2821883a 	mov	r16,r5
  803328:	302b883a 	mov	r21,r6
  80332c:	3825883a 	mov	r18,r7
  803330:	20000226 	beq	r4,zero,80333c <_fseeko_r+0x44>
  803334:	20800e17 	ldw	r2,56(r4)
  803338:	10005a26 	beq	r2,zero,8034a4 <_fseeko_r+0x1ac>
  80333c:	8080030b 	ldhu	r2,12(r16)
  803340:	00c04204 	movi	r3,264
  803344:	1080420c 	andi	r2,r2,264
  803348:	10c05b26 	beq	r2,r3,8034b8 <_fseeko_r+0x1c0>
  80334c:	85000a17 	ldw	r20,40(r16)
  803350:	a000f626 	beq	r20,zero,80372c <_fseeko_r+0x434>
  803354:	00800044 	movi	r2,1
  803358:	90803e26 	beq	r18,r2,803454 <_fseeko_r+0x15c>
  80335c:	00800084 	movi	r2,2
  803360:	90801026 	beq	r18,r2,8033a4 <_fseeko_r+0xac>
  803364:	90000f26 	beq	r18,zero,8033a4 <_fseeko_r+0xac>
  803368:	00800584 	movi	r2,22
  80336c:	88800015 	stw	r2,0(r17)
  803370:	04ffffc4 	movi	r19,-1
  803374:	9805883a 	mov	r2,r19
  803378:	dfc01717 	ldw	ra,92(sp)
  80337c:	ddc01617 	ldw	r23,88(sp)
  803380:	dd801517 	ldw	r22,84(sp)
  803384:	dd401417 	ldw	r21,80(sp)
  803388:	dd001317 	ldw	r20,76(sp)
  80338c:	dcc01217 	ldw	r19,72(sp)
  803390:	dc801117 	ldw	r18,68(sp)
  803394:	dc401017 	ldw	r17,64(sp)
  803398:	dc000f17 	ldw	r16,60(sp)
  80339c:	dec01804 	addi	sp,sp,96
  8033a0:	f800283a 	ret
  8033a4:	80800417 	ldw	r2,16(r16)
  8033a8:	002f883a 	mov	r23,zero
  8033ac:	0027883a 	mov	r19,zero
  8033b0:	1000cb26 	beq	r2,zero,8036e0 <_fseeko_r+0x3e8>
  8033b4:	8080030b 	ldhu	r2,12(r16)
  8033b8:	10c2068c 	andi	r3,r2,2074
  8033bc:	1800071e 	bne	r3,zero,8033dc <_fseeko_r+0xe4>
  8033c0:	10c1000c 	andi	r3,r2,1024
  8033c4:	1800451e 	bne	r3,zero,8034dc <_fseeko_r+0x1e4>
  8033c8:	00c02034 	movhi	r3,128
  8033cc:	18d27a04 	addi	r3,r3,18920
  8033d0:	a0c0b726 	beq	r20,r3,8036b0 <_fseeko_r+0x3b8>
  8033d4:	10820014 	ori	r2,r2,2048
  8033d8:	8080030d 	sth	r2,12(r16)
  8033dc:	800b883a 	mov	r5,r16
  8033e0:	8809883a 	mov	r4,r17
  8033e4:	08029200 	call	802920 <_fflush_r>
  8033e8:	1027883a 	mov	r19,r2
  8033ec:	103fe01e 	bne	r2,zero,803370 <__alt_mem_onchip_mem+0xff783370>
  8033f0:	81400717 	ldw	r5,28(r16)
  8033f4:	900f883a 	mov	r7,r18
  8033f8:	a80d883a 	mov	r6,r21
  8033fc:	8809883a 	mov	r4,r17
  803400:	a03ee83a 	callr	r20
  803404:	00ffffc4 	movi	r3,-1
  803408:	10ffd926 	beq	r2,r3,803370 <__alt_mem_onchip_mem+0xff783370>
  80340c:	81400c17 	ldw	r5,48(r16)
  803410:	28000526 	beq	r5,zero,803428 <_fseeko_r+0x130>
  803414:	80801004 	addi	r2,r16,64
  803418:	28800226 	beq	r5,r2,803424 <_fseeko_r+0x12c>
  80341c:	8809883a 	mov	r4,r17
  803420:	0802fc80 	call	802fc8 <_free_r>
  803424:	80000c15 	stw	zero,48(r16)
  803428:	8080030b 	ldhu	r2,12(r16)
  80342c:	80c00417 	ldw	r3,16(r16)
  803430:	80000115 	stw	zero,4(r16)
  803434:	10bdf7cc 	andi	r2,r2,63455
  803438:	80c00015 	stw	r3,0(r16)
  80343c:	8080030d 	sth	r2,12(r16)
  803440:	01800204 	movi	r6,8
  803444:	000b883a 	mov	r5,zero
  803448:	81001704 	addi	r4,r16,92
  80344c:	08044040 	call	804404 <memset>
  803450:	003fc806 	br	803374 <__alt_mem_onchip_mem+0xff783374>
  803454:	800b883a 	mov	r5,r16
  803458:	8809883a 	mov	r4,r17
  80345c:	08029200 	call	802920 <_fflush_r>
  803460:	8080030b 	ldhu	r2,12(r16)
  803464:	10c4000c 	andi	r3,r2,4096
  803468:	18008726 	beq	r3,zero,803688 <_fseeko_r+0x390>
  80346c:	84c01417 	ldw	r19,80(r16)
  803470:	10c0010c 	andi	r3,r2,4
  803474:	1800431e 	bne	r3,zero,803584 <_fseeko_r+0x28c>
  803478:	1080020c 	andi	r2,r2,8
  80347c:	10008026 	beq	r2,zero,803680 <_fseeko_r+0x388>
  803480:	80c00017 	ldw	r3,0(r16)
  803484:	80800417 	ldw	r2,16(r16)
  803488:	18000226 	beq	r3,zero,803494 <_fseeko_r+0x19c>
  80348c:	1887c83a 	sub	r3,r3,r2
  803490:	98e7883a 	add	r19,r19,r3
  803494:	aceb883a 	add	r21,r21,r19
  803498:	05c00044 	movi	r23,1
  80349c:	0025883a 	mov	r18,zero
  8034a0:	003fc306 	br	8033b0 <__alt_mem_onchip_mem+0xff7833b0>
  8034a4:	0802cfc0 	call	802cfc <__sinit>
  8034a8:	8080030b 	ldhu	r2,12(r16)
  8034ac:	00c04204 	movi	r3,264
  8034b0:	1080420c 	andi	r2,r2,264
  8034b4:	10ffa51e 	bne	r2,r3,80334c <__alt_mem_onchip_mem+0xff78334c>
  8034b8:	800b883a 	mov	r5,r16
  8034bc:	8809883a 	mov	r4,r17
  8034c0:	08029200 	call	802920 <_fflush_r>
  8034c4:	003fa106 	br	80334c <__alt_mem_onchip_mem+0xff78334c>
  8034c8:	8080030b 	ldhu	r2,12(r16)
  8034cc:	00c10004 	movi	r3,1024
  8034d0:	80c01315 	stw	r3,76(r16)
  8034d4:	10c4b03a 	or	r2,r2,r3
  8034d8:	8080030d 	sth	r2,12(r16)
  8034dc:	9000311e 	bne	r18,zero,8035a4 <_fseeko_r+0x2ac>
  8034e0:	a82d883a 	mov	r22,r21
  8034e4:	b800371e 	bne	r23,zero,8035c4 <_fseeko_r+0x2cc>
  8034e8:	8080030b 	ldhu	r2,12(r16)
  8034ec:	1084000c 	andi	r2,r2,4096
  8034f0:	10007f26 	beq	r2,zero,8036f0 <_fseeko_r+0x3f8>
  8034f4:	80801417 	ldw	r2,80(r16)
  8034f8:	81800117 	ldw	r6,4(r16)
  8034fc:	81400c17 	ldw	r5,48(r16)
  803500:	11a7c83a 	sub	r19,r2,r6
  803504:	28008226 	beq	r5,zero,803710 <_fseeko_r+0x418>
  803508:	81c00f17 	ldw	r7,60(r16)
  80350c:	99e7c83a 	sub	r19,r19,r7
  803510:	81000e17 	ldw	r4,56(r16)
  803514:	80800417 	ldw	r2,16(r16)
  803518:	99a7883a 	add	r19,r19,r6
  80351c:	2087c83a 	sub	r3,r4,r2
  803520:	98e7c83a 	sub	r19,r19,r3
  803524:	38c7883a 	add	r3,r7,r3
  803528:	b4c02b16 	blt	r22,r19,8035d8 <_fseeko_r+0x2e0>
  80352c:	98c9883a 	add	r4,r19,r3
  803530:	b100292e 	bgeu	r22,r4,8035d8 <_fseeko_r+0x2e0>
  803534:	b4e7c83a 	sub	r19,r22,r19
  803538:	14c5883a 	add	r2,r2,r19
  80353c:	1ce7c83a 	sub	r19,r3,r19
  803540:	80800015 	stw	r2,0(r16)
  803544:	84c00115 	stw	r19,4(r16)
  803548:	28000526 	beq	r5,zero,803560 <_fseeko_r+0x268>
  80354c:	80801004 	addi	r2,r16,64
  803550:	28800226 	beq	r5,r2,80355c <_fseeko_r+0x264>
  803554:	8809883a 	mov	r4,r17
  803558:	0802fc80 	call	802fc8 <_free_r>
  80355c:	80000c15 	stw	zero,48(r16)
  803560:	8080030b 	ldhu	r2,12(r16)
  803564:	01800204 	movi	r6,8
  803568:	000b883a 	mov	r5,zero
  80356c:	10bff7cc 	andi	r2,r2,65503
  803570:	8080030d 	sth	r2,12(r16)
  803574:	81001704 	addi	r4,r16,92
  803578:	08044040 	call	804404 <memset>
  80357c:	0027883a 	mov	r19,zero
  803580:	003f7c06 	br	803374 <__alt_mem_onchip_mem+0xff783374>
  803584:	80c00117 	ldw	r3,4(r16)
  803588:	80800c17 	ldw	r2,48(r16)
  80358c:	98e7c83a 	sub	r19,r19,r3
  803590:	10003b26 	beq	r2,zero,803680 <_fseeko_r+0x388>
  803594:	80c00f17 	ldw	r3,60(r16)
  803598:	80800417 	ldw	r2,16(r16)
  80359c:	98e7c83a 	sub	r19,r19,r3
  8035a0:	003fbc06 	br	803494 <__alt_mem_onchip_mem+0xff783494>
  8035a4:	8140038f 	ldh	r5,14(r16)
  8035a8:	d80d883a 	mov	r6,sp
  8035ac:	8809883a 	mov	r4,r17
  8035b0:	08037580 	call	803758 <_fstat_r>
  8035b4:	103f891e 	bne	r2,zero,8033dc <__alt_mem_onchip_mem+0xff7833dc>
  8035b8:	dd800417 	ldw	r22,16(sp)
  8035bc:	adad883a 	add	r22,r21,r22
  8035c0:	b83fc926 	beq	r23,zero,8034e8 <__alt_mem_onchip_mem+0xff7834e8>
  8035c4:	81400c17 	ldw	r5,48(r16)
  8035c8:	81800117 	ldw	r6,4(r16)
  8035cc:	28005026 	beq	r5,zero,803710 <_fseeko_r+0x418>
  8035d0:	81c00f17 	ldw	r7,60(r16)
  8035d4:	003fce06 	br	803510 <__alt_mem_onchip_mem+0xff783510>
  8035d8:	84c01317 	ldw	r19,76(r16)
  8035dc:	81400717 	ldw	r5,28(r16)
  8035e0:	000f883a 	mov	r7,zero
  8035e4:	04e7c83a 	sub	r19,zero,r19
  8035e8:	9da6703a 	and	r19,r19,r22
  8035ec:	980d883a 	mov	r6,r19
  8035f0:	8809883a 	mov	r4,r17
  8035f4:	a03ee83a 	callr	r20
  8035f8:	00ffffc4 	movi	r3,-1
  8035fc:	10ff7726 	beq	r2,r3,8033dc <__alt_mem_onchip_mem+0xff7833dc>
  803600:	80800417 	ldw	r2,16(r16)
  803604:	81400c17 	ldw	r5,48(r16)
  803608:	80000115 	stw	zero,4(r16)
  80360c:	80800015 	stw	r2,0(r16)
  803610:	28000526 	beq	r5,zero,803628 <_fseeko_r+0x330>
  803614:	80801004 	addi	r2,r16,64
  803618:	28800226 	beq	r5,r2,803624 <_fseeko_r+0x32c>
  80361c:	8809883a 	mov	r4,r17
  803620:	0802fc80 	call	802fc8 <_free_r>
  803624:	80000c15 	stw	zero,48(r16)
  803628:	8080030b 	ldhu	r2,12(r16)
  80362c:	b4e7c83a 	sub	r19,r22,r19
  803630:	10bff7cc 	andi	r2,r2,65503
  803634:	8080030d 	sth	r2,12(r16)
  803638:	98000b26 	beq	r19,zero,803668 <_fseeko_r+0x370>
  80363c:	800b883a 	mov	r5,r16
  803640:	8809883a 	mov	r4,r17
  803644:	08046e80 	call	8046e8 <__srefill_r>
  803648:	103f641e 	bne	r2,zero,8033dc <__alt_mem_onchip_mem+0xff7833dc>
  80364c:	80800117 	ldw	r2,4(r16)
  803650:	14ff6236 	bltu	r2,r19,8033dc <__alt_mem_onchip_mem+0xff7833dc>
  803654:	80c00017 	ldw	r3,0(r16)
  803658:	14c5c83a 	sub	r2,r2,r19
  80365c:	80800115 	stw	r2,4(r16)
  803660:	1ce7883a 	add	r19,r3,r19
  803664:	84c00015 	stw	r19,0(r16)
  803668:	01800204 	movi	r6,8
  80366c:	000b883a 	mov	r5,zero
  803670:	81001704 	addi	r4,r16,92
  803674:	08044040 	call	804404 <memset>
  803678:	0027883a 	mov	r19,zero
  80367c:	003f3d06 	br	803374 <__alt_mem_onchip_mem+0xff783374>
  803680:	80800417 	ldw	r2,16(r16)
  803684:	003f8306 	br	803494 <__alt_mem_onchip_mem+0xff783494>
  803688:	81400717 	ldw	r5,28(r16)
  80368c:	900f883a 	mov	r7,r18
  803690:	000d883a 	mov	r6,zero
  803694:	8809883a 	mov	r4,r17
  803698:	a03ee83a 	callr	r20
  80369c:	1027883a 	mov	r19,r2
  8036a0:	00bfffc4 	movi	r2,-1
  8036a4:	98bf3226 	beq	r19,r2,803370 <__alt_mem_onchip_mem+0xff783370>
  8036a8:	8080030b 	ldhu	r2,12(r16)
  8036ac:	003f7006 	br	803470 <__alt_mem_onchip_mem+0xff783470>
  8036b0:	8140038f 	ldh	r5,14(r16)
  8036b4:	283f4716 	blt	r5,zero,8033d4 <__alt_mem_onchip_mem+0xff7833d4>
  8036b8:	d80d883a 	mov	r6,sp
  8036bc:	8809883a 	mov	r4,r17
  8036c0:	08037580 	call	803758 <_fstat_r>
  8036c4:	1000041e 	bne	r2,zero,8036d8 <_fseeko_r+0x3e0>
  8036c8:	d8800117 	ldw	r2,4(sp)
  8036cc:	00e00014 	movui	r3,32768
  8036d0:	10bc000c 	andi	r2,r2,61440
  8036d4:	10ff7c26 	beq	r2,r3,8034c8 <__alt_mem_onchip_mem+0xff7834c8>
  8036d8:	8080030b 	ldhu	r2,12(r16)
  8036dc:	003f3d06 	br	8033d4 <__alt_mem_onchip_mem+0xff7833d4>
  8036e0:	800b883a 	mov	r5,r16
  8036e4:	8809883a 	mov	r4,r17
  8036e8:	0803a3c0 	call	803a3c <__smakebuf_r>
  8036ec:	003f3106 	br	8033b4 <__alt_mem_onchip_mem+0xff7833b4>
  8036f0:	81400717 	ldw	r5,28(r16)
  8036f4:	01c00044 	movi	r7,1
  8036f8:	000d883a 	mov	r6,zero
  8036fc:	8809883a 	mov	r4,r17
  803700:	a03ee83a 	callr	r20
  803704:	00ffffc4 	movi	r3,-1
  803708:	10ff7b1e 	bne	r2,r3,8034f8 <__alt_mem_onchip_mem+0xff7834f8>
  80370c:	003f3306 	br	8033dc <__alt_mem_onchip_mem+0xff7833dc>
  803710:	80c00017 	ldw	r3,0(r16)
  803714:	80800417 	ldw	r2,16(r16)
  803718:	000b883a 	mov	r5,zero
  80371c:	1887c83a 	sub	r3,r3,r2
  803720:	98e7c83a 	sub	r19,r19,r3
  803724:	30c7883a 	add	r3,r6,r3
  803728:	003f7f06 	br	803528 <__alt_mem_onchip_mem+0xff783528>
  80372c:	00800744 	movi	r2,29
  803730:	88800015 	stw	r2,0(r17)
  803734:	04ffffc4 	movi	r19,-1
  803738:	003f0e06 	br	803374 <__alt_mem_onchip_mem+0xff783374>

0080373c <fseeko>:
  80373c:	00802074 	movhi	r2,129
  803740:	10979804 	addi	r2,r2,24160
  803744:	300f883a 	mov	r7,r6
  803748:	280d883a 	mov	r6,r5
  80374c:	200b883a 	mov	r5,r4
  803750:	11000017 	ldw	r4,0(r2)
  803754:	08032f81 	jmpi	8032f8 <_fseeko_r>

00803758 <_fstat_r>:
  803758:	defffd04 	addi	sp,sp,-12
  80375c:	2805883a 	mov	r2,r5
  803760:	dc000015 	stw	r16,0(sp)
  803764:	04002074 	movhi	r16,129
  803768:	dc400115 	stw	r17,4(sp)
  80376c:	841f1b04 	addi	r16,r16,31852
  803770:	2023883a 	mov	r17,r4
  803774:	300b883a 	mov	r5,r6
  803778:	1009883a 	mov	r4,r2
  80377c:	dfc00215 	stw	ra,8(sp)
  803780:	80000015 	stw	zero,0(r16)
  803784:	080fc980 	call	80fc98 <fstat>
  803788:	00ffffc4 	movi	r3,-1
  80378c:	10c00526 	beq	r2,r3,8037a4 <_fstat_r+0x4c>
  803790:	dfc00217 	ldw	ra,8(sp)
  803794:	dc400117 	ldw	r17,4(sp)
  803798:	dc000017 	ldw	r16,0(sp)
  80379c:	dec00304 	addi	sp,sp,12
  8037a0:	f800283a 	ret
  8037a4:	80c00017 	ldw	r3,0(r16)
  8037a8:	183ff926 	beq	r3,zero,803790 <__alt_mem_onchip_mem+0xff783790>
  8037ac:	88c00015 	stw	r3,0(r17)
  8037b0:	003ff706 	br	803790 <__alt_mem_onchip_mem+0xff783790>

008037b4 <_fwalk>:
  8037b4:	defff704 	addi	sp,sp,-36
  8037b8:	dd000415 	stw	r20,16(sp)
  8037bc:	dfc00815 	stw	ra,32(sp)
  8037c0:	ddc00715 	stw	r23,28(sp)
  8037c4:	dd800615 	stw	r22,24(sp)
  8037c8:	dd400515 	stw	r21,20(sp)
  8037cc:	dcc00315 	stw	r19,12(sp)
  8037d0:	dc800215 	stw	r18,8(sp)
  8037d4:	dc400115 	stw	r17,4(sp)
  8037d8:	dc000015 	stw	r16,0(sp)
  8037dc:	2500b804 	addi	r20,r4,736
  8037e0:	a0002326 	beq	r20,zero,803870 <_fwalk+0xbc>
  8037e4:	282b883a 	mov	r21,r5
  8037e8:	002f883a 	mov	r23,zero
  8037ec:	05800044 	movi	r22,1
  8037f0:	04ffffc4 	movi	r19,-1
  8037f4:	a4400117 	ldw	r17,4(r20)
  8037f8:	a4800217 	ldw	r18,8(r20)
  8037fc:	8c7fffc4 	addi	r17,r17,-1
  803800:	88000d16 	blt	r17,zero,803838 <_fwalk+0x84>
  803804:	94000304 	addi	r16,r18,12
  803808:	94800384 	addi	r18,r18,14
  80380c:	8080000b 	ldhu	r2,0(r16)
  803810:	8c7fffc4 	addi	r17,r17,-1
  803814:	813ffd04 	addi	r4,r16,-12
  803818:	b080042e 	bgeu	r22,r2,80382c <_fwalk+0x78>
  80381c:	9080000f 	ldh	r2,0(r18)
  803820:	14c00226 	beq	r2,r19,80382c <_fwalk+0x78>
  803824:	a83ee83a 	callr	r21
  803828:	b8aeb03a 	or	r23,r23,r2
  80382c:	84001a04 	addi	r16,r16,104
  803830:	94801a04 	addi	r18,r18,104
  803834:	8cfff51e 	bne	r17,r19,80380c <__alt_mem_onchip_mem+0xff78380c>
  803838:	a5000017 	ldw	r20,0(r20)
  80383c:	a03fed1e 	bne	r20,zero,8037f4 <__alt_mem_onchip_mem+0xff7837f4>
  803840:	b805883a 	mov	r2,r23
  803844:	dfc00817 	ldw	ra,32(sp)
  803848:	ddc00717 	ldw	r23,28(sp)
  80384c:	dd800617 	ldw	r22,24(sp)
  803850:	dd400517 	ldw	r21,20(sp)
  803854:	dd000417 	ldw	r20,16(sp)
  803858:	dcc00317 	ldw	r19,12(sp)
  80385c:	dc800217 	ldw	r18,8(sp)
  803860:	dc400117 	ldw	r17,4(sp)
  803864:	dc000017 	ldw	r16,0(sp)
  803868:	dec00904 	addi	sp,sp,36
  80386c:	f800283a 	ret
  803870:	002f883a 	mov	r23,zero
  803874:	003ff206 	br	803840 <__alt_mem_onchip_mem+0xff783840>

00803878 <_fwalk_reent>:
  803878:	defff704 	addi	sp,sp,-36
  80387c:	dd000415 	stw	r20,16(sp)
  803880:	dfc00815 	stw	ra,32(sp)
  803884:	ddc00715 	stw	r23,28(sp)
  803888:	dd800615 	stw	r22,24(sp)
  80388c:	dd400515 	stw	r21,20(sp)
  803890:	dcc00315 	stw	r19,12(sp)
  803894:	dc800215 	stw	r18,8(sp)
  803898:	dc400115 	stw	r17,4(sp)
  80389c:	dc000015 	stw	r16,0(sp)
  8038a0:	2500b804 	addi	r20,r4,736
  8038a4:	a0002326 	beq	r20,zero,803934 <_fwalk_reent+0xbc>
  8038a8:	282b883a 	mov	r21,r5
  8038ac:	2027883a 	mov	r19,r4
  8038b0:	002f883a 	mov	r23,zero
  8038b4:	05800044 	movi	r22,1
  8038b8:	04bfffc4 	movi	r18,-1
  8038bc:	a4400117 	ldw	r17,4(r20)
  8038c0:	a4000217 	ldw	r16,8(r20)
  8038c4:	8c7fffc4 	addi	r17,r17,-1
  8038c8:	88000c16 	blt	r17,zero,8038fc <_fwalk_reent+0x84>
  8038cc:	84000304 	addi	r16,r16,12
  8038d0:	8080000b 	ldhu	r2,0(r16)
  8038d4:	8c7fffc4 	addi	r17,r17,-1
  8038d8:	817ffd04 	addi	r5,r16,-12
  8038dc:	b080052e 	bgeu	r22,r2,8038f4 <_fwalk_reent+0x7c>
  8038e0:	8080008f 	ldh	r2,2(r16)
  8038e4:	9809883a 	mov	r4,r19
  8038e8:	14800226 	beq	r2,r18,8038f4 <_fwalk_reent+0x7c>
  8038ec:	a83ee83a 	callr	r21
  8038f0:	b8aeb03a 	or	r23,r23,r2
  8038f4:	84001a04 	addi	r16,r16,104
  8038f8:	8cbff51e 	bne	r17,r18,8038d0 <__alt_mem_onchip_mem+0xff7838d0>
  8038fc:	a5000017 	ldw	r20,0(r20)
  803900:	a03fee1e 	bne	r20,zero,8038bc <__alt_mem_onchip_mem+0xff7838bc>
  803904:	b805883a 	mov	r2,r23
  803908:	dfc00817 	ldw	ra,32(sp)
  80390c:	ddc00717 	ldw	r23,28(sp)
  803910:	dd800617 	ldw	r22,24(sp)
  803914:	dd400517 	ldw	r21,20(sp)
  803918:	dd000417 	ldw	r20,16(sp)
  80391c:	dcc00317 	ldw	r19,12(sp)
  803920:	dc800217 	ldw	r18,8(sp)
  803924:	dc400117 	ldw	r17,4(sp)
  803928:	dc000017 	ldw	r16,0(sp)
  80392c:	dec00904 	addi	sp,sp,36
  803930:	f800283a 	ret
  803934:	002f883a 	mov	r23,zero
  803938:	003ff206 	br	803904 <__alt_mem_onchip_mem+0xff783904>

0080393c <_fwrite_r>:
  80393c:	defff504 	addi	sp,sp,-44
  803940:	dc800815 	stw	r18,32(sp)
  803944:	39a5383a 	mul	r18,r7,r6
  803948:	d8800304 	addi	r2,sp,12
  80394c:	d8800015 	stw	r2,0(sp)
  803950:	00800044 	movi	r2,1
  803954:	dcc00915 	stw	r19,36(sp)
  803958:	dc400715 	stw	r17,28(sp)
  80395c:	dc000615 	stw	r16,24(sp)
  803960:	d9400315 	stw	r5,12(sp)
  803964:	dfc00a15 	stw	ra,40(sp)
  803968:	dc800415 	stw	r18,16(sp)
  80396c:	dc800215 	stw	r18,8(sp)
  803970:	d8800115 	stw	r2,4(sp)
  803974:	3027883a 	mov	r19,r6
  803978:	3821883a 	mov	r16,r7
  80397c:	2023883a 	mov	r17,r4
  803980:	d9400b17 	ldw	r5,44(sp)
  803984:	20000226 	beq	r4,zero,803990 <_fwrite_r+0x54>
  803988:	20800e17 	ldw	r2,56(r4)
  80398c:	10001a26 	beq	r2,zero,8039f8 <_fwrite_r+0xbc>
  803990:	2880030b 	ldhu	r2,12(r5)
  803994:	10c8000c 	andi	r3,r2,8192
  803998:	1800061e 	bne	r3,zero,8039b4 <_fwrite_r+0x78>
  80399c:	29001917 	ldw	r4,100(r5)
  8039a0:	00f7ffc4 	movi	r3,-8193
  8039a4:	10880014 	ori	r2,r2,8192
  8039a8:	20c6703a 	and	r3,r4,r3
  8039ac:	2880030d 	sth	r2,12(r5)
  8039b0:	28c01915 	stw	r3,100(r5)
  8039b4:	d80d883a 	mov	r6,sp
  8039b8:	8809883a 	mov	r4,r17
  8039bc:	08089f40 	call	8089f4 <__sfvwrite_r>
  8039c0:	10000b26 	beq	r2,zero,8039f0 <_fwrite_r+0xb4>
  8039c4:	d9000217 	ldw	r4,8(sp)
  8039c8:	980b883a 	mov	r5,r19
  8039cc:	9109c83a 	sub	r4,r18,r4
  8039d0:	080d2d40 	call	80d2d4 <__udivsi3>
  8039d4:	dfc00a17 	ldw	ra,40(sp)
  8039d8:	dcc00917 	ldw	r19,36(sp)
  8039dc:	dc800817 	ldw	r18,32(sp)
  8039e0:	dc400717 	ldw	r17,28(sp)
  8039e4:	dc000617 	ldw	r16,24(sp)
  8039e8:	dec00b04 	addi	sp,sp,44
  8039ec:	f800283a 	ret
  8039f0:	8005883a 	mov	r2,r16
  8039f4:	003ff706 	br	8039d4 <__alt_mem_onchip_mem+0xff7839d4>
  8039f8:	d9400515 	stw	r5,20(sp)
  8039fc:	0802cfc0 	call	802cfc <__sinit>
  803a00:	d9400517 	ldw	r5,20(sp)
  803a04:	003fe206 	br	803990 <__alt_mem_onchip_mem+0xff783990>

00803a08 <fwrite>:
  803a08:	defffe04 	addi	sp,sp,-8
  803a0c:	00802074 	movhi	r2,129
  803a10:	d9c00015 	stw	r7,0(sp)
  803a14:	10979804 	addi	r2,r2,24160
  803a18:	300f883a 	mov	r7,r6
  803a1c:	280d883a 	mov	r6,r5
  803a20:	200b883a 	mov	r5,r4
  803a24:	11000017 	ldw	r4,0(r2)
  803a28:	dfc00115 	stw	ra,4(sp)
  803a2c:	080393c0 	call	80393c <_fwrite_r>
  803a30:	dfc00117 	ldw	ra,4(sp)
  803a34:	dec00204 	addi	sp,sp,8
  803a38:	f800283a 	ret

00803a3c <__smakebuf_r>:
  803a3c:	2880030b 	ldhu	r2,12(r5)
  803a40:	10c0008c 	andi	r3,r2,2
  803a44:	1800411e 	bne	r3,zero,803b4c <__smakebuf_r+0x110>
  803a48:	deffec04 	addi	sp,sp,-80
  803a4c:	dc000f15 	stw	r16,60(sp)
  803a50:	2821883a 	mov	r16,r5
  803a54:	2940038f 	ldh	r5,14(r5)
  803a58:	dc401015 	stw	r17,64(sp)
  803a5c:	dfc01315 	stw	ra,76(sp)
  803a60:	dcc01215 	stw	r19,72(sp)
  803a64:	dc801115 	stw	r18,68(sp)
  803a68:	2023883a 	mov	r17,r4
  803a6c:	28001c16 	blt	r5,zero,803ae0 <__smakebuf_r+0xa4>
  803a70:	d80d883a 	mov	r6,sp
  803a74:	08037580 	call	803758 <_fstat_r>
  803a78:	10001816 	blt	r2,zero,803adc <__smakebuf_r+0xa0>
  803a7c:	d8800117 	ldw	r2,4(sp)
  803a80:	00e00014 	movui	r3,32768
  803a84:	10bc000c 	andi	r2,r2,61440
  803a88:	14c80020 	cmpeqi	r19,r2,8192
  803a8c:	10c03726 	beq	r2,r3,803b6c <__smakebuf_r+0x130>
  803a90:	80c0030b 	ldhu	r3,12(r16)
  803a94:	18c20014 	ori	r3,r3,2048
  803a98:	80c0030d 	sth	r3,12(r16)
  803a9c:	00c80004 	movi	r3,8192
  803aa0:	10c0521e 	bne	r2,r3,803bec <__smakebuf_r+0x1b0>
  803aa4:	8140038f 	ldh	r5,14(r16)
  803aa8:	8809883a 	mov	r4,r17
  803aac:	0808eb00 	call	808eb0 <_isatty_r>
  803ab0:	10004c26 	beq	r2,zero,803be4 <__smakebuf_r+0x1a8>
  803ab4:	8080030b 	ldhu	r2,12(r16)
  803ab8:	80c010c4 	addi	r3,r16,67
  803abc:	80c00015 	stw	r3,0(r16)
  803ac0:	10800054 	ori	r2,r2,1
  803ac4:	8080030d 	sth	r2,12(r16)
  803ac8:	00800044 	movi	r2,1
  803acc:	80c00415 	stw	r3,16(r16)
  803ad0:	80800515 	stw	r2,20(r16)
  803ad4:	04810004 	movi	r18,1024
  803ad8:	00000706 	br	803af8 <__smakebuf_r+0xbc>
  803adc:	8080030b 	ldhu	r2,12(r16)
  803ae0:	10c0200c 	andi	r3,r2,128
  803ae4:	18001f1e 	bne	r3,zero,803b64 <__smakebuf_r+0x128>
  803ae8:	04810004 	movi	r18,1024
  803aec:	10820014 	ori	r2,r2,2048
  803af0:	8080030d 	sth	r2,12(r16)
  803af4:	0027883a 	mov	r19,zero
  803af8:	900b883a 	mov	r5,r18
  803afc:	8809883a 	mov	r4,r17
  803b00:	0803bf80 	call	803bf8 <_malloc_r>
  803b04:	10002c26 	beq	r2,zero,803bb8 <__smakebuf_r+0x17c>
  803b08:	80c0030b 	ldhu	r3,12(r16)
  803b0c:	01002034 	movhi	r4,128
  803b10:	210a6d04 	addi	r4,r4,10676
  803b14:	89000f15 	stw	r4,60(r17)
  803b18:	18c02014 	ori	r3,r3,128
  803b1c:	80c0030d 	sth	r3,12(r16)
  803b20:	80800015 	stw	r2,0(r16)
  803b24:	80800415 	stw	r2,16(r16)
  803b28:	84800515 	stw	r18,20(r16)
  803b2c:	98001a1e 	bne	r19,zero,803b98 <__smakebuf_r+0x15c>
  803b30:	dfc01317 	ldw	ra,76(sp)
  803b34:	dcc01217 	ldw	r19,72(sp)
  803b38:	dc801117 	ldw	r18,68(sp)
  803b3c:	dc401017 	ldw	r17,64(sp)
  803b40:	dc000f17 	ldw	r16,60(sp)
  803b44:	dec01404 	addi	sp,sp,80
  803b48:	f800283a 	ret
  803b4c:	288010c4 	addi	r2,r5,67
  803b50:	28800015 	stw	r2,0(r5)
  803b54:	28800415 	stw	r2,16(r5)
  803b58:	00800044 	movi	r2,1
  803b5c:	28800515 	stw	r2,20(r5)
  803b60:	f800283a 	ret
  803b64:	04801004 	movi	r18,64
  803b68:	003fe006 	br	803aec <__alt_mem_onchip_mem+0xff783aec>
  803b6c:	81000a17 	ldw	r4,40(r16)
  803b70:	00c02034 	movhi	r3,128
  803b74:	18d27a04 	addi	r3,r3,18920
  803b78:	20ffc51e 	bne	r4,r3,803a90 <__alt_mem_onchip_mem+0xff783a90>
  803b7c:	8080030b 	ldhu	r2,12(r16)
  803b80:	04810004 	movi	r18,1024
  803b84:	84801315 	stw	r18,76(r16)
  803b88:	1484b03a 	or	r2,r2,r18
  803b8c:	8080030d 	sth	r2,12(r16)
  803b90:	0027883a 	mov	r19,zero
  803b94:	003fd806 	br	803af8 <__alt_mem_onchip_mem+0xff783af8>
  803b98:	8140038f 	ldh	r5,14(r16)
  803b9c:	8809883a 	mov	r4,r17
  803ba0:	0808eb00 	call	808eb0 <_isatty_r>
  803ba4:	103fe226 	beq	r2,zero,803b30 <__alt_mem_onchip_mem+0xff783b30>
  803ba8:	8080030b 	ldhu	r2,12(r16)
  803bac:	10800054 	ori	r2,r2,1
  803bb0:	8080030d 	sth	r2,12(r16)
  803bb4:	003fde06 	br	803b30 <__alt_mem_onchip_mem+0xff783b30>
  803bb8:	8080030b 	ldhu	r2,12(r16)
  803bbc:	10c0800c 	andi	r3,r2,512
  803bc0:	183fdb1e 	bne	r3,zero,803b30 <__alt_mem_onchip_mem+0xff783b30>
  803bc4:	10800094 	ori	r2,r2,2
  803bc8:	80c010c4 	addi	r3,r16,67
  803bcc:	8080030d 	sth	r2,12(r16)
  803bd0:	00800044 	movi	r2,1
  803bd4:	80c00015 	stw	r3,0(r16)
  803bd8:	80c00415 	stw	r3,16(r16)
  803bdc:	80800515 	stw	r2,20(r16)
  803be0:	003fd306 	br	803b30 <__alt_mem_onchip_mem+0xff783b30>
  803be4:	04810004 	movi	r18,1024
  803be8:	003fc306 	br	803af8 <__alt_mem_onchip_mem+0xff783af8>
  803bec:	0027883a 	mov	r19,zero
  803bf0:	04810004 	movi	r18,1024
  803bf4:	003fc006 	br	803af8 <__alt_mem_onchip_mem+0xff783af8>

00803bf8 <_malloc_r>:
  803bf8:	defff504 	addi	sp,sp,-44
  803bfc:	dc800315 	stw	r18,12(sp)
  803c00:	dfc00a15 	stw	ra,40(sp)
  803c04:	df000915 	stw	fp,36(sp)
  803c08:	ddc00815 	stw	r23,32(sp)
  803c0c:	dd800715 	stw	r22,28(sp)
  803c10:	dd400615 	stw	r21,24(sp)
  803c14:	dd000515 	stw	r20,20(sp)
  803c18:	dcc00415 	stw	r19,16(sp)
  803c1c:	dc400215 	stw	r17,8(sp)
  803c20:	dc000115 	stw	r16,4(sp)
  803c24:	288002c4 	addi	r2,r5,11
  803c28:	00c00584 	movi	r3,22
  803c2c:	2025883a 	mov	r18,r4
  803c30:	18807f2e 	bgeu	r3,r2,803e30 <_malloc_r+0x238>
  803c34:	047ffe04 	movi	r17,-8
  803c38:	1462703a 	and	r17,r2,r17
  803c3c:	8800a316 	blt	r17,zero,803ecc <_malloc_r+0x2d4>
  803c40:	8940a236 	bltu	r17,r5,803ecc <_malloc_r+0x2d4>
  803c44:	08100a00 	call	8100a0 <__malloc_lock>
  803c48:	00807dc4 	movi	r2,503
  803c4c:	1441e92e 	bgeu	r2,r17,8043f4 <_malloc_r+0x7fc>
  803c50:	8804d27a 	srli	r2,r17,9
  803c54:	1000a126 	beq	r2,zero,803edc <_malloc_r+0x2e4>
  803c58:	00c00104 	movi	r3,4
  803c5c:	18811e36 	bltu	r3,r2,8040d8 <_malloc_r+0x4e0>
  803c60:	8804d1ba 	srli	r2,r17,6
  803c64:	12000e44 	addi	r8,r2,57
  803c68:	11c00e04 	addi	r7,r2,56
  803c6c:	4209883a 	add	r4,r8,r8
  803c70:	04c02074 	movhi	r19,129
  803c74:	2109883a 	add	r4,r4,r4
  803c78:	9cd17b04 	addi	r19,r19,17900
  803c7c:	2109883a 	add	r4,r4,r4
  803c80:	9909883a 	add	r4,r19,r4
  803c84:	24000117 	ldw	r16,4(r4)
  803c88:	213ffe04 	addi	r4,r4,-8
  803c8c:	24009726 	beq	r4,r16,803eec <_malloc_r+0x2f4>
  803c90:	80800117 	ldw	r2,4(r16)
  803c94:	01bfff04 	movi	r6,-4
  803c98:	014003c4 	movi	r5,15
  803c9c:	1184703a 	and	r2,r2,r6
  803ca0:	1447c83a 	sub	r3,r2,r17
  803ca4:	28c00716 	blt	r5,r3,803cc4 <_malloc_r+0xcc>
  803ca8:	1800920e 	bge	r3,zero,803ef4 <_malloc_r+0x2fc>
  803cac:	84000317 	ldw	r16,12(r16)
  803cb0:	24008e26 	beq	r4,r16,803eec <_malloc_r+0x2f4>
  803cb4:	80800117 	ldw	r2,4(r16)
  803cb8:	1184703a 	and	r2,r2,r6
  803cbc:	1447c83a 	sub	r3,r2,r17
  803cc0:	28fff90e 	bge	r5,r3,803ca8 <__alt_mem_onchip_mem+0xff783ca8>
  803cc4:	3809883a 	mov	r4,r7
  803cc8:	01802074 	movhi	r6,129
  803ccc:	9c000417 	ldw	r16,16(r19)
  803cd0:	31917b04 	addi	r6,r6,17900
  803cd4:	32000204 	addi	r8,r6,8
  803cd8:	82013426 	beq	r16,r8,8041ac <_malloc_r+0x5b4>
  803cdc:	80c00117 	ldw	r3,4(r16)
  803ce0:	00bfff04 	movi	r2,-4
  803ce4:	188e703a 	and	r7,r3,r2
  803ce8:	3c45c83a 	sub	r2,r7,r17
  803cec:	00c003c4 	movi	r3,15
  803cf0:	18811f16 	blt	r3,r2,804170 <_malloc_r+0x578>
  803cf4:	32000515 	stw	r8,20(r6)
  803cf8:	32000415 	stw	r8,16(r6)
  803cfc:	10007f0e 	bge	r2,zero,803efc <_malloc_r+0x304>
  803d00:	00807fc4 	movi	r2,511
  803d04:	11c0fd36 	bltu	r2,r7,8040fc <_malloc_r+0x504>
  803d08:	3806d0fa 	srli	r3,r7,3
  803d0c:	01c00044 	movi	r7,1
  803d10:	30800117 	ldw	r2,4(r6)
  803d14:	19400044 	addi	r5,r3,1
  803d18:	294b883a 	add	r5,r5,r5
  803d1c:	1807d0ba 	srai	r3,r3,2
  803d20:	294b883a 	add	r5,r5,r5
  803d24:	294b883a 	add	r5,r5,r5
  803d28:	298b883a 	add	r5,r5,r6
  803d2c:	38c6983a 	sll	r3,r7,r3
  803d30:	29c00017 	ldw	r7,0(r5)
  803d34:	2a7ffe04 	addi	r9,r5,-8
  803d38:	1886b03a 	or	r3,r3,r2
  803d3c:	82400315 	stw	r9,12(r16)
  803d40:	81c00215 	stw	r7,8(r16)
  803d44:	30c00115 	stw	r3,4(r6)
  803d48:	2c000015 	stw	r16,0(r5)
  803d4c:	3c000315 	stw	r16,12(r7)
  803d50:	2005d0ba 	srai	r2,r4,2
  803d54:	01400044 	movi	r5,1
  803d58:	288a983a 	sll	r5,r5,r2
  803d5c:	19406f36 	bltu	r3,r5,803f1c <_malloc_r+0x324>
  803d60:	28c4703a 	and	r2,r5,r3
  803d64:	10000a1e 	bne	r2,zero,803d90 <_malloc_r+0x198>
  803d68:	00bfff04 	movi	r2,-4
  803d6c:	294b883a 	add	r5,r5,r5
  803d70:	2088703a 	and	r4,r4,r2
  803d74:	28c4703a 	and	r2,r5,r3
  803d78:	21000104 	addi	r4,r4,4
  803d7c:	1000041e 	bne	r2,zero,803d90 <_malloc_r+0x198>
  803d80:	294b883a 	add	r5,r5,r5
  803d84:	28c4703a 	and	r2,r5,r3
  803d88:	21000104 	addi	r4,r4,4
  803d8c:	103ffc26 	beq	r2,zero,803d80 <__alt_mem_onchip_mem+0xff783d80>
  803d90:	02bfff04 	movi	r10,-4
  803d94:	024003c4 	movi	r9,15
  803d98:	21800044 	addi	r6,r4,1
  803d9c:	318d883a 	add	r6,r6,r6
  803da0:	318d883a 	add	r6,r6,r6
  803da4:	318d883a 	add	r6,r6,r6
  803da8:	998d883a 	add	r6,r19,r6
  803dac:	333ffe04 	addi	r12,r6,-8
  803db0:	2017883a 	mov	r11,r4
  803db4:	31800104 	addi	r6,r6,4
  803db8:	34000017 	ldw	r16,0(r6)
  803dbc:	31fffd04 	addi	r7,r6,-12
  803dc0:	81c0041e 	bne	r16,r7,803dd4 <_malloc_r+0x1dc>
  803dc4:	0000fb06 	br	8041b4 <_malloc_r+0x5bc>
  803dc8:	1801030e 	bge	r3,zero,8041d8 <_malloc_r+0x5e0>
  803dcc:	84000317 	ldw	r16,12(r16)
  803dd0:	81c0f826 	beq	r16,r7,8041b4 <_malloc_r+0x5bc>
  803dd4:	80800117 	ldw	r2,4(r16)
  803dd8:	1284703a 	and	r2,r2,r10
  803ddc:	1447c83a 	sub	r3,r2,r17
  803de0:	48fff90e 	bge	r9,r3,803dc8 <__alt_mem_onchip_mem+0xff783dc8>
  803de4:	80800317 	ldw	r2,12(r16)
  803de8:	81000217 	ldw	r4,8(r16)
  803dec:	89400054 	ori	r5,r17,1
  803df0:	81400115 	stw	r5,4(r16)
  803df4:	20800315 	stw	r2,12(r4)
  803df8:	11000215 	stw	r4,8(r2)
  803dfc:	8463883a 	add	r17,r16,r17
  803e00:	9c400515 	stw	r17,20(r19)
  803e04:	9c400415 	stw	r17,16(r19)
  803e08:	18800054 	ori	r2,r3,1
  803e0c:	88800115 	stw	r2,4(r17)
  803e10:	8a000315 	stw	r8,12(r17)
  803e14:	8a000215 	stw	r8,8(r17)
  803e18:	88e3883a 	add	r17,r17,r3
  803e1c:	88c00015 	stw	r3,0(r17)
  803e20:	9009883a 	mov	r4,r18
  803e24:	08100c40 	call	8100c4 <__malloc_unlock>
  803e28:	80800204 	addi	r2,r16,8
  803e2c:	00001b06 	br	803e9c <_malloc_r+0x2a4>
  803e30:	04400404 	movi	r17,16
  803e34:	89402536 	bltu	r17,r5,803ecc <_malloc_r+0x2d4>
  803e38:	08100a00 	call	8100a0 <__malloc_lock>
  803e3c:	00800184 	movi	r2,6
  803e40:	01000084 	movi	r4,2
  803e44:	04c02074 	movhi	r19,129
  803e48:	1085883a 	add	r2,r2,r2
  803e4c:	9cd17b04 	addi	r19,r19,17900
  803e50:	1085883a 	add	r2,r2,r2
  803e54:	9885883a 	add	r2,r19,r2
  803e58:	14000117 	ldw	r16,4(r2)
  803e5c:	10fffe04 	addi	r3,r2,-8
  803e60:	80c0d926 	beq	r16,r3,8041c8 <_malloc_r+0x5d0>
  803e64:	80c00117 	ldw	r3,4(r16)
  803e68:	81000317 	ldw	r4,12(r16)
  803e6c:	00bfff04 	movi	r2,-4
  803e70:	1884703a 	and	r2,r3,r2
  803e74:	81400217 	ldw	r5,8(r16)
  803e78:	8085883a 	add	r2,r16,r2
  803e7c:	10c00117 	ldw	r3,4(r2)
  803e80:	29000315 	stw	r4,12(r5)
  803e84:	21400215 	stw	r5,8(r4)
  803e88:	18c00054 	ori	r3,r3,1
  803e8c:	10c00115 	stw	r3,4(r2)
  803e90:	9009883a 	mov	r4,r18
  803e94:	08100c40 	call	8100c4 <__malloc_unlock>
  803e98:	80800204 	addi	r2,r16,8
  803e9c:	dfc00a17 	ldw	ra,40(sp)
  803ea0:	df000917 	ldw	fp,36(sp)
  803ea4:	ddc00817 	ldw	r23,32(sp)
  803ea8:	dd800717 	ldw	r22,28(sp)
  803eac:	dd400617 	ldw	r21,24(sp)
  803eb0:	dd000517 	ldw	r20,20(sp)
  803eb4:	dcc00417 	ldw	r19,16(sp)
  803eb8:	dc800317 	ldw	r18,12(sp)
  803ebc:	dc400217 	ldw	r17,8(sp)
  803ec0:	dc000117 	ldw	r16,4(sp)
  803ec4:	dec00b04 	addi	sp,sp,44
  803ec8:	f800283a 	ret
  803ecc:	00800304 	movi	r2,12
  803ed0:	90800015 	stw	r2,0(r18)
  803ed4:	0005883a 	mov	r2,zero
  803ed8:	003ff006 	br	803e9c <__alt_mem_onchip_mem+0xff783e9c>
  803edc:	01002004 	movi	r4,128
  803ee0:	02001004 	movi	r8,64
  803ee4:	01c00fc4 	movi	r7,63
  803ee8:	003f6106 	br	803c70 <__alt_mem_onchip_mem+0xff783c70>
  803eec:	4009883a 	mov	r4,r8
  803ef0:	003f7506 	br	803cc8 <__alt_mem_onchip_mem+0xff783cc8>
  803ef4:	81000317 	ldw	r4,12(r16)
  803ef8:	003fde06 	br	803e74 <__alt_mem_onchip_mem+0xff783e74>
  803efc:	81c5883a 	add	r2,r16,r7
  803f00:	11400117 	ldw	r5,4(r2)
  803f04:	9009883a 	mov	r4,r18
  803f08:	29400054 	ori	r5,r5,1
  803f0c:	11400115 	stw	r5,4(r2)
  803f10:	08100c40 	call	8100c4 <__malloc_unlock>
  803f14:	80800204 	addi	r2,r16,8
  803f18:	003fe006 	br	803e9c <__alt_mem_onchip_mem+0xff783e9c>
  803f1c:	9c000217 	ldw	r16,8(r19)
  803f20:	00bfff04 	movi	r2,-4
  803f24:	85800117 	ldw	r22,4(r16)
  803f28:	b0ac703a 	and	r22,r22,r2
  803f2c:	b4400336 	bltu	r22,r17,803f3c <_malloc_r+0x344>
  803f30:	b445c83a 	sub	r2,r22,r17
  803f34:	00c003c4 	movi	r3,15
  803f38:	18805d16 	blt	r3,r2,8040b0 <_malloc_r+0x4b8>
  803f3c:	05c02074 	movhi	r23,129
  803f40:	00802074 	movhi	r2,129
  803f44:	109f1e04 	addi	r2,r2,31864
  803f48:	bdd79904 	addi	r23,r23,24164
  803f4c:	15400017 	ldw	r21,0(r2)
  803f50:	b8c00017 	ldw	r3,0(r23)
  803f54:	00bfffc4 	movi	r2,-1
  803f58:	858d883a 	add	r6,r16,r22
  803f5c:	8d6b883a 	add	r21,r17,r21
  803f60:	1880ea26 	beq	r3,r2,80430c <_malloc_r+0x714>
  803f64:	ad4403c4 	addi	r21,r21,4111
  803f68:	00bc0004 	movi	r2,-4096
  803f6c:	a8aa703a 	and	r21,r21,r2
  803f70:	a80b883a 	mov	r5,r21
  803f74:	9009883a 	mov	r4,r18
  803f78:	d9800015 	stw	r6,0(sp)
  803f7c:	08048bc0 	call	8048bc <_sbrk_r>
  803f80:	1029883a 	mov	r20,r2
  803f84:	00bfffc4 	movi	r2,-1
  803f88:	d9800017 	ldw	r6,0(sp)
  803f8c:	a080e826 	beq	r20,r2,804330 <_malloc_r+0x738>
  803f90:	a180a636 	bltu	r20,r6,80422c <_malloc_r+0x634>
  803f94:	07002074 	movhi	fp,129
  803f98:	e71f8904 	addi	fp,fp,32292
  803f9c:	e0800017 	ldw	r2,0(fp)
  803fa0:	a887883a 	add	r3,r21,r2
  803fa4:	e0c00015 	stw	r3,0(fp)
  803fa8:	3500e626 	beq	r6,r20,804344 <_malloc_r+0x74c>
  803fac:	b9000017 	ldw	r4,0(r23)
  803fb0:	00bfffc4 	movi	r2,-1
  803fb4:	2080ee26 	beq	r4,r2,804370 <_malloc_r+0x778>
  803fb8:	a185c83a 	sub	r2,r20,r6
  803fbc:	10c5883a 	add	r2,r2,r3
  803fc0:	e0800015 	stw	r2,0(fp)
  803fc4:	a0c001cc 	andi	r3,r20,7
  803fc8:	1800bc26 	beq	r3,zero,8042bc <_malloc_r+0x6c4>
  803fcc:	a0e9c83a 	sub	r20,r20,r3
  803fd0:	00840204 	movi	r2,4104
  803fd4:	a5000204 	addi	r20,r20,8
  803fd8:	10c7c83a 	sub	r3,r2,r3
  803fdc:	a545883a 	add	r2,r20,r21
  803fe0:	1083ffcc 	andi	r2,r2,4095
  803fe4:	18abc83a 	sub	r21,r3,r2
  803fe8:	a80b883a 	mov	r5,r21
  803fec:	9009883a 	mov	r4,r18
  803ff0:	08048bc0 	call	8048bc <_sbrk_r>
  803ff4:	00ffffc4 	movi	r3,-1
  803ff8:	10c0e126 	beq	r2,r3,804380 <_malloc_r+0x788>
  803ffc:	1505c83a 	sub	r2,r2,r20
  804000:	1545883a 	add	r2,r2,r21
  804004:	10800054 	ori	r2,r2,1
  804008:	e0c00017 	ldw	r3,0(fp)
  80400c:	9d000215 	stw	r20,8(r19)
  804010:	a0800115 	stw	r2,4(r20)
  804014:	a8c7883a 	add	r3,r21,r3
  804018:	e0c00015 	stw	r3,0(fp)
  80401c:	84c00e26 	beq	r16,r19,804058 <_malloc_r+0x460>
  804020:	018003c4 	movi	r6,15
  804024:	3580a72e 	bgeu	r6,r22,8042c4 <_malloc_r+0x6cc>
  804028:	81400117 	ldw	r5,4(r16)
  80402c:	013ffe04 	movi	r4,-8
  804030:	b0bffd04 	addi	r2,r22,-12
  804034:	1104703a 	and	r2,r2,r4
  804038:	2900004c 	andi	r4,r5,1
  80403c:	2088b03a 	or	r4,r4,r2
  804040:	81000115 	stw	r4,4(r16)
  804044:	01400144 	movi	r5,5
  804048:	8089883a 	add	r4,r16,r2
  80404c:	21400115 	stw	r5,4(r4)
  804050:	21400215 	stw	r5,8(r4)
  804054:	3080cd36 	bltu	r6,r2,80438c <_malloc_r+0x794>
  804058:	00802074 	movhi	r2,129
  80405c:	109f1d04 	addi	r2,r2,31860
  804060:	11000017 	ldw	r4,0(r2)
  804064:	20c0012e 	bgeu	r4,r3,80406c <_malloc_r+0x474>
  804068:	10c00015 	stw	r3,0(r2)
  80406c:	00802074 	movhi	r2,129
  804070:	109f1c04 	addi	r2,r2,31856
  804074:	11000017 	ldw	r4,0(r2)
  804078:	9c000217 	ldw	r16,8(r19)
  80407c:	20c0012e 	bgeu	r4,r3,804084 <_malloc_r+0x48c>
  804080:	10c00015 	stw	r3,0(r2)
  804084:	80c00117 	ldw	r3,4(r16)
  804088:	00bfff04 	movi	r2,-4
  80408c:	1886703a 	and	r3,r3,r2
  804090:	1c45c83a 	sub	r2,r3,r17
  804094:	1c400236 	bltu	r3,r17,8040a0 <_malloc_r+0x4a8>
  804098:	00c003c4 	movi	r3,15
  80409c:	18800416 	blt	r3,r2,8040b0 <_malloc_r+0x4b8>
  8040a0:	9009883a 	mov	r4,r18
  8040a4:	08100c40 	call	8100c4 <__malloc_unlock>
  8040a8:	0005883a 	mov	r2,zero
  8040ac:	003f7b06 	br	803e9c <__alt_mem_onchip_mem+0xff783e9c>
  8040b0:	88c00054 	ori	r3,r17,1
  8040b4:	80c00115 	stw	r3,4(r16)
  8040b8:	8463883a 	add	r17,r16,r17
  8040bc:	10800054 	ori	r2,r2,1
  8040c0:	9c400215 	stw	r17,8(r19)
  8040c4:	88800115 	stw	r2,4(r17)
  8040c8:	9009883a 	mov	r4,r18
  8040cc:	08100c40 	call	8100c4 <__malloc_unlock>
  8040d0:	80800204 	addi	r2,r16,8
  8040d4:	003f7106 	br	803e9c <__alt_mem_onchip_mem+0xff783e9c>
  8040d8:	00c00504 	movi	r3,20
  8040dc:	18804a2e 	bgeu	r3,r2,804208 <_malloc_r+0x610>
  8040e0:	00c01504 	movi	r3,84
  8040e4:	18806e36 	bltu	r3,r2,8042a0 <_malloc_r+0x6a8>
  8040e8:	8804d33a 	srli	r2,r17,12
  8040ec:	12001bc4 	addi	r8,r2,111
  8040f0:	11c01b84 	addi	r7,r2,110
  8040f4:	4209883a 	add	r4,r8,r8
  8040f8:	003edd06 	br	803c70 <__alt_mem_onchip_mem+0xff783c70>
  8040fc:	3804d27a 	srli	r2,r7,9
  804100:	00c00104 	movi	r3,4
  804104:	1880442e 	bgeu	r3,r2,804218 <_malloc_r+0x620>
  804108:	00c00504 	movi	r3,20
  80410c:	18808136 	bltu	r3,r2,804314 <_malloc_r+0x71c>
  804110:	11401704 	addi	r5,r2,92
  804114:	10c016c4 	addi	r3,r2,91
  804118:	294b883a 	add	r5,r5,r5
  80411c:	294b883a 	add	r5,r5,r5
  804120:	294b883a 	add	r5,r5,r5
  804124:	994b883a 	add	r5,r19,r5
  804128:	28800017 	ldw	r2,0(r5)
  80412c:	01802074 	movhi	r6,129
  804130:	297ffe04 	addi	r5,r5,-8
  804134:	31917b04 	addi	r6,r6,17900
  804138:	28806526 	beq	r5,r2,8042d0 <_malloc_r+0x6d8>
  80413c:	01bfff04 	movi	r6,-4
  804140:	10c00117 	ldw	r3,4(r2)
  804144:	1986703a 	and	r3,r3,r6
  804148:	38c0022e 	bgeu	r7,r3,804154 <_malloc_r+0x55c>
  80414c:	10800217 	ldw	r2,8(r2)
  804150:	28bffb1e 	bne	r5,r2,804140 <__alt_mem_onchip_mem+0xff784140>
  804154:	11400317 	ldw	r5,12(r2)
  804158:	98c00117 	ldw	r3,4(r19)
  80415c:	81400315 	stw	r5,12(r16)
  804160:	80800215 	stw	r2,8(r16)
  804164:	2c000215 	stw	r16,8(r5)
  804168:	14000315 	stw	r16,12(r2)
  80416c:	003ef806 	br	803d50 <__alt_mem_onchip_mem+0xff783d50>
  804170:	88c00054 	ori	r3,r17,1
  804174:	80c00115 	stw	r3,4(r16)
  804178:	8463883a 	add	r17,r16,r17
  80417c:	34400515 	stw	r17,20(r6)
  804180:	34400415 	stw	r17,16(r6)
  804184:	10c00054 	ori	r3,r2,1
  804188:	8a000315 	stw	r8,12(r17)
  80418c:	8a000215 	stw	r8,8(r17)
  804190:	88c00115 	stw	r3,4(r17)
  804194:	88a3883a 	add	r17,r17,r2
  804198:	88800015 	stw	r2,0(r17)
  80419c:	9009883a 	mov	r4,r18
  8041a0:	08100c40 	call	8100c4 <__malloc_unlock>
  8041a4:	80800204 	addi	r2,r16,8
  8041a8:	003f3c06 	br	803e9c <__alt_mem_onchip_mem+0xff783e9c>
  8041ac:	30c00117 	ldw	r3,4(r6)
  8041b0:	003ee706 	br	803d50 <__alt_mem_onchip_mem+0xff783d50>
  8041b4:	5ac00044 	addi	r11,r11,1
  8041b8:	588000cc 	andi	r2,r11,3
  8041bc:	31800204 	addi	r6,r6,8
  8041c0:	103efd1e 	bne	r2,zero,803db8 <__alt_mem_onchip_mem+0xff783db8>
  8041c4:	00002406 	br	804258 <_malloc_r+0x660>
  8041c8:	14000317 	ldw	r16,12(r2)
  8041cc:	143f251e 	bne	r2,r16,803e64 <__alt_mem_onchip_mem+0xff783e64>
  8041d0:	21000084 	addi	r4,r4,2
  8041d4:	003ebc06 	br	803cc8 <__alt_mem_onchip_mem+0xff783cc8>
  8041d8:	8085883a 	add	r2,r16,r2
  8041dc:	10c00117 	ldw	r3,4(r2)
  8041e0:	81000317 	ldw	r4,12(r16)
  8041e4:	81400217 	ldw	r5,8(r16)
  8041e8:	18c00054 	ori	r3,r3,1
  8041ec:	10c00115 	stw	r3,4(r2)
  8041f0:	29000315 	stw	r4,12(r5)
  8041f4:	21400215 	stw	r5,8(r4)
  8041f8:	9009883a 	mov	r4,r18
  8041fc:	08100c40 	call	8100c4 <__malloc_unlock>
  804200:	80800204 	addi	r2,r16,8
  804204:	003f2506 	br	803e9c <__alt_mem_onchip_mem+0xff783e9c>
  804208:	12001704 	addi	r8,r2,92
  80420c:	11c016c4 	addi	r7,r2,91
  804210:	4209883a 	add	r4,r8,r8
  804214:	003e9606 	br	803c70 <__alt_mem_onchip_mem+0xff783c70>
  804218:	3804d1ba 	srli	r2,r7,6
  80421c:	11400e44 	addi	r5,r2,57
  804220:	10c00e04 	addi	r3,r2,56
  804224:	294b883a 	add	r5,r5,r5
  804228:	003fbc06 	br	80411c <__alt_mem_onchip_mem+0xff78411c>
  80422c:	84ff5926 	beq	r16,r19,803f94 <__alt_mem_onchip_mem+0xff783f94>
  804230:	00802074 	movhi	r2,129
  804234:	10917b04 	addi	r2,r2,17900
  804238:	14000217 	ldw	r16,8(r2)
  80423c:	00bfff04 	movi	r2,-4
  804240:	80c00117 	ldw	r3,4(r16)
  804244:	1886703a 	and	r3,r3,r2
  804248:	003f9106 	br	804090 <__alt_mem_onchip_mem+0xff784090>
  80424c:	60800217 	ldw	r2,8(r12)
  804250:	213fffc4 	addi	r4,r4,-1
  804254:	1300651e 	bne	r2,r12,8043ec <_malloc_r+0x7f4>
  804258:	208000cc 	andi	r2,r4,3
  80425c:	633ffe04 	addi	r12,r12,-8
  804260:	103ffa1e 	bne	r2,zero,80424c <__alt_mem_onchip_mem+0xff78424c>
  804264:	98800117 	ldw	r2,4(r19)
  804268:	0146303a 	nor	r3,zero,r5
  80426c:	1884703a 	and	r2,r3,r2
  804270:	98800115 	stw	r2,4(r19)
  804274:	294b883a 	add	r5,r5,r5
  804278:	117f2836 	bltu	r2,r5,803f1c <__alt_mem_onchip_mem+0xff783f1c>
  80427c:	283f2726 	beq	r5,zero,803f1c <__alt_mem_onchip_mem+0xff783f1c>
  804280:	2886703a 	and	r3,r5,r2
  804284:	5809883a 	mov	r4,r11
  804288:	183ec31e 	bne	r3,zero,803d98 <__alt_mem_onchip_mem+0xff783d98>
  80428c:	294b883a 	add	r5,r5,r5
  804290:	2886703a 	and	r3,r5,r2
  804294:	21000104 	addi	r4,r4,4
  804298:	183ffc26 	beq	r3,zero,80428c <__alt_mem_onchip_mem+0xff78428c>
  80429c:	003ebe06 	br	803d98 <__alt_mem_onchip_mem+0xff783d98>
  8042a0:	00c05504 	movi	r3,340
  8042a4:	18801236 	bltu	r3,r2,8042f0 <_malloc_r+0x6f8>
  8042a8:	8804d3fa 	srli	r2,r17,15
  8042ac:	12001e04 	addi	r8,r2,120
  8042b0:	11c01dc4 	addi	r7,r2,119
  8042b4:	4209883a 	add	r4,r8,r8
  8042b8:	003e6d06 	br	803c70 <__alt_mem_onchip_mem+0xff783c70>
  8042bc:	00c40004 	movi	r3,4096
  8042c0:	003f4606 	br	803fdc <__alt_mem_onchip_mem+0xff783fdc>
  8042c4:	00800044 	movi	r2,1
  8042c8:	a0800115 	stw	r2,4(r20)
  8042cc:	003f7406 	br	8040a0 <__alt_mem_onchip_mem+0xff7840a0>
  8042d0:	1805d0ba 	srai	r2,r3,2
  8042d4:	01c00044 	movi	r7,1
  8042d8:	30c00117 	ldw	r3,4(r6)
  8042dc:	388e983a 	sll	r7,r7,r2
  8042e0:	2805883a 	mov	r2,r5
  8042e4:	38c6b03a 	or	r3,r7,r3
  8042e8:	30c00115 	stw	r3,4(r6)
  8042ec:	003f9b06 	br	80415c <__alt_mem_onchip_mem+0xff78415c>
  8042f0:	00c15504 	movi	r3,1364
  8042f4:	18801a36 	bltu	r3,r2,804360 <_malloc_r+0x768>
  8042f8:	8804d4ba 	srli	r2,r17,18
  8042fc:	12001f44 	addi	r8,r2,125
  804300:	11c01f04 	addi	r7,r2,124
  804304:	4209883a 	add	r4,r8,r8
  804308:	003e5906 	br	803c70 <__alt_mem_onchip_mem+0xff783c70>
  80430c:	ad400404 	addi	r21,r21,16
  804310:	003f1706 	br	803f70 <__alt_mem_onchip_mem+0xff783f70>
  804314:	00c01504 	movi	r3,84
  804318:	18802336 	bltu	r3,r2,8043a8 <_malloc_r+0x7b0>
  80431c:	3804d33a 	srli	r2,r7,12
  804320:	11401bc4 	addi	r5,r2,111
  804324:	10c01b84 	addi	r3,r2,110
  804328:	294b883a 	add	r5,r5,r5
  80432c:	003f7b06 	br	80411c <__alt_mem_onchip_mem+0xff78411c>
  804330:	9c000217 	ldw	r16,8(r19)
  804334:	00bfff04 	movi	r2,-4
  804338:	80c00117 	ldw	r3,4(r16)
  80433c:	1886703a 	and	r3,r3,r2
  804340:	003f5306 	br	804090 <__alt_mem_onchip_mem+0xff784090>
  804344:	3083ffcc 	andi	r2,r6,4095
  804348:	103f181e 	bne	r2,zero,803fac <__alt_mem_onchip_mem+0xff783fac>
  80434c:	99000217 	ldw	r4,8(r19)
  804350:	b545883a 	add	r2,r22,r21
  804354:	10800054 	ori	r2,r2,1
  804358:	20800115 	stw	r2,4(r4)
  80435c:	003f3e06 	br	804058 <__alt_mem_onchip_mem+0xff784058>
  804360:	01003f84 	movi	r4,254
  804364:	02001fc4 	movi	r8,127
  804368:	01c01f84 	movi	r7,126
  80436c:	003e4006 	br	803c70 <__alt_mem_onchip_mem+0xff783c70>
  804370:	00802074 	movhi	r2,129
  804374:	10979904 	addi	r2,r2,24164
  804378:	15000015 	stw	r20,0(r2)
  80437c:	003f1106 	br	803fc4 <__alt_mem_onchip_mem+0xff783fc4>
  804380:	00800044 	movi	r2,1
  804384:	002b883a 	mov	r21,zero
  804388:	003f1f06 	br	804008 <__alt_mem_onchip_mem+0xff784008>
  80438c:	81400204 	addi	r5,r16,8
  804390:	9009883a 	mov	r4,r18
  804394:	0802fc80 	call	802fc8 <_free_r>
  804398:	00802074 	movhi	r2,129
  80439c:	109f8904 	addi	r2,r2,32292
  8043a0:	10c00017 	ldw	r3,0(r2)
  8043a4:	003f2c06 	br	804058 <__alt_mem_onchip_mem+0xff784058>
  8043a8:	00c05504 	movi	r3,340
  8043ac:	18800536 	bltu	r3,r2,8043c4 <_malloc_r+0x7cc>
  8043b0:	3804d3fa 	srli	r2,r7,15
  8043b4:	11401e04 	addi	r5,r2,120
  8043b8:	10c01dc4 	addi	r3,r2,119
  8043bc:	294b883a 	add	r5,r5,r5
  8043c0:	003f5606 	br	80411c <__alt_mem_onchip_mem+0xff78411c>
  8043c4:	00c15504 	movi	r3,1364
  8043c8:	18800536 	bltu	r3,r2,8043e0 <_malloc_r+0x7e8>
  8043cc:	3804d4ba 	srli	r2,r7,18
  8043d0:	11401f44 	addi	r5,r2,125
  8043d4:	10c01f04 	addi	r3,r2,124
  8043d8:	294b883a 	add	r5,r5,r5
  8043dc:	003f4f06 	br	80411c <__alt_mem_onchip_mem+0xff78411c>
  8043e0:	01403f84 	movi	r5,254
  8043e4:	00c01f84 	movi	r3,126
  8043e8:	003f4c06 	br	80411c <__alt_mem_onchip_mem+0xff78411c>
  8043ec:	98800117 	ldw	r2,4(r19)
  8043f0:	003fa006 	br	804274 <__alt_mem_onchip_mem+0xff784274>
  8043f4:	8808d0fa 	srli	r4,r17,3
  8043f8:	20800044 	addi	r2,r4,1
  8043fc:	1085883a 	add	r2,r2,r2
  804400:	003e9006 	br	803e44 <__alt_mem_onchip_mem+0xff783e44>

00804404 <memset>:
  804404:	20c000cc 	andi	r3,r4,3
  804408:	2005883a 	mov	r2,r4
  80440c:	18004426 	beq	r3,zero,804520 <memset+0x11c>
  804410:	31ffffc4 	addi	r7,r6,-1
  804414:	30004026 	beq	r6,zero,804518 <memset+0x114>
  804418:	2813883a 	mov	r9,r5
  80441c:	200d883a 	mov	r6,r4
  804420:	2007883a 	mov	r3,r4
  804424:	00000406 	br	804438 <memset+0x34>
  804428:	3a3fffc4 	addi	r8,r7,-1
  80442c:	31800044 	addi	r6,r6,1
  804430:	38003926 	beq	r7,zero,804518 <memset+0x114>
  804434:	400f883a 	mov	r7,r8
  804438:	18c00044 	addi	r3,r3,1
  80443c:	32400005 	stb	r9,0(r6)
  804440:	1a0000cc 	andi	r8,r3,3
  804444:	403ff81e 	bne	r8,zero,804428 <__alt_mem_onchip_mem+0xff784428>
  804448:	010000c4 	movi	r4,3
  80444c:	21c02d2e 	bgeu	r4,r7,804504 <memset+0x100>
  804450:	29003fcc 	andi	r4,r5,255
  804454:	200c923a 	slli	r6,r4,8
  804458:	3108b03a 	or	r4,r6,r4
  80445c:	200c943a 	slli	r6,r4,16
  804460:	218cb03a 	or	r6,r4,r6
  804464:	010003c4 	movi	r4,15
  804468:	21c0182e 	bgeu	r4,r7,8044cc <memset+0xc8>
  80446c:	3b3ffc04 	addi	r12,r7,-16
  804470:	6018d13a 	srli	r12,r12,4
  804474:	1a000104 	addi	r8,r3,4
  804478:	1ac00204 	addi	r11,r3,8
  80447c:	6008913a 	slli	r4,r12,4
  804480:	1a800304 	addi	r10,r3,12
  804484:	1813883a 	mov	r9,r3
  804488:	21000504 	addi	r4,r4,20
  80448c:	1909883a 	add	r4,r3,r4
  804490:	49800015 	stw	r6,0(r9)
  804494:	41800015 	stw	r6,0(r8)
  804498:	59800015 	stw	r6,0(r11)
  80449c:	51800015 	stw	r6,0(r10)
  8044a0:	42000404 	addi	r8,r8,16
  8044a4:	4a400404 	addi	r9,r9,16
  8044a8:	5ac00404 	addi	r11,r11,16
  8044ac:	52800404 	addi	r10,r10,16
  8044b0:	413ff71e 	bne	r8,r4,804490 <__alt_mem_onchip_mem+0xff784490>
  8044b4:	63000044 	addi	r12,r12,1
  8044b8:	6018913a 	slli	r12,r12,4
  8044bc:	39c003cc 	andi	r7,r7,15
  8044c0:	010000c4 	movi	r4,3
  8044c4:	1b07883a 	add	r3,r3,r12
  8044c8:	21c00e2e 	bgeu	r4,r7,804504 <memset+0x100>
  8044cc:	1813883a 	mov	r9,r3
  8044d0:	3811883a 	mov	r8,r7
  8044d4:	010000c4 	movi	r4,3
  8044d8:	49800015 	stw	r6,0(r9)
  8044dc:	423fff04 	addi	r8,r8,-4
  8044e0:	4a400104 	addi	r9,r9,4
  8044e4:	223ffc36 	bltu	r4,r8,8044d8 <__alt_mem_onchip_mem+0xff7844d8>
  8044e8:	393fff04 	addi	r4,r7,-4
  8044ec:	2008d0ba 	srli	r4,r4,2
  8044f0:	39c000cc 	andi	r7,r7,3
  8044f4:	21000044 	addi	r4,r4,1
  8044f8:	2109883a 	add	r4,r4,r4
  8044fc:	2109883a 	add	r4,r4,r4
  804500:	1907883a 	add	r3,r3,r4
  804504:	38000526 	beq	r7,zero,80451c <memset+0x118>
  804508:	19cf883a 	add	r7,r3,r7
  80450c:	19400005 	stb	r5,0(r3)
  804510:	18c00044 	addi	r3,r3,1
  804514:	38fffd1e 	bne	r7,r3,80450c <__alt_mem_onchip_mem+0xff78450c>
  804518:	f800283a 	ret
  80451c:	f800283a 	ret
  804520:	2007883a 	mov	r3,r4
  804524:	300f883a 	mov	r7,r6
  804528:	003fc706 	br	804448 <__alt_mem_onchip_mem+0xff784448>

0080452c <_open_r>:
  80452c:	defffd04 	addi	sp,sp,-12
  804530:	2805883a 	mov	r2,r5
  804534:	dc000015 	stw	r16,0(sp)
  804538:	04002074 	movhi	r16,129
  80453c:	dc400115 	stw	r17,4(sp)
  804540:	300b883a 	mov	r5,r6
  804544:	841f1b04 	addi	r16,r16,31852
  804548:	2023883a 	mov	r17,r4
  80454c:	380d883a 	mov	r6,r7
  804550:	1009883a 	mov	r4,r2
  804554:	dfc00215 	stw	ra,8(sp)
  804558:	80000015 	stw	zero,0(r16)
  80455c:	08101e80 	call	8101e8 <open>
  804560:	00ffffc4 	movi	r3,-1
  804564:	10c00526 	beq	r2,r3,80457c <_open_r+0x50>
  804568:	dfc00217 	ldw	ra,8(sp)
  80456c:	dc400117 	ldw	r17,4(sp)
  804570:	dc000017 	ldw	r16,0(sp)
  804574:	dec00304 	addi	sp,sp,12
  804578:	f800283a 	ret
  80457c:	80c00017 	ldw	r3,0(r16)
  804580:	183ff926 	beq	r3,zero,804568 <__alt_mem_onchip_mem+0xff784568>
  804584:	88c00015 	stw	r3,0(r17)
  804588:	003ff706 	br	804568 <__alt_mem_onchip_mem+0xff784568>

0080458c <_printf_r>:
  80458c:	defffd04 	addi	sp,sp,-12
  804590:	2805883a 	mov	r2,r5
  804594:	dfc00015 	stw	ra,0(sp)
  804598:	d9800115 	stw	r6,4(sp)
  80459c:	d9c00215 	stw	r7,8(sp)
  8045a0:	21400217 	ldw	r5,8(r4)
  8045a4:	d9c00104 	addi	r7,sp,4
  8045a8:	100d883a 	mov	r6,r2
  8045ac:	0804ae40 	call	804ae4 <___vfprintf_internal_r>
  8045b0:	dfc00017 	ldw	ra,0(sp)
  8045b4:	dec00304 	addi	sp,sp,12
  8045b8:	f800283a 	ret

008045bc <printf>:
  8045bc:	defffc04 	addi	sp,sp,-16
  8045c0:	dfc00015 	stw	ra,0(sp)
  8045c4:	d9400115 	stw	r5,4(sp)
  8045c8:	d9800215 	stw	r6,8(sp)
  8045cc:	d9c00315 	stw	r7,12(sp)
  8045d0:	00802074 	movhi	r2,129
  8045d4:	10979804 	addi	r2,r2,24160
  8045d8:	10800017 	ldw	r2,0(r2)
  8045dc:	200b883a 	mov	r5,r4
  8045e0:	d9800104 	addi	r6,sp,4
  8045e4:	11000217 	ldw	r4,8(r2)
  8045e8:	0806cdc0 	call	806cdc <__vfprintf_internal>
  8045ec:	dfc00017 	ldw	ra,0(sp)
  8045f0:	dec00404 	addi	sp,sp,16
  8045f4:	f800283a 	ret

008045f8 <_puts_r>:
  8045f8:	defff604 	addi	sp,sp,-40
  8045fc:	dc000715 	stw	r16,28(sp)
  804600:	2021883a 	mov	r16,r4
  804604:	2809883a 	mov	r4,r5
  804608:	dc400815 	stw	r17,32(sp)
  80460c:	dfc00915 	stw	ra,36(sp)
  804610:	2823883a 	mov	r17,r5
  804614:	0804a4c0 	call	804a4c <strlen>
  804618:	10c00044 	addi	r3,r2,1
  80461c:	d8800115 	stw	r2,4(sp)
  804620:	00802074 	movhi	r2,129
  804624:	108f0f04 	addi	r2,r2,15420
  804628:	d8800215 	stw	r2,8(sp)
  80462c:	00800044 	movi	r2,1
  804630:	d8800315 	stw	r2,12(sp)
  804634:	00800084 	movi	r2,2
  804638:	dc400015 	stw	r17,0(sp)
  80463c:	d8c00615 	stw	r3,24(sp)
  804640:	dec00415 	stw	sp,16(sp)
  804644:	d8800515 	stw	r2,20(sp)
  804648:	80000226 	beq	r16,zero,804654 <_puts_r+0x5c>
  80464c:	80800e17 	ldw	r2,56(r16)
  804650:	10001426 	beq	r2,zero,8046a4 <_puts_r+0xac>
  804654:	81400217 	ldw	r5,8(r16)
  804658:	2880030b 	ldhu	r2,12(r5)
  80465c:	10c8000c 	andi	r3,r2,8192
  804660:	1800061e 	bne	r3,zero,80467c <_puts_r+0x84>
  804664:	29001917 	ldw	r4,100(r5)
  804668:	00f7ffc4 	movi	r3,-8193
  80466c:	10880014 	ori	r2,r2,8192
  804670:	20c6703a 	and	r3,r4,r3
  804674:	2880030d 	sth	r2,12(r5)
  804678:	28c01915 	stw	r3,100(r5)
  80467c:	d9800404 	addi	r6,sp,16
  804680:	8009883a 	mov	r4,r16
  804684:	08089f40 	call	8089f4 <__sfvwrite_r>
  804688:	1000091e 	bne	r2,zero,8046b0 <_puts_r+0xb8>
  80468c:	00800284 	movi	r2,10
  804690:	dfc00917 	ldw	ra,36(sp)
  804694:	dc400817 	ldw	r17,32(sp)
  804698:	dc000717 	ldw	r16,28(sp)
  80469c:	dec00a04 	addi	sp,sp,40
  8046a0:	f800283a 	ret
  8046a4:	8009883a 	mov	r4,r16
  8046a8:	0802cfc0 	call	802cfc <__sinit>
  8046ac:	003fe906 	br	804654 <__alt_mem_onchip_mem+0xff784654>
  8046b0:	00bfffc4 	movi	r2,-1
  8046b4:	003ff606 	br	804690 <__alt_mem_onchip_mem+0xff784690>

008046b8 <puts>:
  8046b8:	00802074 	movhi	r2,129
  8046bc:	10979804 	addi	r2,r2,24160
  8046c0:	200b883a 	mov	r5,r4
  8046c4:	11000017 	ldw	r4,0(r2)
  8046c8:	08045f81 	jmpi	8045f8 <_puts_r>

008046cc <lflush>:
  8046cc:	2080030b 	ldhu	r2,12(r4)
  8046d0:	00c00244 	movi	r3,9
  8046d4:	1080024c 	andi	r2,r2,9
  8046d8:	10c00226 	beq	r2,r3,8046e4 <lflush+0x18>
  8046dc:	0005883a 	mov	r2,zero
  8046e0:	f800283a 	ret
  8046e4:	080297c1 	jmpi	80297c <fflush>

008046e8 <__srefill_r>:
  8046e8:	defffc04 	addi	sp,sp,-16
  8046ec:	dc400115 	stw	r17,4(sp)
  8046f0:	dc000015 	stw	r16,0(sp)
  8046f4:	dfc00315 	stw	ra,12(sp)
  8046f8:	dc800215 	stw	r18,8(sp)
  8046fc:	2023883a 	mov	r17,r4
  804700:	2821883a 	mov	r16,r5
  804704:	20000226 	beq	r4,zero,804710 <__srefill_r+0x28>
  804708:	20800e17 	ldw	r2,56(r4)
  80470c:	10003c26 	beq	r2,zero,804800 <__srefill_r+0x118>
  804710:	80c0030b 	ldhu	r3,12(r16)
  804714:	1908000c 	andi	r4,r3,8192
  804718:	1805883a 	mov	r2,r3
  80471c:	2000071e 	bne	r4,zero,80473c <__srefill_r+0x54>
  804720:	81001917 	ldw	r4,100(r16)
  804724:	18880014 	ori	r2,r3,8192
  804728:	00f7ffc4 	movi	r3,-8193
  80472c:	20c8703a 	and	r4,r4,r3
  804730:	8080030d 	sth	r2,12(r16)
  804734:	1007883a 	mov	r3,r2
  804738:	81001915 	stw	r4,100(r16)
  80473c:	80000115 	stw	zero,4(r16)
  804740:	1100080c 	andi	r4,r2,32
  804744:	2000571e 	bne	r4,zero,8048a4 <__srefill_r+0x1bc>
  804748:	1100010c 	andi	r4,r2,4
  80474c:	20001f26 	beq	r4,zero,8047cc <__srefill_r+0xe4>
  804750:	81400c17 	ldw	r5,48(r16)
  804754:	28000826 	beq	r5,zero,804778 <__srefill_r+0x90>
  804758:	80801004 	addi	r2,r16,64
  80475c:	28800226 	beq	r5,r2,804768 <__srefill_r+0x80>
  804760:	8809883a 	mov	r4,r17
  804764:	0802fc80 	call	802fc8 <_free_r>
  804768:	80800f17 	ldw	r2,60(r16)
  80476c:	80000c15 	stw	zero,48(r16)
  804770:	80800115 	stw	r2,4(r16)
  804774:	1000391e 	bne	r2,zero,80485c <__srefill_r+0x174>
  804778:	80800417 	ldw	r2,16(r16)
  80477c:	10004b26 	beq	r2,zero,8048ac <__srefill_r+0x1c4>
  804780:	8480030b 	ldhu	r18,12(r16)
  804784:	908000cc 	andi	r2,r18,3
  804788:	10001f1e 	bne	r2,zero,804808 <__srefill_r+0x120>
  80478c:	81800417 	ldw	r6,16(r16)
  804790:	80800817 	ldw	r2,32(r16)
  804794:	81c00517 	ldw	r7,20(r16)
  804798:	81400717 	ldw	r5,28(r16)
  80479c:	81800015 	stw	r6,0(r16)
  8047a0:	8809883a 	mov	r4,r17
  8047a4:	103ee83a 	callr	r2
  8047a8:	80800115 	stw	r2,4(r16)
  8047ac:	00800e0e 	bge	zero,r2,8047e8 <__srefill_r+0x100>
  8047b0:	0005883a 	mov	r2,zero
  8047b4:	dfc00317 	ldw	ra,12(sp)
  8047b8:	dc800217 	ldw	r18,8(sp)
  8047bc:	dc400117 	ldw	r17,4(sp)
  8047c0:	dc000017 	ldw	r16,0(sp)
  8047c4:	dec00404 	addi	sp,sp,16
  8047c8:	f800283a 	ret
  8047cc:	1100040c 	andi	r4,r2,16
  8047d0:	20003026 	beq	r4,zero,804894 <__srefill_r+0x1ac>
  8047d4:	1080020c 	andi	r2,r2,8
  8047d8:	1000241e 	bne	r2,zero,80486c <__srefill_r+0x184>
  8047dc:	18c00114 	ori	r3,r3,4
  8047e0:	80c0030d 	sth	r3,12(r16)
  8047e4:	003fe406 	br	804778 <__alt_mem_onchip_mem+0xff784778>
  8047e8:	80c0030b 	ldhu	r3,12(r16)
  8047ec:	1000161e 	bne	r2,zero,804848 <__srefill_r+0x160>
  8047f0:	18c00814 	ori	r3,r3,32
  8047f4:	00bfffc4 	movi	r2,-1
  8047f8:	80c0030d 	sth	r3,12(r16)
  8047fc:	003fed06 	br	8047b4 <__alt_mem_onchip_mem+0xff7847b4>
  804800:	0802cfc0 	call	802cfc <__sinit>
  804804:	003fc206 	br	804710 <__alt_mem_onchip_mem+0xff784710>
  804808:	00802074 	movhi	r2,129
  80480c:	10979704 	addi	r2,r2,24156
  804810:	11000017 	ldw	r4,0(r2)
  804814:	01402034 	movhi	r5,128
  804818:	00800044 	movi	r2,1
  80481c:	2951b304 	addi	r5,r5,18124
  804820:	8080030d 	sth	r2,12(r16)
  804824:	08037b40 	call	8037b4 <_fwalk>
  804828:	00800244 	movi	r2,9
  80482c:	8480030d 	sth	r18,12(r16)
  804830:	9480024c 	andi	r18,r18,9
  804834:	90bfd51e 	bne	r18,r2,80478c <__alt_mem_onchip_mem+0xff78478c>
  804838:	800b883a 	mov	r5,r16
  80483c:	8809883a 	mov	r4,r17
  804840:	08027040 	call	802704 <__sflush_r>
  804844:	003fd106 	br	80478c <__alt_mem_onchip_mem+0xff78478c>
  804848:	18c01014 	ori	r3,r3,64
  80484c:	80000115 	stw	zero,4(r16)
  804850:	00bfffc4 	movi	r2,-1
  804854:	80c0030d 	sth	r3,12(r16)
  804858:	003fd606 	br	8047b4 <__alt_mem_onchip_mem+0xff7847b4>
  80485c:	80c00e17 	ldw	r3,56(r16)
  804860:	0005883a 	mov	r2,zero
  804864:	80c00015 	stw	r3,0(r16)
  804868:	003fd206 	br	8047b4 <__alt_mem_onchip_mem+0xff7847b4>
  80486c:	800b883a 	mov	r5,r16
  804870:	8809883a 	mov	r4,r17
  804874:	08029200 	call	802920 <_fflush_r>
  804878:	10000a1e 	bne	r2,zero,8048a4 <__srefill_r+0x1bc>
  80487c:	8080030b 	ldhu	r2,12(r16)
  804880:	00fffdc4 	movi	r3,-9
  804884:	80000215 	stw	zero,8(r16)
  804888:	1886703a 	and	r3,r3,r2
  80488c:	80000615 	stw	zero,24(r16)
  804890:	003fd206 	br	8047dc <__alt_mem_onchip_mem+0xff7847dc>
  804894:	00800244 	movi	r2,9
  804898:	88800015 	stw	r2,0(r17)
  80489c:	18c01014 	ori	r3,r3,64
  8048a0:	80c0030d 	sth	r3,12(r16)
  8048a4:	00bfffc4 	movi	r2,-1
  8048a8:	003fc206 	br	8047b4 <__alt_mem_onchip_mem+0xff7847b4>
  8048ac:	800b883a 	mov	r5,r16
  8048b0:	8809883a 	mov	r4,r17
  8048b4:	0803a3c0 	call	803a3c <__smakebuf_r>
  8048b8:	003fb106 	br	804780 <__alt_mem_onchip_mem+0xff784780>

008048bc <_sbrk_r>:
  8048bc:	defffd04 	addi	sp,sp,-12
  8048c0:	dc000015 	stw	r16,0(sp)
  8048c4:	04002074 	movhi	r16,129
  8048c8:	dc400115 	stw	r17,4(sp)
  8048cc:	841f1b04 	addi	r16,r16,31852
  8048d0:	2023883a 	mov	r17,r4
  8048d4:	2809883a 	mov	r4,r5
  8048d8:	dfc00215 	stw	ra,8(sp)
  8048dc:	80000015 	stw	zero,0(r16)
  8048e0:	08104d80 	call	8104d8 <sbrk>
  8048e4:	00ffffc4 	movi	r3,-1
  8048e8:	10c00526 	beq	r2,r3,804900 <_sbrk_r+0x44>
  8048ec:	dfc00217 	ldw	ra,8(sp)
  8048f0:	dc400117 	ldw	r17,4(sp)
  8048f4:	dc000017 	ldw	r16,0(sp)
  8048f8:	dec00304 	addi	sp,sp,12
  8048fc:	f800283a 	ret
  804900:	80c00017 	ldw	r3,0(r16)
  804904:	183ff926 	beq	r3,zero,8048ec <__alt_mem_onchip_mem+0xff7848ec>
  804908:	88c00015 	stw	r3,0(r17)
  80490c:	003ff706 	br	8048ec <__alt_mem_onchip_mem+0xff7848ec>

00804910 <__sread>:
  804910:	defffe04 	addi	sp,sp,-8
  804914:	dc000015 	stw	r16,0(sp)
  804918:	2821883a 	mov	r16,r5
  80491c:	2940038f 	ldh	r5,14(r5)
  804920:	dfc00115 	stw	ra,4(sp)
  804924:	080a3c40 	call	80a3c4 <_read_r>
  804928:	10000716 	blt	r2,zero,804948 <__sread+0x38>
  80492c:	80c01417 	ldw	r3,80(r16)
  804930:	1887883a 	add	r3,r3,r2
  804934:	80c01415 	stw	r3,80(r16)
  804938:	dfc00117 	ldw	ra,4(sp)
  80493c:	dc000017 	ldw	r16,0(sp)
  804940:	dec00204 	addi	sp,sp,8
  804944:	f800283a 	ret
  804948:	80c0030b 	ldhu	r3,12(r16)
  80494c:	18fbffcc 	andi	r3,r3,61439
  804950:	80c0030d 	sth	r3,12(r16)
  804954:	dfc00117 	ldw	ra,4(sp)
  804958:	dc000017 	ldw	r16,0(sp)
  80495c:	dec00204 	addi	sp,sp,8
  804960:	f800283a 	ret

00804964 <__seofread>:
  804964:	0005883a 	mov	r2,zero
  804968:	f800283a 	ret

0080496c <__swrite>:
  80496c:	2880030b 	ldhu	r2,12(r5)
  804970:	defffb04 	addi	sp,sp,-20
  804974:	dcc00315 	stw	r19,12(sp)
  804978:	dc800215 	stw	r18,8(sp)
  80497c:	dc400115 	stw	r17,4(sp)
  804980:	dc000015 	stw	r16,0(sp)
  804984:	dfc00415 	stw	ra,16(sp)
  804988:	10c0400c 	andi	r3,r2,256
  80498c:	2821883a 	mov	r16,r5
  804990:	2023883a 	mov	r17,r4
  804994:	3025883a 	mov	r18,r6
  804998:	3827883a 	mov	r19,r7
  80499c:	18000526 	beq	r3,zero,8049b4 <__swrite+0x48>
  8049a0:	2940038f 	ldh	r5,14(r5)
  8049a4:	01c00084 	movi	r7,2
  8049a8:	000d883a 	mov	r6,zero
  8049ac:	0808fe00 	call	808fe0 <_lseek_r>
  8049b0:	8080030b 	ldhu	r2,12(r16)
  8049b4:	8140038f 	ldh	r5,14(r16)
  8049b8:	10bbffcc 	andi	r2,r2,61439
  8049bc:	980f883a 	mov	r7,r19
  8049c0:	900d883a 	mov	r6,r18
  8049c4:	8809883a 	mov	r4,r17
  8049c8:	8080030d 	sth	r2,12(r16)
  8049cc:	dfc00417 	ldw	ra,16(sp)
  8049d0:	dcc00317 	ldw	r19,12(sp)
  8049d4:	dc800217 	ldw	r18,8(sp)
  8049d8:	dc400117 	ldw	r17,4(sp)
  8049dc:	dc000017 	ldw	r16,0(sp)
  8049e0:	dec00504 	addi	sp,sp,20
  8049e4:	0806db41 	jmpi	806db4 <_write_r>

008049e8 <__sseek>:
  8049e8:	defffe04 	addi	sp,sp,-8
  8049ec:	dc000015 	stw	r16,0(sp)
  8049f0:	2821883a 	mov	r16,r5
  8049f4:	2940038f 	ldh	r5,14(r5)
  8049f8:	dfc00115 	stw	ra,4(sp)
  8049fc:	0808fe00 	call	808fe0 <_lseek_r>
  804a00:	00ffffc4 	movi	r3,-1
  804a04:	10c00826 	beq	r2,r3,804a28 <__sseek+0x40>
  804a08:	80c0030b 	ldhu	r3,12(r16)
  804a0c:	80801415 	stw	r2,80(r16)
  804a10:	18c40014 	ori	r3,r3,4096
  804a14:	80c0030d 	sth	r3,12(r16)
  804a18:	dfc00117 	ldw	ra,4(sp)
  804a1c:	dc000017 	ldw	r16,0(sp)
  804a20:	dec00204 	addi	sp,sp,8
  804a24:	f800283a 	ret
  804a28:	80c0030b 	ldhu	r3,12(r16)
  804a2c:	18fbffcc 	andi	r3,r3,61439
  804a30:	80c0030d 	sth	r3,12(r16)
  804a34:	dfc00117 	ldw	ra,4(sp)
  804a38:	dc000017 	ldw	r16,0(sp)
  804a3c:	dec00204 	addi	sp,sp,8
  804a40:	f800283a 	ret

00804a44 <__sclose>:
  804a44:	2940038f 	ldh	r5,14(r5)
  804a48:	0806f681 	jmpi	806f68 <_close_r>

00804a4c <strlen>:
  804a4c:	208000cc 	andi	r2,r4,3
  804a50:	10002026 	beq	r2,zero,804ad4 <strlen+0x88>
  804a54:	20800007 	ldb	r2,0(r4)
  804a58:	10002026 	beq	r2,zero,804adc <strlen+0x90>
  804a5c:	2005883a 	mov	r2,r4
  804a60:	00000206 	br	804a6c <strlen+0x20>
  804a64:	10c00007 	ldb	r3,0(r2)
  804a68:	18001826 	beq	r3,zero,804acc <strlen+0x80>
  804a6c:	10800044 	addi	r2,r2,1
  804a70:	10c000cc 	andi	r3,r2,3
  804a74:	183ffb1e 	bne	r3,zero,804a64 <__alt_mem_onchip_mem+0xff784a64>
  804a78:	10c00017 	ldw	r3,0(r2)
  804a7c:	01ffbff4 	movhi	r7,65279
  804a80:	39ffbfc4 	addi	r7,r7,-257
  804a84:	00ca303a 	nor	r5,zero,r3
  804a88:	01a02074 	movhi	r6,32897
  804a8c:	19c7883a 	add	r3,r3,r7
  804a90:	31a02004 	addi	r6,r6,-32640
  804a94:	1946703a 	and	r3,r3,r5
  804a98:	1986703a 	and	r3,r3,r6
  804a9c:	1800091e 	bne	r3,zero,804ac4 <strlen+0x78>
  804aa0:	10800104 	addi	r2,r2,4
  804aa4:	10c00017 	ldw	r3,0(r2)
  804aa8:	19cb883a 	add	r5,r3,r7
  804aac:	00c6303a 	nor	r3,zero,r3
  804ab0:	28c6703a 	and	r3,r5,r3
  804ab4:	1986703a 	and	r3,r3,r6
  804ab8:	183ff926 	beq	r3,zero,804aa0 <__alt_mem_onchip_mem+0xff784aa0>
  804abc:	00000106 	br	804ac4 <strlen+0x78>
  804ac0:	10800044 	addi	r2,r2,1
  804ac4:	10c00007 	ldb	r3,0(r2)
  804ac8:	183ffd1e 	bne	r3,zero,804ac0 <__alt_mem_onchip_mem+0xff784ac0>
  804acc:	1105c83a 	sub	r2,r2,r4
  804ad0:	f800283a 	ret
  804ad4:	2005883a 	mov	r2,r4
  804ad8:	003fe706 	br	804a78 <__alt_mem_onchip_mem+0xff784a78>
  804adc:	0005883a 	mov	r2,zero
  804ae0:	f800283a 	ret

00804ae4 <___vfprintf_internal_r>:
  804ae4:	deffb804 	addi	sp,sp,-288
  804ae8:	dfc04715 	stw	ra,284(sp)
  804aec:	ddc04515 	stw	r23,276(sp)
  804af0:	dd404315 	stw	r21,268(sp)
  804af4:	d9002c15 	stw	r4,176(sp)
  804af8:	282f883a 	mov	r23,r5
  804afc:	302b883a 	mov	r21,r6
  804b00:	d9c02d15 	stw	r7,180(sp)
  804b04:	df004615 	stw	fp,280(sp)
  804b08:	dd804415 	stw	r22,272(sp)
  804b0c:	dd004215 	stw	r20,264(sp)
  804b10:	dcc04115 	stw	r19,260(sp)
  804b14:	dc804015 	stw	r18,256(sp)
  804b18:	dc403f15 	stw	r17,252(sp)
  804b1c:	dc003e15 	stw	r16,248(sp)
  804b20:	0808fb00 	call	808fb0 <_localeconv_r>
  804b24:	10800017 	ldw	r2,0(r2)
  804b28:	1009883a 	mov	r4,r2
  804b2c:	d8803415 	stw	r2,208(sp)
  804b30:	0804a4c0 	call	804a4c <strlen>
  804b34:	d8803715 	stw	r2,220(sp)
  804b38:	d8802c17 	ldw	r2,176(sp)
  804b3c:	10000226 	beq	r2,zero,804b48 <___vfprintf_internal_r+0x64>
  804b40:	10800e17 	ldw	r2,56(r2)
  804b44:	1000f926 	beq	r2,zero,804f2c <___vfprintf_internal_r+0x448>
  804b48:	b880030b 	ldhu	r2,12(r23)
  804b4c:	10c8000c 	andi	r3,r2,8192
  804b50:	1800061e 	bne	r3,zero,804b6c <___vfprintf_internal_r+0x88>
  804b54:	b9001917 	ldw	r4,100(r23)
  804b58:	00f7ffc4 	movi	r3,-8193
  804b5c:	10880014 	ori	r2,r2,8192
  804b60:	20c6703a 	and	r3,r4,r3
  804b64:	b880030d 	sth	r2,12(r23)
  804b68:	b8c01915 	stw	r3,100(r23)
  804b6c:	10c0020c 	andi	r3,r2,8
  804b70:	1800c126 	beq	r3,zero,804e78 <___vfprintf_internal_r+0x394>
  804b74:	b8c00417 	ldw	r3,16(r23)
  804b78:	1800bf26 	beq	r3,zero,804e78 <___vfprintf_internal_r+0x394>
  804b7c:	1080068c 	andi	r2,r2,26
  804b80:	00c00284 	movi	r3,10
  804b84:	10c0c426 	beq	r2,r3,804e98 <___vfprintf_internal_r+0x3b4>
  804b88:	d8c00404 	addi	r3,sp,16
  804b8c:	05002074 	movhi	r20,129
  804b90:	d9001e04 	addi	r4,sp,120
  804b94:	a50f2084 	addi	r20,r20,15490
  804b98:	d8c01e15 	stw	r3,120(sp)
  804b9c:	d8002015 	stw	zero,128(sp)
  804ba0:	d8001f15 	stw	zero,124(sp)
  804ba4:	d8003315 	stw	zero,204(sp)
  804ba8:	d8003615 	stw	zero,216(sp)
  804bac:	d8003815 	stw	zero,224(sp)
  804bb0:	1811883a 	mov	r8,r3
  804bb4:	d8003915 	stw	zero,228(sp)
  804bb8:	d8003a15 	stw	zero,232(sp)
  804bbc:	d8002f15 	stw	zero,188(sp)
  804bc0:	d9002815 	stw	r4,160(sp)
  804bc4:	a8800007 	ldb	r2,0(r21)
  804bc8:	10027b26 	beq	r2,zero,8055b8 <___vfprintf_internal_r+0xad4>
  804bcc:	00c00944 	movi	r3,37
  804bd0:	a821883a 	mov	r16,r21
  804bd4:	10c0021e 	bne	r2,r3,804be0 <___vfprintf_internal_r+0xfc>
  804bd8:	00001406 	br	804c2c <___vfprintf_internal_r+0x148>
  804bdc:	10c00326 	beq	r2,r3,804bec <___vfprintf_internal_r+0x108>
  804be0:	84000044 	addi	r16,r16,1
  804be4:	80800007 	ldb	r2,0(r16)
  804be8:	103ffc1e 	bne	r2,zero,804bdc <__alt_mem_onchip_mem+0xff784bdc>
  804bec:	8563c83a 	sub	r17,r16,r21
  804bf0:	88000e26 	beq	r17,zero,804c2c <___vfprintf_internal_r+0x148>
  804bf4:	d8c02017 	ldw	r3,128(sp)
  804bf8:	d8801f17 	ldw	r2,124(sp)
  804bfc:	45400015 	stw	r21,0(r8)
  804c00:	1c47883a 	add	r3,r3,r17
  804c04:	10800044 	addi	r2,r2,1
  804c08:	d8c02015 	stw	r3,128(sp)
  804c0c:	44400115 	stw	r17,4(r8)
  804c10:	d8801f15 	stw	r2,124(sp)
  804c14:	00c001c4 	movi	r3,7
  804c18:	1880a716 	blt	r3,r2,804eb8 <___vfprintf_internal_r+0x3d4>
  804c1c:	42000204 	addi	r8,r8,8
  804c20:	d9402f17 	ldw	r5,188(sp)
  804c24:	2c4b883a 	add	r5,r5,r17
  804c28:	d9402f15 	stw	r5,188(sp)
  804c2c:	80800007 	ldb	r2,0(r16)
  804c30:	1000a826 	beq	r2,zero,804ed4 <___vfprintf_internal_r+0x3f0>
  804c34:	84400047 	ldb	r17,1(r16)
  804c38:	00bfffc4 	movi	r2,-1
  804c3c:	85400044 	addi	r21,r16,1
  804c40:	d8002785 	stb	zero,158(sp)
  804c44:	0007883a 	mov	r3,zero
  804c48:	000f883a 	mov	r7,zero
  804c4c:	d8802915 	stw	r2,164(sp)
  804c50:	d8003115 	stw	zero,196(sp)
  804c54:	0025883a 	mov	r18,zero
  804c58:	01401604 	movi	r5,88
  804c5c:	01800244 	movi	r6,9
  804c60:	02800a84 	movi	r10,42
  804c64:	02401b04 	movi	r9,108
  804c68:	ad400044 	addi	r21,r21,1
  804c6c:	88bff804 	addi	r2,r17,-32
  804c70:	28830436 	bltu	r5,r2,805884 <___vfprintf_internal_r+0xda0>
  804c74:	100490ba 	slli	r2,r2,2
  804c78:	01002034 	movhi	r4,128
  804c7c:	21132304 	addi	r4,r4,19596
  804c80:	1105883a 	add	r2,r2,r4
  804c84:	10800017 	ldw	r2,0(r2)
  804c88:	1000683a 	jmp	r2
  804c8c:	008057a4 	muli	r2,zero,350
  804c90:	00805884 	movi	r2,354
  804c94:	00805884 	movi	r2,354
  804c98:	008057c4 	movi	r2,351
  804c9c:	00805884 	movi	r2,354
  804ca0:	00805884 	movi	r2,354
  804ca4:	00805884 	movi	r2,354
  804ca8:	00805884 	movi	r2,354
  804cac:	00805884 	movi	r2,354
  804cb0:	00805884 	movi	r2,354
  804cb4:	00804f38 	rdprs	r2,zero,316
  804cb8:	008056e0 	cmpeqi	r2,zero,347
  804cbc:	00805884 	movi	r2,354
  804cc0:	00804e00 	call	804e0 <__alt_mem_sdram-0x77fb20>
  804cc4:	00804f60 	cmpeqi	r2,zero,317
  804cc8:	00805884 	movi	r2,354
  804ccc:	00804fa0 	cmpeqi	r2,zero,318
  804cd0:	00804fac 	andhi	r2,zero,318
  804cd4:	00804fac 	andhi	r2,zero,318
  804cd8:	00804fac 	andhi	r2,zero,318
  804cdc:	00804fac 	andhi	r2,zero,318
  804ce0:	00804fac 	andhi	r2,zero,318
  804ce4:	00804fac 	andhi	r2,zero,318
  804ce8:	00804fac 	andhi	r2,zero,318
  804cec:	00804fac 	andhi	r2,zero,318
  804cf0:	00804fac 	andhi	r2,zero,318
  804cf4:	00805884 	movi	r2,354
  804cf8:	00805884 	movi	r2,354
  804cfc:	00805884 	movi	r2,354
  804d00:	00805884 	movi	r2,354
  804d04:	00805884 	movi	r2,354
  804d08:	00805884 	movi	r2,354
  804d0c:	00805884 	movi	r2,354
  804d10:	00805884 	movi	r2,354
  804d14:	00805884 	movi	r2,354
  804d18:	00805884 	movi	r2,354
  804d1c:	00804fe0 	cmpeqi	r2,zero,319
  804d20:	0080509c 	xori	r2,zero,322
  804d24:	00805884 	movi	r2,354
  804d28:	0080509c 	xori	r2,zero,322
  804d2c:	00805884 	movi	r2,354
  804d30:	00805884 	movi	r2,354
  804d34:	00805884 	movi	r2,354
  804d38:	00805884 	movi	r2,354
  804d3c:	0080513c 	xorhi	r2,zero,324
  804d40:	00805884 	movi	r2,354
  804d44:	00805884 	movi	r2,354
  804d48:	00805148 	cmpgei	r2,zero,325
  804d4c:	00805884 	movi	r2,354
  804d50:	00805884 	movi	r2,354
  804d54:	00805884 	movi	r2,354
  804d58:	00805884 	movi	r2,354
  804d5c:	00805884 	movi	r2,354
  804d60:	008055c0 	call	8055c <__alt_mem_sdram-0x77faa4>
  804d64:	00805884 	movi	r2,354
  804d68:	00805884 	movi	r2,354
  804d6c:	00805620 	cmpeqi	r2,zero,344
  804d70:	00805884 	movi	r2,354
  804d74:	00805884 	movi	r2,354
  804d78:	00805884 	movi	r2,354
  804d7c:	00805884 	movi	r2,354
  804d80:	00805884 	movi	r2,354
  804d84:	00805884 	movi	r2,354
  804d88:	00805884 	movi	r2,354
  804d8c:	00805884 	movi	r2,354
  804d90:	00805884 	movi	r2,354
  804d94:	00805884 	movi	r2,354
  804d98:	00805830 	cmpltui	r2,zero,352
  804d9c:	008057d0 	cmplti	r2,zero,351
  804da0:	0080509c 	xori	r2,zero,322
  804da4:	0080509c 	xori	r2,zero,322
  804da8:	0080509c 	xori	r2,zero,322
  804dac:	008057e0 	cmpeqi	r2,zero,351
  804db0:	008057d0 	cmplti	r2,zero,351
  804db4:	00805884 	movi	r2,354
  804db8:	00805884 	movi	r2,354
  804dbc:	008057ec 	andhi	r2,zero,351
  804dc0:	00805884 	movi	r2,354
  804dc4:	008057fc 	xorhi	r2,zero,351
  804dc8:	008056d0 	cmplti	r2,zero,347
  804dcc:	00804e0c 	andi	r2,zero,312
  804dd0:	008056f0 	cmpltui	r2,zero,347
  804dd4:	00805884 	movi	r2,354
  804dd8:	008056fc 	xorhi	r2,zero,347
  804ddc:	00805884 	movi	r2,354
  804de0:	00805758 	cmpnei	r2,zero,349
  804de4:	00805884 	movi	r2,354
  804de8:	00805884 	movi	r2,354
  804dec:	00805768 	cmpgeui	r2,zero,349
  804df0:	d9003117 	ldw	r4,196(sp)
  804df4:	d8802d15 	stw	r2,180(sp)
  804df8:	0109c83a 	sub	r4,zero,r4
  804dfc:	d9003115 	stw	r4,196(sp)
  804e00:	94800114 	ori	r18,r18,4
  804e04:	ac400007 	ldb	r17,0(r21)
  804e08:	003f9706 	br	804c68 <__alt_mem_onchip_mem+0xff784c68>
  804e0c:	00800c04 	movi	r2,48
  804e10:	d9002d17 	ldw	r4,180(sp)
  804e14:	d9402917 	ldw	r5,164(sp)
  804e18:	d8802705 	stb	r2,156(sp)
  804e1c:	00801e04 	movi	r2,120
  804e20:	d8802745 	stb	r2,157(sp)
  804e24:	d8002785 	stb	zero,158(sp)
  804e28:	20c00104 	addi	r3,r4,4
  804e2c:	24c00017 	ldw	r19,0(r4)
  804e30:	002d883a 	mov	r22,zero
  804e34:	90800094 	ori	r2,r18,2
  804e38:	28029a16 	blt	r5,zero,8058a4 <___vfprintf_internal_r+0xdc0>
  804e3c:	00bfdfc4 	movi	r2,-129
  804e40:	90a4703a 	and	r18,r18,r2
  804e44:	d8c02d15 	stw	r3,180(sp)
  804e48:	94800094 	ori	r18,r18,2
  804e4c:	9802871e 	bne	r19,zero,80586c <___vfprintf_internal_r+0xd88>
  804e50:	00802074 	movhi	r2,129
  804e54:	108f1904 	addi	r2,r2,15460
  804e58:	d8803915 	stw	r2,228(sp)
  804e5c:	04401e04 	movi	r17,120
  804e60:	d8802917 	ldw	r2,164(sp)
  804e64:	0039883a 	mov	fp,zero
  804e68:	1001e926 	beq	r2,zero,805610 <___vfprintf_internal_r+0xb2c>
  804e6c:	0027883a 	mov	r19,zero
  804e70:	002d883a 	mov	r22,zero
  804e74:	00020506 	br	80568c <___vfprintf_internal_r+0xba8>
  804e78:	d9002c17 	ldw	r4,176(sp)
  804e7c:	b80b883a 	mov	r5,r23
  804e80:	0806e140 	call	806e14 <__swsetup_r>
  804e84:	1005ac1e 	bne	r2,zero,806538 <___vfprintf_internal_r+0x1a54>
  804e88:	b880030b 	ldhu	r2,12(r23)
  804e8c:	00c00284 	movi	r3,10
  804e90:	1080068c 	andi	r2,r2,26
  804e94:	10ff3c1e 	bne	r2,r3,804b88 <__alt_mem_onchip_mem+0xff784b88>
  804e98:	b880038f 	ldh	r2,14(r23)
  804e9c:	103f3a16 	blt	r2,zero,804b88 <__alt_mem_onchip_mem+0xff784b88>
  804ea0:	d9c02d17 	ldw	r7,180(sp)
  804ea4:	d9002c17 	ldw	r4,176(sp)
  804ea8:	a80d883a 	mov	r6,r21
  804eac:	b80b883a 	mov	r5,r23
  804eb0:	0806cf80 	call	806cf8 <__sbprintf>
  804eb4:	00001106 	br	804efc <___vfprintf_internal_r+0x418>
  804eb8:	d9002c17 	ldw	r4,176(sp)
  804ebc:	d9801e04 	addi	r6,sp,120
  804ec0:	b80b883a 	mov	r5,r23
