
PaceMaker_303.elf:     file format elf32-littlenios2
PaceMaker_303.elf
architecture: nios2:r1, flags 0x00000112:
EXEC_P, HAS_SYMS, D_PAGED
start address 0x00800244

Program Header:
    LOAD off    0x00001000 vaddr 0x00800000 paddr 0x00800000 align 2**12
         filesz 0x00000020 memsz 0x00000020 flags r-x
    LOAD off    0x00001020 vaddr 0x00800020 paddr 0x00800020 align 2**12
         filesz 0x000141a8 memsz 0x000141a8 flags r-x
    LOAD off    0x000151c8 vaddr 0x008141c8 paddr 0x00815ea4 align 2**12
         filesz 0x00001cdc memsz 0x00001cdc flags rw-
    LOAD off    0x00017b80 vaddr 0x00817b80 paddr 0x00817b80 align 2**12
         filesz 0x00000000 memsz 0x000003cc flags rw-

Sections:
Idx Name          Size      VMA       LMA       File off  Algn
  0 .entry        00000020  00800000  00800000  00001000  2**5
                  CONTENTS, ALLOC, LOAD, READONLY, CODE
  1 .exceptions   00000224  00800020  00800020  00001020  2**2
                  CONTENTS, ALLOC, LOAD, READONLY, CODE
  2 .text         000138d8  00800244  00800244  00001244  2**2
                  CONTENTS, ALLOC, LOAD, READONLY, CODE
  3 .rodata       000006ac  00813b1c  00813b1c  00014b1c  2**2
                  CONTENTS, ALLOC, LOAD, READONLY, DATA
  4 .rwdata       00001cdc  008141c8  00815ea4  000151c8  2**2
                  CONTENTS, ALLOC, LOAD, DATA, SMALL_DATA
  5 .bss          000003cc  00817b80  00817b80  00017b80  2**2
                  ALLOC, SMALL_DATA
  6 .sdram        00000000  00817f4c  00817f4c  00016ea4  2**0
                  CONTENTS
  7 .onchip_mem   00000000  01080000  01080000  00016ea4  2**0
                  CONTENTS
  8 .comment      00000023  00000000  00000000  00016ea4  2**0
                  CONTENTS, READONLY
  9 .debug_aranges 00001120  00000000  00000000  00016ec8  2**3
                  CONTENTS, READONLY, DEBUGGING
 10 .debug_info   0002be52  00000000  00000000  00017fe8  2**0
                  CONTENTS, READONLY, DEBUGGING
 11 .debug_abbrev 0000ae11  00000000  00000000  00043e3a  2**0
                  CONTENTS, READONLY, DEBUGGING
 12 .debug_line   0000ddca  00000000  00000000  0004ec4b  2**0
                  CONTENTS, READONLY, DEBUGGING
 13 .debug_frame  00002a8c  00000000  00000000  0005ca18  2**2
                  CONTENTS, READONLY, DEBUGGING
 14 .debug_str    00004521  00000000  00000000  0005f4a4  2**0
                  CONTENTS, READONLY, DEBUGGING
 15 .debug_loc    000185c1  00000000  00000000  000639c5  2**0
                  CONTENTS, READONLY, DEBUGGING
 16 .debug_alt_sim_info 00000060  00000000  00000000  0007bf88  2**2
                  CONTENTS, READONLY, DEBUGGING
 17 .debug_ranges 00001a10  00000000  00000000  0007bfe8  2**3
                  CONTENTS, READONLY, DEBUGGING
 18 .thread_model 00000003  00000000  00000000  000826d9  2**0
                  CONTENTS, READONLY
 19 .cpu          00000003  00000000  00000000  000826dc  2**0
                  CONTENTS, READONLY
 20 .qsys         00000001  00000000  00000000  000826df  2**0
                  CONTENTS, READONLY
 21 .simulation_enabled 00000001  00000000  00000000  000826e0  2**0
                  CONTENTS, READONLY
 22 .sysid_hash   00000004  00000000  00000000  000826e1  2**0
                  CONTENTS, READONLY
 23 .sysid_base   00000004  00000000  00000000  000826e5  2**0
                  CONTENTS, READONLY
 24 .sysid_time   00000004  00000000  00000000  000826e9  2**0
                  CONTENTS, READONLY
 25 .stderr_dev   00000009  00000000  00000000  000826ed  2**0
                  CONTENTS, READONLY
 26 .stdin_dev    00000009  00000000  00000000  000826f6  2**0
                  CONTENTS, READONLY
 27 .stdout_dev   00000009  00000000  00000000  000826ff  2**0
                  CONTENTS, READONLY
 28 .sopc_system_name 0000000c  00000000  00000000  00082708  2**0
                  CONTENTS, READONLY
 29 .quartus_project_dir 00000003  00000000  00000000  00082714  2**0
                  CONTENTS, READONLY
 30 .sopcinfo     0006b318  00000000  00000000  00082717  2**0
                  CONTENTS, READONLY
SYMBOL TABLE:
00800000 l    d  .entry	00000000 .entry
00800020 l    d  .exceptions	00000000 .exceptions
00800244 l    d  .text	00000000 .text
00813b1c l    d  .rodata	00000000 .rodata
008141c8 l    d  .rwdata	00000000 .rwdata
00817b80 l    d  .bss	00000000 .bss
00817f4c l    d  .sdram	00000000 .sdram
01080000 l    d  .onchip_mem	00000000 .onchip_mem
00000000 l    d  .comment	00000000 .comment
00000000 l    d  .debug_aranges	00000000 .debug_aranges
00000000 l    d  .debug_info	00000000 .debug_info
00000000 l    d  .debug_abbrev	00000000 .debug_abbrev
00000000 l    d  .debug_line	00000000 .debug_line
00000000 l    d  .debug_frame	00000000 .debug_frame
00000000 l    d  .debug_str	00000000 .debug_str
00000000 l    d  .debug_loc	00000000 .debug_loc
00000000 l    d  .debug_alt_sim_info	00000000 .debug_alt_sim_info
00000000 l    d  .debug_ranges	00000000 .debug_ranges
00000000 l    df *ABS*	00000000 ../PaceMaker_303_bsp//obj/HAL/src/crt0.o
0080028c l       .text	00000000 alt_after_alt_main
00000000 l    df *ABS*	00000000 alt_irq_handler.c
00000000 l    df *ABS*	00000000 alt_instruction_exception_entry.c
00000000 l    df *ABS*	00000000 main.c
00817ca4 l     O .bss	00000018 AVI_Timer
00817cbc l     O .bss	00000018 AEI_Timer
00817cd4 l     O .bss	00000018 PVARP_Timer
00817cec l     O .bss	00000018 VRP_Timer
00817d04 l     O .bss	00000018 LRI_Timer
00817d1c l     O .bss	00000018 URI_Timer
00817d34 l     O .bss	00000018 LED_Atrial_Timer
00817d4c l     O .bss	00000018 LED_Ventricular_Timer
00817d64 l     O .bss	00000018 A_Sense_Timer
00817d7c l     O .bss	00000018 V_Sense_Timer
00817d94 l     O .bss	00000018 AVI_Buffer_Timer
00817dac l     O .bss	00000018 AEI_Buffer_Timer
00817dc4 l     O .bss	00000018 PVARP_Buffer_Timer
00817ddc l     O .bss	00000018 VRP_Buffer_Timer
00817df4 l     O .bss	00000018 LRI_Buffer_Timer
00817e0c l     O .bss	00000018 URI_Buffer_Timer
00817b80 l     O .bss	00000004 mode
00817b84 l     O .bss	00000004 ModeChange
00817b88 l     O .bss	00000004 Flag
00817b8c l     O .bss	00000004 t_key1
00817b90 l     O .bss	00000004 t_key2
00817b94 l     O .bss	00000004 LEDVPace
00817b98 l     O .bss	00000004 LEDAPace
00815e58 l     O .rwdata	00000004 LED
00817b9c l     O .bss	00000004 recv_char
00000000 l    df *ABS*	00000000 sccharts.c
00000000 l    df *ABS*	00000000 fflush.c
00000000 l    df *ABS*	00000000 findfp.c
008029ac l     F .text	00000008 __fp_unlock
008029c0 l     F .text	0000019c __sinit.part.1
00802b5c l     F .text	00000008 __fp_lock
00000000 l    df *ABS*	00000000 fopen.c
00000000 l    df *ABS*	00000000 fprintf.c
00000000 l    df *ABS*	00000000 mallocr.c
00000000 l    df *ABS*	00000000 fseek.c
00000000 l    df *ABS*	00000000 fseeko.c
00000000 l    df *ABS*	00000000 fstatr.c
00000000 l    df *ABS*	00000000 fwalk.c
00000000 l    df *ABS*	00000000 fwrite.c
00000000 l    df *ABS*	00000000 impure.c
008141c8 l     O .rwdata	00000424 impure_data
00000000 l    df *ABS*	00000000 int_errno.c
00000000 l    df *ABS*	00000000 makebuf.c
00000000 l    df *ABS*	00000000 mallocr.c
00000000 l    df *ABS*	00000000 memset.c
00000000 l    df *ABS*	00000000 openr.c
00000000 l    df *ABS*	00000000 printf.c
00000000 l    df *ABS*	00000000 puts.c
00000000 l    df *ABS*	00000000 refill.c
008046cc l     F .text	0000001c lflush
00000000 l    df *ABS*	00000000 sbrkr.c
00000000 l    df *ABS*	00000000 stdio.c
00000000 l    df *ABS*	00000000 strlen.c
00000000 l    df *ABS*	00000000 vfprintf.c
00813c82 l     O .rodata	00000010 zeroes.4404
00806cf8 l     F .text	000000bc __sbprintf
00813c92 l     O .rodata	00000010 blanks.4403
00000000 l    df *ABS*	00000000 writer.c
00000000 l    df *ABS*	00000000 wsetup.c
00000000 l    df *ABS*	00000000 closer.c
00000000 l    df *ABS*	00000000 dtoa.c
00806fbc l     F .text	00000200 quorem
00000000 l    df *ABS*	00000000 fclose.c
00000000 l    df *ABS*	00000000 flags.c
00000000 l    df *ABS*	00000000 fvwrite.c
00000000 l    df *ABS*	00000000 isattyr.c
00000000 l    df *ABS*	00000000 locale.c
00814a14 l     O .rwdata	00000020 lc_ctype_charset
008149f4 l     O .rwdata	00000020 lc_message_charset
00814a34 l     O .rwdata	00000038 lconv
00000000 l    df *ABS*	00000000 lseekr.c
00000000 l    df *ABS*	00000000 memchr.c
00000000 l    df *ABS*	00000000 memcpy.c
00000000 l    df *ABS*	00000000 memmove.c
00000000 l    df *ABS*	00000000 mprec.c
00813cc0 l     O .rodata	0000000c p05.2768
00000000 l    df *ABS*	00000000 readr.c
00000000 l    df *ABS*	00000000 mallocr.c
00000000 l    df *ABS*	00000000 s_fpclassify.c
00000000 l    df *ABS*	00000000 strcmp.c
00000000 l    df *ABS*	00000000 vfprintf.c
0080aad8 l     F .text	000000fc __sprint_r.part.0
00813df4 l     O .rodata	00000010 blanks.4348
00813de4 l     O .rodata	00000010 zeroes.4349
0080c064 l     F .text	000000bc __sbprintf
00000000 l    df *ABS*	00000000 mallocr.c
00000000 l    df *ABS*	00000000 fputwc.c
00000000 l    df *ABS*	00000000 wbuf.c
00000000 l    df *ABS*	00000000 wcrtomb.c
00000000 l    df *ABS*	00000000 wctomb_r.c
00000000 l    df *ABS*	00000000 libgcc2.c
00000000 l    df *ABS*	00000000 libgcc2.c
00000000 l    df *ABS*	00000000 lib2-divmod.c
00000000 l    df *ABS*	00000000 adddf3.c
00000000 l    df *ABS*	00000000 divdf3.c
00000000 l    df *ABS*	00000000 eqdf2.c
00000000 l    df *ABS*	00000000 gedf2.c
00000000 l    df *ABS*	00000000 ledf2.c
00000000 l    df *ABS*	00000000 muldf3.c
00000000 l    df *ABS*	00000000 subdf3.c
00000000 l    df *ABS*	00000000 fixdfsi.c
00000000 l    df *ABS*	00000000 floatsidf.c
00000000 l    df *ABS*	00000000 floatunsidf.c
00000000 l    df *ABS*	00000000 libgcc2.c
00000000 l    df *ABS*	00000000 libgcc2.c
00000000 l    df *ABS*	00000000 alt_alarm_start.c
00000000 l    df *ABS*	00000000 alt_close.c
0080fb24 l     F .text	0000003c alt_get_errno
00000000 l    df *ABS*	00000000 alt_dev.c
0080fc30 l     F .text	0000002c alt_dev_null_write
00000000 l    df *ABS*	00000000 alt_errno.c
00000000 l    df *ABS*	00000000 alt_fstat.c
0080fc5c l     F .text	0000003c alt_get_errno
00000000 l    df *ABS*	00000000 alt_isatty.c
0080fd48 l     F .text	0000003c alt_get_errno
00000000 l    df *ABS*	00000000 alt_load.c
0080fe28 l     F .text	00000068 alt_load_section
00000000 l    df *ABS*	00000000 alt_lseek.c
0080ff14 l     F .text	0000003c alt_get_errno
00000000 l    df *ABS*	00000000 alt_main.c
00000000 l    df *ABS*	00000000 alt_malloc_lock.c
00000000 l    df *ABS*	00000000 alt_open.c
008100e8 l     F .text	0000003c alt_get_errno
00810124 l     F .text	000000c4 alt_file_locked
00000000 l    df *ABS*	00000000 alt_read.c
0081033c l     F .text	0000003c alt_get_errno
00000000 l    df *ABS*	00000000 alt_release_fd.c
00000000 l    df *ABS*	00000000 alt_sbrk.c
00815e8c l     O .rwdata	00000004 heap_end
00000000 l    df *ABS*	00000000 alt_tick.c
00000000 l    df *ABS*	00000000 alt_write.c
0081072c l     F .text	0000003c alt_get_errno
00000000 l    df *ABS*	00000000 alt_sys_init.c
00810860 l     F .text	00000034 alt_dev_reg
00814c14 l     O .rwdata	00001060 jtag_uart
00815c74 l     O .rwdata	00000120 lcd
00815d94 l     O .rwdata	000000c4 uart
00000000 l    df *ABS*	00000000 altera_avalon_jtag_uart_fd.c
00000000 l    df *ABS*	00000000 altera_avalon_jtag_uart_init.c
00810b8c l     F .text	0000020c altera_avalon_jtag_uart_irq
00810d98 l     F .text	000000a0 altera_avalon_jtag_uart_timeout
00000000 l    df *ABS*	00000000 altera_avalon_jtag_uart_ioctl.c
00000000 l    df *ABS*	00000000 altera_avalon_jtag_uart_read.c
00000000 l    df *ABS*	00000000 altera_avalon_jtag_uart_write.c
00000000 l    df *ABS*	00000000 altera_avalon_lcd_16207.c
00815e98 l     O .rwdata	00000004 colstart
008113d0 l     F .text	000000b8 lcd_write_command
00811488 l     F .text	000000d8 lcd_write_data
00811560 l     F .text	000000d0 lcd_clear_screen
00811630 l     F .text	000001ec lcd_repaint_screen
0081181c l     F .text	000000cc lcd_scroll_up
008118e8 l     F .text	000002ac lcd_handle_escape
0081206c l     F .text	000000ac alt_lcd_16207_timeout
00000000 l    df *ABS*	00000000 altera_avalon_lcd_16207_fd.c
00000000 l    df *ABS*	00000000 altera_avalon_timer_sc.c
008122ac l     F .text	00000078 alt_avalon_timer_sc_irq
00000000 l    df *ABS*	00000000 altera_avalon_uart_fd.c
00000000 l    df *ABS*	00000000 altera_avalon_uart_init.c
0081255c l     F .text	0000009c altera_avalon_uart_irq
008125f8 l     F .text	000000e4 altera_avalon_uart_rxirq
008126dc l     F .text	00000148 altera_avalon_uart_txirq
00000000 l    df *ABS*	00000000 altera_avalon_uart_read.c
00812878 l     F .text	0000003c alt_get_errno
00000000 l    df *ABS*	00000000 altera_avalon_uart_write.c
00812a90 l     F .text	0000003c alt_get_errno
00000000 l    df *ABS*	00000000 alt_dcache_flush_all.c
00000000 l    df *ABS*	00000000 alt_dev_llist_insert.c
00812cc0 l     F .text	0000003c alt_get_errno
00000000 l    df *ABS*	00000000 alt_do_ctors.c
00000000 l    df *ABS*	00000000 alt_do_dtors.c
00000000 l    df *ABS*	00000000 alt_find_dev.c
00000000 l    df *ABS*	00000000 alt_find_file.c
00000000 l    df *ABS*	00000000 alt_get_fd.c
00000000 l    df *ABS*	00000000 alt_icache_flush_all.c
00000000 l    df *ABS*	00000000 alt_iic.c
00000000 l    df *ABS*	00000000 alt_iic_isr_register.c
00000000 l    df *ABS*	00000000 alt_io_redirect.c
00813370 l     F .text	000000c4 alt_open_fd
00000000 l    df *ABS*	00000000 alt_irq_vars.c
00000000 l    df *ABS*	00000000 alt_usleep.c
00000000 l    df *ABS*	00000000 altera_nios2_gen2_irq.c
00000000 l    df *ABS*	00000000 alt_busy_sleep.c
00000000 l    df *ABS*	00000000 alt_icache_flush.c
00000000 l    df *ABS*	00000000 atexit.c
00000000 l    df *ABS*	00000000 ctype_.c
00814047 l     O .rodata	00000180 _ctype_b
00000000 l    df *ABS*	00000000 exit.c
00000000 l    df *ABS*	00000000 memcmp.c
00000000 l    df *ABS*	00000000 __atexit.c
00000000 l    df *ABS*	00000000 __call_atexit.c
00000000 l    df *ABS*	00000000 alt_exit.c
00817ca0 g     O .bss	00000004 alt_instruction_exception_handler
00817bb0 g     O .bss	00000001 g83
00817bb1 g     O .bss	00000001 g40
0080a24c g     F .text	00000074 _mprec_log10
00817bb2 g     O .bss	00000001 AVI_TO
00800d0c g     F .text	000000b8 lcd_set_mode
0080a338 g     F .text	0000008c __any_on
00808eb0 g     F .text	00000054 _isatty_r
00813ccc g     O .rodata	00000028 __mprec_tinytens
00810024 g     F .text	0000007c alt_main
008045f8 g     F .text	000000c0 _puts_r
00817bb3 g     O .bss	00000001 APace
00817e4c g     O .bss	00000100 alt_irq
00808fe0 g     F .text	00000060 _lseek_r
00817bb4 g     O .bss	00000001 g4
00815ea4 g       *ABS*	00000000 __flash_rwdata_start
00817bb5 g     O .bss	00000001 g85_e1_fix
00817bb6 g     O .bss	00000001 g19
00808948 g     F .text	000000ac __sflags
0080e524 g     F .text	00000088 .hidden __eqdf2
00817f4c g       *ABS*	00000000 __alt_heap_start
00817bb7 g     O .bss	00000001 VRP_TO
008045bc g     F .text	0000003c printf
0080c544 g     F .text	0000009c _wcrtomb_r
008049e8 g     F .text	0000005c __sseek
00802cfc g     F .text	00000010 __sinit
0080c3ec g     F .text	00000140 __swbuf_r
00817bb8 g     O .bss	00000001 g55
00817bb9 g     O .bss	00000001 g27
00817ba0 g     O .bss	00000004 lcd
00808f04 g     F .text	0000007c _setlocale_r
00802b64 g     F .text	00000068 __sfmoreglue
00800470 g     F .text	00000050 LED_Atrial_ISR
008100c4 g     F .text	00000024 __malloc_unlock
00817bba g     O .bss	00000001 g3
00817ba4 g     O .bss	00000004 fp
0080926c g     F .text	0000015c memmove
00817bbb g     O .bss	00000001 g47
00817bbc g     O .bss	00000001 g85
00817bbd g     O .bss	00000001 g42
00802ce4 g     F .text	00000018 _cleanup
008093c8 g     F .text	000000a8 _Balloc
00817bbe g     O .bss	00000001 g9
00800420 g     F .text	00000050 URI_ISR
00817bbf g     O .bss	00000001 _cg7
00817bc0 g     O .bss	00000004 _PRE_GO
00817bc4 g     O .bss	00000001 PRE_g3
0080e5ac g     F .text	000000dc .hidden __gtdf2
008134e0 g     F .text	00000024 altera_nios2_gen2_irq_init
00817bc5 g     O .bss	00000001 PRE_g29
00817bc6 g     O .bss	00000001 AVI_start
00800000 g     F .entry	0000001c __reset
00817bc7 g     O .bss	00000001 _cg52
00800020 g       *ABS*	00000000 __flash_exceptions_start
00803758 g     F .text	0000005c _fstat_r
00817bc8 g     O .bss	00000001 PRE_g72
00817c6c g     O .bss	00000004 errno
00817bc9 g     O .bss	00000001 _cg73
00817bca g     O .bss	00000001 g87
00817bcb g     O .bss	00000001 g44
00804964 g     F .text	00000008 __seofread
00817bcc g     O .bss	00000001 _cg79
00817bcd g     O .bss	00000001 _cg75
00817c8c g     O .bss	00000004 alt_argv
0081de58 g       *ABS*	00000000 _gp
008134b0 g     F .text	00000030 usleep
00800e5c g     F .text	00000080 reset
00817bce g     O .bss	00000001 g77b
00817ba8 g     O .bss	00000004 up
00817bcf g     O .bss	00000001 AVI_stop
00817bd0 g     O .bss	00000001 g1
00800644 g     F .text	0000003c VRP_Buffer_ISR
00800608 g     F .text	0000003c PVARP_Buffer_ISR
00817bd1 g     O .bss	00000001 _DDD_Pacemaker_local_URI_ex
00817bd2 g     O .bss	00000001 g61
00814a94 g     O .rwdata	00000180 alt_fd_list
00817bd3 g     O .bss	00000001 g71
00812e60 g     F .text	00000090 alt_find_dev
00809124 g     F .text	00000148 memcpy
008029b4 g     F .text	0000000c _cleanup_r
0080f810 g     F .text	000000dc .hidden __floatsidf
00817bd4 g     O .bss	00000001 g82
00813434 g     F .text	0000007c alt_io_redirect
0080e688 g     F .text	000000f4 .hidden __ltdf2
00817bd5 g     O .bss	00000001 PRE_g69
00813b1c g       *ABS*	00000000 __DTOR_END__
00817bd6 g     O .bss	00000001 g12
008046b8 g     F .text	00000014 puts
008136ec g     F .text	0000009c alt_exception_cause_generated_bad_addr
00817bd7 g     O .bss	00000001 g52
0080a988 g     F .text	00000074 __fpclassifyd
00817bd8 g     O .bss	00000001 LRI_TO
0080a1a8 g     F .text	000000a4 __ratio
0080c048 g     F .text	0000001c __vfiprintf_internal
00810f90 g     F .text	0000021c altera_avalon_jtag_uart_read
0080458c g     F .text	00000030 _printf_r
00817bd9 g     O .bss	00000001 _cg74
0080d2d4 g     F .text	00000064 .hidden __udivsi3
0080fd84 g     F .text	000000a4 isatty
00817bda g     O .bss	00000001 g17
00817bdb g     O .bss	00000001 PRE_g34
00813d1c g     O .rodata	000000c8 __mprec_tens
00808f80 g     F .text	0000000c __locale_charset
00817bdc g     O .bss	00000001 g76
00817bdd g     O .bss	00000001 g31
00800510 g     F .text	00000040 A_Sense_ISR
0081365c g     F .text	00000090 alt_icache_flush
00817bde g     O .bss	00000001 g37
00817c78 g     O .bss	00000004 __malloc_top_pad
00815e6c g     O .rwdata	00000004 __mb_cur_max
008004c0 g     F .text	00000050 LED_Ventricular_ISR
00808fb0 g     F .text	0000000c _localeconv_r
00817bdf g     O .bss	00000001 g62
008097d4 g     F .text	0000003c __i2b
008089f4 g     F .text	000004bc __sfvwrite_r
008048bc g     F .text	00000054 _sbrk_r
00817be0 g     O .bss	00000001 g84
00817be1 g     O .bss	00000001 g41
00817be2 g     O .bss	00000001 _cg61
0080a3c4 g     F .text	00000060 _read_r
00815e84 g     O .rwdata	00000004 alt_max_fd
00817be3 g     O .bss	00000001 g24_e2
00817be4 g     O .bss	00000001 LRI_stop
00808844 g     F .text	000000f0 _fclose_r
00817be5 g     O .bss	00000001 PRE_g17
0080297c g     F .text	00000030 fflush
00817c74 g     O .bss	00000004 __malloc_max_sbrked_mem
00800680 g     F .text	0000003c LRI_Buffer_ISR
00817be6 g     O .bss	00000001 g18
00817be7 g     O .bss	00000001 g41_e3
00817be8 g     O .bss	00000001 ASense
0080d390 g     F .text	000008ac .hidden __adddf3
00809f50 g     F .text	0000010c __b2d
0080cca4 g     F .text	00000538 .hidden __umoddi3
0080ff50 g     F .text	000000d4 lseek
00815e5c g     O .rwdata	00000004 _global_impure_ptr
00817be9 g     O .bss	00000001 g48
0080a424 g     F .text	00000564 _realloc_r
00817f4c g       *ABS*	00000000 __bss_end
00813280 g     F .text	000000f0 alt_iic_isr_register
00817bea g     O .bss	00000001 g47b
00810624 g     F .text	00000108 alt_tick
00817beb g     O .bss	00000001 _cg58
0080c72c g     F .text	00000578 .hidden __udivdi3
0080c348 g     F .text	00000024 _fputwc_r
00813cf4 g     O .rodata	00000028 __mprec_bigtens
008095b8 g     F .text	00000104 __s2b
0080f8ec g     F .text	000000a8 .hidden __floatunsidf
00817bec g     O .bss	00000001 g38
00809c90 g     F .text	00000060 __mcmp
008124b0 g     F .text	000000ac altera_avalon_uart_init
00802d1c g     F .text	00000018 __fp_lock_all
00813234 g     F .text	0000004c alt_ic_irq_enabled
00817bed g     O .bss	00000001 PRE_g87
00817bee g     O .bss	00000001 g30b
00810588 g     F .text	0000009c alt_alarm_stop
00817c9c g     O .bss	00000004 alt_irq_active
008032f8 g     F .text	00000444 _fseeko_r
00817bef g     O .bss	00000001 g55_e4
00817bf0 g     O .bss	00000001 _cg20
01080000 g       *ABS*	00000000 __alt_mem_onchip_mem
008000fc g     F .exceptions	000000d4 alt_irq_handler
00814a6c g     O .rwdata	00000028 alt_dev_null
00817bf1 g     O .bss	00000001 _DDD_Pacemaker_local_PVARP_ex
00812c78 g     F .text	00000048 alt_dcache_flush_all
008096bc g     F .text	00000068 __hi0bits
00817bf2 g     O .bss	00000001 g22b
00817bf3 g     O .bss	00000001 _cg63
0080f790 g     F .text	00000080 .hidden __fixdfsi
00817bf4 g     O .bss	00000001 g64
00817bf5 g     O .bss	00000001 g21
00817bf6 g     O .bss	00000001 _cg51
00817bf7 g     O .bss	00000001 PRE_g46
00817bf8 g     O .bss	00000001 PRE_g12
00817bf9 g     O .bss	00000001 g79
00817bfa g     O .bss	00000001 g34
00815ea4 g       *ABS*	00000000 __ram_rwdata_end
00817bfb g     O .bss	00000001 g5
00815e7c g     O .rwdata	00000008 alt_dev_list
00817bfc g     O .bss	00000001 g49
00810768 g     F .text	000000f8 write
00817bfd g     O .bss	00000001 g2
00817bfe g     O .bss	00000001 g7
00800b98 g     F .text	0000005c handle_mode_switch
00817bff g     O .bss	00000001 _cg16
008141c8 g       *ABS*	00000000 __ram_rodata_end
0080fc98 g     F .text	000000b0 fstat
00802e80 g     F .text	00000024 fprintf
0080e688 g     F .text	000000f4 .hidden __ledf2
00817c00 g     O .bss	00000001 g80
00817c01 g     O .bss	00000001 _DDD_Pacemaker_local_VRP_ex
00809a08 g     F .text	00000140 __pow5mult
0080abec g     F .text	0000145c ___vfiprintf_internal_r
00817c84 g     O .bss	00000004 __nlocale_changed
0080d338 g     F .text	00000058 .hidden __umodsi3
00817f4c g       *ABS*	00000000 end
00811b94 g     F .text	000004d8 altera_avalon_lcd_16207_write
0080373c g     F .text	0000001c fseeko
00817c02 g     O .bss	00000001 g59
00817c03 g     O .bss	00000001 g54
00812acc g     F .text	000001ac altera_avalon_uart_write
008032dc g     F .text	0000001c fseek
00817c04 g     O .bss	00000001 g66
00817c05 g     O .bss	00000001 g23
00810acc g     F .text	000000c0 altera_avalon_jtag_uart_init
008001d0 g     F .exceptions	00000074 alt_instruction_exception_entry
00817c06 g     O .bss	00000001 _cg44
00813b1c g       *ABS*	00000000 __CTOR_LIST__
01000000 g       *ABS*	00000000 __alt_stack_pointer
00812324 g     F .text	0000007c alt_avalon_timer_sc_init
00812400 g     F .text	00000060 altera_avalon_uart_write_fd
0080f994 g     F .text	00000064 .hidden __clzsi2
00812460 g     F .text	00000050 altera_avalon_uart_close_fd
008111ac g     F .text	00000224 altera_avalon_jtag_uart_write
00802d0c g     F .text	00000004 __sfp_lock_acquire
00809040 g     F .text	000000e4 memchr
00817c07 g     O .bss	00000001 g14
00804ae4 g     F .text	000021f8 ___vfprintf_internal_r
00802fc8 g     F .text	00000310 _free_r
00808f8c g     F .text	00000010 __locale_mb_cur_max
00813968 g     F .text	00000180 __call_exitprocs
00817c80 g     O .bss	00000004 __mlocale_changed
00815e64 g     O .rwdata	00000004 __malloc_sbrk_base
00800244 g     F .text	0000004c _start
00817c94 g     O .bss	00000004 _alt_tick_rate
00817c08 g     O .bss	00000001 g56
00809b48 g     F .text	00000148 __lshift
00817c09 g     O .bss	00000001 VSense
00817c98 g     O .bss	00000004 _alt_nticks
00817c0a g     O .bss	00000001 PRE_g6
00810378 g     F .text	000000fc read
008108cc g     F .text	0000009c alt_sys_init
00817c0b g     O .bss	00000001 g78
00817c0c g     O .bss	00000001 g33
0080452c g     F .text	00000060 _open_r
00813850 g     F .text	00000118 __register_exitproc
00817c0d g     O .bss	00000001 VRP_start
00817c0e g     O .bss	00000001 g35b
00809810 g     F .text	000001f8 __multiply
00810e38 g     F .text	00000068 altera_avalon_jtag_uart_close
008141c8 g       *ABS*	00000000 __ram_rwdata_start
00813b1c g       *ABS*	00000000 __ram_rodata_start
00817e24 g     O .bss	00000028 __malloc_current_mallinfo
0080a05c g     F .text	0000014c __d2b
00810968 g     F .text	00000060 altera_avalon_jtag_uart_read_fd
00817c0f g     O .bss	00000001 g35
00812ff8 g     F .text	000000a4 alt_get_fd
00817c10 g     O .bss	00000001 _cg38
00813504 g     F .text	00000158 alt_busy_sleep
00817c11 g     O .bss	00000001 g15
00806f68 g     F .text	00000054 _close_r
00817c12 g     O .bss	00000001 g90
00817c13 g     O .bss	00000001 _GO
00817c14 g     O .bss	00000001 LRI_start
008137d4 g     F .text	0000007c memcmp
00810a28 g     F .text	00000050 altera_avalon_jtag_uart_close_fd
00817f4c g       *ABS*	00000000 __alt_stack_base
00810a78 g     F .text	00000054 altera_avalon_jtag_uart_ioctl_fd
0080393c g     F .text	000000cc _fwrite_r
00806e14 g     F .text	00000154 __swsetup_r
00800edc g     F .text	00001828 tick
0080dc3c g     F .text	000008e8 .hidden __divdf3
00802bcc g     F .text	00000118 __sfp
00817c15 g     O .bss	00000001 g63
00817c16 g     O .bss	00000001 g20
0080a2c0 g     F .text	00000078 __copybits
00817c17 g     O .bss	00000001 g60
00817bac g     O .bss	00000004 byte
008145ec g     O .rwdata	00000408 __malloc_av_
00802d18 g     F .text	00000004 __sinit_lock_release
0080e77c g     F .text	00000718 .hidden __muldf3
00804910 g     F .text	00000054 __sread
00812ef0 g     F .text	00000108 alt_find_file
00800a0c g     F .text	0000018c AVLEDS
00812cfc g     F .text	000000a4 alt_dev_llist_insert
008100a0 g     F .text	00000024 __malloc_lock
00802e58 g     F .text	00000028 _fprintf_r
008104d8 g     F .text	000000b0 sbrk
00802920 g     F .text	0000005c _fflush_r
0080c120 g     F .text	000000c4 _calloc_r
00800330 g     F .text	00000050 PVARP_ISR
00817c18 g     O .bss	00000001 g21b
008002e0 g     F .text	00000050 AEI_ISR
00802e40 g     F .text	00000018 fopen
00817b80 g       *ABS*	00000000 __bss_start
00817c19 g     O .bss	00000001 g86
00817c1a g     O .bss	00000001 g43
00804404 g     F .text	00000128 memset
00800dc4 g     F .text	00000098 main
00817c90 g     O .bss	00000004 alt_envp
00817c70 g     O .bss	00000004 __malloc_max_total_mem
00817c1b g     O .bss	00000001 PRE_g43
008109c8 g     F .text	00000060 altera_avalon_jtag_uart_write_fd
0080c52c g     F .text	00000018 __swbuf
00817c1c g     O .bss	00000001 PRE_g57
00817c1d g     O .bss	00000001 g36
00812118 g     F .text	00000134 altera_avalon_lcd_16207_init
00817c1e g     O .bss	00000001 g80_e6
00817c1f g     O .bss	00000001 g89
00817c20 g     O .bss	00000001 g46
00804a44 g     F .text	00000008 __sclose
01000000 g       *ABS*	00000000 __alt_heap_limit
00808934 g     F .text	00000014 fclose
00817c21 g     O .bss	00000001 PVARP_start
008071bc g     F .text	00001688 _dtoa_r
00803bf8 g     F .text	0000080c _malloc_r
0080c6a0 g     F .text	00000030 __ascii_wctomb
00815e88 g     O .rwdata	00000004 alt_errno
008037b4 g     F .text	000000c4 _fwalk
00817c22 g     O .bss	00000001 g50
00817c23 g     O .bss	00000001 g89_e2
00817c24 g     O .bss	00000001 g51
0080d1dc g     F .text	00000084 .hidden __divsi3
00802ea4 g     F .text	00000124 _malloc_trim_r
00813b1c g       *ABS*	00000000 __CTOR_END__
00817c25 g     O .bss	00000001 AEI_TO
00817c26 g     O .bss	00000001 PRE_g60
0080a9fc g     F .text	000000dc strcmp
00817c27 g     O .bss	00000001 _cg70
00817c28 g     O .bss	00000001 PRE_g31
00813b1c g       *ABS*	00000000 __flash_rodata_start
00813b1c g       *ABS*	00000000 __DTOR_LIST__
008003d0 g     F .text	00000050 LRI_ISR
00817c29 g     O .bss	00000001 PRE_g48
0080e524 g     F .text	00000088 .hidden __nedf2
00810894 g     F .text	00000038 alt_irq_init
00810474 g     F .text	00000064 alt_release_fd
00817c2a g     O .bss	00000001 g73b
00817c2b g     O .bss	00000001 g13
00813e04 g     O .rodata	00000100 .hidden __clz_tab
00817c7c g     O .bss	00000004 _PathLocale
00817c2c g     O .bss	00000001 g53
00817c2d g     O .bss	00000001 g8
00817c2e g     O .bss	00000001 g57
00813788 g     F .text	00000014 atexit
00817c2f g     O .bss	00000001 AEI_start
00806db4 g     F .text	00000060 _write_r
00817c30 g     O .bss	00000001 g70
00817c31 g     O .bss	00000001 _cg47
00808fbc g     F .text	00000018 setlocale
00817c32 g     O .bss	00000001 g10_e1
00815e60 g     O .rwdata	00000004 _impure_ptr
00817c88 g     O .bss	00000004 alt_argc
00817c33 g     O .bss	00000001 g6
00802704 g     F .text	0000021c __sflush_r
00812e00 g     F .text	00000060 _do_dtors
00808fa8 g     F .text	00000008 __locale_cjk_lang
00817c34 g     O .bss	00000001 g72
008032d8 g     F .text	00000004 _fseek_r
00817c35 g     O .bss	00000001 g81
008046e8 g     F .text	000001d4 __srefill_r
00800020 g       .exceptions	00000000 alt_irq_entry
00817c36 g     O .bss	00000001 PRE_g76
00809eec g     F .text	00000064 __ulp
00802d34 g     F .text	00000018 __fp_unlock_all
00800590 g     F .text	0000003c AVI_Buffer_ISR
0081224c g     F .text	00000060 altera_avalon_lcd_16207_write_fd
00817c37 g     O .bss	00000001 _cg13
00817c38 g     O .bss	00000001 _cg9
00815e74 g     O .rwdata	00000008 alt_fs_list
00817c39 g     O .bss	00000001 g0
00817c3a g     O .bss	00000001 _cg54
00817c3b g     O .bss	00000001 g84_e7
00817c3c g     O .bss	00000001 g75
00817c3d g     O .bss	00000001 g30
00800020 g       *ABS*	00000000 __ram_exceptions_start
00817c3e g     O .bss	00000001 _cg40
00817c3f g     O .bss	00000001 PRE_g15
00808fd4 g     F .text	0000000c localeconv
00817c40 g     O .bss	00000001 PRE_g66
00817c41 g     O .bss	00000001 PRE_g21
00817c42 g     O .bss	00000001 _cg30
00800550 g     F .text	00000040 V_Sense_ISR
00817c43 g     O .bss	00000001 g16
008130d0 g     F .text	00000050 alt_ic_isr_register
00817c44 g     O .bss	00000001 g58
00803a08 g     F .text	00000034 fwrite
00817c45 g     O .bss	00000001 _cg77
00817c46 g     O .bss	00000001 g68
00817c47 g     O .bss	00000001 g25
00815ea4 g       *ABS*	00000000 _edata
008123a0 g     F .text	00000060 altera_avalon_uart_read_fd
00817f4c g       *ABS*	00000000 _end
00817c48 g     O .bss	00000001 g11
0080c1e4 g     F .text	00000164 __fputwc
00800244 g       *ABS*	00000000 __ram_exceptions_end
00810ea0 g     F .text	000000f0 altera_avalon_jtag_uart_ioctl
00817c49 g     O .bss	00000001 g65
00817c4a g     O .bss	00000001 g22
00817c4b g     O .bss	00000001 g28
00817c4c g     O .bss	00000001 g73
00817c4d g     O .bss	00000001 g16b
008131a8 g     F .text	0000008c alt_ic_irq_disable
0080496c g     F .text	0000007c __swrite
00800918 g     F .text	000000f4 ButtonPolling
00815e68 g     O .rwdata	00000004 __malloc_trim_threshold
00808f9c g     F .text	0000000c __locale_msgcharset
0081379c g     F .text	00000038 exit
00803878 g     F .text	000000c4 _fwalk_reent
00809cf0 g     F .text	000001fc __mdiff
00817c4e g     O .bss	00000001 g77
00817c4f g     O .bss	00000001 g32
0080d260 g     F .text	00000074 .hidden __modsi3
00817c50 g     O .bss	00000001 PVARP_TO
00815ea0 g     O .rwdata	00000004 __ctype_ptr__
00817c51 g     O .bss	00000001 PRE_g26
00817c52 g     O .bss	00000001 g88
00817c53 g     O .bss	00000001 g45
01000000 g       *ABS*	00000000 __alt_data_end
00800020 g     F .exceptions	00000000 alt_exception
00800bf4 g     F .text	00000118 uart
008005cc g     F .text	0000003c AEI_Buffer_ISR
00802d10 g     F .text	00000004 __sfp_lock_release
00817c54 g     O .bss	00000001 _cg23
00800000 g       *ABS*	00000000 __alt_mem_sdram
00817c55 g     O .bss	00000001 PRE_g82
00817c56 g     O .bss	00000001 _cg18
00813f46 g     O .rodata	00000101 _ctype_
00812824 g     F .text	00000054 altera_avalon_uart_close
00802d4c g     F .text	000000f4 _fopen_r
00813ae8 g     F .text	00000034 _exit
008006bc g     F .text	0000003c URI_Buffer_ISR
0080f9f8 g     F .text	0000012c alt_alarm_start
00803a3c g     F .text	000001bc __smakebuf_r
00817c57 g     O .bss	00000001 VPace
00804a4c g     F .text	00000098 strlen
00817c58 g     O .bss	00000001 g39
008101e8 g     F .text	00000154 open
00817c59 g     O .bss	00000001 g85_e1
0080e5ac g     F .text	000000dc .hidden __gedf2
00817c5a g     O .bss	00000001 _cg49
00815e70 g     O .rwdata	00000004 __wctomb
008006f8 g     F .text	00000220 TimerConfig
0080abd4 g     F .text	00000018 __sprint_r
0081309c g     F .text	00000034 alt_icache_flush_all
00817c5b g     O .bss	00000001 g29
00817c5c g     O .bss	00000001 _cg4
00817c5d g     O .bss	00000001 g67
00817c5e g     O .bss	00000001 g24
00817c5f g     O .bss	00000001 URI_TO
00800290 g     F .text	00000050 AVI_ISR
00817c60 g     O .bss	00000001 AEI_stop
00800380 g     F .text	00000050 VRP_ISR
00815e9c g     O .rwdata	00000004 alt_priority_mask
00817c61 g     O .bss	00000001 _cg32
00813120 g     F .text	00000088 alt_ic_irq_enable
00806cdc g     F .text	0000001c __vfprintf_internal
008128b4 g     F .text	000001dc altera_avalon_uart_read
0080c6d0 g     F .text	0000005c _wctomb_r
00817c62 g     O .bss	00000001 URI_start
0080ee94 g     F .text	000008fc .hidden __subdf3
00817c63 g     O .bss	00000001 _cg67
00817c64 g     O .bss	00000001 g64_e5
00817c65 g     O .bss	00000001 URI_stop
00817c66 g     O .bss	00000001 _cg36
00809724 g     F .text	000000b0 __lo0bits
00817c67 g     O .bss	00000001 g10
00815e90 g     O .rwdata	00000008 alt_alarm_list
00817c68 g     O .bss	00000001 _cg27
00812da0 g     F .text	00000060 _do_ctors
0080c5e0 g     F .text	000000c0 wcrtomb
00817c69 g     O .bss	00000001 g69
00817c6a g     O .bss	00000001 g26
0080fb60 g     F .text	000000d0 close
0080fe90 g     F .text	00000084 alt_load
0080c36c g     F .text	00000080 fputwc
00802d14 g     F .text	00000004 __sinit_lock_acquire
00809498 g     F .text	00000120 __multadd
00809470 g     F .text	00000028 _Bfree
00817c6b g     O .bss	00000001 g74



Disassembly of section .entry:

00800000 <__reset>:
#if NIOS2_ICACHE_SIZE > 0 && defined(ALT_ALLOW_CODE_AT_RESET) && (!defined(ALT_SIM_OPTIMIZE) || defined(NIOS2_ECC_PRESENT))
    /* Assume the instruction cache size is always a power of two. */
#if NIOS2_ICACHE_SIZE > 0x8000
    movhi r2, %hi(NIOS2_ICACHE_SIZE)
#else
    movui r2, NIOS2_ICACHE_SIZE
  800000:	00840014 	movui	r2,4096
#endif

0:
    initi r2
  800004:	1001483a 	initi	r2
    addi r2, r2, -NIOS2_ICACHE_LINE_SIZE
  800008:	10bff804 	addi	r2,r2,-32
    bgt r2, zero, 0b
  80000c:	00bffd16 	blt	zero,r2,800004 <__alt_mem_onchip_mem+0xff780004>
 * Jump to the _start entry point in the .text section if reset code
 * is allowed or if optimizing for RTL simulation.
 */
#if defined(ALT_ALLOW_CODE_AT_RESET) || defined(ALT_SIM_OPTIMIZE)
    /* Jump to the _start entry point in the .text section. */
    movhi r1, %hi(_start)
  800010:	00402034 	movhi	at,128
    ori r1, r1, %lo(_start)
  800014:	08409114 	ori	at,at,580
    jmp r1
  800018:	0800683a 	jmp	at
  80001c:	00000000 	call	0 <__alt_mem_sdram-0x800000>

Disassembly of section .exceptions:

00800020 <alt_exception>:

#else /* ALT_EXCEPTION_STACK disabled */
        /* 
         * Reserve space on normal stack for registers about to be pushed.
         */
        addi  sp, sp, -76
  800020:	deffed04 	addi	sp,sp,-76
         * documentation for details).
         *
         * Leave a gap in the stack frame at 4(sp) for the muldiv handler to
         * store zero into.
         */
        stw   ra,  0(sp)
  800024:	dfc00015 	stw	ra,0(sp)
        stw   r1,   8(sp)
  800028:	d8400215 	stw	at,8(sp)
        stw   r2,  12(sp)
  80002c:	d8800315 	stw	r2,12(sp)
        stw   r3,  16(sp)
  800030:	d8c00415 	stw	r3,16(sp)
        stw   r4,  20(sp)
  800034:	d9000515 	stw	r4,20(sp)
        stw   r5,  24(sp)
  800038:	d9400615 	stw	r5,24(sp)
        stw   r6,  28(sp)
  80003c:	d9800715 	stw	r6,28(sp)
        stw   r7,  32(sp)
  800040:	d9c00815 	stw	r7,32(sp)
        rdctl r5, estatus   /* Read early to avoid usage stall */
  800044:	000b307a 	rdctl	r5,estatus
        stw   r8,  36(sp)
  800048:	da000915 	stw	r8,36(sp)
        stw   r9,  40(sp)
  80004c:	da400a15 	stw	r9,40(sp)
        stw   r10, 44(sp)
  800050:	da800b15 	stw	r10,44(sp)
        stw   r11, 48(sp)
  800054:	dac00c15 	stw	r11,48(sp)
        stw   r12, 52(sp)
  800058:	db000d15 	stw	r12,52(sp)
        stw   r13, 56(sp)
  80005c:	db400e15 	stw	r13,56(sp)
        stw   r14, 60(sp)
  800060:	db800f15 	stw	r14,60(sp)
        stw   r15, 64(sp)
  800064:	dbc01015 	stw	r15,64(sp)
        /*
         * ea-4 contains the address of the instruction being executed
         * when the exception occured. For interrupt exceptions, we will
         * will be re-issue the isntruction. Store it in 72(sp)
         */
        stw   r5,  68(sp)  /* estatus */
  800068:	d9401115 	stw	r5,68(sp)
        addi  r15, ea, -4  /* instruction that caused exception */
  80006c:	ebffff04 	addi	r15,ea,-4
        stw   r15,  72(sp)
  800070:	dbc01215 	stw	r15,72(sp)
#else
        /*
         * Test to see if the exception was a software exception or caused 
         * by an external interrupt, and vector accordingly.
         */
        rdctl r4, ipending
  800074:	0009313a 	rdctl	r4,ipending
        andi  r2, r5, 1
  800078:	2880004c 	andi	r2,r5,1
        beq   r2, zero, .Lnot_irq
  80007c:	10000326 	beq	r2,zero,80008c <alt_exception+0x6c>
        beq   r4, zero, .Lnot_irq
  800080:	20000226 	beq	r4,zero,80008c <alt_exception+0x6c>
        /*
         * Now that all necessary registers have been preserved, call 
         * alt_irq_handler() to process the interrupts.
         */

        call alt_irq_handler
  800084:	08000fc0 	call	8000fc <alt_irq_handler>

        .section .exceptions.irqreturn, "xa"

        br    .Lexception_exit
  800088:	00000706 	br	8000a8 <alt_exception+0x88>
         * upon completion, so we write ea (address of instruction *after*
         * the one where the exception occured) into 72(sp). The actual
         * instruction that caused the exception is written in r2, which these
         * handlers will utilize.
         */
        stw ea, 72(sp) /* EA is PC+4 so will skip over instruction causing exception */
  80008c:	df401215 	stw	ea,72(sp)
.Lunknown_16bit:
        addi.n r4, r4, 2 /* Need PC+2 to skip over instruction causing exception */
        stw r4, 72(sp)

#else /* CDX is not Enabled and all instructions are 32bits */
        ldw r2, -4(ea) /* Instruction value that caused exception */
  800090:	e8bfff17 	ldw	r2,-4(ea)
         * debugger is present) or go into an infinite loop since the
         * handling behavior is undefined; in that case we will not return here.
         */

        /* Load exception-causing address as first argument (r4) */
        addi   r4, ea, -4
  800094:	e93fff04 	addi	r4,ea,-4

        /* Call the instruction-exception entry */
        call   alt_instruction_exception_entry
  800098:	08001d00 	call	8001d0 <alt_instruction_exception_entry>
         * instruction
         *
         * Return code was 0: Skip. The instruction after the exception is
         * already stored in 72(sp).
         */
        bne   r2, r0, .Lexception_exit
  80009c:	1000021e 	bne	r2,zero,8000a8 <alt_exception+0x88>

        /*
         * Otherwise, modify 72(sp) to re-issue the instruction that caused the
         * exception.
         */
        addi  r15, ea, -4  /* instruction that caused exception */
  8000a0:	ebffff04 	addi	r15,ea,-4
        stw   r15,  72(sp)
  8000a4:	dbc01215 	stw	r15,72(sp)
        /* 
         * Restore the saved registers, so that all general purpose registers 
         * have been restored to their state at the time the interrupt occured.
         */

        ldw   r5,  68(sp)
  8000a8:	d9401117 	ldw	r5,68(sp)
        ldw   ea,  72(sp)  /* This becomes the PC once eret is executed */
  8000ac:	df401217 	ldw	ea,72(sp)
        ldw   ra,   0(sp)
  8000b0:	dfc00017 	ldw	ra,0(sp)

        wrctl estatus, r5
  8000b4:	2801707a 	wrctl	estatus,r5

        ldw   r1,   8(sp)
  8000b8:	d8400217 	ldw	at,8(sp)
        ldw   r2,  12(sp)
  8000bc:	d8800317 	ldw	r2,12(sp)
        ldw   r3,  16(sp)
  8000c0:	d8c00417 	ldw	r3,16(sp)
        ldw   r4,  20(sp)
  8000c4:	d9000517 	ldw	r4,20(sp)
        ldw   r5,  24(sp)
  8000c8:	d9400617 	ldw	r5,24(sp)
        ldw   r6,  28(sp)
  8000cc:	d9800717 	ldw	r6,28(sp)
        ldw   r7,  32(sp)
  8000d0:	d9c00817 	ldw	r7,32(sp)

#if defined(ALT_EXCEPTION_STACK) && defined(ALT_STACK_CHECK)
        ldw   et, %gprel(alt_exception_old_stack_limit)(gp)
#endif

        ldw   r8,  36(sp)
  8000d4:	da000917 	ldw	r8,36(sp)
        ldw   r9,  40(sp)
  8000d8:	da400a17 	ldw	r9,40(sp)
        ldw   r10, 44(sp)
  8000dc:	da800b17 	ldw	r10,44(sp)
        ldw   r11, 48(sp)
  8000e0:	dac00c17 	ldw	r11,48(sp)
        ldw   r12, 52(sp)
  8000e4:	db000d17 	ldw	r12,52(sp)
        ldw   r13, 56(sp)
  8000e8:	db400e17 	ldw	r13,56(sp)
        ldw   r14, 60(sp)
  8000ec:	db800f17 	ldw	r14,60(sp)
        ldw   r15, 64(sp)
  8000f0:	dbc01017 	ldw	r15,64(sp)
        stw   et, %gprel(alt_stack_limit_value)(gp)
        stw   zero, %gprel(alt_exception_old_stack_limit)(gp)
#endif /* ALT_STACK_CHECK */
        ldw   sp,  76(sp)
#else /* ALT_EXCEPTION_STACK disabled */
        addi  sp, sp, 76
  8000f4:	dec01304 	addi	sp,sp,76

        /*
         * Return to the interrupted instruction.
         */

        eret
  8000f8:	ef80083a 	eret

008000fc <alt_irq_handler>:
 * instruction is present if the macro ALT_CI_INTERRUPT_VECTOR defined.
 */

void alt_irq_handler (void) __attribute__ ((section (".exceptions")));
void alt_irq_handler (void)
{
  8000fc:	defff904 	addi	sp,sp,-28
  800100:	dfc00615 	stw	ra,24(sp)
  800104:	df000515 	stw	fp,20(sp)
  800108:	df000504 	addi	fp,sp,20
  
  /*
   * Notify the operating system that we are at interrupt level.
   */ 
  
  ALT_OS_INT_ENTER();
  80010c:	0001883a 	nop
#ifndef NIOS2_EIC_PRESENT
static ALT_INLINE alt_u32 ALT_ALWAYS_INLINE alt_irq_pending (void)
{
  alt_u32 active;

  NIOS2_READ_IPENDING (active);
  800110:	0005313a 	rdctl	r2,ipending
  800114:	e0bffe15 	stw	r2,-8(fp)

  return active;
  800118:	e0bffe17 	ldw	r2,-8(fp)
   * Consider the case where the high priority interupt is asserted during
   * the interrupt entry sequence for a lower priority interrupt to see why
   * this is the case.
   */

  active = alt_irq_pending ();
  80011c:	e0bffb15 	stw	r2,-20(fp)

  do
  {
    i = 0;
  800120:	e03ffd15 	stw	zero,-12(fp)
    mask = 1;
  800124:	00800044 	movi	r2,1
  800128:	e0bffc15 	stw	r2,-16(fp)
     * called to clear the interrupt condition.
     */

    do
    {
      if (active & mask)
  80012c:	e0fffb17 	ldw	r3,-20(fp)
  800130:	e0bffc17 	ldw	r2,-16(fp)
  800134:	1884703a 	and	r2,r3,r2
  800138:	10001426 	beq	r2,zero,80018c <alt_irq_handler+0x90>
      { 
#ifdef ALT_ENHANCED_INTERRUPT_API_PRESENT
        alt_irq[i].handler(alt_irq[i].context); 
  80013c:	00802074 	movhi	r2,129
  800140:	109f9304 	addi	r2,r2,32332
  800144:	e0fffd17 	ldw	r3,-12(fp)
  800148:	180690fa 	slli	r3,r3,3
  80014c:	10c5883a 	add	r2,r2,r3
  800150:	10c00017 	ldw	r3,0(r2)
  800154:	00802074 	movhi	r2,129
  800158:	109f9304 	addi	r2,r2,32332
  80015c:	e13ffd17 	ldw	r4,-12(fp)
  800160:	200890fa 	slli	r4,r4,3
  800164:	1105883a 	add	r2,r2,r4
  800168:	10800104 	addi	r2,r2,4
  80016c:	10800017 	ldw	r2,0(r2)
  800170:	1009883a 	mov	r4,r2
  800174:	183ee83a 	callr	r3
#else
        alt_irq[i].handler(alt_irq[i].context, i); 
#endif
        break;
  800178:	0001883a 	nop
#ifndef NIOS2_EIC_PRESENT
static ALT_INLINE alt_u32 ALT_ALWAYS_INLINE alt_irq_pending (void)
{
  alt_u32 active;

  NIOS2_READ_IPENDING (active);
  80017c:	0005313a 	rdctl	r2,ipending
  800180:	e0bfff15 	stw	r2,-4(fp)

  return active;
  800184:	e0bfff17 	ldw	r2,-4(fp)
  800188:	00000706 	br	8001a8 <alt_irq_handler+0xac>
      }
      mask <<= 1;
  80018c:	e0bffc17 	ldw	r2,-16(fp)
  800190:	1085883a 	add	r2,r2,r2
  800194:	e0bffc15 	stw	r2,-16(fp)
      i++;
  800198:	e0bffd17 	ldw	r2,-12(fp)
  80019c:	10800044 	addi	r2,r2,1
  8001a0:	e0bffd15 	stw	r2,-12(fp)

    } while (1);
  8001a4:	003fe106 	br	80012c <__alt_mem_onchip_mem+0xff78012c>

    active = alt_irq_pending ();
  8001a8:	e0bffb15 	stw	r2,-20(fp)
    
  } while (active);
  8001ac:	e0bffb17 	ldw	r2,-20(fp)
  8001b0:	103fdb1e 	bne	r2,zero,800120 <__alt_mem_onchip_mem+0xff780120>

  /*
   * Notify the operating system that interrupt processing is complete.
   */ 

  ALT_OS_INT_EXIT();
  8001b4:	0001883a 	nop
}
  8001b8:	0001883a 	nop
  8001bc:	e037883a 	mov	sp,fp
  8001c0:	dfc00117 	ldw	ra,4(sp)
  8001c4:	df000017 	ldw	fp,0(sp)
  8001c8:	dec00204 	addi	sp,sp,8
  8001cc:	f800283a 	ret

008001d0 <alt_instruction_exception_entry>:
 * that handler if it has been registered. Absent a handler, it will
 * break break or hang as discussed below.
 */
int 
alt_instruction_exception_entry (alt_u32 exception_pc)
{
  8001d0:	defffb04 	addi	sp,sp,-20
  8001d4:	dfc00415 	stw	ra,16(sp)
  8001d8:	df000315 	stw	fp,12(sp)
  8001dc:	df000304 	addi	fp,sp,12
  8001e0:	e13fff15 	stw	r4,-4(fp)
 * NIOS2_EXCEPTION_CAUSE_NOT_PRESENT. Your handling routine should
 * check the validity of the cause argument before proceeding.
 */
#ifdef NIOS2_HAS_EXTRA_EXCEPTION_INFO
  /* Get exception cause & "badaddr" */
  NIOS2_READ_EXCEPTION(cause);
  8001e4:	000531fa 	rdctl	r2,exception
  8001e8:	e0bffd15 	stw	r2,-12(fp)
  cause = ( (cause & NIOS2_EXCEPTION_REG_CAUSE_MASK) >>
  8001ec:	e0bffd17 	ldw	r2,-12(fp)
  8001f0:	10801f0c 	andi	r2,r2,124
  8001f4:	1004d0ba 	srli	r2,r2,2
  8001f8:	e0bffd15 	stw	r2,-12(fp)
              NIOS2_EXCEPTION_REG_CAUSE_OFST );

  NIOS2_READ_BADADDR(badaddr);
  8001fc:	0005333a 	rdctl	r2,badaddr
  800200:	e0bffe15 	stw	r2,-8(fp)
#else
  cause = NIOS2_EXCEPTION_CAUSE_NOT_PRESENT;
  badaddr = 0;
#endif /* NIOS2_HAS_EXTRA_EXCEPTION_INFO */

  if(alt_instruction_exception_handler) {
  800204:	d0a79217 	ldw	r2,-25016(gp)
  800208:	10000726 	beq	r2,zero,800228 <alt_instruction_exception_entry+0x58>
     * Call handler. Its return value indicates whether the exception-causing
     * instruction should be re-issued. The code that called us,
     * alt_eceptions_entry.S, will look at this value and adjust the ea
     * register as necessary
     */
    return alt_instruction_exception_handler(cause, exception_pc, badaddr);
  80020c:	d0a79217 	ldw	r2,-25016(gp)
  800210:	e0fffd17 	ldw	r3,-12(fp)
  800214:	e1bffe17 	ldw	r6,-8(fp)
  800218:	e17fff17 	ldw	r5,-4(fp)
  80021c:	1809883a 	mov	r4,r3
  800220:	103ee83a 	callr	r2
  800224:	00000206 	br	800230 <alt_instruction_exception_entry+0x60>
   *    (a peripheral which negates its interrupt output before its
   *    interrupt handler has been executed will cause spurious interrupts)
   */
  else {
#ifdef NIOS2_HAS_DEBUG_STUB
    NIOS2_BREAK();
  800228:	003da03a 	break	0
      ;
#endif /* NIOS2_HAS_DEBUG_STUB */
  }

  /* We should not get here. Remove compiler warning. */
  return NIOS2_EXCEPTION_RETURN_REISSUE_INST;
  80022c:	0005883a 	mov	r2,zero
}
  800230:	e037883a 	mov	sp,fp
  800234:	dfc00117 	ldw	ra,4(sp)
  800238:	df000017 	ldw	fp,0(sp)
  80023c:	dec00204 	addi	sp,sp,8
  800240:	f800283a 	ret

Disassembly of section .text:

00800244 <_start>:

    /* Assume the data cache size is always a power of two. */
#if NIOS2_DCACHE_SIZE > 0x8000
    movhi r2, %hi(NIOS2_DCACHE_SIZE)
#else
    movui r2, NIOS2_DCACHE_SIZE
  800244:	00820014 	movui	r2,2048
#endif

0:
    initd 0(r2)
  800248:	10000033 	initd	0(r2)
#ifdef NIOS2_ECC_PRESENT
    addi r2, r2, -4
#else
    addi r2, r2, -NIOS2_DCACHE_LINE_SIZE
  80024c:	10bff804 	addi	r2,r2,-32
#endif
    bgt r2, zero, 0b
  800250:	00bffd16 	blt	zero,r2,800248 <__alt_mem_onchip_mem+0xff780248>

    /*
     * Now that the caches are initialized, set up the stack pointer and global pointer.
     * The values provided by the linker are assumed to be correctly aligned.
     */
    movhi sp, %hi(__alt_stack_pointer)
  800254:	06c04034 	movhi	sp,256
    ori sp, sp, %lo(__alt_stack_pointer)
  800258:	dec00014 	ori	sp,sp,0
    movhi gp, %hi(_gp)
  80025c:	06802074 	movhi	gp,129
    ori gp, gp, %lo(_gp)
  800260:	d6b79614 	ori	gp,gp,56920
 */
#ifndef ALT_SIM_OPTIMIZE
    /* Log that the BSS is about to be cleared. */
    ALT_LOG_PUTS(alt_log_msg_bss)

    movhi r2, %hi(__bss_start)
  800264:	00802074 	movhi	r2,129
    ori r2, r2, %lo(__bss_start)
  800268:	109ee014 	ori	r2,r2,31616

    movhi r3, %hi(__bss_end)
  80026c:	00c02074 	movhi	r3,129
    ori r3, r3, %lo(__bss_end)
  800270:	18dfd314 	ori	r3,r3,32588

    beq r2, r3, 1f
  800274:	10c00326 	beq	r2,r3,800284 <_start+0x40>

0:
    stw zero, (r2)
  800278:	10000015 	stw	zero,0(r2)
    addi r2, r2, 4
  80027c:	10800104 	addi	r2,r2,4
    bltu r2, r3, 0b
  800280:	10fffd36 	bltu	r2,r3,800278 <__alt_mem_onchip_mem+0xff780278>
     * section aren't defined until alt_load() has been called).
     */
    mov   et, zero
#endif

    call alt_load
  800284:	080fe900 	call	80fe90 <alt_load>

    /* Log that alt_main is about to be called. */
    ALT_LOG_PUTS(alt_log_msg_alt_main)

    /* Call the C entry point. It should never return. */
    call alt_main
  800288:	08100240 	call	810024 <alt_main>

0080028c <alt_after_alt_main>:

    /* Wait in infinite loop in case alt_main does return. */
alt_after_alt_main:
    br alt_after_alt_main
  80028c:	003fff06 	br	80028c <__alt_mem_onchip_mem+0xff78028c>

00800290 <AVI_ISR>:
#include "main.h"

// Timer interrupts that timeout on pre-defined values for each signal
alt_u32 AVI_ISR(void* context) {
  800290:	defffd04 	addi	sp,sp,-12
  800294:	dfc00215 	stw	ra,8(sp)
  800298:	df000115 	stw	fp,4(sp)
  80029c:	df000104 	addi	fp,sp,4
  8002a0:	e13fff15 	stw	r4,-4(fp)
	AVI_TO = 1;
  8002a4:	00800044 	movi	r2,1
  8002a8:	d0a75685 	stb	r2,-25254(gp)
	alt_alarm_start(&AVI_Buffer_Timer, SIGNAL_BUFFER, AVI_Buffer_ISR, NULL);
  8002ac:	000f883a 	mov	r7,zero
  8002b0:	01802034 	movhi	r6,128
  8002b4:	31816404 	addi	r6,r6,1424
  8002b8:	01400044 	movi	r5,1
  8002bc:	01002074 	movhi	r4,129
  8002c0:	211f6504 	addi	r4,r4,32148
  8002c4:	080f9f80 	call	80f9f8 <alt_alarm_start>
	return 0;
  8002c8:	0005883a 	mov	r2,zero
}
  8002cc:	e037883a 	mov	sp,fp
  8002d0:	dfc00117 	ldw	ra,4(sp)
  8002d4:	df000017 	ldw	fp,0(sp)
  8002d8:	dec00204 	addi	sp,sp,8
  8002dc:	f800283a 	ret

008002e0 <AEI_ISR>:

alt_u32 AEI_ISR(void* context) {
  8002e0:	defffd04 	addi	sp,sp,-12
  8002e4:	dfc00215 	stw	ra,8(sp)
  8002e8:	df000115 	stw	fp,4(sp)
  8002ec:	df000104 	addi	fp,sp,4
  8002f0:	e13fff15 	stw	r4,-4(fp)
	AEI_TO = 1;
  8002f4:	00800044 	movi	r2,1
  8002f8:	d0a77345 	stb	r2,-25139(gp)
	alt_alarm_start(&AEI_Buffer_Timer, SIGNAL_BUFFER, AEI_Buffer_ISR, NULL);
  8002fc:	000f883a 	mov	r7,zero
  800300:	01802034 	movhi	r6,128
  800304:	31817304 	addi	r6,r6,1484
  800308:	01400044 	movi	r5,1
  80030c:	01002074 	movhi	r4,129
  800310:	211f6b04 	addi	r4,r4,32172
  800314:	080f9f80 	call	80f9f8 <alt_alarm_start>
	return 0;
  800318:	0005883a 	mov	r2,zero
}
  80031c:	e037883a 	mov	sp,fp
  800320:	dfc00117 	ldw	ra,4(sp)
  800324:	df000017 	ldw	fp,0(sp)
  800328:	dec00204 	addi	sp,sp,8
  80032c:	f800283a 	ret

00800330 <PVARP_ISR>:

alt_u32 PVARP_ISR(void* context) {
  800330:	defffd04 	addi	sp,sp,-12
  800334:	dfc00215 	stw	ra,8(sp)
  800338:	df000115 	stw	fp,4(sp)
  80033c:	df000104 	addi	fp,sp,4
  800340:	e13fff15 	stw	r4,-4(fp)
	PVARP_TO = 1;
  800344:	00800044 	movi	r2,1
  800348:	d0a77e05 	stb	r2,-25096(gp)
	alt_alarm_start(&PVARP_Buffer_Timer, SIGNAL_BUFFER, PVARP_Buffer_ISR, NULL);
  80034c:	000f883a 	mov	r7,zero
  800350:	01802034 	movhi	r6,128
  800354:	31818204 	addi	r6,r6,1544
  800358:	01400044 	movi	r5,1
  80035c:	01002074 	movhi	r4,129
  800360:	211f7104 	addi	r4,r4,32196
  800364:	080f9f80 	call	80f9f8 <alt_alarm_start>
	return 0;
  800368:	0005883a 	mov	r2,zero
}
  80036c:	e037883a 	mov	sp,fp
  800370:	dfc00117 	ldw	ra,4(sp)
  800374:	df000017 	ldw	fp,0(sp)
  800378:	dec00204 	addi	sp,sp,8
  80037c:	f800283a 	ret

00800380 <VRP_ISR>:

alt_u32 VRP_ISR(void* context) {
  800380:	defffd04 	addi	sp,sp,-12
  800384:	dfc00215 	stw	ra,8(sp)
  800388:	df000115 	stw	fp,4(sp)
  80038c:	df000104 	addi	fp,sp,4
  800390:	e13fff15 	stw	r4,-4(fp)
	VRP_TO = 1;
  800394:	00800044 	movi	r2,1
  800398:	d0a757c5 	stb	r2,-25249(gp)
	alt_alarm_start(&VRP_Buffer_Timer, SIGNAL_BUFFER, VRP_Buffer_ISR, NULL);
  80039c:	000f883a 	mov	r7,zero
  8003a0:	01802034 	movhi	r6,128
  8003a4:	31819104 	addi	r6,r6,1604
  8003a8:	01400044 	movi	r5,1
  8003ac:	01002074 	movhi	r4,129
  8003b0:	211f7704 	addi	r4,r4,32220
  8003b4:	080f9f80 	call	80f9f8 <alt_alarm_start>
	return 0;
  8003b8:	0005883a 	mov	r2,zero
}
  8003bc:	e037883a 	mov	sp,fp
  8003c0:	dfc00117 	ldw	ra,4(sp)
  8003c4:	df000017 	ldw	fp,0(sp)
  8003c8:	dec00204 	addi	sp,sp,8
  8003cc:	f800283a 	ret

008003d0 <LRI_ISR>:

alt_u32 LRI_ISR(void* context) {
  8003d0:	defffd04 	addi	sp,sp,-12
  8003d4:	dfc00215 	stw	ra,8(sp)
  8003d8:	df000115 	stw	fp,4(sp)
  8003dc:	df000104 	addi	fp,sp,4
  8003e0:	e13fff15 	stw	r4,-4(fp)
	LRI_TO = 1;
  8003e4:	00800044 	movi	r2,1
  8003e8:	d0a76005 	stb	r2,-25216(gp)
	alt_alarm_start(&LRI_Buffer_Timer, SIGNAL_BUFFER, LRI_Buffer_ISR, NULL);
  8003ec:	000f883a 	mov	r7,zero
  8003f0:	01802034 	movhi	r6,128
  8003f4:	3181a004 	addi	r6,r6,1664
  8003f8:	01400044 	movi	r5,1
  8003fc:	01002074 	movhi	r4,129
  800400:	211f7d04 	addi	r4,r4,32244
  800404:	080f9f80 	call	80f9f8 <alt_alarm_start>
	return 0;
  800408:	0005883a 	mov	r2,zero
}
  80040c:	e037883a 	mov	sp,fp
  800410:	dfc00117 	ldw	ra,4(sp)
  800414:	df000017 	ldw	fp,0(sp)
  800418:	dec00204 	addi	sp,sp,8
  80041c:	f800283a 	ret

00800420 <URI_ISR>:

alt_u32 URI_ISR(void* context) {
  800420:	defffd04 	addi	sp,sp,-12
  800424:	dfc00215 	stw	ra,8(sp)
  800428:	df000115 	stw	fp,4(sp)
  80042c:	df000104 	addi	fp,sp,4
  800430:	e13fff15 	stw	r4,-4(fp)
	URI_TO = 1;
  800434:	00800044 	movi	r2,1
  800438:	d0a781c5 	stb	r2,-25081(gp)
	alt_alarm_start(&URI_Buffer_Timer, SIGNAL_BUFFER, URI_Buffer_ISR, NULL);
  80043c:	000f883a 	mov	r7,zero
  800440:	01802034 	movhi	r6,128
  800444:	3181af04 	addi	r6,r6,1724
  800448:	01400044 	movi	r5,1
  80044c:	01002074 	movhi	r4,129
  800450:	211f8304 	addi	r4,r4,32268
  800454:	080f9f80 	call	80f9f8 <alt_alarm_start>
	return 0;
  800458:	0005883a 	mov	r2,zero
}
  80045c:	e037883a 	mov	sp,fp
  800460:	dfc00117 	ldw	ra,4(sp)
  800464:	df000017 	ldw	fp,0(sp)
  800468:	dec00204 	addi	sp,sp,8
  80046c:	f800283a 	ret

00800470 <LED_Atrial_ISR>:

// LED timers to make LEDs stay on for a length of time
alt_u32 LED_Atrial_ISR(void* context) {
  800470:	defffd04 	addi	sp,sp,-12
  800474:	dfc00215 	stw	ra,8(sp)
  800478:	df000115 	stw	fp,4(sp)
  80047c:	df000104 	addi	fp,sp,4
  800480:	e13fff15 	stw	r4,-4(fp)
	printf("%d", mode);
  800484:	d0a74a17 	ldw	r2,-25304(gp)
  800488:	100b883a 	mov	r5,r2
  80048c:	01002074 	movhi	r4,129
  800490:	210ec704 	addi	r4,r4,15132
  800494:	08045bc0 	call	8045bc <printf>
	printf("LED0\n");
  800498:	01002074 	movhi	r4,129
  80049c:	210ec804 	addi	r4,r4,15136
  8004a0:	08046b80 	call	8046b8 <puts>
	LEDAPace = 0;
  8004a4:	d0275015 	stw	zero,-25280(gp)
	return 0;
  8004a8:	0005883a 	mov	r2,zero
}
  8004ac:	e037883a 	mov	sp,fp
  8004b0:	dfc00117 	ldw	ra,4(sp)
  8004b4:	df000017 	ldw	fp,0(sp)
  8004b8:	dec00204 	addi	sp,sp,8
  8004bc:	f800283a 	ret

008004c0 <LED_Ventricular_ISR>:

alt_u32 LED_Ventricular_ISR(void* context) {
  8004c0:	defffd04 	addi	sp,sp,-12
  8004c4:	dfc00215 	stw	ra,8(sp)
  8004c8:	df000115 	stw	fp,4(sp)
  8004cc:	df000104 	addi	fp,sp,4
  8004d0:	e13fff15 	stw	r4,-4(fp)
	printf("%d", mode);
  8004d4:	d0a74a17 	ldw	r2,-25304(gp)
  8004d8:	100b883a 	mov	r5,r2
  8004dc:	01002074 	movhi	r4,129
  8004e0:	210ec704 	addi	r4,r4,15132
  8004e4:	08045bc0 	call	8045bc <printf>
	printf("LED1\n");
  8004e8:	01002074 	movhi	r4,129
  8004ec:	210eca04 	addi	r4,r4,15144
  8004f0:	08046b80 	call	8046b8 <puts>
	LEDVPace = 0;
  8004f4:	d0274f15 	stw	zero,-25284(gp)
	return 0;
  8004f8:	0005883a 	mov	r2,zero
}
  8004fc:	e037883a 	mov	sp,fp
  800500:	dfc00117 	ldw	ra,4(sp)
  800504:	df000017 	ldw	fp,0(sp)
  800508:	dec00204 	addi	sp,sp,8
  80050c:	f800283a 	ret

00800510 <A_Sense_ISR>:

// Timers that set the signal back to zero to prevent signal propagation through ticks in SCCharts.
alt_u32 A_Sense_ISR(void* context) {
  800510:	defffd04 	addi	sp,sp,-12
  800514:	dfc00215 	stw	ra,8(sp)
  800518:	df000115 	stw	fp,4(sp)
  80051c:	df000104 	addi	fp,sp,4
  800520:	e13fff15 	stw	r4,-4(fp)
	printf("A_Sense_Timer\n");
  800524:	01002074 	movhi	r4,129
  800528:	210ecc04 	addi	r4,r4,15152
  80052c:	08046b80 	call	8046b8 <puts>
	ASense = 0;
  800530:	d0276405 	stb	zero,-25200(gp)
	Flag = 0;
  800534:	d0274c15 	stw	zero,-25296(gp)
	return 0;
  800538:	0005883a 	mov	r2,zero
}
  80053c:	e037883a 	mov	sp,fp
  800540:	dfc00117 	ldw	ra,4(sp)
  800544:	df000017 	ldw	fp,0(sp)
  800548:	dec00204 	addi	sp,sp,8
  80054c:	f800283a 	ret

00800550 <V_Sense_ISR>:

alt_u32 V_Sense_ISR(void* context) {
  800550:	defffd04 	addi	sp,sp,-12
  800554:	dfc00215 	stw	ra,8(sp)
  800558:	df000115 	stw	fp,4(sp)
  80055c:	df000104 	addi	fp,sp,4
  800560:	e13fff15 	stw	r4,-4(fp)
	printf("V_Sense_Timer\n");
  800564:	01002074 	movhi	r4,129
  800568:	210ed004 	addi	r4,r4,15168
  80056c:	08046b80 	call	8046b8 <puts>
	VSense = 0;
  800570:	d0276c45 	stb	zero,-25167(gp)
	Flag = 0;
  800574:	d0274c15 	stw	zero,-25296(gp)
	return 0;
  800578:	0005883a 	mov	r2,zero
}
  80057c:	e037883a 	mov	sp,fp
  800580:	dfc00117 	ldw	ra,4(sp)
  800584:	df000017 	ldw	fp,0(sp)
  800588:	dec00204 	addi	sp,sp,8
  80058c:	f800283a 	ret

00800590 <AVI_Buffer_ISR>:

alt_u32 AVI_Buffer_ISR(void* context) {
  800590:	defffd04 	addi	sp,sp,-12
  800594:	dfc00215 	stw	ra,8(sp)
  800598:	df000115 	stw	fp,4(sp)
  80059c:	df000104 	addi	fp,sp,4
  8005a0:	e13fff15 	stw	r4,-4(fp)
	printf("AVI_Buffer_ISR\n");
  8005a4:	01002074 	movhi	r4,129
  8005a8:	210ed404 	addi	r4,r4,15184
  8005ac:	08046b80 	call	8046b8 <puts>
	AVI_TO = 0;
  8005b0:	d0275685 	stb	zero,-25254(gp)
	return 0;
  8005b4:	0005883a 	mov	r2,zero
}
  8005b8:	e037883a 	mov	sp,fp
  8005bc:	dfc00117 	ldw	ra,4(sp)
  8005c0:	df000017 	ldw	fp,0(sp)
  8005c4:	dec00204 	addi	sp,sp,8
  8005c8:	f800283a 	ret

008005cc <AEI_Buffer_ISR>:

alt_u32 AEI_Buffer_ISR(void* context) {
  8005cc:	defffd04 	addi	sp,sp,-12
  8005d0:	dfc00215 	stw	ra,8(sp)
  8005d4:	df000115 	stw	fp,4(sp)
  8005d8:	df000104 	addi	fp,sp,4
  8005dc:	e13fff15 	stw	r4,-4(fp)
	printf("AEI_Buffer_ISR\n");
  8005e0:	01002074 	movhi	r4,129
  8005e4:	210ed804 	addi	r4,r4,15200
  8005e8:	08046b80 	call	8046b8 <puts>
	AEI_TO = 0;
  8005ec:	d0277345 	stb	zero,-25139(gp)
	return 0;
  8005f0:	0005883a 	mov	r2,zero
}
  8005f4:	e037883a 	mov	sp,fp
  8005f8:	dfc00117 	ldw	ra,4(sp)
  8005fc:	df000017 	ldw	fp,0(sp)
  800600:	dec00204 	addi	sp,sp,8
  800604:	f800283a 	ret

00800608 <PVARP_Buffer_ISR>:

alt_u32 PVARP_Buffer_ISR(void* context) {
  800608:	defffd04 	addi	sp,sp,-12
  80060c:	dfc00215 	stw	ra,8(sp)
  800610:	df000115 	stw	fp,4(sp)
  800614:	df000104 	addi	fp,sp,4
  800618:	e13fff15 	stw	r4,-4(fp)
	printf("PVARP_Buffer_ISR\n");
  80061c:	01002074 	movhi	r4,129
  800620:	210edc04 	addi	r4,r4,15216
  800624:	08046b80 	call	8046b8 <puts>
	PVARP_TO = 0;
  800628:	d0277e05 	stb	zero,-25096(gp)
	return 0;
  80062c:	0005883a 	mov	r2,zero
}
  800630:	e037883a 	mov	sp,fp
  800634:	dfc00117 	ldw	ra,4(sp)
  800638:	df000017 	ldw	fp,0(sp)
  80063c:	dec00204 	addi	sp,sp,8
  800640:	f800283a 	ret

00800644 <VRP_Buffer_ISR>:

alt_u32 VRP_Buffer_ISR(void* context) {
  800644:	defffd04 	addi	sp,sp,-12
  800648:	dfc00215 	stw	ra,8(sp)
  80064c:	df000115 	stw	fp,4(sp)
  800650:	df000104 	addi	fp,sp,4
  800654:	e13fff15 	stw	r4,-4(fp)
	printf("VRP_Buffer_ISR\n");
  800658:	01002074 	movhi	r4,129
  80065c:	210ee104 	addi	r4,r4,15236
  800660:	08046b80 	call	8046b8 <puts>
	VRP_TO = 0;
  800664:	d02757c5 	stb	zero,-25249(gp)
	return 0;
  800668:	0005883a 	mov	r2,zero
}
  80066c:	e037883a 	mov	sp,fp
  800670:	dfc00117 	ldw	ra,4(sp)
  800674:	df000017 	ldw	fp,0(sp)
  800678:	dec00204 	addi	sp,sp,8
  80067c:	f800283a 	ret

00800680 <LRI_Buffer_ISR>:

alt_u32 LRI_Buffer_ISR(void* context) {
  800680:	defffd04 	addi	sp,sp,-12
  800684:	dfc00215 	stw	ra,8(sp)
  800688:	df000115 	stw	fp,4(sp)
  80068c:	df000104 	addi	fp,sp,4
  800690:	e13fff15 	stw	r4,-4(fp)
	printf("LRI_Buffer_ISR\n");
  800694:	01002074 	movhi	r4,129
  800698:	210ee504 	addi	r4,r4,15252
  80069c:	08046b80 	call	8046b8 <puts>
	LRI_TO = 0;
  8006a0:	d0276005 	stb	zero,-25216(gp)
	return 0;
  8006a4:	0005883a 	mov	r2,zero
}
  8006a8:	e037883a 	mov	sp,fp
  8006ac:	dfc00117 	ldw	ra,4(sp)
  8006b0:	df000017 	ldw	fp,0(sp)
  8006b4:	dec00204 	addi	sp,sp,8
  8006b8:	f800283a 	ret

008006bc <URI_Buffer_ISR>:

alt_u32 URI_Buffer_ISR(void* context) {
  8006bc:	defffd04 	addi	sp,sp,-12
  8006c0:	dfc00215 	stw	ra,8(sp)
  8006c4:	df000115 	stw	fp,4(sp)
  8006c8:	df000104 	addi	fp,sp,4
  8006cc:	e13fff15 	stw	r4,-4(fp)
	printf("URI_Buffer_ISR\n");
  8006d0:	01002074 	movhi	r4,129
  8006d4:	210ee904 	addi	r4,r4,15268
  8006d8:	08046b80 	call	8046b8 <puts>
	URI_TO = 0;
  8006dc:	d02781c5 	stb	zero,-25081(gp)
	return 0;
  8006e0:	0005883a 	mov	r2,zero
}
  8006e4:	e037883a 	mov	sp,fp
  8006e8:	dfc00117 	ldw	ra,4(sp)
  8006ec:	df000017 	ldw	fp,0(sp)
  8006f0:	dec00204 	addi	sp,sp,8
  8006f4:	f800283a 	ret

008006f8 <TimerConfig>:

/*
 * Starts and stops timers based on inputs from the
 * SCCharts generated code.
 */
void TimerConfig() {
  8006f8:	defffe04 	addi	sp,sp,-8
  8006fc:	dfc00115 	stw	ra,4(sp)
  800700:	df000015 	stw	fp,0(sp)
  800704:	d839883a 	mov	fp,sp
	// Stopping and starting the timers for the SCCharts
	if (AVI_start > 0) {
  800708:	d0a75b83 	ldbu	r2,-25234(gp)
  80070c:	10803fcc 	andi	r2,r2,255
  800710:	1080201c 	xori	r2,r2,128
  800714:	10bfe004 	addi	r2,r2,-128
  800718:	00800b0e 	bge	zero,r2,800748 <TimerConfig+0x50>
		AVI_TO = 0;
  80071c:	d0275685 	stb	zero,-25254(gp)
		alt_alarm_stop(&AVI_Timer);
  800720:	01002074 	movhi	r4,129
  800724:	211f2904 	addi	r4,r4,31908
  800728:	08105880 	call	810588 <alt_alarm_stop>
		alt_alarm_start(&AVI_Timer, AVI_VALUE, AVI_ISR, NULL);
  80072c:	000f883a 	mov	r7,zero
  800730:	01802034 	movhi	r6,128
  800734:	3180a404 	addi	r6,r6,656
  800738:	01404b04 	movi	r5,300
  80073c:	01002074 	movhi	r4,129
  800740:	211f2904 	addi	r4,r4,31908
  800744:	080f9f80 	call	80f9f8 <alt_alarm_start>
	}
	if (PVARP_start > 0) {
  800748:	d0a77243 	ldbu	r2,-25143(gp)
  80074c:	10803fcc 	andi	r2,r2,255
  800750:	1080201c 	xori	r2,r2,128
  800754:	10bfe004 	addi	r2,r2,-128
  800758:	00800b0e 	bge	zero,r2,800788 <TimerConfig+0x90>
		PVARP_TO = 0;
  80075c:	d0277e05 	stb	zero,-25096(gp)
		alt_alarm_stop(&PVARP_Timer);
  800760:	01002074 	movhi	r4,129
  800764:	211f3504 	addi	r4,r4,31956
  800768:	08105880 	call	810588 <alt_alarm_stop>
		alt_alarm_start(&PVARP_Timer, PVARP_VALUE, PVARP_ISR, NULL);
  80076c:	000f883a 	mov	r7,zero
  800770:	01802034 	movhi	r6,128
  800774:	3180cc04 	addi	r6,r6,816
  800778:	01400c84 	movi	r5,50
  80077c:	01002074 	movhi	r4,129
  800780:	211f3504 	addi	r4,r4,31956
  800784:	080f9f80 	call	80f9f8 <alt_alarm_start>
	}
	if (VRP_start > 0) {
  800788:	d0a76d43 	ldbu	r2,-25163(gp)
  80078c:	10803fcc 	andi	r2,r2,255
  800790:	1080201c 	xori	r2,r2,128
  800794:	10bfe004 	addi	r2,r2,-128
  800798:	0080080e 	bge	zero,r2,8007bc <TimerConfig+0xc4>
		VRP_TO = 0;
  80079c:	d02757c5 	stb	zero,-25249(gp)
		alt_alarm_start(&VRP_Timer, VRP_VALUE, VRP_ISR, NULL);
  8007a0:	000f883a 	mov	r7,zero
  8007a4:	01802034 	movhi	r6,128
  8007a8:	3180e004 	addi	r6,r6,896
  8007ac:	01402584 	movi	r5,150
  8007b0:	01002074 	movhi	r4,129
  8007b4:	211f3b04 	addi	r4,r4,31980
  8007b8:	080f9f80 	call	80f9f8 <alt_alarm_start>
	}
	if (AEI_start > 0) {
  8007bc:	d0a775c3 	ldbu	r2,-25129(gp)
  8007c0:	10803fcc 	andi	r2,r2,255
  8007c4:	1080201c 	xori	r2,r2,128
  8007c8:	10bfe004 	addi	r2,r2,-128
  8007cc:	00800b0e 	bge	zero,r2,8007fc <TimerConfig+0x104>
		AEI_TO = 0;
  8007d0:	d0277345 	stb	zero,-25139(gp)
		alt_alarm_stop(&AEI_Timer);
  8007d4:	01002074 	movhi	r4,129
  8007d8:	211f2f04 	addi	r4,r4,31932
  8007dc:	08105880 	call	810588 <alt_alarm_stop>
		alt_alarm_start(&AEI_Timer, AEI_VALUE, AEI_ISR, NULL);
  8007e0:	000f883a 	mov	r7,zero
  8007e4:	01802034 	movhi	r6,128
  8007e8:	3180b804 	addi	r6,r6,736
  8007ec:	0140c804 	movi	r5,800
  8007f0:	01002074 	movhi	r4,129
  8007f4:	211f2f04 	addi	r4,r4,31932
  8007f8:	080f9f80 	call	80f9f8 <alt_alarm_start>
	}
	if (LRI_start > 0) {
  8007fc:	d0a76f03 	ldbu	r2,-25156(gp)
  800800:	10803fcc 	andi	r2,r2,255
  800804:	1080201c 	xori	r2,r2,128
  800808:	10bfe004 	addi	r2,r2,-128
  80080c:	0080080e 	bge	zero,r2,800830 <TimerConfig+0x138>
		LRI_TO = 0;
  800810:	d0276005 	stb	zero,-25216(gp)
		alt_alarm_start(&LRI_Timer, LRI_VALUE, LRI_ISR, NULL);
  800814:	000f883a 	mov	r7,zero
  800818:	01802034 	movhi	r6,128
  80081c:	3180f404 	addi	r6,r6,976
  800820:	0140ed84 	movi	r5,950
  800824:	01002074 	movhi	r4,129
  800828:	211f4104 	addi	r4,r4,32004
  80082c:	080f9f80 	call	80f9f8 <alt_alarm_start>
	}
	if (URI_start > 0) {
  800830:	d0a78283 	ldbu	r2,-25078(gp)
  800834:	10803fcc 	andi	r2,r2,255
  800838:	1080201c 	xori	r2,r2,128
  80083c:	10bfe004 	addi	r2,r2,-128
  800840:	00800b0e 	bge	zero,r2,800870 <TimerConfig+0x178>
		URI_TO = 0;
  800844:	d02781c5 	stb	zero,-25081(gp)
		alt_alarm_stop(&URI_Timer);
  800848:	01002074 	movhi	r4,129
  80084c:	211f4704 	addi	r4,r4,32028
  800850:	08105880 	call	810588 <alt_alarm_stop>
		alt_alarm_start(&URI_Timer, URI_VALUE, URI_ISR, NULL);
  800854:	000f883a 	mov	r7,zero
  800858:	01802034 	movhi	r6,128
  80085c:	31810804 	addi	r6,r6,1056
  800860:	0140e104 	movi	r5,900
  800864:	01002074 	movhi	r4,129
  800868:	211f4704 	addi	r4,r4,32028
  80086c:	080f9f80 	call	80f9f8 <alt_alarm_start>
	}

	// Stopping the timers for the SCCharts
	if (AVI_stop > 0) {
  800870:	d0a75dc3 	ldbu	r2,-25225(gp)
  800874:	10803fcc 	andi	r2,r2,255
  800878:	1080201c 	xori	r2,r2,128
  80087c:	10bfe004 	addi	r2,r2,-128
  800880:	0080040e 	bge	zero,r2,800894 <TimerConfig+0x19c>
		alt_alarm_stop(&AVI_Timer);
  800884:	01002074 	movhi	r4,129
  800888:	211f2904 	addi	r4,r4,31908
  80088c:	08105880 	call	810588 <alt_alarm_stop>
		AVI_TO = 0;
  800890:	d0275685 	stb	zero,-25254(gp)
	}
	if (AEI_stop > 0) {
  800894:	d0a78203 	ldbu	r2,-25080(gp)
  800898:	10803fcc 	andi	r2,r2,255
  80089c:	1080201c 	xori	r2,r2,128
  8008a0:	10bfe004 	addi	r2,r2,-128
  8008a4:	0080040e 	bge	zero,r2,8008b8 <TimerConfig+0x1c0>
		alt_alarm_stop(&AEI_Timer);
  8008a8:	01002074 	movhi	r4,129
  8008ac:	211f2f04 	addi	r4,r4,31932
  8008b0:	08105880 	call	810588 <alt_alarm_stop>
		AEI_TO = 0;
  8008b4:	d0277345 	stb	zero,-25139(gp)
	}
	if (LRI_stop > 0) {
  8008b8:	d0a76303 	ldbu	r2,-25204(gp)
  8008bc:	10803fcc 	andi	r2,r2,255
  8008c0:	1080201c 	xori	r2,r2,128
  8008c4:	10bfe004 	addi	r2,r2,-128
  8008c8:	0080040e 	bge	zero,r2,8008dc <TimerConfig+0x1e4>
		alt_alarm_stop(&LRI_Timer);
  8008cc:	01002074 	movhi	r4,129
  8008d0:	211f4104 	addi	r4,r4,32004
  8008d4:	08105880 	call	810588 <alt_alarm_stop>
		LRI_TO = 0;
  8008d8:	d0276005 	stb	zero,-25216(gp)
	}
	if (URI_stop > 0) {
  8008dc:	d0a78343 	ldbu	r2,-25075(gp)
  8008e0:	10803fcc 	andi	r2,r2,255
  8008e4:	1080201c 	xori	r2,r2,128
  8008e8:	10bfe004 	addi	r2,r2,-128
  8008ec:	0080040e 	bge	zero,r2,800900 <TimerConfig+0x208>
		alt_alarm_stop(&URI_Timer);
  8008f0:	01002074 	movhi	r4,129
  8008f4:	211f4704 	addi	r4,r4,32028
  8008f8:	08105880 	call	810588 <alt_alarm_stop>
		URI_TO = 0;
  8008fc:	d02781c5 	stb	zero,-25081(gp)
	}
}
  800900:	0001883a 	nop
  800904:	e037883a 	mov	sp,fp
  800908:	dfc00117 	ldw	ra,4(sp)
  80090c:	df000017 	ldw	fp,0(sp)
  800910:	dec00204 	addi	sp,sp,8
  800914:	f800283a 	ret

00800918 <ButtonPolling>:

void ButtonPolling() {
  800918:	defffb04 	addi	sp,sp,-20
  80091c:	dfc00415 	stw	ra,16(sp)
  800920:	df000315 	stw	fp,12(sp)
  800924:	df000304 	addi	fp,sp,12
	// Check if a button was pressed
	unsigned keyval = 0;
  800928:	e03ffd15 	stw	zero,-12(fp)
	keyval = IORD_ALTERA_AVALON_PIO_DATA(BUTTONS_BASE);
  80092c:	00804434 	movhi	r2,272
  800930:	10842804 	addi	r2,r2,4256
  800934:	10800037 	ldwio	r2,0(r2)
  800938:	e0bffd15 	stw	r2,-12(fp)
	int key0 = keyval & 0x01;
  80093c:	e0bffd17 	ldw	r2,-12(fp)
  800940:	1080004c 	andi	r2,r2,1
  800944:	e0bffe15 	stw	r2,-8(fp)
	int key1 = keyval & 0x02;
  800948:	e0bffd17 	ldw	r2,-12(fp)
  80094c:	1080008c 	andi	r2,r2,2
  800950:	e0bfff15 	stw	r2,-4(fp)

	// Key 0 simulates the Ventricular
	if (key0 == 0) {
  800954:	e0bffe17 	ldw	r2,-8(fp)
  800958:	1000111e 	bne	r2,zero,8009a0 <ButtonPolling+0x88>
		if (t_key2 == 0) {
  80095c:	d0a74e17 	ldw	r2,-25288(gp)
  800960:	10000c1e 	bne	r2,zero,800994 <ButtonPolling+0x7c>
			VSense = 1;
  800964:	00800044 	movi	r2,1
  800968:	d0a76c45 	stb	r2,-25167(gp)
			alt_alarm_start(&V_Sense_Timer, SIGNAL_BUFFER, V_Sense_ISR,
  80096c:	000f883a 	mov	r7,zero
  800970:	01802034 	movhi	r6,128
  800974:	31815404 	addi	r6,r6,1360
  800978:	01400044 	movi	r5,1
  80097c:	01002074 	movhi	r4,129
  800980:	211f5f04 	addi	r4,r4,32124
  800984:	080f9f80 	call	80f9f8 <alt_alarm_start>
			NULL);
			printf("Button0 ");
  800988:	01002074 	movhi	r4,129
  80098c:	210eed04 	addi	r4,r4,15284
  800990:	08045bc0 	call	8045bc <printf>
		}
		t_key2 = 1;
  800994:	00800044 	movi	r2,1
  800998:	d0a74e15 	stw	r2,-25288(gp)
  80099c:	00000106 	br	8009a4 <ButtonPolling+0x8c>
	} else {
		t_key2 = 0;
  8009a0:	d0274e15 	stw	zero,-25288(gp)
	}

	// Key 1 simulates the Atrial
	if (key1 == 0) {
  8009a4:	e0bfff17 	ldw	r2,-4(fp)
  8009a8:	1000111e 	bne	r2,zero,8009f0 <ButtonPolling+0xd8>
		if (t_key1 == 0) {
  8009ac:	d0a74d17 	ldw	r2,-25292(gp)
  8009b0:	10000c1e 	bne	r2,zero,8009e4 <ButtonPolling+0xcc>
			ASense = 1;
  8009b4:	00800044 	movi	r2,1
  8009b8:	d0a76405 	stb	r2,-25200(gp)
			alt_alarm_start(&A_Sense_Timer, SIGNAL_BUFFER, A_Sense_ISR,
  8009bc:	000f883a 	mov	r7,zero
  8009c0:	01802034 	movhi	r6,128
  8009c4:	31814404 	addi	r6,r6,1296
  8009c8:	01400044 	movi	r5,1
  8009cc:	01002074 	movhi	r4,129
  8009d0:	211f5904 	addi	r4,r4,32100
  8009d4:	080f9f80 	call	80f9f8 <alt_alarm_start>
			NULL);
			printf("Button1 ");
  8009d8:	01002074 	movhi	r4,129
  8009dc:	210ef004 	addi	r4,r4,15296
  8009e0:	08045bc0 	call	8045bc <printf>
		}
		t_key1 = 1;
  8009e4:	00800044 	movi	r2,1
  8009e8:	d0a74d15 	stw	r2,-25292(gp)
	} else {
		t_key1 = 0;
	}
}
  8009ec:	00000106 	br	8009f4 <ButtonPolling+0xdc>
			NULL);
			printf("Button1 ");
		}
		t_key1 = 1;
	} else {
		t_key1 = 0;
  8009f0:	d0274d15 	stw	zero,-25292(gp)
	}
}
  8009f4:	0001883a 	nop
  8009f8:	e037883a 	mov	sp,fp
  8009fc:	dfc00117 	ldw	ra,4(sp)
  800a00:	df000017 	ldw	fp,0(sp)
  800a04:	dec00204 	addi	sp,sp,8
  800a08:	f800283a 	ret

00800a0c <AVLEDS>:

void AVLEDS() {
  800a0c:	defffe04 	addi	sp,sp,-8
  800a10:	dfc00115 	stw	ra,4(sp)
  800a14:	df000015 	stw	fp,0(sp)
  800a18:	d839883a 	mov	fp,sp
	// Send pacing signals to UART
	if (APace > 0) {
  800a1c:	d0a756c3 	ldbu	r2,-25253(gp)
  800a20:	10803fcc 	andi	r2,r2,255
  800a24:	1080201c 	xori	r2,r2,128
  800a28:	10bfe004 	addi	r2,r2,-128
  800a2c:	0080190e 	bge	zero,r2,800a94 <AVLEDS+0x88>
		if (mode == 1) {
  800a30:	d0a74a17 	ldw	r2,-25304(gp)
  800a34:	10800058 	cmpnei	r2,r2,1
  800a38:	10000a1e 	bne	r2,zero,800a64 <AVLEDS+0x58>
			fprintf(fp, "\nA");
  800a3c:	d0a75317 	ldw	r2,-25268(gp)
  800a40:	100f883a 	mov	r7,r2
  800a44:	01800084 	movi	r6,2
  800a48:	01400044 	movi	r5,1
  800a4c:	01002074 	movhi	r4,129
  800a50:	210ef304 	addi	r4,r4,15308
  800a54:	0803a080 	call	803a08 <fwrite>
			fflush(fp);
  800a58:	d0a75317 	ldw	r2,-25268(gp)
  800a5c:	1009883a 	mov	r4,r2
  800a60:	080297c0 	call	80297c <fflush>
		}
		// Start LED timer for LED to stay on for a length of time
		LEDAPace = 1;
  800a64:	00800044 	movi	r2,1
  800a68:	d0a75015 	stw	r2,-25280(gp)
		alt_alarm_stop(&LED_Atrial_Timer);
  800a6c:	01002074 	movhi	r4,129
  800a70:	211f4d04 	addi	r4,r4,32052
  800a74:	08105880 	call	810588 <alt_alarm_stop>
		alt_alarm_start(&LED_Atrial_Timer, LED_BUFFER, LED_Atrial_ISR, NULL);
  800a78:	000f883a 	mov	r7,zero
  800a7c:	01802034 	movhi	r6,128
  800a80:	31811c04 	addi	r6,r6,1136
  800a84:	01403204 	movi	r5,200
  800a88:	01002074 	movhi	r4,129
  800a8c:	211f4d04 	addi	r4,r4,32052
  800a90:	080f9f80 	call	80f9f8 <alt_alarm_start>
	}
	if (VPace > 0) {
  800a94:	d0a77fc3 	ldbu	r2,-25089(gp)
  800a98:	10803fcc 	andi	r2,r2,255
  800a9c:	1080201c 	xori	r2,r2,128
  800aa0:	10bfe004 	addi	r2,r2,-128
  800aa4:	0080190e 	bge	zero,r2,800b0c <AVLEDS+0x100>
		if (mode == 1) {
  800aa8:	d0a74a17 	ldw	r2,-25304(gp)
  800aac:	10800058 	cmpnei	r2,r2,1
  800ab0:	10000a1e 	bne	r2,zero,800adc <AVLEDS+0xd0>
			fprintf(fp, "\nV");
  800ab4:	d0a75317 	ldw	r2,-25268(gp)
  800ab8:	100f883a 	mov	r7,r2
  800abc:	01800084 	movi	r6,2
  800ac0:	01400044 	movi	r5,1
  800ac4:	01002074 	movhi	r4,129
  800ac8:	210ef404 	addi	r4,r4,15312
  800acc:	0803a080 	call	803a08 <fwrite>
			fflush(fp);
  800ad0:	d0a75317 	ldw	r2,-25268(gp)
  800ad4:	1009883a 	mov	r4,r2
  800ad8:	080297c0 	call	80297c <fflush>
		}
		// Start LED timer for LED to stay on for a length of time
		LEDVPace = 1;
  800adc:	00800044 	movi	r2,1
  800ae0:	d0a74f15 	stw	r2,-25284(gp)
		alt_alarm_stop(&LED_Ventricular_Timer);
  800ae4:	01002074 	movhi	r4,129
  800ae8:	211f5304 	addi	r4,r4,32076
  800aec:	08105880 	call	810588 <alt_alarm_stop>
		alt_alarm_start(&LED_Ventricular_Timer, LED_BUFFER, LED_Ventricular_ISR,
  800af0:	000f883a 	mov	r7,zero
  800af4:	01802034 	movhi	r6,128
  800af8:	31813004 	addi	r6,r6,1216
  800afc:	01403204 	movi	r5,200
  800b00:	01002074 	movhi	r4,129
  800b04:	211f5304 	addi	r4,r4,32076
  800b08:	080f9f80 	call	80f9f8 <alt_alarm_start>
		NULL);
	}
	// Change the state of the LED
	if (LEDVPace > 0) {
  800b0c:	d0a74f17 	ldw	r2,-25284(gp)
  800b10:	10000e26 	beq	r2,zero,800b4c <AVLEDS+0x140>
		if (LEDAPace > 0)
  800b14:	d0a75017 	ldw	r2,-25280(gp)
  800b18:	10000626 	beq	r2,zero,800b34 <AVLEDS+0x128>
			IOWR_ALTERA_AVALON_PIO_DATA(LEDS_GREEN_BASE, LED[3]);
  800b1c:	d0a000c3 	ldbu	r2,-32765(gp)
  800b20:	10c03fcc 	andi	r3,r2,255
  800b24:	00804434 	movhi	r2,272
  800b28:	10841c04 	addi	r2,r2,4208
  800b2c:	10c00035 	stwio	r3,0(r2)
		if (LEDAPace > 0)
			IOWR_ALTERA_AVALON_PIO_DATA(LEDS_GREEN_BASE, LED[2]);
		else
			IOWR_ALTERA_AVALON_PIO_DATA(LEDS_GREEN_BASE, LED[0]);
	}
}
  800b30:	00001306 	br	800b80 <AVLEDS+0x174>
	// Change the state of the LED
	if (LEDVPace > 0) {
		if (LEDAPace > 0)
			IOWR_ALTERA_AVALON_PIO_DATA(LEDS_GREEN_BASE, LED[3]);
		else
			IOWR_ALTERA_AVALON_PIO_DATA(LEDS_GREEN_BASE, LED[1]);
  800b34:	d0a00043 	ldbu	r2,-32767(gp)
  800b38:	10c03fcc 	andi	r3,r2,255
  800b3c:	00804434 	movhi	r2,272
  800b40:	10841c04 	addi	r2,r2,4208
  800b44:	10c00035 	stwio	r3,0(r2)
		if (LEDAPace > 0)
			IOWR_ALTERA_AVALON_PIO_DATA(LEDS_GREEN_BASE, LED[2]);
		else
			IOWR_ALTERA_AVALON_PIO_DATA(LEDS_GREEN_BASE, LED[0]);
	}
}
  800b48:	00000d06 	br	800b80 <AVLEDS+0x174>
		if (LEDAPace > 0)
			IOWR_ALTERA_AVALON_PIO_DATA(LEDS_GREEN_BASE, LED[3]);
		else
			IOWR_ALTERA_AVALON_PIO_DATA(LEDS_GREEN_BASE, LED[1]);
	} else {
		if (LEDAPace > 0)
  800b4c:	d0a75017 	ldw	r2,-25280(gp)
  800b50:	10000626 	beq	r2,zero,800b6c <AVLEDS+0x160>
			IOWR_ALTERA_AVALON_PIO_DATA(LEDS_GREEN_BASE, LED[2]);
  800b54:	d0a00083 	ldbu	r2,-32766(gp)
  800b58:	10c03fcc 	andi	r3,r2,255
  800b5c:	00804434 	movhi	r2,272
  800b60:	10841c04 	addi	r2,r2,4208
  800b64:	10c00035 	stwio	r3,0(r2)
		else
			IOWR_ALTERA_AVALON_PIO_DATA(LEDS_GREEN_BASE, LED[0]);
	}
}
  800b68:	00000506 	br	800b80 <AVLEDS+0x174>
			IOWR_ALTERA_AVALON_PIO_DATA(LEDS_GREEN_BASE, LED[1]);
	} else {
		if (LEDAPace > 0)
			IOWR_ALTERA_AVALON_PIO_DATA(LEDS_GREEN_BASE, LED[2]);
		else
			IOWR_ALTERA_AVALON_PIO_DATA(LEDS_GREEN_BASE, LED[0]);
  800b6c:	d0a00003 	ldbu	r2,-32768(gp)
  800b70:	10c03fcc 	andi	r3,r2,255
  800b74:	00804434 	movhi	r2,272
  800b78:	10841c04 	addi	r2,r2,4208
  800b7c:	10c00035 	stwio	r3,0(r2)
	}
}
  800b80:	0001883a 	nop
  800b84:	e037883a 	mov	sp,fp
  800b88:	dfc00117 	ldw	ra,4(sp)
  800b8c:	df000017 	ldw	fp,0(sp)
  800b90:	dec00204 	addi	sp,sp,8
  800b94:	f800283a 	ret

00800b98 <handle_mode_switch>:

void handle_mode_switch() {
  800b98:	defffe04 	addi	sp,sp,-8
  800b9c:	dfc00115 	stw	ra,4(sp)
  800ba0:	df000015 	stw	fp,0(sp)
  800ba4:	d839883a 	mov	fp,sp
	// Check switch 0 only
	ModeChange = IORD_ALTERA_AVALON_PIO_DATA(SWITCHES_BASE) & 0x01;
  800ba8:	00804434 	movhi	r2,272
  800bac:	10842404 	addi	r2,r2,4240
  800bb0:	10800037 	ldwio	r2,0(r2)
  800bb4:	1080004c 	andi	r2,r2,1
  800bb8:	d0a74b15 	stw	r2,-25300(gp)

	//Check for mode change
	if ((ModeChange != mode)) {
  800bbc:	d0e74b17 	ldw	r3,-25300(gp)
  800bc0:	d0a74a17 	ldw	r2,-25304(gp)
  800bc4:	18800526 	beq	r3,r2,800bdc <handle_mode_switch+0x44>
		mode = ModeChange;
  800bc8:	d0a74b17 	ldw	r2,-25300(gp)
  800bcc:	d0a74a15 	stw	r2,-25304(gp)
		lcd_set_mode(mode);
  800bd0:	d0a74a17 	ldw	r2,-25304(gp)
  800bd4:	1009883a 	mov	r4,r2
  800bd8:	0800d0c0 	call	800d0c <lcd_set_mode>
	}
}
  800bdc:	0001883a 	nop
  800be0:	e037883a 	mov	sp,fp
  800be4:	dfc00117 	ldw	ra,4(sp)
  800be8:	df000017 	ldw	fp,0(sp)
  800bec:	dec00204 	addi	sp,sp,8
  800bf0:	f800283a 	ret

00800bf4 <uart>:

void uart() {
  800bf4:	defffe04 	addi	sp,sp,-8
  800bf8:	dfc00115 	stw	ra,4(sp)
  800bfc:	df000015 	stw	fp,0(sp)
  800c00:	d839883a 	mov	fp,sp
	//if a byte has been read
	if (read(up, byte, 1) > 0) {
  800c04:	d0a75417 	ldw	r2,-25264(gp)
  800c08:	d0e75517 	ldw	r3,-25260(gp)
  800c0c:	01800044 	movi	r6,1
  800c10:	180b883a 	mov	r5,r3
  800c14:	1009883a 	mov	r4,r2
  800c18:	08103780 	call	810378 <read>
  800c1c:	0080330e 	bge	zero,r2,800cec <uart+0xf8>
		if (*byte == 'A') {
  800c20:	d0a75517 	ldw	r2,-25260(gp)
  800c24:	10800003 	ldbu	r2,0(r2)
  800c28:	10803fcc 	andi	r2,r2,255
  800c2c:	1080201c 	xori	r2,r2,128
  800c30:	10bfe004 	addi	r2,r2,-128
  800c34:	10801058 	cmpnei	r2,r2,65
  800c38:	1000111e 	bne	r2,zero,800c80 <uart+0x8c>
			if (Flag == 0) {
  800c3c:	d0a74c17 	ldw	r2,-25296(gp)
  800c40:	10002c1e 	bne	r2,zero,800cf4 <uart+0x100>
				ASense = 1; //set ASense high
  800c44:	00800044 	movi	r2,1
  800c48:	d0a76405 	stb	r2,-25200(gp)
				alt_alarm_start(&A_Sense_Timer, SIGNAL_BUFFER, A_Sense_ISR,
  800c4c:	000f883a 	mov	r7,zero
  800c50:	01802034 	movhi	r6,128
  800c54:	31814404 	addi	r6,r6,1296
  800c58:	01400044 	movi	r5,1
  800c5c:	01002074 	movhi	r4,129
  800c60:	211f5904 	addi	r4,r4,32100
  800c64:	080f9f80 	call	80f9f8 <alt_alarm_start>
				NULL);
				Flag = 1;
  800c68:	00800044 	movi	r2,1
  800c6c:	d0a74c15 	stw	r2,-25296(gp)
				printf("ASense UART\n");
  800c70:	01002074 	movhi	r4,129
  800c74:	210ef504 	addi	r4,r4,15316
  800c78:	08046b80 	call	8046b8 <puts>
		//reset buffers if nothing read
		VSense = 0;
		ASense = 0;
	}

}
  800c7c:	00001d06 	br	800cf4 <uart+0x100>
				alt_alarm_start(&A_Sense_Timer, SIGNAL_BUFFER, A_Sense_ISR,
				NULL);
				Flag = 1;
				printf("ASense UART\n");
			}
		} else if (*byte == 'V') {
  800c80:	d0a75517 	ldw	r2,-25260(gp)
  800c84:	10800003 	ldbu	r2,0(r2)
  800c88:	10803fcc 	andi	r2,r2,255
  800c8c:	1080201c 	xori	r2,r2,128
  800c90:	10bfe004 	addi	r2,r2,-128
  800c94:	10801598 	cmpnei	r2,r2,86
  800c98:	1000111e 	bne	r2,zero,800ce0 <uart+0xec>
			if (Flag == 0) {
  800c9c:	d0a74c17 	ldw	r2,-25296(gp)
  800ca0:	1000141e 	bne	r2,zero,800cf4 <uart+0x100>
				VSense = 1; //set VSense high
  800ca4:	00800044 	movi	r2,1
  800ca8:	d0a76c45 	stb	r2,-25167(gp)
				alt_alarm_start(&V_Sense_Timer, SIGNAL_BUFFER, V_Sense_ISR,
  800cac:	000f883a 	mov	r7,zero
  800cb0:	01802034 	movhi	r6,128
  800cb4:	31815404 	addi	r6,r6,1360
  800cb8:	01400044 	movi	r5,1
  800cbc:	01002074 	movhi	r4,129
  800cc0:	211f5f04 	addi	r4,r4,32124
  800cc4:	080f9f80 	call	80f9f8 <alt_alarm_start>
				NULL);
				Flag = 1;
  800cc8:	00800044 	movi	r2,1
  800ccc:	d0a74c15 	stw	r2,-25296(gp)
				printf("VSense UART\n");
  800cd0:	01002074 	movhi	r4,129
  800cd4:	210ef804 	addi	r4,r4,15328
  800cd8:	08046b80 	call	8046b8 <puts>
		//reset buffers if nothing read
		VSense = 0;
		ASense = 0;
	}

}
  800cdc:	00000506 	br	800cf4 <uart+0x100>
				Flag = 1;
				printf("VSense UART\n");
			}
		} else {
			//reset buffers if invalid data
			VSense = 0;
  800ce0:	d0276c45 	stb	zero,-25167(gp)
			ASense = 0;
  800ce4:	d0276405 	stb	zero,-25200(gp)
		//reset buffers if nothing read
		VSense = 0;
		ASense = 0;
	}

}
  800ce8:	00000206 	br	800cf4 <uart+0x100>
			VSense = 0;
			ASense = 0;
		}
	} else {
		//reset buffers if nothing read
		VSense = 0;
  800cec:	d0276c45 	stb	zero,-25167(gp)
		ASense = 0;
  800cf0:	d0276405 	stb	zero,-25200(gp)
	}

}
  800cf4:	0001883a 	nop
  800cf8:	e037883a 	mov	sp,fp
  800cfc:	dfc00117 	ldw	ra,4(sp)
  800d00:	df000017 	ldw	fp,0(sp)
  800d04:	dec00204 	addi	sp,sp,8
  800d08:	f800283a 	ret

00800d0c <lcd_set_mode>:

void lcd_set_mode(unsigned int mode) {
  800d0c:	defffd04 	addi	sp,sp,-12
  800d10:	dfc00215 	stw	ra,8(sp)
  800d14:	df000115 	stw	fp,4(sp)
  800d18:	df000104 	addi	fp,sp,4
  800d1c:	e13fff15 	stw	r4,-4(fp)
	if (lcd != NULL) {
  800d20:	d0a75217 	ldw	r2,-25272(gp)
  800d24:	10002126 	beq	r2,zero,800dac <lcd_set_mode+0xa0>
		fprintf(lcd, "%c%s", 27, "[2J");
  800d28:	d0a75217 	ldw	r2,-25272(gp)
  800d2c:	01c02074 	movhi	r7,129
  800d30:	39cefb04 	addi	r7,r7,15340
  800d34:	018006c4 	movi	r6,27
  800d38:	01402074 	movhi	r5,129
  800d3c:	294efc04 	addi	r5,r5,15344
  800d40:	1009883a 	mov	r4,r2
  800d44:	0802e800 	call	802e80 <fprintf>
		fprintf(lcd, "Mode: %d\n", mode + 1);
  800d48:	d0e75217 	ldw	r3,-25272(gp)
  800d4c:	e0bfff17 	ldw	r2,-4(fp)
  800d50:	10800044 	addi	r2,r2,1
  800d54:	100d883a 	mov	r6,r2
  800d58:	01402074 	movhi	r5,129
  800d5c:	294efe04 	addi	r5,r5,15352
  800d60:	1809883a 	mov	r4,r3
  800d64:	0802e800 	call	802e80 <fprintf>
		if (mode == 0) {
  800d68:	e0bfff17 	ldw	r2,-4(fp)
  800d6c:	1000081e 	bne	r2,zero,800d90 <lcd_set_mode+0x84>
			fprintf(lcd, "Buttons\n");
  800d70:	d0a75217 	ldw	r2,-25272(gp)
  800d74:	100f883a 	mov	r7,r2
  800d78:	01800204 	movi	r6,8
  800d7c:	01400044 	movi	r5,1
  800d80:	01002074 	movhi	r4,129
  800d84:	210f0104 	addi	r4,r4,15364
  800d88:	0803a080 	call	803a08 <fwrite>
		} else {
			fprintf(lcd, "UART\n");
		}
	}
}
  800d8c:	00000706 	br	800dac <lcd_set_mode+0xa0>
		fprintf(lcd, "%c%s", 27, "[2J");
		fprintf(lcd, "Mode: %d\n", mode + 1);
		if (mode == 0) {
			fprintf(lcd, "Buttons\n");
		} else {
			fprintf(lcd, "UART\n");
  800d90:	d0a75217 	ldw	r2,-25272(gp)
  800d94:	100f883a 	mov	r7,r2
  800d98:	01800144 	movi	r6,5
  800d9c:	01400044 	movi	r5,1
  800da0:	01002074 	movhi	r4,129
  800da4:	210f0404 	addi	r4,r4,15376
  800da8:	0803a080 	call	803a08 <fwrite>
		}
	}
}
  800dac:	0001883a 	nop
  800db0:	e037883a 	mov	sp,fp
  800db4:	dfc00117 	ldw	ra,4(sp)
  800db8:	df000017 	ldw	fp,0(sp)
  800dbc:	dec00204 	addi	sp,sp,8
  800dc0:	f800283a 	ret

00800dc4 <main>:

int main() {
  800dc4:	defffe04 	addi	sp,sp,-8
  800dc8:	dfc00115 	stw	ra,4(sp)
  800dcc:	df000015 	stw	fp,0(sp)
  800dd0:	d839883a 	mov	fp,sp
	// LCD
	lcd = fopen(LCD_NAME, "w");
  800dd4:	01402074 	movhi	r5,129
  800dd8:	294f0604 	addi	r5,r5,15384
  800ddc:	01002074 	movhi	r4,129
  800de0:	210f0704 	addi	r4,r4,15388
  800de4:	0802e400 	call	802e40 <fopen>
  800de8:	d0a75215 	stw	r2,-25272(gp)
	lcd_set_mode(0);
  800dec:	0009883a 	mov	r4,zero
  800df0:	0800d0c0 	call	800d0c <lcd_set_mode>

	// Non-blocking Uart
	up = open(UART_NAME, O_RDWR | O_NONBLOCK);
  800df4:	01500084 	movi	r5,16386
  800df8:	01002074 	movhi	r4,129
  800dfc:	210f0a04 	addi	r4,r4,15400
  800e00:	08101e80 	call	8101e8 <open>
  800e04:	d0a75415 	stw	r2,-25264(gp)
	fp = fopen(UART_NAME, "w+");
  800e08:	01402074 	movhi	r5,129
  800e0c:	294f0d04 	addi	r5,r5,15412
  800e10:	01002074 	movhi	r4,129
  800e14:	210f0a04 	addi	r4,r4,15400
  800e18:	0802e400 	call	802e40 <fopen>
  800e1c:	d0a75315 	stw	r2,-25268(gp)
	reset();
  800e20:	0800e5c0 	call	800e5c <reset>

	while (1) {
		switch (mode) {
  800e24:	d0a74a17 	ldw	r2,-25304(gp)
  800e28:	10000326 	beq	r2,zero,800e38 <main+0x74>
  800e2c:	10800060 	cmpeqi	r2,r2,1
  800e30:	1000031e 	bne	r2,zero,800e40 <main+0x7c>
  800e34:	00000406 	br	800e48 <main+0x84>
		// Mode 1
		case 0:
			ButtonPolling();
  800e38:	08009180 	call	800918 <ButtonPolling>
			break;
  800e3c:	00000206 	br	800e48 <main+0x84>
			// Mode 2
		case 1:
			uart();
  800e40:	0800bf40 	call	800bf4 <uart>
			break;
  800e44:	0001883a 	nop
		}

		tick();
  800e48:	0800edc0 	call	800edc <tick>
		TimerConfig();
  800e4c:	08006f80 	call	8006f8 <TimerConfig>
		AVLEDS();
  800e50:	0800a0c0 	call	800a0c <AVLEDS>
		handle_mode_switch();
  800e54:	0800b980 	call	800b98 <handle_mode_switch>
	}
  800e58:	003ff206 	br	800e24 <__alt_mem_onchip_mem+0xff780e24>

00800e5c <reset>:
char g84_e7;
char g85_e1_fix;
char g85_e1;
char g89_e2;
int _PRE_GO;
void reset(){
  800e5c:	deffff04 	addi	sp,sp,-4
  800e60:	df000015 	stw	fp,0(sp)
  800e64:	d839883a 	mov	fp,sp
   _GO = 1;
  800e68:	00800044 	movi	r2,1
  800e6c:	d0a76ec5 	stb	r2,-25157(gp)
   _PRE_GO = 0;
  800e70:	d0275a15 	stw	zero,-25240(gp)
   PRE_g3 = 0;
  800e74:	d0275b05 	stb	zero,-25236(gp)
   PRE_g6 = 0;
  800e78:	d0276c85 	stb	zero,-25166(gp)
   PRE_g12 = 0;
  800e7c:	d0276805 	stb	zero,-25184(gp)
   PRE_g15 = 0;
  800e80:	d02779c5 	stb	zero,-25113(gp)
   PRE_g17 = 0;
  800e84:	d0276345 	stb	zero,-25203(gp)
   PRE_g21 = 0;
  800e88:	d0277a45 	stb	zero,-25111(gp)
   PRE_g26 = 0;
  800e8c:	d0277e45 	stb	zero,-25095(gp)
   PRE_g29 = 0;
  800e90:	d0275b45 	stb	zero,-25235(gp)
   PRE_g31 = 0;
  800e94:	d0277405 	stb	zero,-25136(gp)
   PRE_g34 = 0;
  800e98:	d02760c5 	stb	zero,-25213(gp)
   PRE_g43 = 0;
  800e9c:	d02770c5 	stb	zero,-25149(gp)
   PRE_g46 = 0;
  800ea0:	d02767c5 	stb	zero,-25185(gp)
   PRE_g48 = 0;
  800ea4:	d0277445 	stb	zero,-25135(gp)
   PRE_g57 = 0;
  800ea8:	d0277105 	stb	zero,-25148(gp)
   PRE_g60 = 0;
  800eac:	d0277385 	stb	zero,-25138(gp)
   PRE_g66 = 0;
  800eb0:	d0277a05 	stb	zero,-25112(gp)
   PRE_g69 = 0;
  800eb4:	d0275f45 	stb	zero,-25219(gp)
   PRE_g72 = 0;
  800eb8:	d0275c05 	stb	zero,-25232(gp)
   PRE_g76 = 0;
  800ebc:	d0277785 	stb	zero,-25122(gp)
   PRE_g82 = 0;
  800ec0:	d0277f45 	stb	zero,-25091(gp)
   PRE_g87 = 0;
  800ec4:	d0276545 	stb	zero,-25195(gp)
   return;
  800ec8:	0001883a 	nop
}
  800ecc:	e037883a 	mov	sp,fp
  800ed0:	df000017 	ldw	fp,0(sp)
  800ed4:	dec00104 	addi	sp,sp,4
  800ed8:	f800283a 	ret

00800edc <tick>:
void tick(){
  800edc:	deffff04 	addi	sp,sp,-4
  800ee0:	df000015 	stw	fp,0(sp)
  800ee4:	d839883a 	mov	fp,sp
   if(_PRE_GO == 1){
  800ee8:	d0a75a17 	ldw	r2,-25240(gp)
  800eec:	10800058 	cmpnei	r2,r2,1
  800ef0:	1000011e 	bne	r2,zero,800ef8 <tick+0x1c>
      _GO = 0;
  800ef4:	d0276ec5 	stb	zero,-25157(gp)
   }
   {
      g0 = _GO;
  800ef8:	d0a76ec3 	ldbu	r2,-25157(gp)
  800efc:	d0a77845 	stb	r2,-25119(gp)
      g1 = g0;
  800f00:	d0a77843 	ldbu	r2,-25119(gp)
  800f04:	d0a75e05 	stb	r2,-25224(gp)
      g2 = g1;
  800f08:	d0a75e03 	ldbu	r2,-25224(gp)
  800f0c:	d0a76945 	stb	r2,-25179(gp)
      g88 =(PRE_g87);
  800f10:	d0a76543 	ldbu	r2,-25195(gp)
  800f14:	d0a77e85 	stb	r2,-25094(gp)
      g86 = g0;
  800f18:	d0a77843 	ldbu	r2,-25119(gp)
  800f1c:	d0a77045 	stb	r2,-25151(gp)
      g87 =(g88||g86);
  800f20:	d0a77e83 	ldbu	r2,-25094(gp)
  800f24:	10803fcc 	andi	r2,r2,255
  800f28:	1080201c 	xori	r2,r2,128
  800f2c:	10bfe004 	addi	r2,r2,-128
  800f30:	1000051e 	bne	r2,zero,800f48 <tick+0x6c>
  800f34:	d0a77043 	ldbu	r2,-25151(gp)
  800f38:	10803fcc 	andi	r2,r2,255
  800f3c:	1080201c 	xori	r2,r2,128
  800f40:	10bfe004 	addi	r2,r2,-128
  800f44:	10000226 	beq	r2,zero,800f50 <tick+0x74>
  800f48:	00800044 	movi	r2,1
  800f4c:	00000106 	br	800f54 <tick+0x78>
  800f50:	0005883a 	mov	r2,zero
  800f54:	d0a75c85 	stb	r2,-25230(gp)
      if(g87){
  800f58:	d0a75c83 	ldbu	r2,-25230(gp)
  800f5c:	10803fcc 	andi	r2,r2,255
  800f60:	1080201c 	xori	r2,r2,128
  800f64:	10bfe004 	addi	r2,r2,-128
  800f68:	10000c26 	beq	r2,zero,800f9c <tick+0xc0>
         VPace = 0;
  800f6c:	d0277fc5 	stb	zero,-25089(gp)
         APace = 0;
  800f70:	d02756c5 	stb	zero,-25253(gp)
         VRP_start = 0;
  800f74:	d0276d45 	stb	zero,-25163(gp)
         LRI_start = 0;
  800f78:	d0276f05 	stb	zero,-25156(gp)
         URI_start = 0;
  800f7c:	d0278285 	stb	zero,-25078(gp)
         AEI_start = 0;
  800f80:	d02775c5 	stb	zero,-25129(gp)
         PVARP_start = 0;
  800f84:	d0277245 	stb	zero,-25143(gp)
         AVI_start = 0;
  800f88:	d0275b85 	stb	zero,-25234(gp)
         LRI_stop = 0;
  800f8c:	d0276305 	stb	zero,-25204(gp)
         AEI_stop = 0;
  800f90:	d0278205 	stb	zero,-25080(gp)
         AVI_stop = 0;
  800f94:	d0275dc5 	stb	zero,-25225(gp)
         URI_stop = 0;
  800f98:	d0278345 	stb	zero,-25075(gp)
      }
      g81 = g1;
  800f9c:	d0a75e03 	ldbu	r2,-25224(gp)
  800fa0:	d0a77745 	stb	r2,-25123(gp)
      g83 =(PRE_g82);
  800fa4:	d0a77f43 	ldbu	r2,-25091(gp)
  800fa8:	d0a75605 	stb	r2,-25256(gp)
      g82 =(g81||g83);
  800fac:	d0a77743 	ldbu	r2,-25123(gp)
  800fb0:	10803fcc 	andi	r2,r2,255
  800fb4:	1080201c 	xori	r2,r2,128
  800fb8:	10bfe004 	addi	r2,r2,-128
  800fbc:	1000051e 	bne	r2,zero,800fd4 <tick+0xf8>
  800fc0:	d0a75603 	ldbu	r2,-25256(gp)
  800fc4:	10803fcc 	andi	r2,r2,255
  800fc8:	1080201c 	xori	r2,r2,128
  800fcc:	10bfe004 	addi	r2,r2,-128
  800fd0:	10000226 	beq	r2,zero,800fdc <tick+0x100>
  800fd4:	00800044 	movi	r2,1
  800fd8:	00000106 	br	800fe0 <tick+0x104>
  800fdc:	0005883a 	mov	r2,zero
  800fe0:	d0a75f05 	stb	r2,-25220(gp)
      if(g82){
  800fe4:	d0a75f03 	ldbu	r2,-25220(gp)
  800fe8:	10803fcc 	andi	r2,r2,255
  800fec:	1080201c 	xori	r2,r2,128
  800ff0:	10bfe004 	addi	r2,r2,-128
  800ff4:	10000326 	beq	r2,zero,801004 <tick+0x128>
         _DDD_Pacemaker_local_PVARP_ex = 0;
  800ff8:	d0276645 	stb	zero,-25191(gp)
         _DDD_Pacemaker_local_VRP_ex = 0;
  800ffc:	d0276a45 	stb	zero,-25175(gp)
         _DDD_Pacemaker_local_URI_ex = 0;
  801000:	d0275e45 	stb	zero,-25223(gp)
      }
      g18 =(PRE_g17);
  801004:	d0a76343 	ldbu	r2,-25203(gp)
  801008:	d0a76385 	stb	r2,-25202(gp)
      _cg18 = URI_TO;
  80100c:	d0a781c3 	ldbu	r2,-25081(gp)
  801010:	d0a77f85 	stb	r2,-25090(gp)
      g20 =(g18&&(!(_cg18)));
  801014:	d0a76383 	ldbu	r2,-25202(gp)
  801018:	10803fcc 	andi	r2,r2,255
  80101c:	1080201c 	xori	r2,r2,128
  801020:	10bfe004 	addi	r2,r2,-128
  801024:	10000726 	beq	r2,zero,801044 <tick+0x168>
  801028:	d0a77f83 	ldbu	r2,-25090(gp)
  80102c:	10803fcc 	andi	r2,r2,255
  801030:	1080201c 	xori	r2,r2,128
  801034:	10bfe004 	addi	r2,r2,-128
  801038:	1000021e 	bne	r2,zero,801044 <tick+0x168>
  80103c:	00800044 	movi	r2,1
  801040:	00000106 	br	801048 <tick+0x16c>
  801044:	0005883a 	mov	r2,zero
  801048:	d0a76f85 	stb	r2,-25154(gp)
      _cg20 = VSense;
  80104c:	d0a76c43 	ldbu	r2,-25167(gp)
  801050:	d0a76605 	stb	r2,-25192(gp)
      g21 =(g20&&_cg20);
  801054:	d0a76f83 	ldbu	r2,-25154(gp)
  801058:	10803fcc 	andi	r2,r2,255
  80105c:	1080201c 	xori	r2,r2,128
  801060:	10bfe004 	addi	r2,r2,-128
  801064:	10000726 	beq	r2,zero,801084 <tick+0x1a8>
  801068:	d0a76603 	ldbu	r2,-25192(gp)
  80106c:	10803fcc 	andi	r2,r2,255
  801070:	1080201c 	xori	r2,r2,128
  801074:	10bfe004 	addi	r2,r2,-128
  801078:	10000226 	beq	r2,zero,801084 <tick+0x1a8>
  80107c:	00800044 	movi	r2,1
  801080:	00000106 	br	801088 <tick+0x1ac>
  801084:	0005883a 	mov	r2,zero
  801088:	d0a76745 	stb	r2,-25187(gp)
      if(g21){
  80108c:	d0a76743 	ldbu	r2,-25187(gp)
  801090:	10803fcc 	andi	r2,r2,255
  801094:	1080201c 	xori	r2,r2,128
  801098:	10bfe004 	addi	r2,r2,-128
  80109c:	10000226 	beq	r2,zero,8010a8 <tick+0x1cc>
         URI_stop =(URI_stop||1);
  8010a0:	00800044 	movi	r2,1
  8010a4:	d0a78345 	stb	r2,-25075(gp)
      }
      g21b = g21;
  8010a8:	d0a76743 	ldbu	r2,-25187(gp)
  8010ac:	d0a77005 	stb	r2,-25152(gp)
      if(g21b){
  8010b0:	d0a77003 	ldbu	r2,-25152(gp)
  8010b4:	10803fcc 	andi	r2,r2,255
  8010b8:	1080201c 	xori	r2,r2,128
  8010bc:	10bfe004 	addi	r2,r2,-128
  8010c0:	10000226 	beq	r2,zero,8010cc <tick+0x1f0>
         _DDD_Pacemaker_local_URI_ex =(_DDD_Pacemaker_local_URI_ex||1);
  8010c4:	00800044 	movi	r2,1
  8010c8:	d0a75e45 	stb	r2,-25223(gp)
      }
      g19 =(g18&&_cg18);
  8010cc:	d0a76383 	ldbu	r2,-25202(gp)
  8010d0:	10803fcc 	andi	r2,r2,255
  8010d4:	1080201c 	xori	r2,r2,128
  8010d8:	10bfe004 	addi	r2,r2,-128
  8010dc:	10000726 	beq	r2,zero,8010fc <tick+0x220>
  8010e0:	d0a77f83 	ldbu	r2,-25090(gp)
  8010e4:	10803fcc 	andi	r2,r2,255
  8010e8:	1080201c 	xori	r2,r2,128
  8010ec:	10bfe004 	addi	r2,r2,-128
  8010f0:	10000226 	beq	r2,zero,8010fc <tick+0x220>
  8010f4:	00800044 	movi	r2,1
  8010f8:	00000106 	br	801100 <tick+0x224>
  8010fc:	0005883a 	mov	r2,zero
  801100:	d0a75785 	stb	r2,-25250(gp)
      if(g19){
  801104:	d0a75783 	ldbu	r2,-25250(gp)
  801108:	10803fcc 	andi	r2,r2,255
  80110c:	1080201c 	xori	r2,r2,128
  801110:	10bfe004 	addi	r2,r2,-128
  801114:	10000226 	beq	r2,zero,801120 <tick+0x244>
         _DDD_Pacemaker_local_URI_ex =(_DDD_Pacemaker_local_URI_ex||1);
  801118:	00800044 	movi	r2,1
  80111c:	d0a75e45 	stb	r2,-25223(gp)
      }
      g77 =(PRE_g76);
  801120:	d0a77783 	ldbu	r2,-25122(gp)
  801124:	d0a77d85 	stb	r2,-25098(gp)
      g77b = g77;
  801128:	d0a77d83 	ldbu	r2,-25098(gp)
  80112c:	d0a75d85 	stb	r2,-25226(gp)
      _cg77 = _DDD_Pacemaker_local_URI_ex;
  801130:	d0a75e43 	ldbu	r2,-25223(gp)
  801134:	d0a77b45 	stb	r2,-25107(gp)
      g78 =(g77b&&_cg77);
  801138:	d0a75d83 	ldbu	r2,-25226(gp)
  80113c:	10803fcc 	andi	r2,r2,255
  801140:	1080201c 	xori	r2,r2,128
  801144:	10bfe004 	addi	r2,r2,-128
  801148:	10000726 	beq	r2,zero,801168 <tick+0x28c>
  80114c:	d0a77b43 	ldbu	r2,-25107(gp)
  801150:	10803fcc 	andi	r2,r2,255
  801154:	1080201c 	xori	r2,r2,128
  801158:	10bfe004 	addi	r2,r2,-128
  80115c:	10000226 	beq	r2,zero,801168 <tick+0x28c>
  801160:	00800044 	movi	r2,1
  801164:	00000106 	br	80116c <tick+0x290>
  801168:	0005883a 	mov	r2,zero
  80116c:	d0a76cc5 	stb	r2,-25165(gp)
      if(g78){
  801170:	d0a76cc3 	ldbu	r2,-25165(gp)
  801174:	10803fcc 	andi	r2,r2,255
  801178:	1080201c 	xori	r2,r2,128
  80117c:	10bfe004 	addi	r2,r2,-128
  801180:	10000226 	beq	r2,zero,80118c <tick+0x2b0>
         VPace =(VPace||1);
  801184:	00800044 	movi	r2,1
  801188:	d0a77fc5 	stb	r2,-25089(gp)
      }
      g32 =(PRE_g31);
  80118c:	d0a77403 	ldbu	r2,-25136(gp)
  801190:	d0a77dc5 	stb	r2,-25097(gp)
      _cg32 = VSense;
  801194:	d0a76c43 	ldbu	r2,-25167(gp)
  801198:	d0a78245 	stb	r2,-25079(gp)
      g36 =(g32&&(!(_cg32)));
  80119c:	d0a77dc3 	ldbu	r2,-25097(gp)
  8011a0:	10803fcc 	andi	r2,r2,255
  8011a4:	1080201c 	xori	r2,r2,128
  8011a8:	10bfe004 	addi	r2,r2,-128
  8011ac:	10000726 	beq	r2,zero,8011cc <tick+0x2f0>
  8011b0:	d0a78243 	ldbu	r2,-25079(gp)
  8011b4:	10803fcc 	andi	r2,r2,255
  8011b8:	1080201c 	xori	r2,r2,128
  8011bc:	10bfe004 	addi	r2,r2,-128
  8011c0:	1000021e 	bne	r2,zero,8011cc <tick+0x2f0>
  8011c4:	00800044 	movi	r2,1
  8011c8:	00000106 	br	8011d0 <tick+0x2f4>
  8011cc:	0005883a 	mov	r2,zero
  8011d0:	d0a77145 	stb	r2,-25147(gp)
      _cg36 = VPace;
  8011d4:	d0a77fc3 	ldbu	r2,-25089(gp)
  8011d8:	d0a78385 	stb	r2,-25074(gp)
      g38 =(g36&&(!(_cg36)));
  8011dc:	d0a77143 	ldbu	r2,-25147(gp)
  8011e0:	10803fcc 	andi	r2,r2,255
  8011e4:	1080201c 	xori	r2,r2,128
  8011e8:	10bfe004 	addi	r2,r2,-128
  8011ec:	10000726 	beq	r2,zero,80120c <tick+0x330>
  8011f0:	d0a78383 	ldbu	r2,-25074(gp)
  8011f4:	10803fcc 	andi	r2,r2,255
  8011f8:	1080201c 	xori	r2,r2,128
  8011fc:	10bfe004 	addi	r2,r2,-128
  801200:	1000021e 	bne	r2,zero,80120c <tick+0x330>
  801204:	00800044 	movi	r2,1
  801208:	00000106 	br	801210 <tick+0x334>
  80120c:	0005883a 	mov	r2,zero
  801210:	d0a76505 	stb	r2,-25196(gp)
      _cg38 = LRI_TO;
  801214:	d0a76003 	ldbu	r2,-25216(gp)
  801218:	d0a76e05 	stb	r2,-25160(gp)
      g39 =(g38&&_cg38);
  80121c:	d0a76503 	ldbu	r2,-25196(gp)
  801220:	10803fcc 	andi	r2,r2,255
  801224:	1080201c 	xori	r2,r2,128
  801228:	10bfe004 	addi	r2,r2,-128
  80122c:	10000726 	beq	r2,zero,80124c <tick+0x370>
  801230:	d0a76e03 	ldbu	r2,-25160(gp)
  801234:	10803fcc 	andi	r2,r2,255
  801238:	1080201c 	xori	r2,r2,128
  80123c:	10bfe004 	addi	r2,r2,-128
  801240:	10000226 	beq	r2,zero,80124c <tick+0x370>
  801244:	00800044 	movi	r2,1
  801248:	00000106 	br	801250 <tick+0x374>
  80124c:	0005883a 	mov	r2,zero
  801250:	d0a78005 	stb	r2,-25088(gp)
      if(g39){
  801254:	d0a78003 	ldbu	r2,-25088(gp)
  801258:	10803fcc 	andi	r2,r2,255
  80125c:	1080201c 	xori	r2,r2,128
  801260:	10bfe004 	addi	r2,r2,-128
  801264:	10000226 	beq	r2,zero,801270 <tick+0x394>
         VPace =(VPace||1);
  801268:	00800044 	movi	r2,1
  80126c:	d0a77fc5 	stb	r2,-25089(gp)
      }
      g4 =(PRE_g3);
  801270:	d0a75b03 	ldbu	r2,-25236(gp)
  801274:	d0a75705 	stb	r2,-25252(gp)
      _cg4 = VSense;
  801278:	d0a76c43 	ldbu	r2,-25167(gp)
  80127c:	d0a78105 	stb	r2,-25084(gp)
      g9 =(g4&&(!(_cg4)));
  801280:	d0a75703 	ldbu	r2,-25252(gp)
  801284:	10803fcc 	andi	r2,r2,255
  801288:	1080201c 	xori	r2,r2,128
  80128c:	10bfe004 	addi	r2,r2,-128
  801290:	10000726 	beq	r2,zero,8012b0 <tick+0x3d4>
  801294:	d0a78103 	ldbu	r2,-25084(gp)
  801298:	10803fcc 	andi	r2,r2,255
  80129c:	1080201c 	xori	r2,r2,128
  8012a0:	10bfe004 	addi	r2,r2,-128
  8012a4:	1000021e 	bne	r2,zero,8012b0 <tick+0x3d4>
  8012a8:	00800044 	movi	r2,1
  8012ac:	00000106 	br	8012b4 <tick+0x3d8>
  8012b0:	0005883a 	mov	r2,zero
  8012b4:	d0a75985 	stb	r2,-25242(gp)
      _cg9 = VPace;
  8012b8:	d0a77fc3 	ldbu	r2,-25089(gp)
  8012bc:	d0a77805 	stb	r2,-25120(gp)
      g7 =(PRE_g6);
  8012c0:	d0a76c83 	ldbu	r2,-25166(gp)
  8012c4:	d0a76985 	stb	r2,-25178(gp)
      _cg7 = VRP_TO;
  8012c8:	d0a757c3 	ldbu	r2,-25249(gp)
  8012cc:	d0a759c5 	stb	r2,-25241(gp)
      g8 =(g7&&_cg7);
  8012d0:	d0a76983 	ldbu	r2,-25178(gp)
  8012d4:	10803fcc 	andi	r2,r2,255
  8012d8:	1080201c 	xori	r2,r2,128
  8012dc:	10bfe004 	addi	r2,r2,-128
  8012e0:	10000726 	beq	r2,zero,801300 <tick+0x424>
  8012e4:	d0a759c3 	ldbu	r2,-25241(gp)
  8012e8:	10803fcc 	andi	r2,r2,255
  8012ec:	1080201c 	xori	r2,r2,128
  8012f0:	10bfe004 	addi	r2,r2,-128
  8012f4:	10000226 	beq	r2,zero,801300 <tick+0x424>
  8012f8:	00800044 	movi	r2,1
  8012fc:	00000106 	br	801304 <tick+0x428>
  801300:	0005883a 	mov	r2,zero
  801304:	d0a77545 	stb	r2,-25131(gp)
      if(g8){
  801308:	d0a77543 	ldbu	r2,-25131(gp)
  80130c:	10803fcc 	andi	r2,r2,255
  801310:	1080201c 	xori	r2,r2,128
  801314:	10bfe004 	addi	r2,r2,-128
  801318:	10000226 	beq	r2,zero,801324 <tick+0x448>
         _DDD_Pacemaker_local_VRP_ex =(_DDD_Pacemaker_local_VRP_ex||1);
  80131c:	00800044 	movi	r2,1
  801320:	d0a76a45 	stb	r2,-25175(gp)
      }
      g3 =(g2||(g9&&(!(_cg9)))||g8);
  801324:	d0a76943 	ldbu	r2,-25179(gp)
  801328:	10803fcc 	andi	r2,r2,255
  80132c:	1080201c 	xori	r2,r2,128
  801330:	10bfe004 	addi	r2,r2,-128
  801334:	10000f1e 	bne	r2,zero,801374 <tick+0x498>
  801338:	d0a75983 	ldbu	r2,-25242(gp)
  80133c:	10803fcc 	andi	r2,r2,255
  801340:	1080201c 	xori	r2,r2,128
  801344:	10bfe004 	addi	r2,r2,-128
  801348:	10000526 	beq	r2,zero,801360 <tick+0x484>
  80134c:	d0a77803 	ldbu	r2,-25120(gp)
  801350:	10803fcc 	andi	r2,r2,255
  801354:	1080201c 	xori	r2,r2,128
  801358:	10bfe004 	addi	r2,r2,-128
  80135c:	10000526 	beq	r2,zero,801374 <tick+0x498>
  801360:	d0a77543 	ldbu	r2,-25131(gp)
  801364:	10803fcc 	andi	r2,r2,255
  801368:	1080201c 	xori	r2,r2,128
  80136c:	10bfe004 	addi	r2,r2,-128
  801370:	10000226 	beq	r2,zero,80137c <tick+0x4a0>
  801374:	00800044 	movi	r2,1
  801378:	00000106 	br	801380 <tick+0x4a4>
  80137c:	0005883a 	mov	r2,zero
  801380:	d0a75885 	stb	r2,-25246(gp)
      g5 =((g4&&_cg4)||(g9&&_cg9));
  801384:	d0a75703 	ldbu	r2,-25252(gp)
  801388:	10803fcc 	andi	r2,r2,255
  80138c:	1080201c 	xori	r2,r2,128
  801390:	10bfe004 	addi	r2,r2,-128
  801394:	10000526 	beq	r2,zero,8013ac <tick+0x4d0>
  801398:	d0a78103 	ldbu	r2,-25084(gp)
  80139c:	10803fcc 	andi	r2,r2,255
  8013a0:	1080201c 	xori	r2,r2,128
  8013a4:	10bfe004 	addi	r2,r2,-128
  8013a8:	10000a1e 	bne	r2,zero,8013d4 <tick+0x4f8>
  8013ac:	d0a75983 	ldbu	r2,-25242(gp)
  8013b0:	10803fcc 	andi	r2,r2,255
  8013b4:	1080201c 	xori	r2,r2,128
  8013b8:	10bfe004 	addi	r2,r2,-128
  8013bc:	10000726 	beq	r2,zero,8013dc <tick+0x500>
  8013c0:	d0a77803 	ldbu	r2,-25120(gp)
  8013c4:	10803fcc 	andi	r2,r2,255
  8013c8:	1080201c 	xori	r2,r2,128
  8013cc:	10bfe004 	addi	r2,r2,-128
  8013d0:	10000226 	beq	r2,zero,8013dc <tick+0x500>
  8013d4:	00800044 	movi	r2,1
  8013d8:	00000106 	br	8013e0 <tick+0x504>
  8013dc:	0005883a 	mov	r2,zero
  8013e0:	d0a768c5 	stb	r2,-25181(gp)
      if(g5){
  8013e4:	d0a768c3 	ldbu	r2,-25181(gp)
  8013e8:	10803fcc 	andi	r2,r2,255
  8013ec:	1080201c 	xori	r2,r2,128
  8013f0:	10bfe004 	addi	r2,r2,-128
  8013f4:	10000226 	beq	r2,zero,801400 <tick+0x524>
         VRP_start =(VRP_start||1);
  8013f8:	00800044 	movi	r2,1
  8013fc:	d0a76d45 	stb	r2,-25163(gp)
      }
      g6 =((g7&&(!(_cg7)))||g5);
  801400:	d0a76983 	ldbu	r2,-25178(gp)
  801404:	10803fcc 	andi	r2,r2,255
  801408:	1080201c 	xori	r2,r2,128
  80140c:	10bfe004 	addi	r2,r2,-128
  801410:	10000526 	beq	r2,zero,801428 <tick+0x54c>
  801414:	d0a759c3 	ldbu	r2,-25241(gp)
  801418:	10803fcc 	andi	r2,r2,255
  80141c:	1080201c 	xori	r2,r2,128
  801420:	10bfe004 	addi	r2,r2,-128
  801424:	10000526 	beq	r2,zero,80143c <tick+0x560>
  801428:	d0a768c3 	ldbu	r2,-25181(gp)
  80142c:	10803fcc 	andi	r2,r2,255
  801430:	1080201c 	xori	r2,r2,128
  801434:	10bfe004 	addi	r2,r2,-128
  801438:	10000226 	beq	r2,zero,801444 <tick+0x568>
  80143c:	00800044 	movi	r2,1
  801440:	00000106 	br	801448 <tick+0x56c>
  801444:	0005883a 	mov	r2,zero
  801448:	d0a776c5 	stb	r2,-25125(gp)
      g11 = g1;
  80144c:	d0a75e03 	ldbu	r2,-25224(gp)
  801450:	d0a77c05 	stb	r2,-25104(gp)
      g13 =(PRE_g12);
  801454:	d0a76803 	ldbu	r2,-25184(gp)
  801458:	d0a774c5 	stb	r2,-25133(gp)
      _cg13 = VSense;
  80145c:	d0a76c43 	ldbu	r2,-25167(gp)
  801460:	d0a777c5 	stb	r2,-25121(gp)
      g23 =(g13&&(!(_cg13)));
  801464:	d0a774c3 	ldbu	r2,-25133(gp)
  801468:	10803fcc 	andi	r2,r2,255
  80146c:	1080201c 	xori	r2,r2,128
  801470:	10bfe004 	addi	r2,r2,-128
  801474:	10000726 	beq	r2,zero,801494 <tick+0x5b8>
  801478:	d0a777c3 	ldbu	r2,-25121(gp)
  80147c:	10803fcc 	andi	r2,r2,255
  801480:	1080201c 	xori	r2,r2,128
  801484:	10bfe004 	addi	r2,r2,-128
  801488:	1000021e 	bne	r2,zero,801494 <tick+0x5b8>
  80148c:	00800044 	movi	r2,1
  801490:	00000106 	br	801498 <tick+0x5bc>
  801494:	0005883a 	mov	r2,zero
  801498:	d0a76b45 	stb	r2,-25171(gp)
      _cg23 = VPace;
  80149c:	d0a77fc3 	ldbu	r2,-25089(gp)
  8014a0:	d0a77f05 	stb	r2,-25092(gp)
      g12 =(g19||(g23&&(!(_cg23)))||g11);
  8014a4:	d0a75783 	ldbu	r2,-25250(gp)
  8014a8:	10803fcc 	andi	r2,r2,255
  8014ac:	1080201c 	xori	r2,r2,128
  8014b0:	10bfe004 	addi	r2,r2,-128
  8014b4:	10000f1e 	bne	r2,zero,8014f4 <tick+0x618>
  8014b8:	d0a76b43 	ldbu	r2,-25171(gp)
  8014bc:	10803fcc 	andi	r2,r2,255
  8014c0:	1080201c 	xori	r2,r2,128
  8014c4:	10bfe004 	addi	r2,r2,-128
  8014c8:	10000526 	beq	r2,zero,8014e0 <tick+0x604>
  8014cc:	d0a77f03 	ldbu	r2,-25092(gp)
  8014d0:	10803fcc 	andi	r2,r2,255
  8014d4:	1080201c 	xori	r2,r2,128
  8014d8:	10bfe004 	addi	r2,r2,-128
  8014dc:	10000526 	beq	r2,zero,8014f4 <tick+0x618>
  8014e0:	d0a77c03 	ldbu	r2,-25104(gp)
  8014e4:	10803fcc 	andi	r2,r2,255
  8014e8:	1080201c 	xori	r2,r2,128
  8014ec:	10bfe004 	addi	r2,r2,-128
  8014f0:	10000226 	beq	r2,zero,8014fc <tick+0x620>
  8014f4:	00800044 	movi	r2,1
  8014f8:	00000106 	br	801500 <tick+0x624>
  8014fc:	0005883a 	mov	r2,zero
  801500:	d0a75f85 	stb	r2,-25218(gp)
      g14 =((g13&&_cg13)||(g23&&_cg23));
  801504:	d0a774c3 	ldbu	r2,-25133(gp)
  801508:	10803fcc 	andi	r2,r2,255
  80150c:	1080201c 	xori	r2,r2,128
  801510:	10bfe004 	addi	r2,r2,-128
  801514:	10000526 	beq	r2,zero,80152c <tick+0x650>
  801518:	d0a777c3 	ldbu	r2,-25121(gp)
  80151c:	10803fcc 	andi	r2,r2,255
  801520:	1080201c 	xori	r2,r2,128
  801524:	10bfe004 	addi	r2,r2,-128
  801528:	10000a1e 	bne	r2,zero,801554 <tick+0x678>
  80152c:	d0a76b43 	ldbu	r2,-25171(gp)
  801530:	10803fcc 	andi	r2,r2,255
  801534:	1080201c 	xori	r2,r2,128
  801538:	10bfe004 	addi	r2,r2,-128
  80153c:	10000726 	beq	r2,zero,80155c <tick+0x680>
  801540:	d0a77f03 	ldbu	r2,-25092(gp)
  801544:	10803fcc 	andi	r2,r2,255
  801548:	1080201c 	xori	r2,r2,128
  80154c:	10bfe004 	addi	r2,r2,-128
  801550:	10000226 	beq	r2,zero,80155c <tick+0x680>
  801554:	00800044 	movi	r2,1
  801558:	00000106 	br	801560 <tick+0x684>
  80155c:	0005883a 	mov	r2,zero
  801560:	d0a76bc5 	stb	r2,-25169(gp)
      if(g14){
  801564:	d0a76bc3 	ldbu	r2,-25169(gp)
  801568:	10803fcc 	andi	r2,r2,255
  80156c:	1080201c 	xori	r2,r2,128
  801570:	10bfe004 	addi	r2,r2,-128
  801574:	10000226 	beq	r2,zero,801580 <tick+0x6a4>
         URI_start =(URI_start||1);
  801578:	00800044 	movi	r2,1
  80157c:	d0a78285 	stb	r2,-25078(gp)
      }
      g22 =(PRE_g21);
  801580:	d0a77a43 	ldbu	r2,-25111(gp)
  801584:	d0a77c85 	stb	r2,-25102(gp)
      g22b = g22;
  801588:	d0a77c83 	ldbu	r2,-25102(gp)
  80158c:	d0a76685 	stb	r2,-25190(gp)
      if(g22b){
  801590:	d0a76683 	ldbu	r2,-25190(gp)
  801594:	10803fcc 	andi	r2,r2,255
  801598:	1080201c 	xori	r2,r2,128
  80159c:	10bfe004 	addi	r2,r2,-128
  8015a0:	10000226 	beq	r2,zero,8015ac <tick+0x6d0>
         URI_start =(URI_start||1);
  8015a4:	00800044 	movi	r2,1
  8015a8:	d0a78285 	stb	r2,-25078(gp)
      }
      g16 =(PRE_g15);
  8015ac:	d0a779c3 	ldbu	r2,-25113(gp)
  8015b0:	d0a77ac5 	stb	r2,-25109(gp)
      g16b = g16;
  8015b4:	d0a77ac3 	ldbu	r2,-25109(gp)
  8015b8:	d0a77d45 	stb	r2,-25099(gp)
      _cg16 = _DDD_Pacemaker_local_VRP_ex;
  8015bc:	d0a76a43 	ldbu	r2,-25175(gp)
  8015c0:	d0a769c5 	stb	r2,-25177(gp)
      g15 =(g22b||g14||(g16b&&(!(_cg16))));
  8015c4:	d0a76683 	ldbu	r2,-25190(gp)
  8015c8:	10803fcc 	andi	r2,r2,255
  8015cc:	1080201c 	xori	r2,r2,128
  8015d0:	10bfe004 	addi	r2,r2,-128
  8015d4:	10000f1e 	bne	r2,zero,801614 <tick+0x738>
  8015d8:	d0a76bc3 	ldbu	r2,-25169(gp)
  8015dc:	10803fcc 	andi	r2,r2,255
  8015e0:	1080201c 	xori	r2,r2,128
  8015e4:	10bfe004 	addi	r2,r2,-128
  8015e8:	10000a1e 	bne	r2,zero,801614 <tick+0x738>
  8015ec:	d0a77d43 	ldbu	r2,-25099(gp)
  8015f0:	10803fcc 	andi	r2,r2,255
  8015f4:	1080201c 	xori	r2,r2,128
  8015f8:	10bfe004 	addi	r2,r2,-128
  8015fc:	10000726 	beq	r2,zero,80161c <tick+0x740>
  801600:	d0a769c3 	ldbu	r2,-25177(gp)
  801604:	10803fcc 	andi	r2,r2,255
  801608:	1080201c 	xori	r2,r2,128
  80160c:	10bfe004 	addi	r2,r2,-128
  801610:	1000021e 	bne	r2,zero,80161c <tick+0x740>
  801614:	00800044 	movi	r2,1
  801618:	00000106 	br	801620 <tick+0x744>
  80161c:	0005883a 	mov	r2,zero
  801620:	d0a76e45 	stb	r2,-25159(gp)
      g17 =((g20&&(!(_cg20)))||(g16b&&_cg16));
  801624:	d0a76f83 	ldbu	r2,-25154(gp)
  801628:	10803fcc 	andi	r2,r2,255
  80162c:	1080201c 	xori	r2,r2,128
  801630:	10bfe004 	addi	r2,r2,-128
  801634:	10000526 	beq	r2,zero,80164c <tick+0x770>
  801638:	d0a76603 	ldbu	r2,-25192(gp)
  80163c:	10803fcc 	andi	r2,r2,255
  801640:	1080201c 	xori	r2,r2,128
  801644:	10bfe004 	addi	r2,r2,-128
  801648:	10000a26 	beq	r2,zero,801674 <tick+0x798>
  80164c:	d0a77d43 	ldbu	r2,-25099(gp)
  801650:	10803fcc 	andi	r2,r2,255
  801654:	1080201c 	xori	r2,r2,128
  801658:	10bfe004 	addi	r2,r2,-128
  80165c:	10000726 	beq	r2,zero,80167c <tick+0x7a0>
  801660:	d0a769c3 	ldbu	r2,-25177(gp)
  801664:	10803fcc 	andi	r2,r2,255
  801668:	1080201c 	xori	r2,r2,128
  80166c:	10bfe004 	addi	r2,r2,-128
  801670:	10000226 	beq	r2,zero,80167c <tick+0x7a0>
  801674:	00800044 	movi	r2,1
  801678:	00000106 	br	801680 <tick+0x7a4>
  80167c:	0005883a 	mov	r2,zero
  801680:	d0a76085 	stb	r2,-25214(gp)
      g25 = g1;
  801684:	d0a75e03 	ldbu	r2,-25224(gp)
  801688:	d0a77bc5 	stb	r2,-25105(gp)
      g27 =(PRE_g26);
  80168c:	d0a77e43 	ldbu	r2,-25095(gp)
  801690:	d0a75845 	stb	r2,-25247(gp)
      _cg27 = VSense;
  801694:	d0a76c43 	ldbu	r2,-25167(gp)
  801698:	d0a78405 	stb	r2,-25072(gp)
      g40 =(g27&&(!(_cg27)));
  80169c:	d0a75843 	ldbu	r2,-25247(gp)
  8016a0:	10803fcc 	andi	r2,r2,255
  8016a4:	1080201c 	xori	r2,r2,128
  8016a8:	10bfe004 	addi	r2,r2,-128
  8016ac:	10000726 	beq	r2,zero,8016cc <tick+0x7f0>
  8016b0:	d0a78403 	ldbu	r2,-25072(gp)
  8016b4:	10803fcc 	andi	r2,r2,255
  8016b8:	1080201c 	xori	r2,r2,128
  8016bc:	10bfe004 	addi	r2,r2,-128
  8016c0:	1000021e 	bne	r2,zero,8016cc <tick+0x7f0>
  8016c4:	00800044 	movi	r2,1
  8016c8:	00000106 	br	8016d0 <tick+0x7f4>
  8016cc:	0005883a 	mov	r2,zero
  8016d0:	d0a75645 	stb	r2,-25255(gp)
      _cg40 = VPace;
  8016d4:	d0a77fc3 	ldbu	r2,-25089(gp)
  8016d8:	d0a77985 	stb	r2,-25114(gp)
      g26 =(g25||(g40&&(!(_cg40))));
  8016dc:	d0a77bc3 	ldbu	r2,-25105(gp)
  8016e0:	10803fcc 	andi	r2,r2,255
  8016e4:	1080201c 	xori	r2,r2,128
  8016e8:	10bfe004 	addi	r2,r2,-128
  8016ec:	10000a1e 	bne	r2,zero,801718 <tick+0x83c>
  8016f0:	d0a75643 	ldbu	r2,-25255(gp)
  8016f4:	10803fcc 	andi	r2,r2,255
  8016f8:	1080201c 	xori	r2,r2,128
  8016fc:	10bfe004 	addi	r2,r2,-128
  801700:	10000726 	beq	r2,zero,801720 <tick+0x844>
  801704:	d0a77983 	ldbu	r2,-25114(gp)
  801708:	10803fcc 	andi	r2,r2,255
  80170c:	1080201c 	xori	r2,r2,128
  801710:	10bfe004 	addi	r2,r2,-128
  801714:	1000021e 	bne	r2,zero,801720 <tick+0x844>
  801718:	00800044 	movi	r2,1
  80171c:	00000106 	br	801724 <tick+0x848>
  801720:	0005883a 	mov	r2,zero
  801724:	d0a78485 	stb	r2,-25070(gp)
      g28 =((g40&&_cg40)||(g27&&_cg27));
  801728:	d0a75643 	ldbu	r2,-25255(gp)
  80172c:	10803fcc 	andi	r2,r2,255
  801730:	1080201c 	xori	r2,r2,128
  801734:	10bfe004 	addi	r2,r2,-128
  801738:	10000526 	beq	r2,zero,801750 <tick+0x874>
  80173c:	d0a77983 	ldbu	r2,-25114(gp)
  801740:	10803fcc 	andi	r2,r2,255
  801744:	1080201c 	xori	r2,r2,128
  801748:	10bfe004 	addi	r2,r2,-128
  80174c:	10000a1e 	bne	r2,zero,801778 <tick+0x89c>
  801750:	d0a75843 	ldbu	r2,-25247(gp)
  801754:	10803fcc 	andi	r2,r2,255
  801758:	1080201c 	xori	r2,r2,128
  80175c:	10bfe004 	addi	r2,r2,-128
  801760:	10000726 	beq	r2,zero,801780 <tick+0x8a4>
  801764:	d0a78403 	ldbu	r2,-25072(gp)
  801768:	10803fcc 	andi	r2,r2,255
  80176c:	1080201c 	xori	r2,r2,128
  801770:	10bfe004 	addi	r2,r2,-128
  801774:	10000226 	beq	r2,zero,801780 <tick+0x8a4>
  801778:	00800044 	movi	r2,1
  80177c:	00000106 	br	801784 <tick+0x8a8>
  801780:	0005883a 	mov	r2,zero
  801784:	d0a77cc5 	stb	r2,-25101(gp)
      if(g28){
  801788:	d0a77cc3 	ldbu	r2,-25101(gp)
  80178c:	10803fcc 	andi	r2,r2,255
  801790:	1080201c 	xori	r2,r2,128
  801794:	10bfe004 	addi	r2,r2,-128
  801798:	10000226 	beq	r2,zero,8017a4 <tick+0x8c8>
         LRI_start =(LRI_start||1);
  80179c:	00800044 	movi	r2,1
  8017a0:	d0a76f05 	stb	r2,-25156(gp)
      }
      g35 =(PRE_g34);
  8017a4:	d0a760c3 	ldbu	r2,-25213(gp)
  8017a8:	d0a76dc5 	stb	r2,-25161(gp)
      g35b = g35;
  8017ac:	d0a76dc3 	ldbu	r2,-25161(gp)
  8017b0:	d0a76d85 	stb	r2,-25162(gp)
      if(g35b){
  8017b4:	d0a76d83 	ldbu	r2,-25162(gp)
  8017b8:	10803fcc 	andi	r2,r2,255
  8017bc:	1080201c 	xori	r2,r2,128
  8017c0:	10bfe004 	addi	r2,r2,-128
  8017c4:	10000226 	beq	r2,zero,8017d0 <tick+0x8f4>
         LRI_start =(LRI_start||1);
  8017c8:	00800044 	movi	r2,1
  8017cc:	d0a76f05 	stb	r2,-25156(gp)
      }
      g30 =(PRE_g29);
  8017d0:	d0a75b43 	ldbu	r2,-25235(gp)
  8017d4:	d0a77945 	stb	r2,-25115(gp)
      g30b = g30;
  8017d8:	d0a77943 	ldbu	r2,-25115(gp)
  8017dc:	d0a76585 	stb	r2,-25194(gp)
      _cg30 = _DDD_Pacemaker_local_VRP_ex;
  8017e0:	d0a76a43 	ldbu	r2,-25175(gp)
  8017e4:	d0a77a85 	stb	r2,-25110(gp)
      g29 =(g28||g35b||(g30b&&(!(_cg30))));
  8017e8:	d0a77cc3 	ldbu	r2,-25101(gp)
  8017ec:	10803fcc 	andi	r2,r2,255
  8017f0:	1080201c 	xori	r2,r2,128
  8017f4:	10bfe004 	addi	r2,r2,-128
  8017f8:	10000f1e 	bne	r2,zero,801838 <tick+0x95c>
  8017fc:	d0a76d83 	ldbu	r2,-25162(gp)
  801800:	10803fcc 	andi	r2,r2,255
  801804:	1080201c 	xori	r2,r2,128
  801808:	10bfe004 	addi	r2,r2,-128
  80180c:	10000a1e 	bne	r2,zero,801838 <tick+0x95c>
  801810:	d0a76583 	ldbu	r2,-25194(gp)
  801814:	10803fcc 	andi	r2,r2,255
  801818:	1080201c 	xori	r2,r2,128
  80181c:	10bfe004 	addi	r2,r2,-128
  801820:	10000726 	beq	r2,zero,801840 <tick+0x964>
  801824:	d0a77a83 	ldbu	r2,-25110(gp)
  801828:	10803fcc 	andi	r2,r2,255
  80182c:	1080201c 	xori	r2,r2,128
  801830:	10bfe004 	addi	r2,r2,-128
  801834:	1000021e 	bne	r2,zero,801840 <tick+0x964>
  801838:	00800044 	movi	r2,1
  80183c:	00000106 	br	801844 <tick+0x968>
  801840:	0005883a 	mov	r2,zero
  801844:	d0a780c5 	stb	r2,-25085(gp)
      g31 =((g30b&&_cg30)||(g38&&(!(_cg38))));
  801848:	d0a76583 	ldbu	r2,-25194(gp)
  80184c:	10803fcc 	andi	r2,r2,255
  801850:	1080201c 	xori	r2,r2,128
  801854:	10bfe004 	addi	r2,r2,-128
  801858:	10000526 	beq	r2,zero,801870 <tick+0x994>
  80185c:	d0a77a83 	ldbu	r2,-25110(gp)
  801860:	10803fcc 	andi	r2,r2,255
  801864:	1080201c 	xori	r2,r2,128
  801868:	10bfe004 	addi	r2,r2,-128
  80186c:	10000a1e 	bne	r2,zero,801898 <tick+0x9bc>
  801870:	d0a76503 	ldbu	r2,-25196(gp)
  801874:	10803fcc 	andi	r2,r2,255
  801878:	1080201c 	xori	r2,r2,128
  80187c:	10bfe004 	addi	r2,r2,-128
  801880:	10000726 	beq	r2,zero,8018a0 <tick+0x9c4>
  801884:	d0a76e03 	ldbu	r2,-25160(gp)
  801888:	10803fcc 	andi	r2,r2,255
  80188c:	1080201c 	xori	r2,r2,128
  801890:	10bfe004 	addi	r2,r2,-128
  801894:	1000021e 	bne	r2,zero,8018a0 <tick+0x9c4>
  801898:	00800044 	movi	r2,1
  80189c:	00000106 	br	8018a4 <tick+0x9c8>
  8018a0:	0005883a 	mov	r2,zero
  8018a4:	d0a76145 	stb	r2,-25211(gp)
      g33 =(g32&&_cg32);
  8018a8:	d0a77dc3 	ldbu	r2,-25097(gp)
  8018ac:	10803fcc 	andi	r2,r2,255
  8018b0:	1080201c 	xori	r2,r2,128
  8018b4:	10bfe004 	addi	r2,r2,-128
  8018b8:	10000726 	beq	r2,zero,8018d8 <tick+0x9fc>
  8018bc:	d0a78243 	ldbu	r2,-25079(gp)
  8018c0:	10803fcc 	andi	r2,r2,255
  8018c4:	1080201c 	xori	r2,r2,128
  8018c8:	10bfe004 	addi	r2,r2,-128
  8018cc:	10000226 	beq	r2,zero,8018d8 <tick+0x9fc>
  8018d0:	00800044 	movi	r2,1
  8018d4:	00000106 	br	8018dc <tick+0xa00>
  8018d8:	0005883a 	mov	r2,zero
  8018dc:	d0a76d05 	stb	r2,-25164(gp)
      if(g33){
  8018e0:	d0a76d03 	ldbu	r2,-25164(gp)
  8018e4:	10803fcc 	andi	r2,r2,255
  8018e8:	1080201c 	xori	r2,r2,128
  8018ec:	10bfe004 	addi	r2,r2,-128
  8018f0:	10000226 	beq	r2,zero,8018fc <tick+0xa20>
         LRI_stop =(LRI_stop||1);
  8018f4:	00800044 	movi	r2,1
  8018f8:	d0a76305 	stb	r2,-25204(gp)
      }
      g37 =(g36&&_cg36);
  8018fc:	d0a77143 	ldbu	r2,-25147(gp)
  801900:	10803fcc 	andi	r2,r2,255
  801904:	1080201c 	xori	r2,r2,128
  801908:	10bfe004 	addi	r2,r2,-128
  80190c:	10000726 	beq	r2,zero,80192c <tick+0xa50>
  801910:	d0a78383 	ldbu	r2,-25074(gp)
  801914:	10803fcc 	andi	r2,r2,255
  801918:	1080201c 	xori	r2,r2,128
  80191c:	10bfe004 	addi	r2,r2,-128
  801920:	10000226 	beq	r2,zero,80192c <tick+0xa50>
  801924:	00800044 	movi	r2,1
  801928:	00000106 	br	801930 <tick+0xa54>
  80192c:	0005883a 	mov	r2,zero
  801930:	d0a76185 	stb	r2,-25210(gp)
      if(g37){
  801934:	d0a76183 	ldbu	r2,-25210(gp)
  801938:	10803fcc 	andi	r2,r2,255
  80193c:	1080201c 	xori	r2,r2,128
  801940:	10bfe004 	addi	r2,r2,-128
  801944:	10000226 	beq	r2,zero,801950 <tick+0xa74>
         LRI_stop =(LRI_stop||1);
  801948:	00800044 	movi	r2,1
  80194c:	d0a76305 	stb	r2,-25204(gp)
      }
      g34 =(g33||g37||g39);
  801950:	d0a76d03 	ldbu	r2,-25164(gp)
  801954:	10803fcc 	andi	r2,r2,255
  801958:	1080201c 	xori	r2,r2,128
  80195c:	10bfe004 	addi	r2,r2,-128
  801960:	10000a1e 	bne	r2,zero,80198c <tick+0xab0>
  801964:	d0a76183 	ldbu	r2,-25210(gp)
  801968:	10803fcc 	andi	r2,r2,255
  80196c:	1080201c 	xori	r2,r2,128
  801970:	10bfe004 	addi	r2,r2,-128
  801974:	1000051e 	bne	r2,zero,80198c <tick+0xab0>
  801978:	d0a78003 	ldbu	r2,-25088(gp)
  80197c:	10803fcc 	andi	r2,r2,255
  801980:	1080201c 	xori	r2,r2,128
  801984:	10bfe004 	addi	r2,r2,-128
  801988:	10000226 	beq	r2,zero,801994 <tick+0xab8>
  80198c:	00800044 	movi	r2,1
  801990:	00000106 	br	801998 <tick+0xabc>
  801994:	0005883a 	mov	r2,zero
  801998:	d0a76885 	stb	r2,-25182(gp)
      g42 = g1;
  80199c:	d0a75e03 	ldbu	r2,-25224(gp)
  8019a0:	d0a75945 	stb	r2,-25243(gp)
      g49 =(PRE_g48);
  8019a4:	d0a77443 	ldbu	r2,-25135(gp)
  8019a8:	d0a76905 	stb	r2,-25180(gp)
      _cg49 = ASense;
  8019ac:	d0a76403 	ldbu	r2,-25200(gp)
  8019b0:	d0a78085 	stb	r2,-25086(gp)
      g51 =(g49&&(!(_cg49)));
  8019b4:	d0a76903 	ldbu	r2,-25180(gp)
  8019b8:	10803fcc 	andi	r2,r2,255
  8019bc:	1080201c 	xori	r2,r2,128
  8019c0:	10bfe004 	addi	r2,r2,-128
  8019c4:	10000726 	beq	r2,zero,8019e4 <tick+0xb08>
  8019c8:	d0a78083 	ldbu	r2,-25086(gp)
  8019cc:	10803fcc 	andi	r2,r2,255
  8019d0:	1080201c 	xori	r2,r2,128
  8019d4:	10bfe004 	addi	r2,r2,-128
  8019d8:	1000021e 	bne	r2,zero,8019e4 <tick+0xb08>
  8019dc:	00800044 	movi	r2,1
  8019e0:	00000106 	br	8019e8 <tick+0xb0c>
  8019e4:	0005883a 	mov	r2,zero
  8019e8:	d0a77305 	stb	r2,-25140(gp)
      _cg51 = APace;
  8019ec:	d0a756c3 	ldbu	r2,-25253(gp)
  8019f0:	d0a76785 	stb	r2,-25186(gp)
      g52 =(g51&&(!(_cg51)));
  8019f4:	d0a77303 	ldbu	r2,-25140(gp)
  8019f8:	10803fcc 	andi	r2,r2,255
  8019fc:	1080201c 	xori	r2,r2,128
  801a00:	10bfe004 	addi	r2,r2,-128
  801a04:	10000726 	beq	r2,zero,801a24 <tick+0xb48>
  801a08:	d0a76783 	ldbu	r2,-25186(gp)
  801a0c:	10803fcc 	andi	r2,r2,255
  801a10:	1080201c 	xori	r2,r2,128
  801a14:	10bfe004 	addi	r2,r2,-128
  801a18:	1000021e 	bne	r2,zero,801a24 <tick+0xb48>
  801a1c:	00800044 	movi	r2,1
  801a20:	00000106 	br	801a28 <tick+0xb4c>
  801a24:	0005883a 	mov	r2,zero
  801a28:	d0a75fc5 	stb	r2,-25217(gp)
      _cg52 = AEI_TO;
  801a2c:	d0a77343 	ldbu	r2,-25139(gp)
  801a30:	d0a75bc5 	stb	r2,-25233(gp)
      g53 =(g52&&_cg52);
  801a34:	d0a75fc3 	ldbu	r2,-25217(gp)
  801a38:	10803fcc 	andi	r2,r2,255
  801a3c:	1080201c 	xori	r2,r2,128
  801a40:	10bfe004 	addi	r2,r2,-128
  801a44:	10000726 	beq	r2,zero,801a64 <tick+0xb88>
  801a48:	d0a75bc3 	ldbu	r2,-25233(gp)
  801a4c:	10803fcc 	andi	r2,r2,255
  801a50:	1080201c 	xori	r2,r2,128
  801a54:	10bfe004 	addi	r2,r2,-128
  801a58:	10000226 	beq	r2,zero,801a64 <tick+0xb88>
  801a5c:	00800044 	movi	r2,1
  801a60:	00000106 	br	801a68 <tick+0xb8c>
  801a64:	0005883a 	mov	r2,zero
  801a68:	d0a77505 	stb	r2,-25132(gp)
      if(g53){
  801a6c:	d0a77503 	ldbu	r2,-25132(gp)
  801a70:	10803fcc 	andi	r2,r2,255
  801a74:	1080201c 	xori	r2,r2,128
  801a78:	10bfe004 	addi	r2,r2,-128
  801a7c:	10000226 	beq	r2,zero,801a88 <tick+0xbac>
         APace =(APace||1);
  801a80:	00800044 	movi	r2,1
  801a84:	d0a756c5 	stb	r2,-25253(gp)
      }
      g50 =((g51&&_cg51)||(g49&&_cg49));
  801a88:	d0a77303 	ldbu	r2,-25140(gp)
  801a8c:	10803fcc 	andi	r2,r2,255
  801a90:	1080201c 	xori	r2,r2,128
  801a94:	10bfe004 	addi	r2,r2,-128
  801a98:	10000526 	beq	r2,zero,801ab0 <tick+0xbd4>
  801a9c:	d0a76783 	ldbu	r2,-25186(gp)
  801aa0:	10803fcc 	andi	r2,r2,255
  801aa4:	1080201c 	xori	r2,r2,128
  801aa8:	10bfe004 	addi	r2,r2,-128
  801aac:	10000a1e 	bne	r2,zero,801ad8 <tick+0xbfc>
  801ab0:	d0a76903 	ldbu	r2,-25180(gp)
  801ab4:	10803fcc 	andi	r2,r2,255
  801ab8:	1080201c 	xori	r2,r2,128
  801abc:	10bfe004 	addi	r2,r2,-128
  801ac0:	10000726 	beq	r2,zero,801ae0 <tick+0xc04>
  801ac4:	d0a78083 	ldbu	r2,-25086(gp)
  801ac8:	10803fcc 	andi	r2,r2,255
  801acc:	1080201c 	xori	r2,r2,128
  801ad0:	10bfe004 	addi	r2,r2,-128
  801ad4:	10000226 	beq	r2,zero,801ae0 <tick+0xc04>
  801ad8:	00800044 	movi	r2,1
  801adc:	00000106 	br	801ae4 <tick+0xc08>
  801ae0:	0005883a 	mov	r2,zero
  801ae4:	d0a77285 	stb	r2,-25142(gp)
      if(g50){
  801ae8:	d0a77283 	ldbu	r2,-25142(gp)
  801aec:	10803fcc 	andi	r2,r2,255
  801af0:	1080201c 	xori	r2,r2,128
  801af4:	10bfe004 	addi	r2,r2,-128
  801af8:	10000226 	beq	r2,zero,801b04 <tick+0xc28>
         AEI_stop =(AEI_stop||1);
  801afc:	00800044 	movi	r2,1
  801b00:	d0a78205 	stb	r2,-25080(gp)
      }
      g44 =(PRE_g43);
  801b04:	d0a770c3 	ldbu	r2,-25149(gp)
  801b08:	d0a75cc5 	stb	r2,-25229(gp)
      _cg44 = VSense;
  801b0c:	d0a76c43 	ldbu	r2,-25167(gp)
  801b10:	d0a76b85 	stb	r2,-25170(gp)
      g54 =(g44&&(!(_cg44)));
  801b14:	d0a75cc3 	ldbu	r2,-25229(gp)
  801b18:	10803fcc 	andi	r2,r2,255
  801b1c:	1080201c 	xori	r2,r2,128
  801b20:	10bfe004 	addi	r2,r2,-128
  801b24:	10000726 	beq	r2,zero,801b44 <tick+0xc68>
  801b28:	d0a76b83 	ldbu	r2,-25170(gp)
  801b2c:	10803fcc 	andi	r2,r2,255
  801b30:	1080201c 	xori	r2,r2,128
  801b34:	10bfe004 	addi	r2,r2,-128
  801b38:	1000021e 	bne	r2,zero,801b44 <tick+0xc68>
  801b3c:	00800044 	movi	r2,1
  801b40:	00000106 	br	801b48 <tick+0xc6c>
  801b44:	0005883a 	mov	r2,zero
  801b48:	d0a76ac5 	stb	r2,-25173(gp)
      _cg54 = VPace;
  801b4c:	d0a77fc3 	ldbu	r2,-25089(gp)
  801b50:	d0a77885 	stb	r2,-25118(gp)
      g43 =(g53||g42||g50||(g54&&(!(_cg54))));
  801b54:	d0a77503 	ldbu	r2,-25132(gp)
  801b58:	10803fcc 	andi	r2,r2,255
  801b5c:	1080201c 	xori	r2,r2,128
  801b60:	10bfe004 	addi	r2,r2,-128
  801b64:	1000141e 	bne	r2,zero,801bb8 <tick+0xcdc>
  801b68:	d0a75943 	ldbu	r2,-25243(gp)
  801b6c:	10803fcc 	andi	r2,r2,255
  801b70:	1080201c 	xori	r2,r2,128
  801b74:	10bfe004 	addi	r2,r2,-128
  801b78:	10000f1e 	bne	r2,zero,801bb8 <tick+0xcdc>
  801b7c:	d0a77283 	ldbu	r2,-25142(gp)
  801b80:	10803fcc 	andi	r2,r2,255
  801b84:	1080201c 	xori	r2,r2,128
  801b88:	10bfe004 	addi	r2,r2,-128
  801b8c:	10000a1e 	bne	r2,zero,801bb8 <tick+0xcdc>
  801b90:	d0a76ac3 	ldbu	r2,-25173(gp)
  801b94:	10803fcc 	andi	r2,r2,255
  801b98:	1080201c 	xori	r2,r2,128
  801b9c:	10bfe004 	addi	r2,r2,-128
  801ba0:	10000726 	beq	r2,zero,801bc0 <tick+0xce4>
  801ba4:	d0a77883 	ldbu	r2,-25118(gp)
  801ba8:	10803fcc 	andi	r2,r2,255
  801bac:	1080201c 	xori	r2,r2,128
  801bb0:	10bfe004 	addi	r2,r2,-128
  801bb4:	1000021e 	bne	r2,zero,801bc0 <tick+0xce4>
  801bb8:	00800044 	movi	r2,1
  801bbc:	00000106 	br	801bc4 <tick+0xce8>
  801bc0:	0005883a 	mov	r2,zero
  801bc4:	d0a77085 	stb	r2,-25150(gp)
      g45 =((g44&&_cg44)||(g54&&_cg54));
  801bc8:	d0a75cc3 	ldbu	r2,-25229(gp)
  801bcc:	10803fcc 	andi	r2,r2,255
  801bd0:	1080201c 	xori	r2,r2,128
  801bd4:	10bfe004 	addi	r2,r2,-128
  801bd8:	10000526 	beq	r2,zero,801bf0 <tick+0xd14>
  801bdc:	d0a76b83 	ldbu	r2,-25170(gp)
  801be0:	10803fcc 	andi	r2,r2,255
  801be4:	1080201c 	xori	r2,r2,128
  801be8:	10bfe004 	addi	r2,r2,-128
  801bec:	10000a1e 	bne	r2,zero,801c18 <tick+0xd3c>
  801bf0:	d0a76ac3 	ldbu	r2,-25173(gp)
  801bf4:	10803fcc 	andi	r2,r2,255
  801bf8:	1080201c 	xori	r2,r2,128
  801bfc:	10bfe004 	addi	r2,r2,-128
  801c00:	10000726 	beq	r2,zero,801c20 <tick+0xd44>
  801c04:	d0a77883 	ldbu	r2,-25118(gp)
  801c08:	10803fcc 	andi	r2,r2,255
  801c0c:	1080201c 	xori	r2,r2,128
  801c10:	10bfe004 	addi	r2,r2,-128
  801c14:	10000226 	beq	r2,zero,801c20 <tick+0xd44>
  801c18:	00800044 	movi	r2,1
  801c1c:	00000106 	br	801c24 <tick+0xd48>
  801c20:	0005883a 	mov	r2,zero
  801c24:	d0a77ec5 	stb	r2,-25093(gp)
      if(g45){
  801c28:	d0a77ec3 	ldbu	r2,-25093(gp)
  801c2c:	10803fcc 	andi	r2,r2,255
  801c30:	1080201c 	xori	r2,r2,128
  801c34:	10bfe004 	addi	r2,r2,-128
  801c38:	10000226 	beq	r2,zero,801c44 <tick+0xd68>
         AEI_start =(AEI_start||1);
  801c3c:	00800044 	movi	r2,1
  801c40:	d0a775c5 	stb	r2,-25129(gp)
      }
      g61 =(PRE_g60);
  801c44:	d0a77383 	ldbu	r2,-25138(gp)
  801c48:	d0a75e85 	stb	r2,-25222(gp)
      _cg61 = PVARP_TO;
  801c4c:	d0a77e03 	ldbu	r2,-25096(gp)
  801c50:	d0a76285 	stb	r2,-25206(gp)
      g62 =(g61&&_cg61);
  801c54:	d0a75e83 	ldbu	r2,-25222(gp)
  801c58:	10803fcc 	andi	r2,r2,255
  801c5c:	1080201c 	xori	r2,r2,128
  801c60:	10bfe004 	addi	r2,r2,-128
  801c64:	10000726 	beq	r2,zero,801c84 <tick+0xda8>
  801c68:	d0a76283 	ldbu	r2,-25206(gp)
  801c6c:	10803fcc 	andi	r2,r2,255
  801c70:	1080201c 	xori	r2,r2,128
  801c74:	10bfe004 	addi	r2,r2,-128
  801c78:	10000226 	beq	r2,zero,801c84 <tick+0xda8>
  801c7c:	00800044 	movi	r2,1
  801c80:	00000106 	br	801c88 <tick+0xdac>
  801c84:	0005883a 	mov	r2,zero
  801c88:	d0a761c5 	stb	r2,-25209(gp)
      if(g62){
  801c8c:	d0a761c3 	ldbu	r2,-25209(gp)
  801c90:	10803fcc 	andi	r2,r2,255
  801c94:	1080201c 	xori	r2,r2,128
  801c98:	10bfe004 	addi	r2,r2,-128
  801c9c:	10000226 	beq	r2,zero,801ca8 <tick+0xdcc>
         _DDD_Pacemaker_local_PVARP_ex =(_DDD_Pacemaker_local_PVARP_ex||1);
  801ca0:	00800044 	movi	r2,1
  801ca4:	d0a76645 	stb	r2,-25191(gp)
      }
      g47 =(PRE_g46);
  801ca8:	d0a767c3 	ldbu	r2,-25185(gp)
  801cac:	d0a758c5 	stb	r2,-25245(gp)
      g47b = g47;
  801cb0:	d0a758c3 	ldbu	r2,-25245(gp)
  801cb4:	d0a76485 	stb	r2,-25198(gp)
      _cg47 = _DDD_Pacemaker_local_PVARP_ex;
  801cb8:	d0a76643 	ldbu	r2,-25191(gp)
  801cbc:	d0a77645 	stb	r2,-25127(gp)
      g46 =((g47b&&(!(_cg47)))||g45);
  801cc0:	d0a76483 	ldbu	r2,-25198(gp)
  801cc4:	10803fcc 	andi	r2,r2,255
  801cc8:	1080201c 	xori	r2,r2,128
  801ccc:	10bfe004 	addi	r2,r2,-128
  801cd0:	10000526 	beq	r2,zero,801ce8 <tick+0xe0c>
  801cd4:	d0a77643 	ldbu	r2,-25127(gp)
  801cd8:	10803fcc 	andi	r2,r2,255
  801cdc:	1080201c 	xori	r2,r2,128
  801ce0:	10bfe004 	addi	r2,r2,-128
  801ce4:	10000526 	beq	r2,zero,801cfc <tick+0xe20>
  801ce8:	d0a77ec3 	ldbu	r2,-25093(gp)
  801cec:	10803fcc 	andi	r2,r2,255
  801cf0:	1080201c 	xori	r2,r2,128
  801cf4:	10bfe004 	addi	r2,r2,-128
  801cf8:	10000226 	beq	r2,zero,801d04 <tick+0xe28>
  801cfc:	00800044 	movi	r2,1
  801d00:	00000106 	br	801d08 <tick+0xe2c>
  801d04:	0005883a 	mov	r2,zero
  801d08:	d0a77205 	stb	r2,-25144(gp)
      g48 =((g47b&&_cg47)||(g52&&(!(_cg52))));
  801d0c:	d0a76483 	ldbu	r2,-25198(gp)
  801d10:	10803fcc 	andi	r2,r2,255
  801d14:	1080201c 	xori	r2,r2,128
  801d18:	10bfe004 	addi	r2,r2,-128
  801d1c:	10000526 	beq	r2,zero,801d34 <tick+0xe58>
  801d20:	d0a77643 	ldbu	r2,-25127(gp)
  801d24:	10803fcc 	andi	r2,r2,255
  801d28:	1080201c 	xori	r2,r2,128
  801d2c:	10bfe004 	addi	r2,r2,-128
  801d30:	10000a1e 	bne	r2,zero,801d5c <tick+0xe80>
  801d34:	d0a75fc3 	ldbu	r2,-25217(gp)
  801d38:	10803fcc 	andi	r2,r2,255
  801d3c:	1080201c 	xori	r2,r2,128
  801d40:	10bfe004 	addi	r2,r2,-128
  801d44:	10000726 	beq	r2,zero,801d64 <tick+0xe88>
  801d48:	d0a75bc3 	ldbu	r2,-25233(gp)
  801d4c:	10803fcc 	andi	r2,r2,255
  801d50:	1080201c 	xori	r2,r2,128
  801d54:	10bfe004 	addi	r2,r2,-128
  801d58:	1000021e 	bne	r2,zero,801d64 <tick+0xe88>
  801d5c:	00800044 	movi	r2,1
  801d60:	00000106 	br	801d68 <tick+0xe8c>
  801d64:	0005883a 	mov	r2,zero
  801d68:	d0a76445 	stb	r2,-25199(gp)
      g56 = g1;
  801d6c:	d0a75e03 	ldbu	r2,-25224(gp)
  801d70:	d0a76c05 	stb	r2,-25168(gp)
      g58 =(PRE_g57);
  801d74:	d0a77103 	ldbu	r2,-25148(gp)
  801d78:	d0a77b05 	stb	r2,-25108(gp)
      _cg58 = VSense;
  801d7c:	d0a76c43 	ldbu	r2,-25167(gp)
  801d80:	d0a764c5 	stb	r2,-25197(gp)
      g63 =(g58&&(!(_cg58)));
  801d84:	d0a77b03 	ldbu	r2,-25108(gp)
  801d88:	10803fcc 	andi	r2,r2,255
  801d8c:	1080201c 	xori	r2,r2,128
  801d90:	10bfe004 	addi	r2,r2,-128
  801d94:	10000726 	beq	r2,zero,801db4 <tick+0xed8>
  801d98:	d0a764c3 	ldbu	r2,-25197(gp)
  801d9c:	10803fcc 	andi	r2,r2,255
  801da0:	1080201c 	xori	r2,r2,128
  801da4:	10bfe004 	addi	r2,r2,-128
  801da8:	1000021e 	bne	r2,zero,801db4 <tick+0xed8>
  801dac:	00800044 	movi	r2,1
  801db0:	00000106 	br	801db8 <tick+0xedc>
  801db4:	0005883a 	mov	r2,zero
  801db8:	d0a76f45 	stb	r2,-25155(gp)
      _cg63 = VPace;
  801dbc:	d0a77fc3 	ldbu	r2,-25089(gp)
  801dc0:	d0a766c5 	stb	r2,-25189(gp)
      g57 =(g62||(g63&&(!(_cg63)))||g56);
  801dc4:	d0a761c3 	ldbu	r2,-25209(gp)
  801dc8:	10803fcc 	andi	r2,r2,255
  801dcc:	1080201c 	xori	r2,r2,128
  801dd0:	10bfe004 	addi	r2,r2,-128
  801dd4:	10000f1e 	bne	r2,zero,801e14 <tick+0xf38>
  801dd8:	d0a76f43 	ldbu	r2,-25155(gp)
  801ddc:	10803fcc 	andi	r2,r2,255
  801de0:	1080201c 	xori	r2,r2,128
  801de4:	10bfe004 	addi	r2,r2,-128
  801de8:	10000526 	beq	r2,zero,801e00 <tick+0xf24>
  801dec:	d0a766c3 	ldbu	r2,-25189(gp)
  801df0:	10803fcc 	andi	r2,r2,255
  801df4:	1080201c 	xori	r2,r2,128
  801df8:	10bfe004 	addi	r2,r2,-128
  801dfc:	10000526 	beq	r2,zero,801e14 <tick+0xf38>
  801e00:	d0a76c03 	ldbu	r2,-25168(gp)
  801e04:	10803fcc 	andi	r2,r2,255
  801e08:	1080201c 	xori	r2,r2,128
  801e0c:	10bfe004 	addi	r2,r2,-128
  801e10:	10000226 	beq	r2,zero,801e1c <tick+0xf40>
  801e14:	00800044 	movi	r2,1
  801e18:	00000106 	br	801e20 <tick+0xf44>
  801e1c:	0005883a 	mov	r2,zero
  801e20:	d0a77585 	stb	r2,-25130(gp)
      g59 =((g58&&_cg58)||(g63&&_cg63));
  801e24:	d0a77b03 	ldbu	r2,-25108(gp)
  801e28:	10803fcc 	andi	r2,r2,255
  801e2c:	1080201c 	xori	r2,r2,128
  801e30:	10bfe004 	addi	r2,r2,-128
  801e34:	10000526 	beq	r2,zero,801e4c <tick+0xf70>
  801e38:	d0a764c3 	ldbu	r2,-25197(gp)
  801e3c:	10803fcc 	andi	r2,r2,255
  801e40:	1080201c 	xori	r2,r2,128
  801e44:	10bfe004 	addi	r2,r2,-128
  801e48:	10000a1e 	bne	r2,zero,801e74 <tick+0xf98>
  801e4c:	d0a76f43 	ldbu	r2,-25155(gp)
  801e50:	10803fcc 	andi	r2,r2,255
  801e54:	1080201c 	xori	r2,r2,128
  801e58:	10bfe004 	addi	r2,r2,-128
  801e5c:	10000726 	beq	r2,zero,801e7c <tick+0xfa0>
  801e60:	d0a766c3 	ldbu	r2,-25189(gp)
  801e64:	10803fcc 	andi	r2,r2,255
  801e68:	1080201c 	xori	r2,r2,128
  801e6c:	10bfe004 	addi	r2,r2,-128
  801e70:	10000226 	beq	r2,zero,801e7c <tick+0xfa0>
  801e74:	00800044 	movi	r2,1
  801e78:	00000106 	br	801e80 <tick+0xfa4>
  801e7c:	0005883a 	mov	r2,zero
  801e80:	d0a76a85 	stb	r2,-25174(gp)
      if(g59){
  801e84:	d0a76a83 	ldbu	r2,-25174(gp)
  801e88:	10803fcc 	andi	r2,r2,255
  801e8c:	1080201c 	xori	r2,r2,128
  801e90:	10bfe004 	addi	r2,r2,-128
  801e94:	10000226 	beq	r2,zero,801ea0 <tick+0xfc4>
         PVARP_start =(PVARP_start||1);
  801e98:	00800044 	movi	r2,1
  801e9c:	d0a77245 	stb	r2,-25143(gp)
      }
      g60 =(g59||(g61&&(!(_cg61))));
  801ea0:	d0a76a83 	ldbu	r2,-25174(gp)
  801ea4:	10803fcc 	andi	r2,r2,255
  801ea8:	1080201c 	xori	r2,r2,128
  801eac:	10bfe004 	addi	r2,r2,-128
  801eb0:	10000a1e 	bne	r2,zero,801edc <tick+0x1000>
  801eb4:	d0a75e83 	ldbu	r2,-25222(gp)
  801eb8:	10803fcc 	andi	r2,r2,255
  801ebc:	1080201c 	xori	r2,r2,128
  801ec0:	10bfe004 	addi	r2,r2,-128
  801ec4:	10000726 	beq	r2,zero,801ee4 <tick+0x1008>
  801ec8:	d0a76283 	ldbu	r2,-25206(gp)
  801ecc:	10803fcc 	andi	r2,r2,255
  801ed0:	1080201c 	xori	r2,r2,128
  801ed4:	10bfe004 	addi	r2,r2,-128
  801ed8:	1000021e 	bne	r2,zero,801ee4 <tick+0x1008>
  801edc:	00800044 	movi	r2,1
  801ee0:	00000106 	br	801ee8 <tick+0x100c>
  801ee4:	0005883a 	mov	r2,zero
  801ee8:	d0a76fc5 	stb	r2,-25153(gp)
      g65 = g1;
  801eec:	d0a75e03 	ldbu	r2,-25224(gp)
  801ef0:	d0a77c45 	stb	r2,-25103(gp)
      g73 =(PRE_g72);
  801ef4:	d0a75c03 	ldbu	r2,-25232(gp)
  801ef8:	d0a77d05 	stb	r2,-25100(gp)
      g73b = g73;
  801efc:	d0a77d03 	ldbu	r2,-25100(gp)
  801f00:	d0a77485 	stb	r2,-25134(gp)
      _cg73 = _DDD_Pacemaker_local_PVARP_ex;
  801f04:	d0a76643 	ldbu	r2,-25191(gp)
  801f08:	d0a75c45 	stb	r2,-25231(gp)
      g67 =(PRE_g66);
  801f0c:	d0a77a03 	ldbu	r2,-25112(gp)
  801f10:	d0a78145 	stb	r2,-25083(gp)
      _cg67 = ASense;
  801f14:	d0a76403 	ldbu	r2,-25200(gp)
  801f18:	d0a782c5 	stb	r2,-25077(gp)
      g79 =(g67&&(!(_cg67)));
  801f1c:	d0a78143 	ldbu	r2,-25083(gp)
  801f20:	10803fcc 	andi	r2,r2,255
  801f24:	1080201c 	xori	r2,r2,128
  801f28:	10bfe004 	addi	r2,r2,-128
  801f2c:	10000726 	beq	r2,zero,801f4c <tick+0x1070>
  801f30:	d0a782c3 	ldbu	r2,-25077(gp)
  801f34:	10803fcc 	andi	r2,r2,255
  801f38:	1080201c 	xori	r2,r2,128
  801f3c:	10bfe004 	addi	r2,r2,-128
  801f40:	1000021e 	bne	r2,zero,801f4c <tick+0x1070>
  801f44:	00800044 	movi	r2,1
  801f48:	00000106 	br	801f50 <tick+0x1074>
  801f4c:	0005883a 	mov	r2,zero
  801f50:	d0a76845 	stb	r2,-25183(gp)
      _cg79 = APace;
  801f54:	d0a756c3 	ldbu	r2,-25253(gp)
  801f58:	d0a75d05 	stb	r2,-25228(gp)
      g66 =((g73b&&_cg73)||g65||g78||(g79&&(!(_cg79))));
  801f5c:	d0a77483 	ldbu	r2,-25134(gp)
  801f60:	10803fcc 	andi	r2,r2,255
  801f64:	1080201c 	xori	r2,r2,128
  801f68:	10bfe004 	addi	r2,r2,-128
  801f6c:	10000526 	beq	r2,zero,801f84 <tick+0x10a8>
  801f70:	d0a75c43 	ldbu	r2,-25231(gp)
  801f74:	10803fcc 	andi	r2,r2,255
  801f78:	1080201c 	xori	r2,r2,128
  801f7c:	10bfe004 	addi	r2,r2,-128
  801f80:	1000141e 	bne	r2,zero,801fd4 <tick+0x10f8>
  801f84:	d0a77c43 	ldbu	r2,-25103(gp)
  801f88:	10803fcc 	andi	r2,r2,255
  801f8c:	1080201c 	xori	r2,r2,128
  801f90:	10bfe004 	addi	r2,r2,-128
  801f94:	10000f1e 	bne	r2,zero,801fd4 <tick+0x10f8>
  801f98:	d0a76cc3 	ldbu	r2,-25165(gp)
  801f9c:	10803fcc 	andi	r2,r2,255
  801fa0:	1080201c 	xori	r2,r2,128
  801fa4:	10bfe004 	addi	r2,r2,-128
  801fa8:	10000a1e 	bne	r2,zero,801fd4 <tick+0x10f8>
  801fac:	d0a76843 	ldbu	r2,-25183(gp)
  801fb0:	10803fcc 	andi	r2,r2,255
  801fb4:	1080201c 	xori	r2,r2,128
  801fb8:	10bfe004 	addi	r2,r2,-128
  801fbc:	10000726 	beq	r2,zero,801fdc <tick+0x1100>
  801fc0:	d0a75d03 	ldbu	r2,-25228(gp)
  801fc4:	10803fcc 	andi	r2,r2,255
  801fc8:	1080201c 	xori	r2,r2,128
  801fcc:	10bfe004 	addi	r2,r2,-128
  801fd0:	1000021e 	bne	r2,zero,801fdc <tick+0x1100>
  801fd4:	00800044 	movi	r2,1
  801fd8:	00000106 	br	801fe0 <tick+0x1104>
  801fdc:	0005883a 	mov	r2,zero
  801fe0:	d0a76b05 	stb	r2,-25172(gp)
      g68 =((g67&&_cg67)||(g79&&_cg79));
  801fe4:	d0a78143 	ldbu	r2,-25083(gp)
  801fe8:	10803fcc 	andi	r2,r2,255
  801fec:	1080201c 	xori	r2,r2,128
  801ff0:	10bfe004 	addi	r2,r2,-128
  801ff4:	10000526 	beq	r2,zero,80200c <tick+0x1130>
  801ff8:	d0a782c3 	ldbu	r2,-25077(gp)
  801ffc:	10803fcc 	andi	r2,r2,255
  802000:	1080201c 	xori	r2,r2,128
  802004:	10bfe004 	addi	r2,r2,-128
  802008:	10000a1e 	bne	r2,zero,802034 <tick+0x1158>
  80200c:	d0a76843 	ldbu	r2,-25183(gp)
  802010:	10803fcc 	andi	r2,r2,255
  802014:	1080201c 	xori	r2,r2,128
  802018:	10bfe004 	addi	r2,r2,-128
  80201c:	10000726 	beq	r2,zero,80203c <tick+0x1160>
  802020:	d0a75d03 	ldbu	r2,-25228(gp)
  802024:	10803fcc 	andi	r2,r2,255
  802028:	1080201c 	xori	r2,r2,128
  80202c:	10bfe004 	addi	r2,r2,-128
  802030:	10000226 	beq	r2,zero,80203c <tick+0x1160>
  802034:	00800044 	movi	r2,1
  802038:	00000106 	br	802040 <tick+0x1164>
  80203c:	0005883a 	mov	r2,zero
  802040:	d0a77b85 	stb	r2,-25106(gp)
      if(g68){
  802044:	d0a77b83 	ldbu	r2,-25106(gp)
  802048:	10803fcc 	andi	r2,r2,255
  80204c:	1080201c 	xori	r2,r2,128
  802050:	10bfe004 	addi	r2,r2,-128
  802054:	10000226 	beq	r2,zero,802060 <tick+0x1184>
         AVI_start =(AVI_start||1);
  802058:	00800044 	movi	r2,1
  80205c:	d0a75b85 	stb	r2,-25234(gp)
      }
      g70 =(PRE_g69);
  802060:	d0a75f43 	ldbu	r2,-25219(gp)
  802064:	d0a77605 	stb	r2,-25128(gp)
      _cg70 = VSense;
  802068:	d0a76c43 	ldbu	r2,-25167(gp)
  80206c:	d0a773c5 	stb	r2,-25137(gp)
      g74 =(g70&&(!(_cg70)));
  802070:	d0a77603 	ldbu	r2,-25128(gp)
  802074:	10803fcc 	andi	r2,r2,255
  802078:	1080201c 	xori	r2,r2,128
  80207c:	10bfe004 	addi	r2,r2,-128
  802080:	10000726 	beq	r2,zero,8020a0 <tick+0x11c4>
  802084:	d0a773c3 	ldbu	r2,-25137(gp)
  802088:	10803fcc 	andi	r2,r2,255
  80208c:	1080201c 	xori	r2,r2,128
  802090:	10bfe004 	addi	r2,r2,-128
  802094:	1000021e 	bne	r2,zero,8020a0 <tick+0x11c4>
  802098:	00800044 	movi	r2,1
  80209c:	00000106 	br	8020a4 <tick+0x11c8>
  8020a0:	0005883a 	mov	r2,zero
  8020a4:	d0a784c5 	stb	r2,-25069(gp)
      _cg74 = VPace;
  8020a8:	d0a77fc3 	ldbu	r2,-25089(gp)
  8020ac:	d0a76045 	stb	r2,-25215(gp)
      g75 =(g74&&(!(_cg74)));
  8020b0:	d0a784c3 	ldbu	r2,-25069(gp)
  8020b4:	10803fcc 	andi	r2,r2,255
  8020b8:	1080201c 	xori	r2,r2,128
  8020bc:	10bfe004 	addi	r2,r2,-128
  8020c0:	10000726 	beq	r2,zero,8020e0 <tick+0x1204>
  8020c4:	d0a76043 	ldbu	r2,-25215(gp)
  8020c8:	10803fcc 	andi	r2,r2,255
  8020cc:	1080201c 	xori	r2,r2,128
  8020d0:	10bfe004 	addi	r2,r2,-128
  8020d4:	1000021e 	bne	r2,zero,8020e0 <tick+0x1204>
  8020d8:	00800044 	movi	r2,1
  8020dc:	00000106 	br	8020e4 <tick+0x1208>
  8020e0:	0005883a 	mov	r2,zero
  8020e4:	d0a77905 	stb	r2,-25116(gp)
      _cg75 = AVI_TO;
  8020e8:	d0a75683 	ldbu	r2,-25254(gp)
  8020ec:	d0a75d45 	stb	r2,-25227(gp)
      g69 =(g68||(g75&&(!(_cg75))));
  8020f0:	d0a77b83 	ldbu	r2,-25106(gp)
  8020f4:	10803fcc 	andi	r2,r2,255
  8020f8:	1080201c 	xori	r2,r2,128
  8020fc:	10bfe004 	addi	r2,r2,-128
  802100:	10000a1e 	bne	r2,zero,80212c <tick+0x1250>
  802104:	d0a77903 	ldbu	r2,-25116(gp)
  802108:	10803fcc 	andi	r2,r2,255
  80210c:	1080201c 	xori	r2,r2,128
  802110:	10bfe004 	addi	r2,r2,-128
  802114:	10000726 	beq	r2,zero,802134 <tick+0x1258>
  802118:	d0a75d43 	ldbu	r2,-25227(gp)
  80211c:	10803fcc 	andi	r2,r2,255
  802120:	1080201c 	xori	r2,r2,128
  802124:	10bfe004 	addi	r2,r2,-128
  802128:	1000021e 	bne	r2,zero,802134 <tick+0x1258>
  80212c:	00800044 	movi	r2,1
  802130:	00000106 	br	802138 <tick+0x125c>
  802134:	0005883a 	mov	r2,zero
  802138:	d0a78445 	stb	r2,-25071(gp)
      g71 =((g70&&_cg70)||(g74&&_cg74));
  80213c:	d0a77603 	ldbu	r2,-25128(gp)
  802140:	10803fcc 	andi	r2,r2,255
  802144:	1080201c 	xori	r2,r2,128
  802148:	10bfe004 	addi	r2,r2,-128
  80214c:	10000526 	beq	r2,zero,802164 <tick+0x1288>
  802150:	d0a773c3 	ldbu	r2,-25137(gp)
  802154:	10803fcc 	andi	r2,r2,255
  802158:	1080201c 	xori	r2,r2,128
  80215c:	10bfe004 	addi	r2,r2,-128
  802160:	10000a1e 	bne	r2,zero,80218c <tick+0x12b0>
  802164:	d0a784c3 	ldbu	r2,-25069(gp)
  802168:	10803fcc 	andi	r2,r2,255
  80216c:	1080201c 	xori	r2,r2,128
  802170:	10bfe004 	addi	r2,r2,-128
  802174:	10000726 	beq	r2,zero,802194 <tick+0x12b8>
  802178:	d0a76043 	ldbu	r2,-25215(gp)
  80217c:	10803fcc 	andi	r2,r2,255
  802180:	1080201c 	xori	r2,r2,128
  802184:	10bfe004 	addi	r2,r2,-128
  802188:	10000226 	beq	r2,zero,802194 <tick+0x12b8>
  80218c:	00800044 	movi	r2,1
  802190:	00000106 	br	802198 <tick+0x12bc>
  802194:	0005883a 	mov	r2,zero
  802198:	d0a75ec5 	stb	r2,-25221(gp)
      if(g71){
  80219c:	d0a75ec3 	ldbu	r2,-25221(gp)
  8021a0:	10803fcc 	andi	r2,r2,255
  8021a4:	1080201c 	xori	r2,r2,128
  8021a8:	10bfe004 	addi	r2,r2,-128
  8021ac:	10000226 	beq	r2,zero,8021b8 <tick+0x12dc>
         AVI_stop =(AVI_stop||1);
  8021b0:	00800044 	movi	r2,1
  8021b4:	d0a75dc5 	stb	r2,-25225(gp)
      }
      g72 =(g71||(g73b&&(!(_cg73))));
  8021b8:	d0a75ec3 	ldbu	r2,-25221(gp)
  8021bc:	10803fcc 	andi	r2,r2,255
  8021c0:	1080201c 	xori	r2,r2,128
  8021c4:	10bfe004 	addi	r2,r2,-128
  8021c8:	10000a1e 	bne	r2,zero,8021f4 <tick+0x1318>
  8021cc:	d0a77483 	ldbu	r2,-25134(gp)
  8021d0:	10803fcc 	andi	r2,r2,255
  8021d4:	1080201c 	xori	r2,r2,128
  8021d8:	10bfe004 	addi	r2,r2,-128
  8021dc:	10000726 	beq	r2,zero,8021fc <tick+0x1320>
  8021e0:	d0a75c43 	ldbu	r2,-25231(gp)
  8021e4:	10803fcc 	andi	r2,r2,255
  8021e8:	1080201c 	xori	r2,r2,128
  8021ec:	10bfe004 	addi	r2,r2,-128
  8021f0:	1000021e 	bne	r2,zero,8021fc <tick+0x1320>
  8021f4:	00800044 	movi	r2,1
  8021f8:	00000106 	br	802200 <tick+0x1324>
  8021fc:	0005883a 	mov	r2,zero
  802200:	d0a77705 	stb	r2,-25124(gp)
      g76 =((g77b&&(!(_cg77)))||(g75&&_cg75));
  802204:	d0a75d83 	ldbu	r2,-25226(gp)
  802208:	10803fcc 	andi	r2,r2,255
  80220c:	1080201c 	xori	r2,r2,128
  802210:	10bfe004 	addi	r2,r2,-128
  802214:	10000526 	beq	r2,zero,80222c <tick+0x1350>
  802218:	d0a77b43 	ldbu	r2,-25107(gp)
  80221c:	10803fcc 	andi	r2,r2,255
  802220:	1080201c 	xori	r2,r2,128
  802224:	10bfe004 	addi	r2,r2,-128
  802228:	10000a26 	beq	r2,zero,802254 <tick+0x1378>
  80222c:	d0a77903 	ldbu	r2,-25116(gp)
  802230:	10803fcc 	andi	r2,r2,255
  802234:	1080201c 	xori	r2,r2,128
  802238:	10bfe004 	addi	r2,r2,-128
  80223c:	10000726 	beq	r2,zero,80225c <tick+0x1380>
  802240:	d0a75d43 	ldbu	r2,-25227(gp)
  802244:	10803fcc 	andi	r2,r2,255
  802248:	1080201c 	xori	r2,r2,128
  80224c:	10bfe004 	addi	r2,r2,-128
  802250:	10000226 	beq	r2,zero,80225c <tick+0x1380>
  802254:	00800044 	movi	r2,1
  802258:	00000106 	br	802260 <tick+0x1384>
  80225c:	0005883a 	mov	r2,zero
  802260:	d0a76105 	stb	r2,-25212(gp)
      g10_e1 =(!((g4||g7)));
  802264:	d0a75703 	ldbu	r2,-25252(gp)
  802268:	10803fcc 	andi	r2,r2,255
  80226c:	1080201c 	xori	r2,r2,128
  802270:	10bfe004 	addi	r2,r2,-128
  802274:	1000071e 	bne	r2,zero,802294 <tick+0x13b8>
  802278:	d0a76983 	ldbu	r2,-25178(gp)
  80227c:	10803fcc 	andi	r2,r2,255
  802280:	1080201c 	xori	r2,r2,128
  802284:	10bfe004 	addi	r2,r2,-128
  802288:	1000021e 	bne	r2,zero,802294 <tick+0x13b8>
  80228c:	00800044 	movi	r2,1
  802290:	00000106 	br	802298 <tick+0x13bc>
  802294:	0005883a 	mov	r2,zero
  802298:	d0a77685 	stb	r2,-25126(gp)
      g24_e2 =(!((g13||g16||g18||g22)));
  80229c:	d0a774c3 	ldbu	r2,-25133(gp)
  8022a0:	10803fcc 	andi	r2,r2,255
  8022a4:	1080201c 	xori	r2,r2,128
  8022a8:	10bfe004 	addi	r2,r2,-128
  8022ac:	1000111e 	bne	r2,zero,8022f4 <tick+0x1418>
  8022b0:	d0a77ac3 	ldbu	r2,-25109(gp)
  8022b4:	10803fcc 	andi	r2,r2,255
  8022b8:	1080201c 	xori	r2,r2,128
  8022bc:	10bfe004 	addi	r2,r2,-128
  8022c0:	10000c1e 	bne	r2,zero,8022f4 <tick+0x1418>
  8022c4:	d0a76383 	ldbu	r2,-25202(gp)
  8022c8:	10803fcc 	andi	r2,r2,255
  8022cc:	1080201c 	xori	r2,r2,128
  8022d0:	10bfe004 	addi	r2,r2,-128
  8022d4:	1000071e 	bne	r2,zero,8022f4 <tick+0x1418>
  8022d8:	d0a77c83 	ldbu	r2,-25102(gp)
  8022dc:	10803fcc 	andi	r2,r2,255
  8022e0:	1080201c 	xori	r2,r2,128
  8022e4:	10bfe004 	addi	r2,r2,-128
  8022e8:	1000021e 	bne	r2,zero,8022f4 <tick+0x1418>
  8022ec:	00800044 	movi	r2,1
  8022f0:	00000106 	br	8022f8 <tick+0x141c>
  8022f4:	0005883a 	mov	r2,zero
  8022f8:	d0a762c5 	stb	r2,-25205(gp)
      g41_e3 =(!((g27||g30||g32||g35)));
  8022fc:	d0a75843 	ldbu	r2,-25247(gp)
  802300:	10803fcc 	andi	r2,r2,255
  802304:	1080201c 	xori	r2,r2,128
  802308:	10bfe004 	addi	r2,r2,-128
  80230c:	1000111e 	bne	r2,zero,802354 <tick+0x1478>
  802310:	d0a77943 	ldbu	r2,-25115(gp)
  802314:	10803fcc 	andi	r2,r2,255
  802318:	1080201c 	xori	r2,r2,128
  80231c:	10bfe004 	addi	r2,r2,-128
  802320:	10000c1e 	bne	r2,zero,802354 <tick+0x1478>
  802324:	d0a77dc3 	ldbu	r2,-25097(gp)
  802328:	10803fcc 	andi	r2,r2,255
  80232c:	1080201c 	xori	r2,r2,128
  802330:	10bfe004 	addi	r2,r2,-128
  802334:	1000071e 	bne	r2,zero,802354 <tick+0x1478>
  802338:	d0a76dc3 	ldbu	r2,-25161(gp)
  80233c:	10803fcc 	andi	r2,r2,255
  802340:	1080201c 	xori	r2,r2,128
  802344:	10bfe004 	addi	r2,r2,-128
  802348:	1000021e 	bne	r2,zero,802354 <tick+0x1478>
  80234c:	00800044 	movi	r2,1
  802350:	00000106 	br	802358 <tick+0x147c>
  802354:	0005883a 	mov	r2,zero
  802358:	d0a763c5 	stb	r2,-25201(gp)
      g55_e4 =(!((g44||g47||g49)));
  80235c:	d0a75cc3 	ldbu	r2,-25229(gp)
  802360:	10803fcc 	andi	r2,r2,255
  802364:	1080201c 	xori	r2,r2,128
  802368:	10bfe004 	addi	r2,r2,-128
  80236c:	10000c1e 	bne	r2,zero,8023a0 <tick+0x14c4>
  802370:	d0a758c3 	ldbu	r2,-25245(gp)
  802374:	10803fcc 	andi	r2,r2,255
  802378:	1080201c 	xori	r2,r2,128
  80237c:	10bfe004 	addi	r2,r2,-128
  802380:	1000071e 	bne	r2,zero,8023a0 <tick+0x14c4>
  802384:	d0a76903 	ldbu	r2,-25180(gp)
  802388:	10803fcc 	andi	r2,r2,255
  80238c:	1080201c 	xori	r2,r2,128
  802390:	10bfe004 	addi	r2,r2,-128
  802394:	1000021e 	bne	r2,zero,8023a0 <tick+0x14c4>
  802398:	00800044 	movi	r2,1
  80239c:	00000106 	br	8023a4 <tick+0x14c8>
  8023a0:	0005883a 	mov	r2,zero
  8023a4:	d0a765c5 	stb	r2,-25193(gp)
      g64_e5 =(!((g58||g61)));
  8023a8:	d0a77b03 	ldbu	r2,-25108(gp)
  8023ac:	10803fcc 	andi	r2,r2,255
  8023b0:	1080201c 	xori	r2,r2,128
  8023b4:	10bfe004 	addi	r2,r2,-128
  8023b8:	1000071e 	bne	r2,zero,8023d8 <tick+0x14fc>
  8023bc:	d0a75e83 	ldbu	r2,-25222(gp)
  8023c0:	10803fcc 	andi	r2,r2,255
  8023c4:	1080201c 	xori	r2,r2,128
  8023c8:	10bfe004 	addi	r2,r2,-128
  8023cc:	1000021e 	bne	r2,zero,8023d8 <tick+0x14fc>
  8023d0:	00800044 	movi	r2,1
  8023d4:	00000106 	br	8023dc <tick+0x1500>
  8023d8:	0005883a 	mov	r2,zero
  8023dc:	d0a78305 	stb	r2,-25076(gp)
      g80_e6 =(!((g67||g70||g73||g77)));
  8023e0:	d0a78143 	ldbu	r2,-25083(gp)
  8023e4:	10803fcc 	andi	r2,r2,255
  8023e8:	1080201c 	xori	r2,r2,128
  8023ec:	10bfe004 	addi	r2,r2,-128
  8023f0:	1000111e 	bne	r2,zero,802438 <tick+0x155c>
  8023f4:	d0a77603 	ldbu	r2,-25128(gp)
  8023f8:	10803fcc 	andi	r2,r2,255
  8023fc:	1080201c 	xori	r2,r2,128
  802400:	10bfe004 	addi	r2,r2,-128
  802404:	10000c1e 	bne	r2,zero,802438 <tick+0x155c>
  802408:	d0a77d03 	ldbu	r2,-25100(gp)
  80240c:	10803fcc 	andi	r2,r2,255
  802410:	1080201c 	xori	r2,r2,128
  802414:	10bfe004 	addi	r2,r2,-128
  802418:	1000071e 	bne	r2,zero,802438 <tick+0x155c>
  80241c:	d0a77d83 	ldbu	r2,-25098(gp)
  802420:	10803fcc 	andi	r2,r2,255
  802424:	1080201c 	xori	r2,r2,128
  802428:	10bfe004 	addi	r2,r2,-128
  80242c:	1000021e 	bne	r2,zero,802438 <tick+0x155c>
  802430:	00800044 	movi	r2,1
  802434:	00000106 	br	80243c <tick+0x1560>
  802438:	0005883a 	mov	r2,zero
  80243c:	d0a77185 	stb	r2,-25146(gp)
      g84_e7 =(!(g83));
  802440:	d0a75603 	ldbu	r2,-25256(gp)
  802444:	10803fcc 	andi	r2,r2,255
  802448:	1080201c 	xori	r2,r2,128
  80244c:	10bfe004 	addi	r2,r2,-128
  802450:	1005003a 	cmpeq	r2,r2,zero
  802454:	d0a778c5 	stb	r2,-25117(gp)
      g85_e1_fix =(g30||g47||g61||g70||g83||g18||g32||g49||g73||g77||g35);
  802458:	d0a77943 	ldbu	r2,-25115(gp)
  80245c:	10803fcc 	andi	r2,r2,255
  802460:	1080201c 	xori	r2,r2,128
  802464:	10bfe004 	addi	r2,r2,-128
  802468:	1000321e 	bne	r2,zero,802534 <tick+0x1658>
  80246c:	d0a758c3 	ldbu	r2,-25245(gp)
  802470:	10803fcc 	andi	r2,r2,255
  802474:	1080201c 	xori	r2,r2,128
  802478:	10bfe004 	addi	r2,r2,-128
  80247c:	10002d1e 	bne	r2,zero,802534 <tick+0x1658>
  802480:	d0a75e83 	ldbu	r2,-25222(gp)
  802484:	10803fcc 	andi	r2,r2,255
  802488:	1080201c 	xori	r2,r2,128
  80248c:	10bfe004 	addi	r2,r2,-128
  802490:	1000281e 	bne	r2,zero,802534 <tick+0x1658>
  802494:	d0a77603 	ldbu	r2,-25128(gp)
  802498:	10803fcc 	andi	r2,r2,255
  80249c:	1080201c 	xori	r2,r2,128
  8024a0:	10bfe004 	addi	r2,r2,-128
  8024a4:	1000231e 	bne	r2,zero,802534 <tick+0x1658>
  8024a8:	d0a75603 	ldbu	r2,-25256(gp)
  8024ac:	10803fcc 	andi	r2,r2,255
  8024b0:	1080201c 	xori	r2,r2,128
  8024b4:	10bfe004 	addi	r2,r2,-128
  8024b8:	10001e1e 	bne	r2,zero,802534 <tick+0x1658>
  8024bc:	d0a76383 	ldbu	r2,-25202(gp)
  8024c0:	10803fcc 	andi	r2,r2,255
  8024c4:	1080201c 	xori	r2,r2,128
  8024c8:	10bfe004 	addi	r2,r2,-128
  8024cc:	1000191e 	bne	r2,zero,802534 <tick+0x1658>
  8024d0:	d0a77dc3 	ldbu	r2,-25097(gp)
  8024d4:	10803fcc 	andi	r2,r2,255
  8024d8:	1080201c 	xori	r2,r2,128
  8024dc:	10bfe004 	addi	r2,r2,-128
  8024e0:	1000141e 	bne	r2,zero,802534 <tick+0x1658>
  8024e4:	d0a76903 	ldbu	r2,-25180(gp)
  8024e8:	10803fcc 	andi	r2,r2,255
  8024ec:	1080201c 	xori	r2,r2,128
  8024f0:	10bfe004 	addi	r2,r2,-128
  8024f4:	10000f1e 	bne	r2,zero,802534 <tick+0x1658>
  8024f8:	d0a77d03 	ldbu	r2,-25100(gp)
  8024fc:	10803fcc 	andi	r2,r2,255
  802500:	1080201c 	xori	r2,r2,128
  802504:	10bfe004 	addi	r2,r2,-128
  802508:	10000a1e 	bne	r2,zero,802534 <tick+0x1658>
  80250c:	d0a77d83 	ldbu	r2,-25098(gp)
  802510:	10803fcc 	andi	r2,r2,255
  802514:	1080201c 	xori	r2,r2,128
  802518:	10bfe004 	addi	r2,r2,-128
  80251c:	1000051e 	bne	r2,zero,802534 <tick+0x1658>
  802520:	d0a76dc3 	ldbu	r2,-25161(gp)
  802524:	10803fcc 	andi	r2,r2,255
  802528:	1080201c 	xori	r2,r2,128
  80252c:	10bfe004 	addi	r2,r2,-128
  802530:	10000226 	beq	r2,zero,80253c <tick+0x1660>
  802534:	00800044 	movi	r2,1
  802538:	00000106 	br	802540 <tick+0x1664>
  80253c:	0005883a 	mov	r2,zero
  802540:	d0a75745 	stb	r2,-25251(gp)
      g85_e1 =(!((g4||g13||g27||g44||g58||g67||g7||g16||g22||g85_e1_fix)));
  802544:	d0a75703 	ldbu	r2,-25252(gp)
  802548:	10803fcc 	andi	r2,r2,255
  80254c:	1080201c 	xori	r2,r2,128
  802550:	10bfe004 	addi	r2,r2,-128
  802554:	10002f1e 	bne	r2,zero,802614 <tick+0x1738>
  802558:	d0a774c3 	ldbu	r2,-25133(gp)
  80255c:	10803fcc 	andi	r2,r2,255
  802560:	1080201c 	xori	r2,r2,128
  802564:	10bfe004 	addi	r2,r2,-128
  802568:	10002a1e 	bne	r2,zero,802614 <tick+0x1738>
  80256c:	d0a75843 	ldbu	r2,-25247(gp)
  802570:	10803fcc 	andi	r2,r2,255
  802574:	1080201c 	xori	r2,r2,128
  802578:	10bfe004 	addi	r2,r2,-128
  80257c:	1000251e 	bne	r2,zero,802614 <tick+0x1738>
  802580:	d0a75cc3 	ldbu	r2,-25229(gp)
  802584:	10803fcc 	andi	r2,r2,255
  802588:	1080201c 	xori	r2,r2,128
  80258c:	10bfe004 	addi	r2,r2,-128
  802590:	1000201e 	bne	r2,zero,802614 <tick+0x1738>
  802594:	d0a77b03 	ldbu	r2,-25108(gp)
  802598:	10803fcc 	andi	r2,r2,255
  80259c:	1080201c 	xori	r2,r2,128
  8025a0:	10bfe004 	addi	r2,r2,-128
  8025a4:	10001b1e 	bne	r2,zero,802614 <tick+0x1738>
  8025a8:	d0a78143 	ldbu	r2,-25083(gp)
  8025ac:	10803fcc 	andi	r2,r2,255
  8025b0:	1080201c 	xori	r2,r2,128
  8025b4:	10bfe004 	addi	r2,r2,-128
  8025b8:	1000161e 	bne	r2,zero,802614 <tick+0x1738>
  8025bc:	d0a76983 	ldbu	r2,-25178(gp)
  8025c0:	10803fcc 	andi	r2,r2,255
  8025c4:	1080201c 	xori	r2,r2,128
  8025c8:	10bfe004 	addi	r2,r2,-128
  8025cc:	1000111e 	bne	r2,zero,802614 <tick+0x1738>
  8025d0:	d0a77ac3 	ldbu	r2,-25109(gp)
  8025d4:	10803fcc 	andi	r2,r2,255
  8025d8:	1080201c 	xori	r2,r2,128
  8025dc:	10bfe004 	addi	r2,r2,-128
  8025e0:	10000c1e 	bne	r2,zero,802614 <tick+0x1738>
  8025e4:	d0a77c83 	ldbu	r2,-25102(gp)
  8025e8:	10803fcc 	andi	r2,r2,255
  8025ec:	1080201c 	xori	r2,r2,128
  8025f0:	10bfe004 	addi	r2,r2,-128
  8025f4:	1000071e 	bne	r2,zero,802614 <tick+0x1738>
  8025f8:	d0a75743 	ldbu	r2,-25251(gp)
  8025fc:	10803fcc 	andi	r2,r2,255
  802600:	1080201c 	xori	r2,r2,128
  802604:	10bfe004 	addi	r2,r2,-128
  802608:	1000021e 	bne	r2,zero,802614 <tick+0x1738>
  80260c:	00800044 	movi	r2,1
  802610:	00000106 	br	802618 <tick+0x173c>
  802614:	0005883a 	mov	r2,zero
  802618:	d0a78045 	stb	r2,-25087(gp)
      g89_e2 =(!(g88));
  80261c:	d0a77e83 	ldbu	r2,-25094(gp)
  802620:	10803fcc 	andi	r2,r2,255
  802624:	1080201c 	xori	r2,r2,128
  802628:	10bfe004 	addi	r2,r2,-128
  80262c:	1005003a 	cmpeq	r2,r2,zero
  802630:	d0a772c5 	stb	r2,-25141(gp)
   }
   PRE_g3 = g3;
  802634:	d0a75883 	ldbu	r2,-25246(gp)
  802638:	d0a75b05 	stb	r2,-25236(gp)
   PRE_g6 = g6;
  80263c:	d0a776c3 	ldbu	r2,-25125(gp)
  802640:	d0a76c85 	stb	r2,-25166(gp)
   PRE_g12 = g12;
  802644:	d0a75f83 	ldbu	r2,-25218(gp)
  802648:	d0a76805 	stb	r2,-25184(gp)
   PRE_g15 = g15;
  80264c:	d0a76e43 	ldbu	r2,-25159(gp)
  802650:	d0a779c5 	stb	r2,-25113(gp)
   PRE_g17 = g17;
  802654:	d0a76083 	ldbu	r2,-25214(gp)
  802658:	d0a76345 	stb	r2,-25203(gp)
   PRE_g21 = g21;
  80265c:	d0a76743 	ldbu	r2,-25187(gp)
  802660:	d0a77a45 	stb	r2,-25111(gp)
   PRE_g26 = g26;
  802664:	d0a78483 	ldbu	r2,-25070(gp)
  802668:	d0a77e45 	stb	r2,-25095(gp)
   PRE_g29 = g29;
  80266c:	d0a780c3 	ldbu	r2,-25085(gp)
  802670:	d0a75b45 	stb	r2,-25235(gp)
   PRE_g31 = g31;
  802674:	d0a76143 	ldbu	r2,-25211(gp)
  802678:	d0a77405 	stb	r2,-25136(gp)
   PRE_g34 = g34;
  80267c:	d0a76883 	ldbu	r2,-25182(gp)
  802680:	d0a760c5 	stb	r2,-25213(gp)
   PRE_g43 = g43;
  802684:	d0a77083 	ldbu	r2,-25150(gp)
  802688:	d0a770c5 	stb	r2,-25149(gp)
   PRE_g46 = g46;
  80268c:	d0a77203 	ldbu	r2,-25144(gp)
  802690:	d0a767c5 	stb	r2,-25185(gp)
   PRE_g48 = g48;
  802694:	d0a76443 	ldbu	r2,-25199(gp)
  802698:	d0a77445 	stb	r2,-25135(gp)
   PRE_g57 = g57;
  80269c:	d0a77583 	ldbu	r2,-25130(gp)
  8026a0:	d0a77105 	stb	r2,-25148(gp)
   PRE_g60 = g60;
  8026a4:	d0a76fc3 	ldbu	r2,-25153(gp)
  8026a8:	d0a77385 	stb	r2,-25138(gp)
   PRE_g66 = g66;
  8026ac:	d0a76b03 	ldbu	r2,-25172(gp)
  8026b0:	d0a77a05 	stb	r2,-25112(gp)
   PRE_g69 = g69;
  8026b4:	d0a78443 	ldbu	r2,-25071(gp)
  8026b8:	d0a75f45 	stb	r2,-25219(gp)
   PRE_g72 = g72;
  8026bc:	d0a77703 	ldbu	r2,-25124(gp)
  8026c0:	d0a75c05 	stb	r2,-25232(gp)
   PRE_g76 = g76;
  8026c4:	d0a76103 	ldbu	r2,-25212(gp)
  8026c8:	d0a77785 	stb	r2,-25122(gp)
   PRE_g82 = g82;
  8026cc:	d0a75f03 	ldbu	r2,-25220(gp)
  8026d0:	d0a77f45 	stb	r2,-25091(gp)
   PRE_g87 = g87;
  8026d4:	d0a75c83 	ldbu	r2,-25230(gp)
  8026d8:	d0a76545 	stb	r2,-25195(gp)
   _PRE_GO = _GO;
  8026dc:	d0a76ec3 	ldbu	r2,-25157(gp)
  8026e0:	10803fcc 	andi	r2,r2,255
  8026e4:	1080201c 	xori	r2,r2,128
  8026e8:	10bfe004 	addi	r2,r2,-128
  8026ec:	d0a75a15 	stw	r2,-25240(gp)
   return;
  8026f0:	0001883a 	nop
}
  8026f4:	e037883a 	mov	sp,fp
  8026f8:	df000017 	ldw	fp,0(sp)
  8026fc:	dec00104 	addi	sp,sp,4
  802700:	f800283a 	ret

00802704 <__sflush_r>:
  802704:	2880030b 	ldhu	r2,12(r5)
  802708:	defffb04 	addi	sp,sp,-20
  80270c:	dcc00315 	stw	r19,12(sp)
  802710:	dc400115 	stw	r17,4(sp)
  802714:	dfc00415 	stw	ra,16(sp)
  802718:	dc800215 	stw	r18,8(sp)
  80271c:	dc000015 	stw	r16,0(sp)
  802720:	10c0020c 	andi	r3,r2,8
  802724:	2823883a 	mov	r17,r5
  802728:	2027883a 	mov	r19,r4
  80272c:	1800311e 	bne	r3,zero,8027f4 <__sflush_r+0xf0>
  802730:	28c00117 	ldw	r3,4(r5)
  802734:	10820014 	ori	r2,r2,2048
  802738:	2880030d 	sth	r2,12(r5)
  80273c:	00c04b0e 	bge	zero,r3,80286c <__sflush_r+0x168>
  802740:	8a000a17 	ldw	r8,40(r17)
  802744:	40002326 	beq	r8,zero,8027d4 <__sflush_r+0xd0>
  802748:	9c000017 	ldw	r16,0(r19)
  80274c:	10c4000c 	andi	r3,r2,4096
  802750:	98000015 	stw	zero,0(r19)
  802754:	18004826 	beq	r3,zero,802878 <__sflush_r+0x174>
  802758:	89801417 	ldw	r6,80(r17)
  80275c:	10c0010c 	andi	r3,r2,4
  802760:	18000626 	beq	r3,zero,80277c <__sflush_r+0x78>
  802764:	88c00117 	ldw	r3,4(r17)
  802768:	88800c17 	ldw	r2,48(r17)
  80276c:	30cdc83a 	sub	r6,r6,r3
  802770:	10000226 	beq	r2,zero,80277c <__sflush_r+0x78>
  802774:	88800f17 	ldw	r2,60(r17)
  802778:	308dc83a 	sub	r6,r6,r2
  80277c:	89400717 	ldw	r5,28(r17)
  802780:	000f883a 	mov	r7,zero
  802784:	9809883a 	mov	r4,r19
  802788:	403ee83a 	callr	r8
  80278c:	00ffffc4 	movi	r3,-1
  802790:	10c04426 	beq	r2,r3,8028a4 <__sflush_r+0x1a0>
  802794:	88c0030b 	ldhu	r3,12(r17)
  802798:	89000417 	ldw	r4,16(r17)
  80279c:	88000115 	stw	zero,4(r17)
  8027a0:	197dffcc 	andi	r5,r3,63487
  8027a4:	8940030d 	sth	r5,12(r17)
  8027a8:	89000015 	stw	r4,0(r17)
  8027ac:	18c4000c 	andi	r3,r3,4096
  8027b0:	18002c1e 	bne	r3,zero,802864 <__sflush_r+0x160>
  8027b4:	89400c17 	ldw	r5,48(r17)
  8027b8:	9c000015 	stw	r16,0(r19)
  8027bc:	28000526 	beq	r5,zero,8027d4 <__sflush_r+0xd0>
  8027c0:	88801004 	addi	r2,r17,64
  8027c4:	28800226 	beq	r5,r2,8027d0 <__sflush_r+0xcc>
  8027c8:	9809883a 	mov	r4,r19
  8027cc:	0802fc80 	call	802fc8 <_free_r>
  8027d0:	88000c15 	stw	zero,48(r17)
  8027d4:	0005883a 	mov	r2,zero
  8027d8:	dfc00417 	ldw	ra,16(sp)
  8027dc:	dcc00317 	ldw	r19,12(sp)
  8027e0:	dc800217 	ldw	r18,8(sp)
  8027e4:	dc400117 	ldw	r17,4(sp)
  8027e8:	dc000017 	ldw	r16,0(sp)
  8027ec:	dec00504 	addi	sp,sp,20
  8027f0:	f800283a 	ret
  8027f4:	2c800417 	ldw	r18,16(r5)
  8027f8:	903ff626 	beq	r18,zero,8027d4 <__alt_mem_onchip_mem+0xff7827d4>
  8027fc:	2c000017 	ldw	r16,0(r5)
  802800:	108000cc 	andi	r2,r2,3
  802804:	2c800015 	stw	r18,0(r5)
  802808:	84a1c83a 	sub	r16,r16,r18
  80280c:	1000131e 	bne	r2,zero,80285c <__sflush_r+0x158>
  802810:	28800517 	ldw	r2,20(r5)
  802814:	88800215 	stw	r2,8(r17)
  802818:	04000316 	blt	zero,r16,802828 <__sflush_r+0x124>
  80281c:	003fed06 	br	8027d4 <__alt_mem_onchip_mem+0xff7827d4>
  802820:	90a5883a 	add	r18,r18,r2
  802824:	043feb0e 	bge	zero,r16,8027d4 <__alt_mem_onchip_mem+0xff7827d4>
  802828:	88800917 	ldw	r2,36(r17)
  80282c:	89400717 	ldw	r5,28(r17)
  802830:	800f883a 	mov	r7,r16
  802834:	900d883a 	mov	r6,r18
  802838:	9809883a 	mov	r4,r19
  80283c:	103ee83a 	callr	r2
  802840:	80a1c83a 	sub	r16,r16,r2
  802844:	00bff616 	blt	zero,r2,802820 <__alt_mem_onchip_mem+0xff782820>
  802848:	88c0030b 	ldhu	r3,12(r17)
  80284c:	00bfffc4 	movi	r2,-1
  802850:	18c01014 	ori	r3,r3,64
  802854:	88c0030d 	sth	r3,12(r17)
  802858:	003fdf06 	br	8027d8 <__alt_mem_onchip_mem+0xff7827d8>
  80285c:	0005883a 	mov	r2,zero
  802860:	003fec06 	br	802814 <__alt_mem_onchip_mem+0xff782814>
  802864:	88801415 	stw	r2,80(r17)
  802868:	003fd206 	br	8027b4 <__alt_mem_onchip_mem+0xff7827b4>
  80286c:	28c00f17 	ldw	r3,60(r5)
  802870:	00ffb316 	blt	zero,r3,802740 <__alt_mem_onchip_mem+0xff782740>
  802874:	003fd706 	br	8027d4 <__alt_mem_onchip_mem+0xff7827d4>
  802878:	89400717 	ldw	r5,28(r17)
  80287c:	000d883a 	mov	r6,zero
  802880:	01c00044 	movi	r7,1
  802884:	9809883a 	mov	r4,r19
  802888:	403ee83a 	callr	r8
  80288c:	100d883a 	mov	r6,r2
  802890:	00bfffc4 	movi	r2,-1
  802894:	30801426 	beq	r6,r2,8028e8 <__sflush_r+0x1e4>
  802898:	8880030b 	ldhu	r2,12(r17)
  80289c:	8a000a17 	ldw	r8,40(r17)
  8028a0:	003fae06 	br	80275c <__alt_mem_onchip_mem+0xff78275c>
  8028a4:	98c00017 	ldw	r3,0(r19)
  8028a8:	183fba26 	beq	r3,zero,802794 <__alt_mem_onchip_mem+0xff782794>
  8028ac:	01000744 	movi	r4,29
  8028b0:	19000626 	beq	r3,r4,8028cc <__sflush_r+0x1c8>
  8028b4:	01000584 	movi	r4,22
  8028b8:	19000426 	beq	r3,r4,8028cc <__sflush_r+0x1c8>
  8028bc:	88c0030b 	ldhu	r3,12(r17)
  8028c0:	18c01014 	ori	r3,r3,64
  8028c4:	88c0030d 	sth	r3,12(r17)
  8028c8:	003fc306 	br	8027d8 <__alt_mem_onchip_mem+0xff7827d8>
  8028cc:	8880030b 	ldhu	r2,12(r17)
  8028d0:	88c00417 	ldw	r3,16(r17)
  8028d4:	88000115 	stw	zero,4(r17)
  8028d8:	10bdffcc 	andi	r2,r2,63487
  8028dc:	8880030d 	sth	r2,12(r17)
  8028e0:	88c00015 	stw	r3,0(r17)
  8028e4:	003fb306 	br	8027b4 <__alt_mem_onchip_mem+0xff7827b4>
  8028e8:	98800017 	ldw	r2,0(r19)
  8028ec:	103fea26 	beq	r2,zero,802898 <__alt_mem_onchip_mem+0xff782898>
  8028f0:	00c00744 	movi	r3,29
  8028f4:	10c00226 	beq	r2,r3,802900 <__sflush_r+0x1fc>
  8028f8:	00c00584 	movi	r3,22
  8028fc:	10c0031e 	bne	r2,r3,80290c <__sflush_r+0x208>
  802900:	9c000015 	stw	r16,0(r19)
  802904:	0005883a 	mov	r2,zero
  802908:	003fb306 	br	8027d8 <__alt_mem_onchip_mem+0xff7827d8>
  80290c:	88c0030b 	ldhu	r3,12(r17)
  802910:	3005883a 	mov	r2,r6
  802914:	18c01014 	ori	r3,r3,64
  802918:	88c0030d 	sth	r3,12(r17)
  80291c:	003fae06 	br	8027d8 <__alt_mem_onchip_mem+0xff7827d8>

00802920 <_fflush_r>:
  802920:	defffd04 	addi	sp,sp,-12
  802924:	dc000115 	stw	r16,4(sp)
  802928:	dfc00215 	stw	ra,8(sp)
  80292c:	2021883a 	mov	r16,r4
  802930:	20000226 	beq	r4,zero,80293c <_fflush_r+0x1c>
  802934:	20800e17 	ldw	r2,56(r4)
  802938:	10000c26 	beq	r2,zero,80296c <_fflush_r+0x4c>
  80293c:	2880030f 	ldh	r2,12(r5)
  802940:	1000051e 	bne	r2,zero,802958 <_fflush_r+0x38>
  802944:	0005883a 	mov	r2,zero
  802948:	dfc00217 	ldw	ra,8(sp)
  80294c:	dc000117 	ldw	r16,4(sp)
  802950:	dec00304 	addi	sp,sp,12
  802954:	f800283a 	ret
  802958:	8009883a 	mov	r4,r16
  80295c:	dfc00217 	ldw	ra,8(sp)
  802960:	dc000117 	ldw	r16,4(sp)
  802964:	dec00304 	addi	sp,sp,12
  802968:	08027041 	jmpi	802704 <__sflush_r>
  80296c:	d9400015 	stw	r5,0(sp)
  802970:	0802cfc0 	call	802cfc <__sinit>
  802974:	d9400017 	ldw	r5,0(sp)
  802978:	003ff006 	br	80293c <__alt_mem_onchip_mem+0xff78293c>

0080297c <fflush>:
  80297c:	20000526 	beq	r4,zero,802994 <fflush+0x18>
  802980:	00802074 	movhi	r2,129
  802984:	10979804 	addi	r2,r2,24160
  802988:	200b883a 	mov	r5,r4
  80298c:	11000017 	ldw	r4,0(r2)
  802990:	08029201 	jmpi	802920 <_fflush_r>
  802994:	00802074 	movhi	r2,129
  802998:	10979704 	addi	r2,r2,24156
  80299c:	11000017 	ldw	r4,0(r2)
  8029a0:	01402034 	movhi	r5,128
  8029a4:	294a4804 	addi	r5,r5,10528
  8029a8:	08038781 	jmpi	803878 <_fwalk_reent>

008029ac <__fp_unlock>:
  8029ac:	0005883a 	mov	r2,zero
  8029b0:	f800283a 	ret

008029b4 <_cleanup_r>:
  8029b4:	01402074 	movhi	r5,129
  8029b8:	29621104 	addi	r5,r5,-30652
  8029bc:	08038781 	jmpi	803878 <_fwalk_reent>

008029c0 <__sinit.part.1>:
  8029c0:	defff704 	addi	sp,sp,-36
  8029c4:	00c02034 	movhi	r3,128
  8029c8:	dfc00815 	stw	ra,32(sp)
  8029cc:	ddc00715 	stw	r23,28(sp)
  8029d0:	dd800615 	stw	r22,24(sp)
  8029d4:	dd400515 	stw	r21,20(sp)
  8029d8:	dd000415 	stw	r20,16(sp)
  8029dc:	dcc00315 	stw	r19,12(sp)
  8029e0:	dc800215 	stw	r18,8(sp)
  8029e4:	dc400115 	stw	r17,4(sp)
  8029e8:	dc000015 	stw	r16,0(sp)
  8029ec:	18ca6d04 	addi	r3,r3,10676
  8029f0:	24000117 	ldw	r16,4(r4)
  8029f4:	20c00f15 	stw	r3,60(r4)
  8029f8:	2080bb04 	addi	r2,r4,748
  8029fc:	00c000c4 	movi	r3,3
  802a00:	20c0b915 	stw	r3,740(r4)
  802a04:	2080ba15 	stw	r2,744(r4)
  802a08:	2000b815 	stw	zero,736(r4)
  802a0c:	05c00204 	movi	r23,8
  802a10:	00800104 	movi	r2,4
  802a14:	2025883a 	mov	r18,r4
  802a18:	b80d883a 	mov	r6,r23
  802a1c:	81001704 	addi	r4,r16,92
  802a20:	000b883a 	mov	r5,zero
  802a24:	80000015 	stw	zero,0(r16)
  802a28:	80000115 	stw	zero,4(r16)
  802a2c:	80000215 	stw	zero,8(r16)
  802a30:	8080030d 	sth	r2,12(r16)
  802a34:	80001915 	stw	zero,100(r16)
  802a38:	8000038d 	sth	zero,14(r16)
  802a3c:	80000415 	stw	zero,16(r16)
  802a40:	80000515 	stw	zero,20(r16)
  802a44:	80000615 	stw	zero,24(r16)
  802a48:	08044040 	call	804404 <memset>
  802a4c:	05802034 	movhi	r22,128
  802a50:	94400217 	ldw	r17,8(r18)
  802a54:	05402034 	movhi	r21,128
  802a58:	05002034 	movhi	r20,128
  802a5c:	04c02034 	movhi	r19,128
  802a60:	b5924404 	addi	r22,r22,18704
  802a64:	ad525b04 	addi	r21,r21,18796
  802a68:	a5127a04 	addi	r20,r20,18920
  802a6c:	9cd29104 	addi	r19,r19,19012
  802a70:	85800815 	stw	r22,32(r16)
  802a74:	85400915 	stw	r21,36(r16)
  802a78:	85000a15 	stw	r20,40(r16)
  802a7c:	84c00b15 	stw	r19,44(r16)
  802a80:	84000715 	stw	r16,28(r16)
  802a84:	00800284 	movi	r2,10
  802a88:	8880030d 	sth	r2,12(r17)
  802a8c:	00800044 	movi	r2,1
  802a90:	b80d883a 	mov	r6,r23
  802a94:	89001704 	addi	r4,r17,92
  802a98:	000b883a 	mov	r5,zero
  802a9c:	88000015 	stw	zero,0(r17)
  802aa0:	88000115 	stw	zero,4(r17)
  802aa4:	88000215 	stw	zero,8(r17)
  802aa8:	88001915 	stw	zero,100(r17)
  802aac:	8880038d 	sth	r2,14(r17)
  802ab0:	88000415 	stw	zero,16(r17)
  802ab4:	88000515 	stw	zero,20(r17)
  802ab8:	88000615 	stw	zero,24(r17)
  802abc:	08044040 	call	804404 <memset>
  802ac0:	94000317 	ldw	r16,12(r18)
  802ac4:	00800484 	movi	r2,18
  802ac8:	8c400715 	stw	r17,28(r17)
  802acc:	8d800815 	stw	r22,32(r17)
  802ad0:	8d400915 	stw	r21,36(r17)
  802ad4:	8d000a15 	stw	r20,40(r17)
  802ad8:	8cc00b15 	stw	r19,44(r17)
  802adc:	8080030d 	sth	r2,12(r16)
  802ae0:	00800084 	movi	r2,2
  802ae4:	80000015 	stw	zero,0(r16)
  802ae8:	80000115 	stw	zero,4(r16)
  802aec:	80000215 	stw	zero,8(r16)
  802af0:	80001915 	stw	zero,100(r16)
  802af4:	8080038d 	sth	r2,14(r16)
  802af8:	80000415 	stw	zero,16(r16)
  802afc:	80000515 	stw	zero,20(r16)
  802b00:	80000615 	stw	zero,24(r16)
  802b04:	b80d883a 	mov	r6,r23
  802b08:	000b883a 	mov	r5,zero
  802b0c:	81001704 	addi	r4,r16,92
  802b10:	08044040 	call	804404 <memset>
  802b14:	00800044 	movi	r2,1
  802b18:	84000715 	stw	r16,28(r16)
  802b1c:	85800815 	stw	r22,32(r16)
  802b20:	85400915 	stw	r21,36(r16)
  802b24:	85000a15 	stw	r20,40(r16)
  802b28:	84c00b15 	stw	r19,44(r16)
  802b2c:	90800e15 	stw	r2,56(r18)
  802b30:	dfc00817 	ldw	ra,32(sp)
  802b34:	ddc00717 	ldw	r23,28(sp)
  802b38:	dd800617 	ldw	r22,24(sp)
  802b3c:	dd400517 	ldw	r21,20(sp)
  802b40:	dd000417 	ldw	r20,16(sp)
  802b44:	dcc00317 	ldw	r19,12(sp)
  802b48:	dc800217 	ldw	r18,8(sp)
  802b4c:	dc400117 	ldw	r17,4(sp)
  802b50:	dc000017 	ldw	r16,0(sp)
  802b54:	dec00904 	addi	sp,sp,36
  802b58:	f800283a 	ret

00802b5c <__fp_lock>:
  802b5c:	0005883a 	mov	r2,zero
  802b60:	f800283a 	ret

00802b64 <__sfmoreglue>:
  802b64:	defffc04 	addi	sp,sp,-16
  802b68:	dc400115 	stw	r17,4(sp)
  802b6c:	2c7fffc4 	addi	r17,r5,-1
  802b70:	8c401a24 	muli	r17,r17,104
  802b74:	dc800215 	stw	r18,8(sp)
  802b78:	2825883a 	mov	r18,r5
  802b7c:	89401d04 	addi	r5,r17,116
  802b80:	dc000015 	stw	r16,0(sp)
  802b84:	dfc00315 	stw	ra,12(sp)
  802b88:	0803bf80 	call	803bf8 <_malloc_r>
  802b8c:	1021883a 	mov	r16,r2
  802b90:	10000726 	beq	r2,zero,802bb0 <__sfmoreglue+0x4c>
  802b94:	11000304 	addi	r4,r2,12
  802b98:	10000015 	stw	zero,0(r2)
  802b9c:	14800115 	stw	r18,4(r2)
  802ba0:	11000215 	stw	r4,8(r2)
  802ba4:	89801a04 	addi	r6,r17,104
  802ba8:	000b883a 	mov	r5,zero
  802bac:	08044040 	call	804404 <memset>
  802bb0:	8005883a 	mov	r2,r16
  802bb4:	dfc00317 	ldw	ra,12(sp)
  802bb8:	dc800217 	ldw	r18,8(sp)
  802bbc:	dc400117 	ldw	r17,4(sp)
  802bc0:	dc000017 	ldw	r16,0(sp)
  802bc4:	dec00404 	addi	sp,sp,16
  802bc8:	f800283a 	ret

00802bcc <__sfp>:
  802bcc:	defffb04 	addi	sp,sp,-20
  802bd0:	dc000015 	stw	r16,0(sp)
  802bd4:	04002074 	movhi	r16,129
  802bd8:	84179704 	addi	r16,r16,24156
  802bdc:	dcc00315 	stw	r19,12(sp)
  802be0:	2027883a 	mov	r19,r4
  802be4:	81000017 	ldw	r4,0(r16)
  802be8:	dfc00415 	stw	ra,16(sp)
  802bec:	dc800215 	stw	r18,8(sp)
  802bf0:	20800e17 	ldw	r2,56(r4)
  802bf4:	dc400115 	stw	r17,4(sp)
  802bf8:	1000021e 	bne	r2,zero,802c04 <__sfp+0x38>
  802bfc:	08029c00 	call	8029c0 <__sinit.part.1>
  802c00:	81000017 	ldw	r4,0(r16)
  802c04:	2480b804 	addi	r18,r4,736
  802c08:	047fffc4 	movi	r17,-1
  802c0c:	91000117 	ldw	r4,4(r18)
  802c10:	94000217 	ldw	r16,8(r18)
  802c14:	213fffc4 	addi	r4,r4,-1
  802c18:	20000a16 	blt	r4,zero,802c44 <__sfp+0x78>
  802c1c:	8080030f 	ldh	r2,12(r16)
  802c20:	10000c26 	beq	r2,zero,802c54 <__sfp+0x88>
  802c24:	80c01d04 	addi	r3,r16,116
  802c28:	00000206 	br	802c34 <__sfp+0x68>
  802c2c:	18bfe60f 	ldh	r2,-104(r3)
  802c30:	10000826 	beq	r2,zero,802c54 <__sfp+0x88>
  802c34:	213fffc4 	addi	r4,r4,-1
  802c38:	1c3ffd04 	addi	r16,r3,-12
  802c3c:	18c01a04 	addi	r3,r3,104
  802c40:	247ffa1e 	bne	r4,r17,802c2c <__alt_mem_onchip_mem+0xff782c2c>
  802c44:	90800017 	ldw	r2,0(r18)
  802c48:	10001d26 	beq	r2,zero,802cc0 <__sfp+0xf4>
  802c4c:	1025883a 	mov	r18,r2
  802c50:	003fee06 	br	802c0c <__alt_mem_onchip_mem+0xff782c0c>
  802c54:	00bfffc4 	movi	r2,-1
  802c58:	8080038d 	sth	r2,14(r16)
  802c5c:	00800044 	movi	r2,1
  802c60:	8080030d 	sth	r2,12(r16)
  802c64:	80001915 	stw	zero,100(r16)
  802c68:	80000015 	stw	zero,0(r16)
  802c6c:	80000215 	stw	zero,8(r16)
  802c70:	80000115 	stw	zero,4(r16)
  802c74:	80000415 	stw	zero,16(r16)
  802c78:	80000515 	stw	zero,20(r16)
  802c7c:	80000615 	stw	zero,24(r16)
  802c80:	01800204 	movi	r6,8
  802c84:	000b883a 	mov	r5,zero
  802c88:	81001704 	addi	r4,r16,92
  802c8c:	08044040 	call	804404 <memset>
  802c90:	8005883a 	mov	r2,r16
  802c94:	80000c15 	stw	zero,48(r16)
  802c98:	80000d15 	stw	zero,52(r16)
  802c9c:	80001115 	stw	zero,68(r16)
  802ca0:	80001215 	stw	zero,72(r16)
  802ca4:	dfc00417 	ldw	ra,16(sp)
  802ca8:	dcc00317 	ldw	r19,12(sp)
  802cac:	dc800217 	ldw	r18,8(sp)
  802cb0:	dc400117 	ldw	r17,4(sp)
  802cb4:	dc000017 	ldw	r16,0(sp)
  802cb8:	dec00504 	addi	sp,sp,20
  802cbc:	f800283a 	ret
  802cc0:	01400104 	movi	r5,4
  802cc4:	9809883a 	mov	r4,r19
  802cc8:	0802b640 	call	802b64 <__sfmoreglue>
  802ccc:	90800015 	stw	r2,0(r18)
  802cd0:	103fde1e 	bne	r2,zero,802c4c <__alt_mem_onchip_mem+0xff782c4c>
  802cd4:	00800304 	movi	r2,12
  802cd8:	98800015 	stw	r2,0(r19)
  802cdc:	0005883a 	mov	r2,zero
  802ce0:	003ff006 	br	802ca4 <__alt_mem_onchip_mem+0xff782ca4>

00802ce4 <_cleanup>:
  802ce4:	00802074 	movhi	r2,129
  802ce8:	10979704 	addi	r2,r2,24156
  802cec:	11000017 	ldw	r4,0(r2)
  802cf0:	01402074 	movhi	r5,129
  802cf4:	29621104 	addi	r5,r5,-30652
  802cf8:	08038781 	jmpi	803878 <_fwalk_reent>

00802cfc <__sinit>:
  802cfc:	20800e17 	ldw	r2,56(r4)
  802d00:	10000126 	beq	r2,zero,802d08 <__sinit+0xc>
  802d04:	f800283a 	ret
  802d08:	08029c01 	jmpi	8029c0 <__sinit.part.1>

00802d0c <__sfp_lock_acquire>:
  802d0c:	f800283a 	ret

00802d10 <__sfp_lock_release>:
  802d10:	f800283a 	ret

00802d14 <__sinit_lock_acquire>:
  802d14:	f800283a 	ret

00802d18 <__sinit_lock_release>:
  802d18:	f800283a 	ret

00802d1c <__fp_lock_all>:
  802d1c:	00802074 	movhi	r2,129
  802d20:	10979804 	addi	r2,r2,24160
  802d24:	11000017 	ldw	r4,0(r2)
  802d28:	01402034 	movhi	r5,128
  802d2c:	294ad704 	addi	r5,r5,11100
  802d30:	08037b41 	jmpi	8037b4 <_fwalk>

00802d34 <__fp_unlock_all>:
  802d34:	00802074 	movhi	r2,129
  802d38:	10979804 	addi	r2,r2,24160
  802d3c:	11000017 	ldw	r4,0(r2)
  802d40:	01402034 	movhi	r5,128
  802d44:	294a6b04 	addi	r5,r5,10668
  802d48:	08037b41 	jmpi	8037b4 <_fwalk>

00802d4c <_fopen_r>:
  802d4c:	defffa04 	addi	sp,sp,-24
  802d50:	3005883a 	mov	r2,r6
  802d54:	dcc00415 	stw	r19,16(sp)
  802d58:	d80d883a 	mov	r6,sp
  802d5c:	2827883a 	mov	r19,r5
  802d60:	100b883a 	mov	r5,r2
  802d64:	dc800315 	stw	r18,12(sp)
  802d68:	dfc00515 	stw	ra,20(sp)
  802d6c:	dc400215 	stw	r17,8(sp)
  802d70:	dc000115 	stw	r16,4(sp)
  802d74:	2025883a 	mov	r18,r4
  802d78:	08089480 	call	808948 <__sflags>
  802d7c:	10002726 	beq	r2,zero,802e1c <_fopen_r+0xd0>
  802d80:	9009883a 	mov	r4,r18
  802d84:	1023883a 	mov	r17,r2
  802d88:	0802bcc0 	call	802bcc <__sfp>
  802d8c:	1021883a 	mov	r16,r2
  802d90:	10002226 	beq	r2,zero,802e1c <_fopen_r+0xd0>
  802d94:	d9800017 	ldw	r6,0(sp)
  802d98:	01c06d84 	movi	r7,438
  802d9c:	980b883a 	mov	r5,r19
  802da0:	9009883a 	mov	r4,r18
  802da4:	080452c0 	call	80452c <_open_r>
  802da8:	10001916 	blt	r2,zero,802e10 <_fopen_r+0xc4>
  802dac:	8080038d 	sth	r2,14(r16)
  802db0:	00802034 	movhi	r2,128
  802db4:	10924404 	addi	r2,r2,18704
  802db8:	80800815 	stw	r2,32(r16)
  802dbc:	00802034 	movhi	r2,128
  802dc0:	10925b04 	addi	r2,r2,18796
  802dc4:	80800915 	stw	r2,36(r16)
  802dc8:	00802034 	movhi	r2,128
  802dcc:	10927a04 	addi	r2,r2,18920
  802dd0:	80800a15 	stw	r2,40(r16)
  802dd4:	00802034 	movhi	r2,128
  802dd8:	10929104 	addi	r2,r2,19012
  802ddc:	8440030d 	sth	r17,12(r16)
  802de0:	84000715 	stw	r16,28(r16)
  802de4:	80800b15 	stw	r2,44(r16)
  802de8:	8c40400c 	andi	r17,r17,256
  802dec:	88000d1e 	bne	r17,zero,802e24 <_fopen_r+0xd8>
  802df0:	8005883a 	mov	r2,r16
  802df4:	dfc00517 	ldw	ra,20(sp)
  802df8:	dcc00417 	ldw	r19,16(sp)
  802dfc:	dc800317 	ldw	r18,12(sp)
  802e00:	dc400217 	ldw	r17,8(sp)
  802e04:	dc000117 	ldw	r16,4(sp)
  802e08:	dec00604 	addi	sp,sp,24
  802e0c:	f800283a 	ret
  802e10:	0802d0c0 	call	802d0c <__sfp_lock_acquire>
  802e14:	8000030d 	sth	zero,12(r16)
  802e18:	0802d100 	call	802d10 <__sfp_lock_release>
  802e1c:	0005883a 	mov	r2,zero
  802e20:	003ff406 	br	802df4 <__alt_mem_onchip_mem+0xff782df4>
  802e24:	01c00084 	movi	r7,2
  802e28:	000d883a 	mov	r6,zero
  802e2c:	800b883a 	mov	r5,r16
  802e30:	9009883a 	mov	r4,r18
  802e34:	08032d80 	call	8032d8 <_fseek_r>
  802e38:	8005883a 	mov	r2,r16
  802e3c:	003fed06 	br	802df4 <__alt_mem_onchip_mem+0xff782df4>

00802e40 <fopen>:
  802e40:	00802074 	movhi	r2,129
  802e44:	10979804 	addi	r2,r2,24160
  802e48:	280d883a 	mov	r6,r5
  802e4c:	200b883a 	mov	r5,r4
  802e50:	11000017 	ldw	r4,0(r2)
  802e54:	0802d4c1 	jmpi	802d4c <_fopen_r>

00802e58 <_fprintf_r>:
  802e58:	defffe04 	addi	sp,sp,-8
  802e5c:	2809883a 	mov	r4,r5
  802e60:	300b883a 	mov	r5,r6
  802e64:	dfc00015 	stw	ra,0(sp)
  802e68:	d9c00115 	stw	r7,4(sp)
  802e6c:	d9800104 	addi	r6,sp,4
  802e70:	0806cdc0 	call	806cdc <__vfprintf_internal>
  802e74:	dfc00017 	ldw	ra,0(sp)
  802e78:	dec00204 	addi	sp,sp,8
  802e7c:	f800283a 	ret

00802e80 <fprintf>:
  802e80:	defffd04 	addi	sp,sp,-12
  802e84:	dfc00015 	stw	ra,0(sp)
  802e88:	d9800115 	stw	r6,4(sp)
  802e8c:	d9c00215 	stw	r7,8(sp)
  802e90:	d9800104 	addi	r6,sp,4
  802e94:	0806cdc0 	call	806cdc <__vfprintf_internal>
  802e98:	dfc00017 	ldw	ra,0(sp)
  802e9c:	dec00304 	addi	sp,sp,12
  802ea0:	f800283a 	ret

00802ea4 <_malloc_trim_r>:
  802ea4:	defffb04 	addi	sp,sp,-20
  802ea8:	dcc00315 	stw	r19,12(sp)
  802eac:	04c02074 	movhi	r19,129
  802eb0:	dc800215 	stw	r18,8(sp)
  802eb4:	dc400115 	stw	r17,4(sp)
  802eb8:	dc000015 	stw	r16,0(sp)
  802ebc:	dfc00415 	stw	ra,16(sp)
  802ec0:	2821883a 	mov	r16,r5
  802ec4:	9cd17b04 	addi	r19,r19,17900
  802ec8:	2025883a 	mov	r18,r4
  802ecc:	08100a00 	call	8100a0 <__malloc_lock>
  802ed0:	98800217 	ldw	r2,8(r19)
  802ed4:	14400117 	ldw	r17,4(r2)
  802ed8:	00bfff04 	movi	r2,-4
  802edc:	88a2703a 	and	r17,r17,r2
  802ee0:	8c21c83a 	sub	r16,r17,r16
  802ee4:	8403fbc4 	addi	r16,r16,4079
  802ee8:	8020d33a 	srli	r16,r16,12
  802eec:	0083ffc4 	movi	r2,4095
  802ef0:	843fffc4 	addi	r16,r16,-1
  802ef4:	8020933a 	slli	r16,r16,12
  802ef8:	1400060e 	bge	r2,r16,802f14 <_malloc_trim_r+0x70>
  802efc:	000b883a 	mov	r5,zero
  802f00:	9009883a 	mov	r4,r18
  802f04:	08048bc0 	call	8048bc <_sbrk_r>
  802f08:	98c00217 	ldw	r3,8(r19)
  802f0c:	1c47883a 	add	r3,r3,r17
  802f10:	10c00a26 	beq	r2,r3,802f3c <_malloc_trim_r+0x98>
  802f14:	9009883a 	mov	r4,r18
  802f18:	08100c40 	call	8100c4 <__malloc_unlock>
  802f1c:	0005883a 	mov	r2,zero
  802f20:	dfc00417 	ldw	ra,16(sp)
  802f24:	dcc00317 	ldw	r19,12(sp)
  802f28:	dc800217 	ldw	r18,8(sp)
  802f2c:	dc400117 	ldw	r17,4(sp)
  802f30:	dc000017 	ldw	r16,0(sp)
  802f34:	dec00504 	addi	sp,sp,20
  802f38:	f800283a 	ret
  802f3c:	040bc83a 	sub	r5,zero,r16
  802f40:	9009883a 	mov	r4,r18
  802f44:	08048bc0 	call	8048bc <_sbrk_r>
  802f48:	00ffffc4 	movi	r3,-1
  802f4c:	10c00d26 	beq	r2,r3,802f84 <_malloc_trim_r+0xe0>
  802f50:	00c02074 	movhi	r3,129
  802f54:	18df8904 	addi	r3,r3,32292
  802f58:	18800017 	ldw	r2,0(r3)
  802f5c:	99000217 	ldw	r4,8(r19)
  802f60:	8c23c83a 	sub	r17,r17,r16
  802f64:	8c400054 	ori	r17,r17,1
  802f68:	1421c83a 	sub	r16,r2,r16
  802f6c:	24400115 	stw	r17,4(r4)
  802f70:	9009883a 	mov	r4,r18
  802f74:	1c000015 	stw	r16,0(r3)
  802f78:	08100c40 	call	8100c4 <__malloc_unlock>
  802f7c:	00800044 	movi	r2,1
  802f80:	003fe706 	br	802f20 <__alt_mem_onchip_mem+0xff782f20>
  802f84:	000b883a 	mov	r5,zero
  802f88:	9009883a 	mov	r4,r18
  802f8c:	08048bc0 	call	8048bc <_sbrk_r>
  802f90:	99000217 	ldw	r4,8(r19)
  802f94:	014003c4 	movi	r5,15
  802f98:	1107c83a 	sub	r3,r2,r4
  802f9c:	28ffdd0e 	bge	r5,r3,802f14 <__alt_mem_onchip_mem+0xff782f14>
  802fa0:	01402074 	movhi	r5,129
  802fa4:	29579904 	addi	r5,r5,24164
  802fa8:	29400017 	ldw	r5,0(r5)
  802fac:	18c00054 	ori	r3,r3,1
  802fb0:	20c00115 	stw	r3,4(r4)
  802fb4:	00c02074 	movhi	r3,129
  802fb8:	1145c83a 	sub	r2,r2,r5
  802fbc:	18df8904 	addi	r3,r3,32292
  802fc0:	18800015 	stw	r2,0(r3)
  802fc4:	003fd306 	br	802f14 <__alt_mem_onchip_mem+0xff782f14>

00802fc8 <_free_r>:
  802fc8:	28004126 	beq	r5,zero,8030d0 <_free_r+0x108>
  802fcc:	defffd04 	addi	sp,sp,-12
  802fd0:	dc400115 	stw	r17,4(sp)
  802fd4:	dc000015 	stw	r16,0(sp)
  802fd8:	2023883a 	mov	r17,r4
  802fdc:	2821883a 	mov	r16,r5
  802fe0:	dfc00215 	stw	ra,8(sp)
  802fe4:	08100a00 	call	8100a0 <__malloc_lock>
  802fe8:	81ffff17 	ldw	r7,-4(r16)
  802fec:	00bfff84 	movi	r2,-2
  802ff0:	01002074 	movhi	r4,129
  802ff4:	81bffe04 	addi	r6,r16,-8
  802ff8:	3884703a 	and	r2,r7,r2
  802ffc:	21117b04 	addi	r4,r4,17900
  803000:	308b883a 	add	r5,r6,r2
  803004:	2a400117 	ldw	r9,4(r5)
  803008:	22000217 	ldw	r8,8(r4)
  80300c:	00ffff04 	movi	r3,-4
  803010:	48c6703a 	and	r3,r9,r3
  803014:	2a005726 	beq	r5,r8,803174 <_free_r+0x1ac>
  803018:	28c00115 	stw	r3,4(r5)
  80301c:	39c0004c 	andi	r7,r7,1
  803020:	3800091e 	bne	r7,zero,803048 <_free_r+0x80>
  803024:	823ffe17 	ldw	r8,-8(r16)
  803028:	22400204 	addi	r9,r4,8
  80302c:	320dc83a 	sub	r6,r6,r8
  803030:	31c00217 	ldw	r7,8(r6)
  803034:	1205883a 	add	r2,r2,r8
  803038:	3a406526 	beq	r7,r9,8031d0 <_free_r+0x208>
  80303c:	32000317 	ldw	r8,12(r6)
  803040:	3a000315 	stw	r8,12(r7)
  803044:	41c00215 	stw	r7,8(r8)
  803048:	28cf883a 	add	r7,r5,r3
  80304c:	39c00117 	ldw	r7,4(r7)
  803050:	39c0004c 	andi	r7,r7,1
  803054:	38003a26 	beq	r7,zero,803140 <_free_r+0x178>
  803058:	10c00054 	ori	r3,r2,1
  80305c:	30c00115 	stw	r3,4(r6)
  803060:	3087883a 	add	r3,r6,r2
  803064:	18800015 	stw	r2,0(r3)
  803068:	00c07fc4 	movi	r3,511
  80306c:	18801936 	bltu	r3,r2,8030d4 <_free_r+0x10c>
  803070:	1004d0fa 	srli	r2,r2,3
  803074:	01c00044 	movi	r7,1
  803078:	21400117 	ldw	r5,4(r4)
  80307c:	10c00044 	addi	r3,r2,1
  803080:	18c7883a 	add	r3,r3,r3
  803084:	1005d0ba 	srai	r2,r2,2
  803088:	18c7883a 	add	r3,r3,r3
  80308c:	18c7883a 	add	r3,r3,r3
  803090:	1907883a 	add	r3,r3,r4
  803094:	3884983a 	sll	r2,r7,r2
  803098:	19c00017 	ldw	r7,0(r3)
  80309c:	1a3ffe04 	addi	r8,r3,-8
  8030a0:	1144b03a 	or	r2,r2,r5
  8030a4:	32000315 	stw	r8,12(r6)
  8030a8:	31c00215 	stw	r7,8(r6)
  8030ac:	20800115 	stw	r2,4(r4)
  8030b0:	19800015 	stw	r6,0(r3)
  8030b4:	39800315 	stw	r6,12(r7)
  8030b8:	8809883a 	mov	r4,r17
  8030bc:	dfc00217 	ldw	ra,8(sp)
  8030c0:	dc400117 	ldw	r17,4(sp)
  8030c4:	dc000017 	ldw	r16,0(sp)
  8030c8:	dec00304 	addi	sp,sp,12
  8030cc:	08100c41 	jmpi	8100c4 <__malloc_unlock>
  8030d0:	f800283a 	ret
  8030d4:	100ad27a 	srli	r5,r2,9
  8030d8:	00c00104 	movi	r3,4
  8030dc:	19404a36 	bltu	r3,r5,803208 <_free_r+0x240>
  8030e0:	100ad1ba 	srli	r5,r2,6
  8030e4:	28c00e44 	addi	r3,r5,57
  8030e8:	18c7883a 	add	r3,r3,r3
  8030ec:	29400e04 	addi	r5,r5,56
  8030f0:	18c7883a 	add	r3,r3,r3
  8030f4:	18c7883a 	add	r3,r3,r3
  8030f8:	1909883a 	add	r4,r3,r4
  8030fc:	20c00017 	ldw	r3,0(r4)
  803100:	01c02074 	movhi	r7,129
  803104:	213ffe04 	addi	r4,r4,-8
  803108:	39d17b04 	addi	r7,r7,17900
  80310c:	20c04426 	beq	r4,r3,803220 <_free_r+0x258>
  803110:	01ffff04 	movi	r7,-4
  803114:	19400117 	ldw	r5,4(r3)
  803118:	29ca703a 	and	r5,r5,r7
  80311c:	1140022e 	bgeu	r2,r5,803128 <_free_r+0x160>
  803120:	18c00217 	ldw	r3,8(r3)
  803124:	20fffb1e 	bne	r4,r3,803114 <__alt_mem_onchip_mem+0xff783114>
  803128:	19000317 	ldw	r4,12(r3)
  80312c:	31000315 	stw	r4,12(r6)
  803130:	30c00215 	stw	r3,8(r6)
  803134:	21800215 	stw	r6,8(r4)
  803138:	19800315 	stw	r6,12(r3)
  80313c:	003fde06 	br	8030b8 <__alt_mem_onchip_mem+0xff7830b8>
  803140:	29c00217 	ldw	r7,8(r5)
  803144:	10c5883a 	add	r2,r2,r3
  803148:	00c02074 	movhi	r3,129
  80314c:	18d17d04 	addi	r3,r3,17908
  803150:	38c03b26 	beq	r7,r3,803240 <_free_r+0x278>
  803154:	2a000317 	ldw	r8,12(r5)
  803158:	11400054 	ori	r5,r2,1
  80315c:	3087883a 	add	r3,r6,r2
  803160:	3a000315 	stw	r8,12(r7)
  803164:	41c00215 	stw	r7,8(r8)
  803168:	31400115 	stw	r5,4(r6)
  80316c:	18800015 	stw	r2,0(r3)
  803170:	003fbd06 	br	803068 <__alt_mem_onchip_mem+0xff783068>
  803174:	39c0004c 	andi	r7,r7,1
  803178:	10c5883a 	add	r2,r2,r3
  80317c:	3800071e 	bne	r7,zero,80319c <_free_r+0x1d4>
  803180:	81fffe17 	ldw	r7,-8(r16)
  803184:	31cdc83a 	sub	r6,r6,r7
  803188:	30c00317 	ldw	r3,12(r6)
  80318c:	31400217 	ldw	r5,8(r6)
  803190:	11c5883a 	add	r2,r2,r7
  803194:	28c00315 	stw	r3,12(r5)
  803198:	19400215 	stw	r5,8(r3)
  80319c:	10c00054 	ori	r3,r2,1
  8031a0:	30c00115 	stw	r3,4(r6)
  8031a4:	00c02074 	movhi	r3,129
  8031a8:	18d79a04 	addi	r3,r3,24168
  8031ac:	18c00017 	ldw	r3,0(r3)
  8031b0:	21800215 	stw	r6,8(r4)
  8031b4:	10ffc036 	bltu	r2,r3,8030b8 <__alt_mem_onchip_mem+0xff7830b8>
  8031b8:	00802074 	movhi	r2,129
  8031bc:	109f1e04 	addi	r2,r2,31864
  8031c0:	11400017 	ldw	r5,0(r2)
  8031c4:	8809883a 	mov	r4,r17
  8031c8:	0802ea40 	call	802ea4 <_malloc_trim_r>
  8031cc:	003fba06 	br	8030b8 <__alt_mem_onchip_mem+0xff7830b8>
  8031d0:	28c9883a 	add	r4,r5,r3
  8031d4:	21000117 	ldw	r4,4(r4)
  8031d8:	2100004c 	andi	r4,r4,1
  8031dc:	2000391e 	bne	r4,zero,8032c4 <_free_r+0x2fc>
  8031e0:	29c00217 	ldw	r7,8(r5)
  8031e4:	29000317 	ldw	r4,12(r5)
  8031e8:	1885883a 	add	r2,r3,r2
  8031ec:	10c00054 	ori	r3,r2,1
  8031f0:	39000315 	stw	r4,12(r7)
  8031f4:	21c00215 	stw	r7,8(r4)
  8031f8:	30c00115 	stw	r3,4(r6)
  8031fc:	308d883a 	add	r6,r6,r2
  803200:	30800015 	stw	r2,0(r6)
  803204:	003fac06 	br	8030b8 <__alt_mem_onchip_mem+0xff7830b8>
  803208:	00c00504 	movi	r3,20
  80320c:	19401536 	bltu	r3,r5,803264 <_free_r+0x29c>
  803210:	28c01704 	addi	r3,r5,92
  803214:	18c7883a 	add	r3,r3,r3
  803218:	294016c4 	addi	r5,r5,91
  80321c:	003fb406 	br	8030f0 <__alt_mem_onchip_mem+0xff7830f0>
  803220:	280bd0ba 	srai	r5,r5,2
  803224:	00c00044 	movi	r3,1
  803228:	38800117 	ldw	r2,4(r7)
  80322c:	194a983a 	sll	r5,r3,r5
  803230:	2007883a 	mov	r3,r4
  803234:	2884b03a 	or	r2,r5,r2
  803238:	38800115 	stw	r2,4(r7)
  80323c:	003fbb06 	br	80312c <__alt_mem_onchip_mem+0xff78312c>
  803240:	21800515 	stw	r6,20(r4)
  803244:	21800415 	stw	r6,16(r4)
  803248:	10c00054 	ori	r3,r2,1
  80324c:	31c00315 	stw	r7,12(r6)
  803250:	31c00215 	stw	r7,8(r6)
  803254:	30c00115 	stw	r3,4(r6)
  803258:	308d883a 	add	r6,r6,r2
  80325c:	30800015 	stw	r2,0(r6)
  803260:	003f9506 	br	8030b8 <__alt_mem_onchip_mem+0xff7830b8>
  803264:	00c01504 	movi	r3,84
  803268:	19400536 	bltu	r3,r5,803280 <_free_r+0x2b8>
  80326c:	100ad33a 	srli	r5,r2,12
  803270:	28c01bc4 	addi	r3,r5,111
  803274:	18c7883a 	add	r3,r3,r3
  803278:	29401b84 	addi	r5,r5,110
  80327c:	003f9c06 	br	8030f0 <__alt_mem_onchip_mem+0xff7830f0>
  803280:	00c05504 	movi	r3,340
  803284:	19400536 	bltu	r3,r5,80329c <_free_r+0x2d4>
  803288:	100ad3fa 	srli	r5,r2,15
  80328c:	28c01e04 	addi	r3,r5,120
  803290:	18c7883a 	add	r3,r3,r3
  803294:	29401dc4 	addi	r5,r5,119
  803298:	003f9506 	br	8030f0 <__alt_mem_onchip_mem+0xff7830f0>
  80329c:	00c15504 	movi	r3,1364
  8032a0:	19400536 	bltu	r3,r5,8032b8 <_free_r+0x2f0>
  8032a4:	100ad4ba 	srli	r5,r2,18
  8032a8:	28c01f44 	addi	r3,r5,125
  8032ac:	18c7883a 	add	r3,r3,r3
  8032b0:	29401f04 	addi	r5,r5,124
  8032b4:	003f8e06 	br	8030f0 <__alt_mem_onchip_mem+0xff7830f0>
  8032b8:	00c03f84 	movi	r3,254
  8032bc:	01401f84 	movi	r5,126
  8032c0:	003f8b06 	br	8030f0 <__alt_mem_onchip_mem+0xff7830f0>
  8032c4:	10c00054 	ori	r3,r2,1
  8032c8:	30c00115 	stw	r3,4(r6)
  8032cc:	308d883a 	add	r6,r6,r2
  8032d0:	30800015 	stw	r2,0(r6)
  8032d4:	003f7806 	br	8030b8 <__alt_mem_onchip_mem+0xff7830b8>

008032d8 <_fseek_r>:
  8032d8:	08032f81 	jmpi	8032f8 <_fseeko_r>

008032dc <fseek>:
  8032dc:	00802074 	movhi	r2,129
  8032e0:	10979804 	addi	r2,r2,24160
  8032e4:	300f883a 	mov	r7,r6
  8032e8:	280d883a 	mov	r6,r5
  8032ec:	200b883a 	mov	r5,r4
  8032f0:	11000017 	ldw	r4,0(r2)
  8032f4:	08032f81 	jmpi	8032f8 <_fseeko_r>

008032f8 <_fseeko_r>:
  8032f8:	deffe804 	addi	sp,sp,-96
  8032fc:	dd401415 	stw	r21,80(sp)
  803300:	dc801115 	stw	r18,68(sp)
  803304:	dc401015 	stw	r17,64(sp)
  803308:	dc000f15 	stw	r16,60(sp)
  80330c:	dfc01715 	stw	ra,92(sp)
  803310:	ddc01615 	stw	r23,88(sp)
  803314:	dd801515 	stw	r22,84(sp)
  803318:	dd001315 	stw	r20,76(sp)
  80331c:	dcc01215 	stw	r19,72(sp)
  803320:	2023883a 	mov	r17,r4
  803324:	2821883a 	mov	r16,r5
  803328:	302b883a 	mov	r21,r6
  80332c:	3825883a 	mov	r18,r7
  803330:	20000226 	beq	r4,zero,80333c <_fseeko_r+0x44>
  803334:	20800e17 	ldw	r2,56(r4)
  803338:	10005a26 	beq	r2,zero,8034a4 <_fseeko_r+0x1ac>
  80333c:	8080030b 	ldhu	r2,12(r16)
  803340:	00c04204 	movi	r3,264
  803344:	1080420c 	andi	r2,r2,264
  803348:	10c05b26 	beq	r2,r3,8034b8 <_fseeko_r+0x1c0>
  80334c:	85000a17 	ldw	r20,40(r16)
  803350:	a000f626 	beq	r20,zero,80372c <_fseeko_r+0x434>
  803354:	00800044 	movi	r2,1
  803358:	90803e26 	beq	r18,r2,803454 <_fseeko_r+0x15c>
  80335c:	00800084 	movi	r2,2
  803360:	90801026 	beq	r18,r2,8033a4 <_fseeko_r+0xac>
  803364:	90000f26 	beq	r18,zero,8033a4 <_fseeko_r+0xac>
  803368:	00800584 	movi	r2,22
  80336c:	88800015 	stw	r2,0(r17)
  803370:	04ffffc4 	movi	r19,-1
  803374:	9805883a 	mov	r2,r19
  803378:	dfc01717 	ldw	ra,92(sp)
  80337c:	ddc01617 	ldw	r23,88(sp)
  803380:	dd801517 	ldw	r22,84(sp)
  803384:	dd401417 	ldw	r21,80(sp)
  803388:	dd001317 	ldw	r20,76(sp)
  80338c:	dcc01217 	ldw	r19,72(sp)
  803390:	dc801117 	ldw	r18,68(sp)
  803394:	dc401017 	ldw	r17,64(sp)
  803398:	dc000f17 	ldw	r16,60(sp)
  80339c:	dec01804 	addi	sp,sp,96
  8033a0:	f800283a 	ret
  8033a4:	80800417 	ldw	r2,16(r16)
  8033a8:	002f883a 	mov	r23,zero
  8033ac:	0027883a 	mov	r19,zero
  8033b0:	1000cb26 	beq	r2,zero,8036e0 <_fseeko_r+0x3e8>
  8033b4:	8080030b 	ldhu	r2,12(r16)
  8033b8:	10c2068c 	andi	r3,r2,2074
  8033bc:	1800071e 	bne	r3,zero,8033dc <_fseeko_r+0xe4>
  8033c0:	10c1000c 	andi	r3,r2,1024
  8033c4:	1800451e 	bne	r3,zero,8034dc <_fseeko_r+0x1e4>
  8033c8:	00c02034 	movhi	r3,128
  8033cc:	18d27a04 	addi	r3,r3,18920
  8033d0:	a0c0b726 	beq	r20,r3,8036b0 <_fseeko_r+0x3b8>
  8033d4:	10820014 	ori	r2,r2,2048
  8033d8:	8080030d 	sth	r2,12(r16)
  8033dc:	800b883a 	mov	r5,r16
  8033e0:	8809883a 	mov	r4,r17
  8033e4:	08029200 	call	802920 <_fflush_r>
  8033e8:	1027883a 	mov	r19,r2
  8033ec:	103fe01e 	bne	r2,zero,803370 <__alt_mem_onchip_mem+0xff783370>
  8033f0:	81400717 	ldw	r5,28(r16)
  8033f4:	900f883a 	mov	r7,r18
  8033f8:	a80d883a 	mov	r6,r21
  8033fc:	8809883a 	mov	r4,r17
  803400:	a03ee83a 	callr	r20
  803404:	00ffffc4 	movi	r3,-1
  803408:	10ffd926 	beq	r2,r3,803370 <__alt_mem_onchip_mem+0xff783370>
  80340c:	81400c17 	ldw	r5,48(r16)
  803410:	28000526 	beq	r5,zero,803428 <_fseeko_r+0x130>
  803414:	80801004 	addi	r2,r16,64
  803418:	28800226 	beq	r5,r2,803424 <_fseeko_r+0x12c>
  80341c:	8809883a 	mov	r4,r17
  803420:	0802fc80 	call	802fc8 <_free_r>
  803424:	80000c15 	stw	zero,48(r16)
  803428:	8080030b 	ldhu	r2,12(r16)
  80342c:	80c00417 	ldw	r3,16(r16)
  803430:	80000115 	stw	zero,4(r16)
  803434:	10bdf7cc 	andi	r2,r2,63455
  803438:	80c00015 	stw	r3,0(r16)
  80343c:	8080030d 	sth	r2,12(r16)
  803440:	01800204 	movi	r6,8
  803444:	000b883a 	mov	r5,zero
  803448:	81001704 	addi	r4,r16,92
  80344c:	08044040 	call	804404 <memset>
  803450:	003fc806 	br	803374 <__alt_mem_onchip_mem+0xff783374>
  803454:	800b883a 	mov	r5,r16
  803458:	8809883a 	mov	r4,r17
  80345c:	08029200 	call	802920 <_fflush_r>
  803460:	8080030b 	ldhu	r2,12(r16)
  803464:	10c4000c 	andi	r3,r2,4096
  803468:	18008726 	beq	r3,zero,803688 <_fseeko_r+0x390>
  80346c:	84c01417 	ldw	r19,80(r16)
  803470:	10c0010c 	andi	r3,r2,4
  803474:	1800431e 	bne	r3,zero,803584 <_fseeko_r+0x28c>
  803478:	1080020c 	andi	r2,r2,8
  80347c:	10008026 	beq	r2,zero,803680 <_fseeko_r+0x388>
  803480:	80c00017 	ldw	r3,0(r16)
  803484:	80800417 	ldw	r2,16(r16)
  803488:	18000226 	beq	r3,zero,803494 <_fseeko_r+0x19c>
  80348c:	1887c83a 	sub	r3,r3,r2
  803490:	98e7883a 	add	r19,r19,r3
  803494:	aceb883a 	add	r21,r21,r19
  803498:	05c00044 	movi	r23,1
  80349c:	0025883a 	mov	r18,zero
  8034a0:	003fc306 	br	8033b0 <__alt_mem_onchip_mem+0xff7833b0>
  8034a4:	0802cfc0 	call	802cfc <__sinit>
  8034a8:	8080030b 	ldhu	r2,12(r16)
  8034ac:	00c04204 	movi	r3,264
  8034b0:	1080420c 	andi	r2,r2,264
  8034b4:	10ffa51e 	bne	r2,r3,80334c <__alt_mem_onchip_mem+0xff78334c>
  8034b8:	800b883a 	mov	r5,r16
  8034bc:	8809883a 	mov	r4,r17
  8034c0:	08029200 	call	802920 <_fflush_r>
  8034c4:	003fa106 	br	80334c <__alt_mem_onchip_mem+0xff78334c>
  8034c8:	8080030b 	ldhu	r2,12(r16)
  8034cc:	00c10004 	movi	r3,1024
  8034d0:	80c01315 	stw	r3,76(r16)
  8034d4:	10c4b03a 	or	r2,r2,r3
  8034d8:	8080030d 	sth	r2,12(r16)
  8034dc:	9000311e 	bne	r18,zero,8035a4 <_fseeko_r+0x2ac>
  8034e0:	a82d883a 	mov	r22,r21
  8034e4:	b800371e 	bne	r23,zero,8035c4 <_fseeko_r+0x2cc>
  8034e8:	8080030b 	ldhu	r2,12(r16)
  8034ec:	1084000c 	andi	r2,r2,4096
  8034f0:	10007f26 	beq	r2,zero,8036f0 <_fseeko_r+0x3f8>
  8034f4:	80801417 	ldw	r2,80(r16)
  8034f8:	81800117 	ldw	r6,4(r16)
  8034fc:	81400c17 	ldw	r5,48(r16)
  803500:	11a7c83a 	sub	r19,r2,r6
  803504:	28008226 	beq	r5,zero,803710 <_fseeko_r+0x418>
  803508:	81c00f17 	ldw	r7,60(r16)
  80350c:	99e7c83a 	sub	r19,r19,r7
  803510:	81000e17 	ldw	r4,56(r16)
  803514:	80800417 	ldw	r2,16(r16)
  803518:	99a7883a 	add	r19,r19,r6
  80351c:	2087c83a 	sub	r3,r4,r2
  803520:	98e7c83a 	sub	r19,r19,r3
  803524:	38c7883a 	add	r3,r7,r3
  803528:	b4c02b16 	blt	r22,r19,8035d8 <_fseeko_r+0x2e0>
  80352c:	98c9883a 	add	r4,r19,r3
  803530:	b100292e 	bgeu	r22,r4,8035d8 <_fseeko_r+0x2e0>
  803534:	b4e7c83a 	sub	r19,r22,r19
  803538:	14c5883a 	add	r2,r2,r19
  80353c:	1ce7c83a 	sub	r19,r3,r19
  803540:	80800015 	stw	r2,0(r16)
  803544:	84c00115 	stw	r19,4(r16)
  803548:	28000526 	beq	r5,zero,803560 <_fseeko_r+0x268>
  80354c:	80801004 	addi	r2,r16,64
  803550:	28800226 	beq	r5,r2,80355c <_fseeko_r+0x264>
  803554:	8809883a 	mov	r4,r17
  803558:	0802fc80 	call	802fc8 <_free_r>
  80355c:	80000c15 	stw	zero,48(r16)
  803560:	8080030b 	ldhu	r2,12(r16)
  803564:	01800204 	movi	r6,8
  803568:	000b883a 	mov	r5,zero
  80356c:	10bff7cc 	andi	r2,r2,65503
  803570:	8080030d 	sth	r2,12(r16)
  803574:	81001704 	addi	r4,r16,92
  803578:	08044040 	call	804404 <memset>
  80357c:	0027883a 	mov	r19,zero
  803580:	003f7c06 	br	803374 <__alt_mem_onchip_mem+0xff783374>
  803584:	80c00117 	ldw	r3,4(r16)
  803588:	80800c17 	ldw	r2,48(r16)
  80358c:	98e7c83a 	sub	r19,r19,r3
  803590:	10003b26 	beq	r2,zero,803680 <_fseeko_r+0x388>
  803594:	80c00f17 	ldw	r3,60(r16)
  803598:	80800417 	ldw	r2,16(r16)
  80359c:	98e7c83a 	sub	r19,r19,r3
  8035a0:	003fbc06 	br	803494 <__alt_mem_onchip_mem+0xff783494>
  8035a4:	8140038f 	ldh	r5,14(r16)
  8035a8:	d80d883a 	mov	r6,sp
  8035ac:	8809883a 	mov	r4,r17
  8035b0:	08037580 	call	803758 <_fstat_r>
  8035b4:	103f891e 	bne	r2,zero,8033dc <__alt_mem_onchip_mem+0xff7833dc>
  8035b8:	dd800417 	ldw	r22,16(sp)
  8035bc:	adad883a 	add	r22,r21,r22
  8035c0:	b83fc926 	beq	r23,zero,8034e8 <__alt_mem_onchip_mem+0xff7834e8>
  8035c4:	81400c17 	ldw	r5,48(r16)
  8035c8:	81800117 	ldw	r6,4(r16)
  8035cc:	28005026 	beq	r5,zero,803710 <_fseeko_r+0x418>
  8035d0:	81c00f17 	ldw	r7,60(r16)
  8035d4:	003fce06 	br	803510 <__alt_mem_onchip_mem+0xff783510>
  8035d8:	84c01317 	ldw	r19,76(r16)
  8035dc:	81400717 	ldw	r5,28(r16)
  8035e0:	000f883a 	mov	r7,zero
  8035e4:	04e7c83a 	sub	r19,zero,r19
  8035e8:	9da6703a 	and	r19,r19,r22
  8035ec:	980d883a 	mov	r6,r19
  8035f0:	8809883a 	mov	r4,r17
  8035f4:	a03ee83a 	callr	r20
  8035f8:	00ffffc4 	movi	r3,-1
  8035fc:	10ff7726 	beq	r2,r3,8033dc <__alt_mem_onchip_mem+0xff7833dc>
  803600:	80800417 	ldw	r2,16(r16)
  803604:	81400c17 	ldw	r5,48(r16)
  803608:	80000115 	stw	zero,4(r16)
  80360c:	80800015 	stw	r2,0(r16)
  803610:	28000526 	beq	r5,zero,803628 <_fseeko_r+0x330>
  803614:	80801004 	addi	r2,r16,64
  803618:	28800226 	beq	r5,r2,803624 <_fseeko_r+0x32c>
  80361c:	8809883a 	mov	r4,r17
  803620:	0802fc80 	call	802fc8 <_free_r>
  803624:	80000c15 	stw	zero,48(r16)
  803628:	8080030b 	ldhu	r2,12(r16)
  80362c:	b4e7c83a 	sub	r19,r22,r19
  803630:	10bff7cc 	andi	r2,r2,65503
  803634:	8080030d 	sth	r2,12(r16)
  803638:	98000b26 	beq	r19,zero,803668 <_fseeko_r+0x370>
  80363c:	800b883a 	mov	r5,r16
  803640:	8809883a 	mov	r4,r17
  803644:	08046e80 	call	8046e8 <__srefill_r>
  803648:	103f641e 	bne	r2,zero,8033dc <__alt_mem_onchip_mem+0xff7833dc>
  80364c:	80800117 	ldw	r2,4(r16)
  803650:	14ff6236 	bltu	r2,r19,8033dc <__alt_mem_onchip_mem+0xff7833dc>
  803654:	80c00017 	ldw	r3,0(r16)
  803658:	14c5c83a 	sub	r2,r2,r19
  80365c:	80800115 	stw	r2,4(r16)
  803660:	1ce7883a 	add	r19,r3,r19
  803664:	84c00015 	stw	r19,0(r16)
  803668:	01800204 	movi	r6,8
  80366c:	000b883a 	mov	r5,zero
  803670:	81001704 	addi	r4,r16,92
  803674:	08044040 	call	804404 <memset>
  803678:	0027883a 	mov	r19,zero
  80367c:	003f3d06 	br	803374 <__alt_mem_onchip_mem+0xff783374>
  803680:	80800417 	ldw	r2,16(r16)
  803684:	003f8306 	br	803494 <__alt_mem_onchip_mem+0xff783494>
  803688:	81400717 	ldw	r5,28(r16)
  80368c:	900f883a 	mov	r7,r18
  803690:	000d883a 	mov	r6,zero
  803694:	8809883a 	mov	r4,r17
  803698:	a03ee83a 	callr	r20
  80369c:	1027883a 	mov	r19,r2
  8036a0:	00bfffc4 	movi	r2,-1
  8036a4:	98bf3226 	beq	r19,r2,803370 <__alt_mem_onchip_mem+0xff783370>
  8036a8:	8080030b 	ldhu	r2,12(r16)
  8036ac:	003f7006 	br	803470 <__alt_mem_onchip_mem+0xff783470>
  8036b0:	8140038f 	ldh	r5,14(r16)
  8036b4:	283f4716 	blt	r5,zero,8033d4 <__alt_mem_onchip_mem+0xff7833d4>
  8036b8:	d80d883a 	mov	r6,sp
  8036bc:	8809883a 	mov	r4,r17
  8036c0:	08037580 	call	803758 <_fstat_r>
  8036c4:	1000041e 	bne	r2,zero,8036d8 <_fseeko_r+0x3e0>
  8036c8:	d8800117 	ldw	r2,4(sp)
  8036cc:	00e00014 	movui	r3,32768
  8036d0:	10bc000c 	andi	r2,r2,61440
  8036d4:	10ff7c26 	beq	r2,r3,8034c8 <__alt_mem_onchip_mem+0xff7834c8>
  8036d8:	8080030b 	ldhu	r2,12(r16)
  8036dc:	003f3d06 	br	8033d4 <__alt_mem_onchip_mem+0xff7833d4>
  8036e0:	800b883a 	mov	r5,r16
  8036e4:	8809883a 	mov	r4,r17
  8036e8:	0803a3c0 	call	803a3c <__smakebuf_r>
  8036ec:	003f3106 	br	8033b4 <__alt_mem_onchip_mem+0xff7833b4>
  8036f0:	81400717 	ldw	r5,28(r16)
  8036f4:	01c00044 	movi	r7,1
  8036f8:	000d883a 	mov	r6,zero
  8036fc:	8809883a 	mov	r4,r17
  803700:	a03ee83a 	callr	r20
  803704:	00ffffc4 	movi	r3,-1
  803708:	10ff7b1e 	bne	r2,r3,8034f8 <__alt_mem_onchip_mem+0xff7834f8>
  80370c:	003f3306 	br	8033dc <__alt_mem_onchip_mem+0xff7833dc>
  803710:	80c00017 	ldw	r3,0(r16)
  803714:	80800417 	ldw	r2,16(r16)
  803718:	000b883a 	mov	r5,zero
  80371c:	1887c83a 	sub	r3,r3,r2
  803720:	98e7c83a 	sub	r19,r19,r3
  803724:	30c7883a 	add	r3,r6,r3
  803728:	003f7f06 	br	803528 <__alt_mem_onchip_mem+0xff783528>
  80372c:	00800744 	movi	r2,29
  803730:	88800015 	stw	r2,0(r17)
  803734:	04ffffc4 	movi	r19,-1
  803738:	003f0e06 	br	803374 <__alt_mem_onchip_mem+0xff783374>

0080373c <fseeko>:
  80373c:	00802074 	movhi	r2,129
  803740:	10979804 	addi	r2,r2,24160
  803744:	300f883a 	mov	r7,r6
  803748:	280d883a 	mov	r6,r5
  80374c:	200b883a 	mov	r5,r4
  803750:	11000017 	ldw	r4,0(r2)
  803754:	08032f81 	jmpi	8032f8 <_fseeko_r>

00803758 <_fstat_r>:
  803758:	defffd04 	addi	sp,sp,-12
  80375c:	2805883a 	mov	r2,r5
  803760:	dc000015 	stw	r16,0(sp)
  803764:	04002074 	movhi	r16,129
  803768:	dc400115 	stw	r17,4(sp)
  80376c:	841f1b04 	addi	r16,r16,31852
  803770:	2023883a 	mov	r17,r4
  803774:	300b883a 	mov	r5,r6
  803778:	1009883a 	mov	r4,r2
  80377c:	dfc00215 	stw	ra,8(sp)
  803780:	80000015 	stw	zero,0(r16)
  803784:	080fc980 	call	80fc98 <fstat>
  803788:	00ffffc4 	movi	r3,-1
  80378c:	10c00526 	beq	r2,r3,8037a4 <_fstat_r+0x4c>
  803790:	dfc00217 	ldw	ra,8(sp)
  803794:	dc400117 	ldw	r17,4(sp)
  803798:	dc000017 	ldw	r16,0(sp)
  80379c:	dec00304 	addi	sp,sp,12
  8037a0:	f800283a 	ret
  8037a4:	80c00017 	ldw	r3,0(r16)
  8037a8:	183ff926 	beq	r3,zero,803790 <__alt_mem_onchip_mem+0xff783790>
  8037ac:	88c00015 	stw	r3,0(r17)
  8037b0:	003ff706 	br	803790 <__alt_mem_onchip_mem+0xff783790>

008037b4 <_fwalk>:
  8037b4:	defff704 	addi	sp,sp,-36
  8037b8:	dd000415 	stw	r20,16(sp)
  8037bc:	dfc00815 	stw	ra,32(sp)
  8037c0:	ddc00715 	stw	r23,28(sp)
  8037c4:	dd800615 	stw	r22,24(sp)
  8037c8:	dd400515 	stw	r21,20(sp)
  8037cc:	dcc00315 	stw	r19,12(sp)
  8037d0:	dc800215 	stw	r18,8(sp)
  8037d4:	dc400115 	stw	r17,4(sp)
  8037d8:	dc000015 	stw	r16,0(sp)
  8037dc:	2500b804 	addi	r20,r4,736
  8037e0:	a0002326 	beq	r20,zero,803870 <_fwalk+0xbc>
  8037e4:	282b883a 	mov	r21,r5
  8037e8:	002f883a 	mov	r23,zero
  8037ec:	05800044 	movi	r22,1
  8037f0:	04ffffc4 	movi	r19,-1
  8037f4:	a4400117 	ldw	r17,4(r20)
  8037f8:	a4800217 	ldw	r18,8(r20)
  8037fc:	8c7fffc4 	addi	r17,r17,-1
  803800:	88000d16 	blt	r17,zero,803838 <_fwalk+0x84>
  803804:	94000304 	addi	r16,r18,12
  803808:	94800384 	addi	r18,r18,14
  80380c:	8080000b 	ldhu	r2,0(r16)
  803810:	8c7fffc4 	addi	r17,r17,-1
  803814:	813ffd04 	addi	r4,r16,-12
  803818:	b080042e 	bgeu	r22,r2,80382c <_fwalk+0x78>
  80381c:	9080000f 	ldh	r2,0(r18)
  803820:	14c00226 	beq	r2,r19,80382c <_fwalk+0x78>
  803824:	a83ee83a 	callr	r21
  803828:	b8aeb03a 	or	r23,r23,r2
  80382c:	84001a04 	addi	r16,r16,104
  803830:	94801a04 	addi	r18,r18,104
  803834:	8cfff51e 	bne	r17,r19,80380c <__alt_mem_onchip_mem+0xff78380c>
  803838:	a5000017 	ldw	r20,0(r20)
  80383c:	a03fed1e 	bne	r20,zero,8037f4 <__alt_mem_onchip_mem+0xff7837f4>
  803840:	b805883a 	mov	r2,r23
  803844:	dfc00817 	ldw	ra,32(sp)
  803848:	ddc00717 	ldw	r23,28(sp)
  80384c:	dd800617 	ldw	r22,24(sp)
  803850:	dd400517 	ldw	r21,20(sp)
  803854:	dd000417 	ldw	r20,16(sp)
  803858:	dcc00317 	ldw	r19,12(sp)
  80385c:	dc800217 	ldw	r18,8(sp)
  803860:	dc400117 	ldw	r17,4(sp)
  803864:	dc000017 	ldw	r16,0(sp)
  803868:	dec00904 	addi	sp,sp,36
  80386c:	f800283a 	ret
  803870:	002f883a 	mov	r23,zero
  803874:	003ff206 	br	803840 <__alt_mem_onchip_mem+0xff783840>

00803878 <_fwalk_reent>:
  803878:	defff704 	addi	sp,sp,-36
  80387c:	dd000415 	stw	r20,16(sp)
  803880:	dfc00815 	stw	ra,32(sp)
  803884:	ddc00715 	stw	r23,28(sp)
  803888:	dd800615 	stw	r22,24(sp)
  80388c:	dd400515 	stw	r21,20(sp)
  803890:	dcc00315 	stw	r19,12(sp)
  803894:	dc800215 	stw	r18,8(sp)
  803898:	dc400115 	stw	r17,4(sp)
  80389c:	dc000015 	stw	r16,0(sp)
  8038a0:	2500b804 	addi	r20,r4,736
  8038a4:	a0002326 	beq	r20,zero,803934 <_fwalk_reent+0xbc>
  8038a8:	282b883a 	mov	r21,r5
  8038ac:	2027883a 	mov	r19,r4
  8038b0:	002f883a 	mov	r23,zero
  8038b4:	05800044 	movi	r22,1
  8038b8:	04bfffc4 	movi	r18,-1
  8038bc:	a4400117 	ldw	r17,4(r20)
  8038c0:	a4000217 	ldw	r16,8(r20)
  8038c4:	8c7fffc4 	addi	r17,r17,-1
  8038c8:	88000c16 	blt	r17,zero,8038fc <_fwalk_reent+0x84>
  8038cc:	84000304 	addi	r16,r16,12
  8038d0:	8080000b 	ldhu	r2,0(r16)
  8038d4:	8c7fffc4 	addi	r17,r17,-1
  8038d8:	817ffd04 	addi	r5,r16,-12
  8038dc:	b080052e 	bgeu	r22,r2,8038f4 <_fwalk_reent+0x7c>
  8038e0:	8080008f 	ldh	r2,2(r16)
  8038e4:	9809883a 	mov	r4,r19
  8038e8:	14800226 	beq	r2,r18,8038f4 <_fwalk_reent+0x7c>
  8038ec:	a83ee83a 	callr	r21
  8038f0:	b8aeb03a 	or	r23,r23,r2
  8038f4:	84001a04 	addi	r16,r16,104
  8038f8:	8cbff51e 	bne	r17,r18,8038d0 <__alt_mem_onchip_mem+0xff7838d0>
  8038fc:	a5000017 	ldw	r20,0(r20)
  803900:	a03fee1e 	bne	r20,zero,8038bc <__alt_mem_onchip_mem+0xff7838bc>
  803904:	b805883a 	mov	r2,r23
  803908:	dfc00817 	ldw	ra,32(sp)
  80390c:	ddc00717 	ldw	r23,28(sp)
  803910:	dd800617 	ldw	r22,24(sp)
  803914:	dd400517 	ldw	r21,20(sp)
  803918:	dd000417 	ldw	r20,16(sp)
  80391c:	dcc00317 	ldw	r19,12(sp)
  803920:	dc800217 	ldw	r18,8(sp)
  803924:	dc400117 	ldw	r17,4(sp)
  803928:	dc000017 	ldw	r16,0(sp)
  80392c:	dec00904 	addi	sp,sp,36
  803930:	f800283a 	ret
  803934:	002f883a 	mov	r23,zero
  803938:	003ff206 	br	803904 <__alt_mem_onchip_mem+0xff783904>

0080393c <_fwrite_r>:
  80393c:	defff504 	addi	sp,sp,-44
  803940:	dc800815 	stw	r18,32(sp)
  803944:	39a5383a 	mul	r18,r7,r6
  803948:	d8800304 	addi	r2,sp,12
  80394c:	d8800015 	stw	r2,0(sp)
  803950:	00800044 	movi	r2,1
  803954:	dcc00915 	stw	r19,36(sp)
  803958:	dc400715 	stw	r17,28(sp)
  80395c:	dc000615 	stw	r16,24(sp)
  803960:	d9400315 	stw	r5,12(sp)
  803964:	dfc00a15 	stw	ra,40(sp)
  803968:	dc800415 	stw	r18,16(sp)
  80396c:	dc800215 	stw	r18,8(sp)
  803970:	d8800115 	stw	r2,4(sp)
  803974:	3027883a 	mov	r19,r6
  803978:	3821883a 	mov	r16,r7
  80397c:	2023883a 	mov	r17,r4
  803980:	d9400b17 	ldw	r5,44(sp)
  803984:	20000226 	beq	r4,zero,803990 <_fwrite_r+0x54>
  803988:	20800e17 	ldw	r2,56(r4)
  80398c:	10001a26 	beq	r2,zero,8039f8 <_fwrite_r+0xbc>
  803990:	2880030b 	ldhu	r2,12(r5)
  803994:	10c8000c 	andi	r3,r2,8192
  803998:	1800061e 	bne	r3,zero,8039b4 <_fwrite_r+0x78>
  80399c:	29001917 	ldw	r4,100(r5)
  8039a0:	00f7ffc4 	movi	r3,-8193
  8039a4:	10880014 	ori	r2,r2,8192
  8039a8:	20c6703a 	and	r3,r4,r3
  8039ac:	2880030d 	sth	r2,12(r5)
  8039b0:	28c01915 	stw	r3,100(r5)
  8039b4:	d80d883a 	mov	r6,sp
  8039b8:	8809883a 	mov	r4,r17
  8039bc:	08089f40 	call	8089f4 <__sfvwrite_r>
  8039c0:	10000b26 	beq	r2,zero,8039f0 <_fwrite_r+0xb4>
  8039c4:	d9000217 	ldw	r4,8(sp)
  8039c8:	980b883a 	mov	r5,r19
  8039cc:	9109c83a 	sub	r4,r18,r4
  8039d0:	080d2d40 	call	80d2d4 <__udivsi3>
  8039d4:	dfc00a17 	ldw	ra,40(sp)
  8039d8:	dcc00917 	ldw	r19,36(sp)
  8039dc:	dc800817 	ldw	r18,32(sp)
  8039e0:	dc400717 	ldw	r17,28(sp)
  8039e4:	dc000617 	ldw	r16,24(sp)
  8039e8:	dec00b04 	addi	sp,sp,44
  8039ec:	f800283a 	ret
  8039f0:	8005883a 	mov	r2,r16
  8039f4:	003ff706 	br	8039d4 <__alt_mem_onchip_mem+0xff7839d4>
  8039f8:	d9400515 	stw	r5,20(sp)
  8039fc:	0802cfc0 	call	802cfc <__sinit>
  803a00:	d9400517 	ldw	r5,20(sp)
  803a04:	003fe206 	br	803990 <__alt_mem_onchip_mem+0xff783990>

00803a08 <fwrite>:
  803a08:	defffe04 	addi	sp,sp,-8
  803a0c:	00802074 	movhi	r2,129
  803a10:	d9c00015 	stw	r7,0(sp)
  803a14:	10979804 	addi	r2,r2,24160
  803a18:	300f883a 	mov	r7,r6
  803a1c:	280d883a 	mov	r6,r5
  803a20:	200b883a 	mov	r5,r4
  803a24:	11000017 	ldw	r4,0(r2)
  803a28:	dfc00115 	stw	ra,4(sp)
  803a2c:	080393c0 	call	80393c <_fwrite_r>
  803a30:	dfc00117 	ldw	ra,4(sp)
  803a34:	dec00204 	addi	sp,sp,8
  803a38:	f800283a 	ret

00803a3c <__smakebuf_r>:
  803a3c:	2880030b 	ldhu	r2,12(r5)
  803a40:	10c0008c 	andi	r3,r2,2
  803a44:	1800411e 	bne	r3,zero,803b4c <__smakebuf_r+0x110>
  803a48:	deffec04 	addi	sp,sp,-80
  803a4c:	dc000f15 	stw	r16,60(sp)
  803a50:	2821883a 	mov	r16,r5
  803a54:	2940038f 	ldh	r5,14(r5)
  803a58:	dc401015 	stw	r17,64(sp)
  803a5c:	dfc01315 	stw	ra,76(sp)
  803a60:	dcc01215 	stw	r19,72(sp)
  803a64:	dc801115 	stw	r18,68(sp)
  803a68:	2023883a 	mov	r17,r4
  803a6c:	28001c16 	blt	r5,zero,803ae0 <__smakebuf_r+0xa4>
  803a70:	d80d883a 	mov	r6,sp
  803a74:	08037580 	call	803758 <_fstat_r>
  803a78:	10001816 	blt	r2,zero,803adc <__smakebuf_r+0xa0>
  803a7c:	d8800117 	ldw	r2,4(sp)
  803a80:	00e00014 	movui	r3,32768
  803a84:	10bc000c 	andi	r2,r2,61440
  803a88:	14c80020 	cmpeqi	r19,r2,8192
  803a8c:	10c03726 	beq	r2,r3,803b6c <__smakebuf_r+0x130>
  803a90:	80c0030b 	ldhu	r3,12(r16)
  803a94:	18c20014 	ori	r3,r3,2048
  803a98:	80c0030d 	sth	r3,12(r16)
  803a9c:	00c80004 	movi	r3,8192
  803aa0:	10c0521e 	bne	r2,r3,803bec <__smakebuf_r+0x1b0>
  803aa4:	8140038f 	ldh	r5,14(r16)
  803aa8:	8809883a 	mov	r4,r17
  803aac:	0808eb00 	call	808eb0 <_isatty_r>
  803ab0:	10004c26 	beq	r2,zero,803be4 <__smakebuf_r+0x1a8>
  803ab4:	8080030b 	ldhu	r2,12(r16)
  803ab8:	80c010c4 	addi	r3,r16,67
  803abc:	80c00015 	stw	r3,0(r16)
  803ac0:	10800054 	ori	r2,r2,1
  803ac4:	8080030d 	sth	r2,12(r16)
  803ac8:	00800044 	movi	r2,1
  803acc:	80c00415 	stw	r3,16(r16)
  803ad0:	80800515 	stw	r2,20(r16)
  803ad4:	04810004 	movi	r18,1024
  803ad8:	00000706 	br	803af8 <__smakebuf_r+0xbc>
  803adc:	8080030b 	ldhu	r2,12(r16)
  803ae0:	10c0200c 	andi	r3,r2,128
  803ae4:	18001f1e 	bne	r3,zero,803b64 <__smakebuf_r+0x128>
  803ae8:	04810004 	movi	r18,1024
  803aec:	10820014 	ori	r2,r2,2048
  803af0:	8080030d 	sth	r2,12(r16)
  803af4:	0027883a 	mov	r19,zero
  803af8:	900b883a 	mov	r5,r18
  803afc:	8809883a 	mov	r4,r17
  803b00:	0803bf80 	call	803bf8 <_malloc_r>
  803b04:	10002c26 	beq	r2,zero,803bb8 <__smakebuf_r+0x17c>
  803b08:	80c0030b 	ldhu	r3,12(r16)
  803b0c:	01002034 	movhi	r4,128
  803b10:	210a6d04 	addi	r4,r4,10676
  803b14:	89000f15 	stw	r4,60(r17)
  803b18:	18c02014 	ori	r3,r3,128
  803b1c:	80c0030d 	sth	r3,12(r16)
  803b20:	80800015 	stw	r2,0(r16)
  803b24:	80800415 	stw	r2,16(r16)
  803b28:	84800515 	stw	r18,20(r16)
  803b2c:	98001a1e 	bne	r19,zero,803b98 <__smakebuf_r+0x15c>
  803b30:	dfc01317 	ldw	ra,76(sp)
  803b34:	dcc01217 	ldw	r19,72(sp)
  803b38:	dc801117 	ldw	r18,68(sp)
  803b3c:	dc401017 	ldw	r17,64(sp)
  803b40:	dc000f17 	ldw	r16,60(sp)
  803b44:	dec01404 	addi	sp,sp,80
  803b48:	f800283a 	ret
  803b4c:	288010c4 	addi	r2,r5,67
  803b50:	28800015 	stw	r2,0(r5)
  803b54:	28800415 	stw	r2,16(r5)
  803b58:	00800044 	movi	r2,1
  803b5c:	28800515 	stw	r2,20(r5)
  803b60:	f800283a 	ret
  803b64:	04801004 	movi	r18,64
  803b68:	003fe006 	br	803aec <__alt_mem_onchip_mem+0xff783aec>
  803b6c:	81000a17 	ldw	r4,40(r16)
  803b70:	00c02034 	movhi	r3,128
  803b74:	18d27a04 	addi	r3,r3,18920
  803b78:	20ffc51e 	bne	r4,r3,803a90 <__alt_mem_onchip_mem+0xff783a90>
  803b7c:	8080030b 	ldhu	r2,12(r16)
  803b80:	04810004 	movi	r18,1024
  803b84:	84801315 	stw	r18,76(r16)
  803b88:	1484b03a 	or	r2,r2,r18
  803b8c:	8080030d 	sth	r2,12(r16)
  803b90:	0027883a 	mov	r19,zero
  803b94:	003fd806 	br	803af8 <__alt_mem_onchip_mem+0xff783af8>
  803b98:	8140038f 	ldh	r5,14(r16)
  803b9c:	8809883a 	mov	r4,r17
  803ba0:	0808eb00 	call	808eb0 <_isatty_r>
  803ba4:	103fe226 	beq	r2,zero,803b30 <__alt_mem_onchip_mem+0xff783b30>
  803ba8:	8080030b 	ldhu	r2,12(r16)
  803bac:	10800054 	ori	r2,r2,1
  803bb0:	8080030d 	sth	r2,12(r16)
  803bb4:	003fde06 	br	803b30 <__alt_mem_onchip_mem+0xff783b30>
  803bb8:	8080030b 	ldhu	r2,12(r16)
  803bbc:	10c0800c 	andi	r3,r2,512
  803bc0:	183fdb1e 	bne	r3,zero,803b30 <__alt_mem_onchip_mem+0xff783b30>
  803bc4:	10800094 	ori	r2,r2,2
  803bc8:	80c010c4 	addi	r3,r16,67
  803bcc:	8080030d 	sth	r2,12(r16)
  803bd0:	00800044 	movi	r2,1
  803bd4:	80c00015 	stw	r3,0(r16)
  803bd8:	80c00415 	stw	r3,16(r16)
  803bdc:	80800515 	stw	r2,20(r16)
  803be0:	003fd306 	br	803b30 <__alt_mem_onchip_mem+0xff783b30>
  803be4:	04810004 	movi	r18,1024
  803be8:	003fc306 	br	803af8 <__alt_mem_onchip_mem+0xff783af8>
  803bec:	0027883a 	mov	r19,zero
  803bf0:	04810004 	movi	r18,1024
  803bf4:	003fc006 	br	803af8 <__alt_mem_onchip_mem+0xff783af8>

00803bf8 <_malloc_r>:
  803bf8:	defff504 	addi	sp,sp,-44
  803bfc:	dc800315 	stw	r18,12(sp)
  803c00:	dfc00a15 	stw	ra,40(sp)
  803c04:	df000915 	stw	fp,36(sp)
  803c08:	ddc00815 	stw	r23,32(sp)
  803c0c:	dd800715 	stw	r22,28(sp)
  803c10:	dd400615 	stw	r21,24(sp)
  803c14:	dd000515 	stw	r20,20(sp)
  803c18:	dcc00415 	stw	r19,16(sp)
  803c1c:	dc400215 	stw	r17,8(sp)
  803c20:	dc000115 	stw	r16,4(sp)
  803c24:	288002c4 	addi	r2,r5,11
  803c28:	00c00584 	movi	r3,22
  803c2c:	2025883a 	mov	r18,r4
  803c30:	18807f2e 	bgeu	r3,r2,803e30 <_malloc_r+0x238>
  803c34:	047ffe04 	movi	r17,-8
  803c38:	1462703a 	and	r17,r2,r17
  803c3c:	8800a316 	blt	r17,zero,803ecc <_malloc_r+0x2d4>
  803c40:	8940a236 	bltu	r17,r5,803ecc <_malloc_r+0x2d4>
  803c44:	08100a00 	call	8100a0 <__malloc_lock>
  803c48:	00807dc4 	movi	r2,503
  803c4c:	1441e92e 	bgeu	r2,r17,8043f4 <_malloc_r+0x7fc>
  803c50:	8804d27a 	srli	r2,r17,9
  803c54:	1000a126 	beq	r2,zero,803edc <_malloc_r+0x2e4>
  803c58:	00c00104 	movi	r3,4
  803c5c:	18811e36 	bltu	r3,r2,8040d8 <_malloc_r+0x4e0>
  803c60:	8804d1ba 	srli	r2,r17,6
  803c64:	12000e44 	addi	r8,r2,57
  803c68:	11c00e04 	addi	r7,r2,56
  803c6c:	4209883a 	add	r4,r8,r8
  803c70:	04c02074 	movhi	r19,129
  803c74:	2109883a 	add	r4,r4,r4
  803c78:	9cd17b04 	addi	r19,r19,17900
  803c7c:	2109883a 	add	r4,r4,r4
  803c80:	9909883a 	add	r4,r19,r4
  803c84:	24000117 	ldw	r16,4(r4)
  803c88:	213ffe04 	addi	r4,r4,-8
  803c8c:	24009726 	beq	r4,r16,803eec <_malloc_r+0x2f4>
  803c90:	80800117 	ldw	r2,4(r16)
  803c94:	01bfff04 	movi	r6,-4
  803c98:	014003c4 	movi	r5,15
  803c9c:	1184703a 	and	r2,r2,r6
  803ca0:	1447c83a 	sub	r3,r2,r17
  803ca4:	28c00716 	blt	r5,r3,803cc4 <_malloc_r+0xcc>
  803ca8:	1800920e 	bge	r3,zero,803ef4 <_malloc_r+0x2fc>
  803cac:	84000317 	ldw	r16,12(r16)
  803cb0:	24008e26 	beq	r4,r16,803eec <_malloc_r+0x2f4>
  803cb4:	80800117 	ldw	r2,4(r16)
  803cb8:	1184703a 	and	r2,r2,r6
  803cbc:	1447c83a 	sub	r3,r2,r17
  803cc0:	28fff90e 	bge	r5,r3,803ca8 <__alt_mem_onchip_mem+0xff783ca8>
  803cc4:	3809883a 	mov	r4,r7
  803cc8:	01802074 	movhi	r6,129
  803ccc:	9c000417 	ldw	r16,16(r19)
  803cd0:	31917b04 	addi	r6,r6,17900
  803cd4:	32000204 	addi	r8,r6,8
  803cd8:	82013426 	beq	r16,r8,8041ac <_malloc_r+0x5b4>
  803cdc:	80c00117 	ldw	r3,4(r16)
  803ce0:	00bfff04 	movi	r2,-4
  803ce4:	188e703a 	and	r7,r3,r2
  803ce8:	3c45c83a 	sub	r2,r7,r17
  803cec:	00c003c4 	movi	r3,15
  803cf0:	18811f16 	blt	r3,r2,804170 <_malloc_r+0x578>
  803cf4:	32000515 	stw	r8,20(r6)
  803cf8:	32000415 	stw	r8,16(r6)
  803cfc:	10007f0e 	bge	r2,zero,803efc <_malloc_r+0x304>
  803d00:	00807fc4 	movi	r2,511
  803d04:	11c0fd36 	bltu	r2,r7,8040fc <_malloc_r+0x504>
  803d08:	3806d0fa 	srli	r3,r7,3
  803d0c:	01c00044 	movi	r7,1
  803d10:	30800117 	ldw	r2,4(r6)
  803d14:	19400044 	addi	r5,r3,1
  803d18:	294b883a 	add	r5,r5,r5
  803d1c:	1807d0ba 	srai	r3,r3,2
  803d20:	294b883a 	add	r5,r5,r5
  803d24:	294b883a 	add	r5,r5,r5
  803d28:	298b883a 	add	r5,r5,r6
  803d2c:	38c6983a 	sll	r3,r7,r3
  803d30:	29c00017 	ldw	r7,0(r5)
  803d34:	2a7ffe04 	addi	r9,r5,-8
  803d38:	1886b03a 	or	r3,r3,r2
  803d3c:	82400315 	stw	r9,12(r16)
  803d40:	81c00215 	stw	r7,8(r16)
  803d44:	30c00115 	stw	r3,4(r6)
  803d48:	2c000015 	stw	r16,0(r5)
  803d4c:	3c000315 	stw	r16,12(r7)
  803d50:	2005d0ba 	srai	r2,r4,2
  803d54:	01400044 	movi	r5,1
  803d58:	288a983a 	sll	r5,r5,r2
  803d5c:	19406f36 	bltu	r3,r5,803f1c <_malloc_r+0x324>
  803d60:	28c4703a 	and	r2,r5,r3
  803d64:	10000a1e 	bne	r2,zero,803d90 <_malloc_r+0x198>
  803d68:	00bfff04 	movi	r2,-4
  803d6c:	294b883a 	add	r5,r5,r5
  803d70:	2088703a 	and	r4,r4,r2
  803d74:	28c4703a 	and	r2,r5,r3
  803d78:	21000104 	addi	r4,r4,4
  803d7c:	1000041e 	bne	r2,zero,803d90 <_malloc_r+0x198>
  803d80:	294b883a 	add	r5,r5,r5
  803d84:	28c4703a 	and	r2,r5,r3
  803d88:	21000104 	addi	r4,r4,4
  803d8c:	103ffc26 	beq	r2,zero,803d80 <__alt_mem_onchip_mem+0xff783d80>
  803d90:	02bfff04 	movi	r10,-4
  803d94:	024003c4 	movi	r9,15
  803d98:	21800044 	addi	r6,r4,1
  803d9c:	318d883a 	add	r6,r6,r6
  803da0:	318d883a 	add	r6,r6,r6
  803da4:	318d883a 	add	r6,r6,r6
  803da8:	998d883a 	add	r6,r19,r6
  803dac:	333ffe04 	addi	r12,r6,-8
  803db0:	2017883a 	mov	r11,r4
  803db4:	31800104 	addi	r6,r6,4
  803db8:	34000017 	ldw	r16,0(r6)
  803dbc:	31fffd04 	addi	r7,r6,-12
  803dc0:	81c0041e 	bne	r16,r7,803dd4 <_malloc_r+0x1dc>
  803dc4:	0000fb06 	br	8041b4 <_malloc_r+0x5bc>
  803dc8:	1801030e 	bge	r3,zero,8041d8 <_malloc_r+0x5e0>
  803dcc:	84000317 	ldw	r16,12(r16)
  803dd0:	81c0f826 	beq	r16,r7,8041b4 <_malloc_r+0x5bc>
  803dd4:	80800117 	ldw	r2,4(r16)
  803dd8:	1284703a 	and	r2,r2,r10
  803ddc:	1447c83a 	sub	r3,r2,r17
  803de0:	48fff90e 	bge	r9,r3,803dc8 <__alt_mem_onchip_mem+0xff783dc8>
  803de4:	80800317 	ldw	r2,12(r16)
  803de8:	81000217 	ldw	r4,8(r16)
  803dec:	89400054 	ori	r5,r17,1
  803df0:	81400115 	stw	r5,4(r16)
  803df4:	20800315 	stw	r2,12(r4)
  803df8:	11000215 	stw	r4,8(r2)
  803dfc:	8463883a 	add	r17,r16,r17
  803e00:	9c400515 	stw	r17,20(r19)
  803e04:	9c400415 	stw	r17,16(r19)
  803e08:	18800054 	ori	r2,r3,1
  803e0c:	88800115 	stw	r2,4(r17)
  803e10:	8a000315 	stw	r8,12(r17)
  803e14:	8a000215 	stw	r8,8(r17)
  803e18:	88e3883a 	add	r17,r17,r3
  803e1c:	88c00015 	stw	r3,0(r17)
  803e20:	9009883a 	mov	r4,r18
  803e24:	08100c40 	call	8100c4 <__malloc_unlock>
  803e28:	80800204 	addi	r2,r16,8
  803e2c:	00001b06 	br	803e9c <_malloc_r+0x2a4>
  803e30:	04400404 	movi	r17,16
  803e34:	89402536 	bltu	r17,r5,803ecc <_malloc_r+0x2d4>
  803e38:	08100a00 	call	8100a0 <__malloc_lock>
  803e3c:	00800184 	movi	r2,6
  803e40:	01000084 	movi	r4,2
  803e44:	04c02074 	movhi	r19,129
  803e48:	1085883a 	add	r2,r2,r2
  803e4c:	9cd17b04 	addi	r19,r19,17900
  803e50:	1085883a 	add	r2,r2,r2
  803e54:	9885883a 	add	r2,r19,r2
  803e58:	14000117 	ldw	r16,4(r2)
  803e5c:	10fffe04 	addi	r3,r2,-8
  803e60:	80c0d926 	beq	r16,r3,8041c8 <_malloc_r+0x5d0>
  803e64:	80c00117 	ldw	r3,4(r16)
  803e68:	81000317 	ldw	r4,12(r16)
  803e6c:	00bfff04 	movi	r2,-4
  803e70:	1884703a 	and	r2,r3,r2
  803e74:	81400217 	ldw	r5,8(r16)
  803e78:	8085883a 	add	r2,r16,r2
  803e7c:	10c00117 	ldw	r3,4(r2)
  803e80:	29000315 	stw	r4,12(r5)
  803e84:	21400215 	stw	r5,8(r4)
  803e88:	18c00054 	ori	r3,r3,1
  803e8c:	10c00115 	stw	r3,4(r2)
  803e90:	9009883a 	mov	r4,r18
  803e94:	08100c40 	call	8100c4 <__malloc_unlock>
  803e98:	80800204 	addi	r2,r16,8
  803e9c:	dfc00a17 	ldw	ra,40(sp)
  803ea0:	df000917 	ldw	fp,36(sp)
  803ea4:	ddc00817 	ldw	r23,32(sp)
  803ea8:	dd800717 	ldw	r22,28(sp)
  803eac:	dd400617 	ldw	r21,24(sp)
  803eb0:	dd000517 	ldw	r20,20(sp)
  803eb4:	dcc00417 	ldw	r19,16(sp)
  803eb8:	dc800317 	ldw	r18,12(sp)
  803ebc:	dc400217 	ldw	r17,8(sp)
  803ec0:	dc000117 	ldw	r16,4(sp)
  803ec4:	dec00b04 	addi	sp,sp,44
  803ec8:	f800283a 	ret
  803ecc:	00800304 	movi	r2,12
  803ed0:	90800015 	stw	r2,0(r18)
  803ed4:	0005883a 	mov	r2,zero
  803ed8:	003ff006 	br	803e9c <__alt_mem_onchip_mem+0xff783e9c>
  803edc:	01002004 	movi	r4,128
  803ee0:	02001004 	movi	r8,64
  803ee4:	01c00fc4 	movi	r7,63
  803ee8:	003f6106 	br	803c70 <__alt_mem_onchip_mem+0xff783c70>
  803eec:	4009883a 	mov	r4,r8
  803ef0:	003f7506 	br	803cc8 <__alt_mem_onchip_mem+0xff783cc8>
  803ef4:	81000317 	ldw	r4,12(r16)
  803ef8:	003fde06 	br	803e74 <__alt_mem_onchip_mem+0xff783e74>
  803efc:	81c5883a 	add	r2,r16,r7
  803f00:	11400117 	ldw	r5,4(r2)
  803f04:	9009883a 	mov	r4,r18
  803f08:	29400054 	ori	r5,r5,1
  803f0c:	11400115 	stw	r5,4(r2)
  803f10:	08100c40 	call	8100c4 <__malloc_unlock>
  803f14:	80800204 	addi	r2,r16,8
  803f18:	003fe006 	br	803e9c <__alt_mem_onchip_mem+0xff783e9c>
  803f1c:	9c000217 	ldw	r16,8(r19)
  803f20:	00bfff04 	movi	r2,-4
  803f24:	85800117 	ldw	r22,4(r16)
  803f28:	b0ac703a 	and	r22,r22,r2
  803f2c:	b4400336 	bltu	r22,r17,803f3c <_malloc_r+0x344>
  803f30:	b445c83a 	sub	r2,r22,r17
  803f34:	00c003c4 	movi	r3,15
  803f38:	18805d16 	blt	r3,r2,8040b0 <_malloc_r+0x4b8>
  803f3c:	05c02074 	movhi	r23,129
  803f40:	00802074 	movhi	r2,129
  803f44:	109f1e04 	addi	r2,r2,31864
  803f48:	bdd79904 	addi	r23,r23,24164
  803f4c:	15400017 	ldw	r21,0(r2)
  803f50:	b8c00017 	ldw	r3,0(r23)
  803f54:	00bfffc4 	movi	r2,-1
  803f58:	858d883a 	add	r6,r16,r22
  803f5c:	8d6b883a 	add	r21,r17,r21
  803f60:	1880ea26 	beq	r3,r2,80430c <_malloc_r+0x714>
  803f64:	ad4403c4 	addi	r21,r21,4111
  803f68:	00bc0004 	movi	r2,-4096
  803f6c:	a8aa703a 	and	r21,r21,r2
  803f70:	a80b883a 	mov	r5,r21
  803f74:	9009883a 	mov	r4,r18
  803f78:	d9800015 	stw	r6,0(sp)
  803f7c:	08048bc0 	call	8048bc <_sbrk_r>
  803f80:	1029883a 	mov	r20,r2
  803f84:	00bfffc4 	movi	r2,-1
  803f88:	d9800017 	ldw	r6,0(sp)
  803f8c:	a080e826 	beq	r20,r2,804330 <_malloc_r+0x738>
  803f90:	a180a636 	bltu	r20,r6,80422c <_malloc_r+0x634>
  803f94:	07002074 	movhi	fp,129
  803f98:	e71f8904 	addi	fp,fp,32292
  803f9c:	e0800017 	ldw	r2,0(fp)
  803fa0:	a887883a 	add	r3,r21,r2
  803fa4:	e0c00015 	stw	r3,0(fp)
  803fa8:	3500e626 	beq	r6,r20,804344 <_malloc_r+0x74c>
  803fac:	b9000017 	ldw	r4,0(r23)
  803fb0:	00bfffc4 	movi	r2,-1
  803fb4:	2080ee26 	beq	r4,r2,804370 <_malloc_r+0x778>
  803fb8:	a185c83a 	sub	r2,r20,r6
  803fbc:	10c5883a 	add	r2,r2,r3
  803fc0:	e0800015 	stw	r2,0(fp)
  803fc4:	a0c001cc 	andi	r3,r20,7
  803fc8:	1800bc26 	beq	r3,zero,8042bc <_malloc_r+0x6c4>
  803fcc:	a0e9c83a 	sub	r20,r20,r3
  803fd0:	00840204 	movi	r2,4104
  803fd4:	a5000204 	addi	r20,r20,8
  803fd8:	10c7c83a 	sub	r3,r2,r3
  803fdc:	a545883a 	add	r2,r20,r21
  803fe0:	1083ffcc 	andi	r2,r2,4095
  803fe4:	18abc83a 	sub	r21,r3,r2
  803fe8:	a80b883a 	mov	r5,r21
  803fec:	9009883a 	mov	r4,r18
  803ff0:	08048bc0 	call	8048bc <_sbrk_r>
  803ff4:	00ffffc4 	movi	r3,-1
  803ff8:	10c0e126 	beq	r2,r3,804380 <_malloc_r+0x788>
  803ffc:	1505c83a 	sub	r2,r2,r20
  804000:	1545883a 	add	r2,r2,r21
  804004:	10800054 	ori	r2,r2,1
  804008:	e0c00017 	ldw	r3,0(fp)
  80400c:	9d000215 	stw	r20,8(r19)
  804010:	a0800115 	stw	r2,4(r20)
  804014:	a8c7883a 	add	r3,r21,r3
  804018:	e0c00015 	stw	r3,0(fp)
  80401c:	84c00e26 	beq	r16,r19,804058 <_malloc_r+0x460>
  804020:	018003c4 	movi	r6,15
  804024:	3580a72e 	bgeu	r6,r22,8042c4 <_malloc_r+0x6cc>
  804028:	81400117 	ldw	r5,4(r16)
  80402c:	013ffe04 	movi	r4,-8
  804030:	b0bffd04 	addi	r2,r22,-12
  804034:	1104703a 	and	r2,r2,r4
  804038:	2900004c 	andi	r4,r5,1
  80403c:	2088b03a 	or	r4,r4,r2
  804040:	81000115 	stw	r4,4(r16)
  804044:	01400144 	movi	r5,5
  804048:	8089883a 	add	r4,r16,r2
  80404c:	21400115 	stw	r5,4(r4)
  804050:	21400215 	stw	r5,8(r4)
  804054:	3080cd36 	bltu	r6,r2,80438c <_malloc_r+0x794>
  804058:	00802074 	movhi	r2,129
  80405c:	109f1d04 	addi	r2,r2,31860
  804060:	11000017 	ldw	r4,0(r2)
  804064:	20c0012e 	bgeu	r4,r3,80406c <_malloc_r+0x474>
  804068:	10c00015 	stw	r3,0(r2)
  80406c:	00802074 	movhi	r2,129
  804070:	109f1c04 	addi	r2,r2,31856
  804074:	11000017 	ldw	r4,0(r2)
  804078:	9c000217 	ldw	r16,8(r19)
  80407c:	20c0012e 	bgeu	r4,r3,804084 <_malloc_r+0x48c>
  804080:	10c00015 	stw	r3,0(r2)
  804084:	80c00117 	ldw	r3,4(r16)
  804088:	00bfff04 	movi	r2,-4
  80408c:	1886703a 	and	r3,r3,r2
  804090:	1c45c83a 	sub	r2,r3,r17
  804094:	1c400236 	bltu	r3,r17,8040a0 <_malloc_r+0x4a8>
  804098:	00c003c4 	movi	r3,15
  80409c:	18800416 	blt	r3,r2,8040b0 <_malloc_r+0x4b8>
  8040a0:	9009883a 	mov	r4,r18
  8040a4:	08100c40 	call	8100c4 <__malloc_unlock>
  8040a8:	0005883a 	mov	r2,zero
  8040ac:	003f7b06 	br	803e9c <__alt_mem_onchip_mem+0xff783e9c>
  8040b0:	88c00054 	ori	r3,r17,1
  8040b4:	80c00115 	stw	r3,4(r16)
  8040b8:	8463883a 	add	r17,r16,r17
  8040bc:	10800054 	ori	r2,r2,1
  8040c0:	9c400215 	stw	r17,8(r19)
  8040c4:	88800115 	stw	r2,4(r17)
  8040c8:	9009883a 	mov	r4,r18
  8040cc:	08100c40 	call	8100c4 <__malloc_unlock>
  8040d0:	80800204 	addi	r2,r16,8
  8040d4:	003f7106 	br	803e9c <__alt_mem_onchip_mem+0xff783e9c>
  8040d8:	00c00504 	movi	r3,20
  8040dc:	18804a2e 	bgeu	r3,r2,804208 <_malloc_r+0x610>
  8040e0:	00c01504 	movi	r3,84
  8040e4:	18806e36 	bltu	r3,r2,8042a0 <_malloc_r+0x6a8>
  8040e8:	8804d33a 	srli	r2,r17,12
  8040ec:	12001bc4 	addi	r8,r2,111
  8040f0:	11c01b84 	addi	r7,r2,110
  8040f4:	4209883a 	add	r4,r8,r8
  8040f8:	003edd06 	br	803c70 <__alt_mem_onchip_mem+0xff783c70>
  8040fc:	3804d27a 	srli	r2,r7,9
  804100:	00c00104 	movi	r3,4
  804104:	1880442e 	bgeu	r3,r2,804218 <_malloc_r+0x620>
  804108:	00c00504 	movi	r3,20
  80410c:	18808136 	bltu	r3,r2,804314 <_malloc_r+0x71c>
  804110:	11401704 	addi	r5,r2,92
  804114:	10c016c4 	addi	r3,r2,91
  804118:	294b883a 	add	r5,r5,r5
  80411c:	294b883a 	add	r5,r5,r5
  804120:	294b883a 	add	r5,r5,r5
  804124:	994b883a 	add	r5,r19,r5
  804128:	28800017 	ldw	r2,0(r5)
  80412c:	01802074 	movhi	r6,129
  804130:	297ffe04 	addi	r5,r5,-8
  804134:	31917b04 	addi	r6,r6,17900
  804138:	28806526 	beq	r5,r2,8042d0 <_malloc_r+0x6d8>
  80413c:	01bfff04 	movi	r6,-4
  804140:	10c00117 	ldw	r3,4(r2)
  804144:	1986703a 	and	r3,r3,r6
  804148:	38c0022e 	bgeu	r7,r3,804154 <_malloc_r+0x55c>
  80414c:	10800217 	ldw	r2,8(r2)
  804150:	28bffb1e 	bne	r5,r2,804140 <__alt_mem_onchip_mem+0xff784140>
  804154:	11400317 	ldw	r5,12(r2)
  804158:	98c00117 	ldw	r3,4(r19)
  80415c:	81400315 	stw	r5,12(r16)
  804160:	80800215 	stw	r2,8(r16)
  804164:	2c000215 	stw	r16,8(r5)
  804168:	14000315 	stw	r16,12(r2)
  80416c:	003ef806 	br	803d50 <__alt_mem_onchip_mem+0xff783d50>
  804170:	88c00054 	ori	r3,r17,1
  804174:	80c00115 	stw	r3,4(r16)
  804178:	8463883a 	add	r17,r16,r17
  80417c:	34400515 	stw	r17,20(r6)
  804180:	34400415 	stw	r17,16(r6)
  804184:	10c00054 	ori	r3,r2,1
  804188:	8a000315 	stw	r8,12(r17)
  80418c:	8a000215 	stw	r8,8(r17)
  804190:	88c00115 	stw	r3,4(r17)
  804194:	88a3883a 	add	r17,r17,r2
  804198:	88800015 	stw	r2,0(r17)
  80419c:	9009883a 	mov	r4,r18
  8041a0:	08100c40 	call	8100c4 <__malloc_unlock>
  8041a4:	80800204 	addi	r2,r16,8
  8041a8:	003f3c06 	br	803e9c <__alt_mem_onchip_mem+0xff783e9c>
  8041ac:	30c00117 	ldw	r3,4(r6)
  8041b0:	003ee706 	br	803d50 <__alt_mem_onchip_mem+0xff783d50>
  8041b4:	5ac00044 	addi	r11,r11,1
  8041b8:	588000cc 	andi	r2,r11,3
  8041bc:	31800204 	addi	r6,r6,8
  8041c0:	103efd1e 	bne	r2,zero,803db8 <__alt_mem_onchip_mem+0xff783db8>
  8041c4:	00002406 	br	804258 <_malloc_r+0x660>
  8041c8:	14000317 	ldw	r16,12(r2)
  8041cc:	143f251e 	bne	r2,r16,803e64 <__alt_mem_onchip_mem+0xff783e64>
  8041d0:	21000084 	addi	r4,r4,2
  8041d4:	003ebc06 	br	803cc8 <__alt_mem_onchip_mem+0xff783cc8>
  8041d8:	8085883a 	add	r2,r16,r2
  8041dc:	10c00117 	ldw	r3,4(r2)
  8041e0:	81000317 	ldw	r4,12(r16)
  8041e4:	81400217 	ldw	r5,8(r16)
  8041e8:	18c00054 	ori	r3,r3,1
  8041ec:	10c00115 	stw	r3,4(r2)
  8041f0:	29000315 	stw	r4,12(r5)
  8041f4:	21400215 	stw	r5,8(r4)
  8041f8:	9009883a 	mov	r4,r18
  8041fc:	08100c40 	call	8100c4 <__malloc_unlock>
  804200:	80800204 	addi	r2,r16,8
  804204:	003f2506 	br	803e9c <__alt_mem_onchip_mem+0xff783e9c>
  804208:	12001704 	addi	r8,r2,92
  80420c:	11c016c4 	addi	r7,r2,91
  804210:	4209883a 	add	r4,r8,r8
  804214:	003e9606 	br	803c70 <__alt_mem_onchip_mem+0xff783c70>
  804218:	3804d1ba 	srli	r2,r7,6
  80421c:	11400e44 	addi	r5,r2,57
  804220:	10c00e04 	addi	r3,r2,56
  804224:	294b883a 	add	r5,r5,r5
  804228:	003fbc06 	br	80411c <__alt_mem_onchip_mem+0xff78411c>
  80422c:	84ff5926 	beq	r16,r19,803f94 <__alt_mem_onchip_mem+0xff783f94>
  804230:	00802074 	movhi	r2,129
  804234:	10917b04 	addi	r2,r2,17900
  804238:	14000217 	ldw	r16,8(r2)
  80423c:	00bfff04 	movi	r2,-4
  804240:	80c00117 	ldw	r3,4(r16)
  804244:	1886703a 	and	r3,r3,r2
  804248:	003f9106 	br	804090 <__alt_mem_onchip_mem+0xff784090>
  80424c:	60800217 	ldw	r2,8(r12)
  804250:	213fffc4 	addi	r4,r4,-1
  804254:	1300651e 	bne	r2,r12,8043ec <_malloc_r+0x7f4>
  804258:	208000cc 	andi	r2,r4,3
  80425c:	633ffe04 	addi	r12,r12,-8
  804260:	103ffa1e 	bne	r2,zero,80424c <__alt_mem_onchip_mem+0xff78424c>
  804264:	98800117 	ldw	r2,4(r19)
  804268:	0146303a 	nor	r3,zero,r5
  80426c:	1884703a 	and	r2,r3,r2
  804270:	98800115 	stw	r2,4(r19)
  804274:	294b883a 	add	r5,r5,r5
  804278:	117f2836 	bltu	r2,r5,803f1c <__alt_mem_onchip_mem+0xff783f1c>
  80427c:	283f2726 	beq	r5,zero,803f1c <__alt_mem_onchip_mem+0xff783f1c>
  804280:	2886703a 	and	r3,r5,r2
  804284:	5809883a 	mov	r4,r11
  804288:	183ec31e 	bne	r3,zero,803d98 <__alt_mem_onchip_mem+0xff783d98>
  80428c:	294b883a 	add	r5,r5,r5
  804290:	2886703a 	and	r3,r5,r2
  804294:	21000104 	addi	r4,r4,4
  804298:	183ffc26 	beq	r3,zero,80428c <__alt_mem_onchip_mem+0xff78428c>
  80429c:	003ebe06 	br	803d98 <__alt_mem_onchip_mem+0xff783d98>
  8042a0:	00c05504 	movi	r3,340
  8042a4:	18801236 	bltu	r3,r2,8042f0 <_malloc_r+0x6f8>
  8042a8:	8804d3fa 	srli	r2,r17,15
  8042ac:	12001e04 	addi	r8,r2,120
  8042b0:	11c01dc4 	addi	r7,r2,119
  8042b4:	4209883a 	add	r4,r8,r8
  8042b8:	003e6d06 	br	803c70 <__alt_mem_onchip_mem+0xff783c70>
  8042bc:	00c40004 	movi	r3,4096
  8042c0:	003f4606 	br	803fdc <__alt_mem_onchip_mem+0xff783fdc>
  8042c4:	00800044 	movi	r2,1
  8042c8:	a0800115 	stw	r2,4(r20)
  8042cc:	003f7406 	br	8040a0 <__alt_mem_onchip_mem+0xff7840a0>
  8042d0:	1805d0ba 	srai	r2,r3,2
  8042d4:	01c00044 	movi	r7,1
  8042d8:	30c00117 	ldw	r3,4(r6)
  8042dc:	388e983a 	sll	r7,r7,r2
  8042e0:	2805883a 	mov	r2,r5
  8042e4:	38c6b03a 	or	r3,r7,r3
  8042e8:	30c00115 	stw	r3,4(r6)
  8042ec:	003f9b06 	br	80415c <__alt_mem_onchip_mem+0xff78415c>
  8042f0:	00c15504 	movi	r3,1364
  8042f4:	18801a36 	bltu	r3,r2,804360 <_malloc_r+0x768>
  8042f8:	8804d4ba 	srli	r2,r17,18
  8042fc:	12001f44 	addi	r8,r2,125
  804300:	11c01f04 	addi	r7,r2,124
  804304:	4209883a 	add	r4,r8,r8
  804308:	003e5906 	br	803c70 <__alt_mem_onchip_mem+0xff783c70>
  80430c:	ad400404 	addi	r21,r21,16
  804310:	003f1706 	br	803f70 <__alt_mem_onchip_mem+0xff783f70>
  804314:	00c01504 	movi	r3,84
  804318:	18802336 	bltu	r3,r2,8043a8 <_malloc_r+0x7b0>
  80431c:	3804d33a 	srli	r2,r7,12
  804320:	11401bc4 	addi	r5,r2,111
  804324:	10c01b84 	addi	r3,r2,110
  804328:	294b883a 	add	r5,r5,r5
  80432c:	003f7b06 	br	80411c <__alt_mem_onchip_mem+0xff78411c>
  804330:	9c000217 	ldw	r16,8(r19)
  804334:	00bfff04 	movi	r2,-4
  804338:	80c00117 	ldw	r3,4(r16)
  80433c:	1886703a 	and	r3,r3,r2
  804340:	003f5306 	br	804090 <__alt_mem_onchip_mem+0xff784090>
  804344:	3083ffcc 	andi	r2,r6,4095
  804348:	103f181e 	bne	r2,zero,803fac <__alt_mem_onchip_mem+0xff783fac>
  80434c:	99000217 	ldw	r4,8(r19)
  804350:	b545883a 	add	r2,r22,r21
  804354:	10800054 	ori	r2,r2,1
  804358:	20800115 	stw	r2,4(r4)
  80435c:	003f3e06 	br	804058 <__alt_mem_onchip_mem+0xff784058>
  804360:	01003f84 	movi	r4,254
  804364:	02001fc4 	movi	r8,127
  804368:	01c01f84 	movi	r7,126
  80436c:	003e4006 	br	803c70 <__alt_mem_onchip_mem+0xff783c70>
  804370:	00802074 	movhi	r2,129
  804374:	10979904 	addi	r2,r2,24164
  804378:	15000015 	stw	r20,0(r2)
  80437c:	003f1106 	br	803fc4 <__alt_mem_onchip_mem+0xff783fc4>
  804380:	00800044 	movi	r2,1
  804384:	002b883a 	mov	r21,zero
  804388:	003f1f06 	br	804008 <__alt_mem_onchip_mem+0xff784008>
  80438c:	81400204 	addi	r5,r16,8
  804390:	9009883a 	mov	r4,r18
  804394:	0802fc80 	call	802fc8 <_free_r>
  804398:	00802074 	movhi	r2,129
  80439c:	109f8904 	addi	r2,r2,32292
  8043a0:	10c00017 	ldw	r3,0(r2)
  8043a4:	003f2c06 	br	804058 <__alt_mem_onchip_mem+0xff784058>
  8043a8:	00c05504 	movi	r3,340
  8043ac:	18800536 	bltu	r3,r2,8043c4 <_malloc_r+0x7cc>
  8043b0:	3804d3fa 	srli	r2,r7,15
  8043b4:	11401e04 	addi	r5,r2,120
  8043b8:	10c01dc4 	addi	r3,r2,119
  8043bc:	294b883a 	add	r5,r5,r5
  8043c0:	003f5606 	br	80411c <__alt_mem_onchip_mem+0xff78411c>
  8043c4:	00c15504 	movi	r3,1364
  8043c8:	18800536 	bltu	r3,r2,8043e0 <_malloc_r+0x7e8>
  8043cc:	3804d4ba 	srli	r2,r7,18
  8043d0:	11401f44 	addi	r5,r2,125
  8043d4:	10c01f04 	addi	r3,r2,124
  8043d8:	294b883a 	add	r5,r5,r5
  8043dc:	003f4f06 	br	80411c <__alt_mem_onchip_mem+0xff78411c>
  8043e0:	01403f84 	movi	r5,254
  8043e4:	00c01f84 	movi	r3,126
  8043e8:	003f4c06 	br	80411c <__alt_mem_onchip_mem+0xff78411c>
  8043ec:	98800117 	ldw	r2,4(r19)
  8043f0:	003fa006 	br	804274 <__alt_mem_onchip_mem+0xff784274>
  8043f4:	8808d0fa 	srli	r4,r17,3
  8043f8:	20800044 	addi	r2,r4,1
  8043fc:	1085883a 	add	r2,r2,r2
  804400:	003e9006 	br	803e44 <__alt_mem_onchip_mem+0xff783e44>

00804404 <memset>:
  804404:	20c000cc 	andi	r3,r4,3
  804408:	2005883a 	mov	r2,r4
  80440c:	18004426 	beq	r3,zero,804520 <memset+0x11c>
  804410:	31ffffc4 	addi	r7,r6,-1
  804414:	30004026 	beq	r6,zero,804518 <memset+0x114>
  804418:	2813883a 	mov	r9,r5
  80441c:	200d883a 	mov	r6,r4
  804420:	2007883a 	mov	r3,r4
  804424:	00000406 	br	804438 <memset+0x34>
  804428:	3a3fffc4 	addi	r8,r7,-1
  80442c:	31800044 	addi	r6,r6,1
  804430:	38003926 	beq	r7,zero,804518 <memset+0x114>
  804434:	400f883a 	mov	r7,r8
  804438:	18c00044 	addi	r3,r3,1
  80443c:	32400005 	stb	r9,0(r6)
  804440:	1a0000cc 	andi	r8,r3,3
  804444:	403ff81e 	bne	r8,zero,804428 <__alt_mem_onchip_mem+0xff784428>
  804448:	010000c4 	movi	r4,3
  80444c:	21c02d2e 	bgeu	r4,r7,804504 <memset+0x100>
  804450:	29003fcc 	andi	r4,r5,255
  804454:	200c923a 	slli	r6,r4,8
  804458:	3108b03a 	or	r4,r6,r4
  80445c:	200c943a 	slli	r6,r4,16
  804460:	218cb03a 	or	r6,r4,r6
  804464:	010003c4 	movi	r4,15
  804468:	21c0182e 	bgeu	r4,r7,8044cc <memset+0xc8>
  80446c:	3b3ffc04 	addi	r12,r7,-16
  804470:	6018d13a 	srli	r12,r12,4
  804474:	1a000104 	addi	r8,r3,4
  804478:	1ac00204 	addi	r11,r3,8
  80447c:	6008913a 	slli	r4,r12,4
  804480:	1a800304 	addi	r10,r3,12
  804484:	1813883a 	mov	r9,r3
  804488:	21000504 	addi	r4,r4,20
  80448c:	1909883a 	add	r4,r3,r4
  804490:	49800015 	stw	r6,0(r9)
  804494:	41800015 	stw	r6,0(r8)
  804498:	59800015 	stw	r6,0(r11)
  80449c:	51800015 	stw	r6,0(r10)
  8044a0:	42000404 	addi	r8,r8,16
  8044a4:	4a400404 	addi	r9,r9,16
  8044a8:	5ac00404 	addi	r11,r11,16
  8044ac:	52800404 	addi	r10,r10,16
  8044b0:	413ff71e 	bne	r8,r4,804490 <__alt_mem_onchip_mem+0xff784490>
  8044b4:	63000044 	addi	r12,r12,1
  8044b8:	6018913a 	slli	r12,r12,4
  8044bc:	39c003cc 	andi	r7,r7,15
  8044c0:	010000c4 	movi	r4,3
  8044c4:	1b07883a 	add	r3,r3,r12
  8044c8:	21c00e2e 	bgeu	r4,r7,804504 <memset+0x100>
  8044cc:	1813883a 	mov	r9,r3
  8044d0:	3811883a 	mov	r8,r7
  8044d4:	010000c4 	movi	r4,3
  8044d8:	49800015 	stw	r6,0(r9)
  8044dc:	423fff04 	addi	r8,r8,-4
  8044e0:	4a400104 	addi	r9,r9,4
  8044e4:	223ffc36 	bltu	r4,r8,8044d8 <__alt_mem_onchip_mem+0xff7844d8>
  8044e8:	393fff04 	addi	r4,r7,-4
  8044ec:	2008d0ba 	srli	r4,r4,2
  8044f0:	39c000cc 	andi	r7,r7,3
  8044f4:	21000044 	addi	r4,r4,1
  8044f8:	2109883a 	add	r4,r4,r4
  8044fc:	2109883a 	add	r4,r4,r4
  804500:	1907883a 	add	r3,r3,r4
  804504:	38000526 	beq	r7,zero,80451c <memset+0x118>
  804508:	19cf883a 	add	r7,r3,r7
  80450c:	19400005 	stb	r5,0(r3)
  804510:	18c00044 	addi	r3,r3,1
  804514:	38fffd1e 	bne	r7,r3,80450c <__alt_mem_onchip_mem+0xff78450c>
  804518:	f800283a 	ret
  80451c:	f800283a 	ret
  804520:	2007883a 	mov	r3,r4
  804524:	300f883a 	mov	r7,r6
  804528:	003fc706 	br	804448 <__alt_mem_onchip_mem+0xff784448>

0080452c <_open_r>:
  80452c:	defffd04 	addi	sp,sp,-12
  804530:	2805883a 	mov	r2,r5
  804534:	dc000015 	stw	r16,0(sp)
  804538:	04002074 	movhi	r16,129
  80453c:	dc400115 	stw	r17,4(sp)
  804540:	300b883a 	mov	r5,r6
  804544:	841f1b04 	addi	r16,r16,31852
  804548:	2023883a 	mov	r17,r4
  80454c:	380d883a 	mov	r6,r7
  804550:	1009883a 	mov	r4,r2
  804554:	dfc00215 	stw	ra,8(sp)
  804558:	80000015 	stw	zero,0(r16)
  80455c:	08101e80 	call	8101e8 <open>
  804560:	00ffffc4 	movi	r3,-1
  804564:	10c00526 	beq	r2,r3,80457c <_open_r+0x50>
  804568:	dfc00217 	ldw	ra,8(sp)
  80456c:	dc400117 	ldw	r17,4(sp)
  804570:	dc000017 	ldw	r16,0(sp)
  804574:	dec00304 	addi	sp,sp,12
  804578:	f800283a 	ret
  80457c:	80c00017 	ldw	r3,0(r16)
  804580:	183ff926 	beq	r3,zero,804568 <__alt_mem_onchip_mem+0xff784568>
  804584:	88c00015 	stw	r3,0(r17)
  804588:	003ff706 	br	804568 <__alt_mem_onchip_mem+0xff784568>

0080458c <_printf_r>:
  80458c:	defffd04 	addi	sp,sp,-12
  804590:	2805883a 	mov	r2,r5
  804594:	dfc00015 	stw	ra,0(sp)
  804598:	d9800115 	stw	r6,4(sp)
  80459c:	d9c00215 	stw	r7,8(sp)
  8045a0:	21400217 	ldw	r5,8(r4)
  8045a4:	d9c00104 	addi	r7,sp,4
  8045a8:	100d883a 	mov	r6,r2
  8045ac:	0804ae40 	call	804ae4 <___vfprintf_internal_r>
  8045b0:	dfc00017 	ldw	ra,0(sp)
  8045b4:	dec00304 	addi	sp,sp,12
  8045b8:	f800283a 	ret

008045bc <printf>:
  8045bc:	defffc04 	addi	sp,sp,-16
  8045c0:	dfc00015 	stw	ra,0(sp)
  8045c4:	d9400115 	stw	r5,4(sp)
  8045c8:	d9800215 	stw	r6,8(sp)
  8045cc:	d9c00315 	stw	r7,12(sp)
  8045d0:	00802074 	movhi	r2,129
  8045d4:	10979804 	addi	r2,r2,24160
  8045d8:	10800017 	ldw	r2,0(r2)
  8045dc:	200b883a 	mov	r5,r4
  8045e0:	d9800104 	addi	r6,sp,4
  8045e4:	11000217 	ldw	r4,8(r2)
  8045e8:	0806cdc0 	call	806cdc <__vfprintf_internal>
  8045ec:	dfc00017 	ldw	ra,0(sp)
  8045f0:	dec00404 	addi	sp,sp,16
  8045f4:	f800283a 	ret

008045f8 <_puts_r>:
  8045f8:	defff604 	addi	sp,sp,-40
  8045fc:	dc000715 	stw	r16,28(sp)
  804600:	2021883a 	mov	r16,r4
  804604:	2809883a 	mov	r4,r5
  804608:	dc400815 	stw	r17,32(sp)
  80460c:	dfc00915 	stw	ra,36(sp)
  804610:	2823883a 	mov	r17,r5
  804614:	0804a4c0 	call	804a4c <strlen>
  804618:	10c00044 	addi	r3,r2,1
  80461c:	d8800115 	stw	r2,4(sp)
  804620:	00802074 	movhi	r2,129
  804624:	108f0f04 	addi	r2,r2,15420
  804628:	d8800215 	stw	r2,8(sp)
  80462c:	00800044 	movi	r2,1
  804630:	d8800315 	stw	r2,12(sp)
  804634:	00800084 	movi	r2,2
  804638:	dc400015 	stw	r17,0(sp)
  80463c:	d8c00615 	stw	r3,24(sp)
  804640:	dec00415 	stw	sp,16(sp)
  804644:	d8800515 	stw	r2,20(sp)
  804648:	80000226 	beq	r16,zero,804654 <_puts_r+0x5c>
  80464c:	80800e17 	ldw	r2,56(r16)
  804650:	10001426 	beq	r2,zero,8046a4 <_puts_r+0xac>
  804654:	81400217 	ldw	r5,8(r16)
  804658:	2880030b 	ldhu	r2,12(r5)
  80465c:	10c8000c 	andi	r3,r2,8192
  804660:	1800061e 	bne	r3,zero,80467c <_puts_r+0x84>
  804664:	29001917 	ldw	r4,100(r5)
  804668:	00f7ffc4 	movi	r3,-8193
  80466c:	10880014 	ori	r2,r2,8192
  804670:	20c6703a 	and	r3,r4,r3
  804674:	2880030d 	sth	r2,12(r5)
  804678:	28c01915 	stw	r3,100(r5)
  80467c:	d9800404 	addi	r6,sp,16
  804680:	8009883a 	mov	r4,r16
  804684:	08089f40 	call	8089f4 <__sfvwrite_r>
  804688:	1000091e 	bne	r2,zero,8046b0 <_puts_r+0xb8>
  80468c:	00800284 	movi	r2,10
  804690:	dfc00917 	ldw	ra,36(sp)
  804694:	dc400817 	ldw	r17,32(sp)
  804698:	dc000717 	ldw	r16,28(sp)
  80469c:	dec00a04 	addi	sp,sp,40
  8046a0:	f800283a 	ret
  8046a4:	8009883a 	mov	r4,r16
  8046a8:	0802cfc0 	call	802cfc <__sinit>
  8046ac:	003fe906 	br	804654 <__alt_mem_onchip_mem+0xff784654>
  8046b0:	00bfffc4 	movi	r2,-1
  8046b4:	003ff606 	br	804690 <__alt_mem_onchip_mem+0xff784690>

008046b8 <puts>:
  8046b8:	00802074 	movhi	r2,129
  8046bc:	10979804 	addi	r2,r2,24160
  8046c0:	200b883a 	mov	r5,r4
  8046c4:	11000017 	ldw	r4,0(r2)
  8046c8:	08045f81 	jmpi	8045f8 <_puts_r>

008046cc <lflush>:
  8046cc:	2080030b 	ldhu	r2,12(r4)
  8046d0:	00c00244 	movi	r3,9
  8046d4:	1080024c 	andi	r2,r2,9
  8046d8:	10c00226 	beq	r2,r3,8046e4 <lflush+0x18>
  8046dc:	0005883a 	mov	r2,zero
  8046e0:	f800283a 	ret
  8046e4:	080297c1 	jmpi	80297c <fflush>

008046e8 <__srefill_r>:
  8046e8:	defffc04 	addi	sp,sp,-16
  8046ec:	dc400115 	stw	r17,4(sp)
  8046f0:	dc000015 	stw	r16,0(sp)
  8046f4:	dfc00315 	stw	ra,12(sp)
  8046f8:	dc800215 	stw	r18,8(sp)
  8046fc:	2023883a 	mov	r17,r4
  804700:	2821883a 	mov	r16,r5
  804704:	20000226 	beq	r4,zero,804710 <__srefill_r+0x28>
  804708:	20800e17 	ldw	r2,56(r4)
  80470c:	10003c26 	beq	r2,zero,804800 <__srefill_r+0x118>
  804710:	80c0030b 	ldhu	r3,12(r16)
  804714:	1908000c 	andi	r4,r3,8192
  804718:	1805883a 	mov	r2,r3
  80471c:	2000071e 	bne	r4,zero,80473c <__srefill_r+0x54>
  804720:	81001917 	ldw	r4,100(r16)
  804724:	18880014 	ori	r2,r3,8192
  804728:	00f7ffc4 	movi	r3,-8193
  80472c:	20c8703a 	and	r4,r4,r3
  804730:	8080030d 	sth	r2,12(r16)
  804734:	1007883a 	mov	r3,r2
  804738:	81001915 	stw	r4,100(r16)
  80473c:	80000115 	stw	zero,4(r16)
  804740:	1100080c 	andi	r4,r2,32
  804744:	2000571e 	bne	r4,zero,8048a4 <__srefill_r+0x1bc>
  804748:	1100010c 	andi	r4,r2,4
  80474c:	20001f26 	beq	r4,zero,8047cc <__srefill_r+0xe4>
  804750:	81400c17 	ldw	r5,48(r16)
  804754:	28000826 	beq	r5,zero,804778 <__srefill_r+0x90>
  804758:	80801004 	addi	r2,r16,64
  80475c:	28800226 	beq	r5,r2,804768 <__srefill_r+0x80>
  804760:	8809883a 	mov	r4,r17
  804764:	0802fc80 	call	802fc8 <_free_r>
  804768:	80800f17 	ldw	r2,60(r16)
  80476c:	80000c15 	stw	zero,48(r16)
  804770:	80800115 	stw	r2,4(r16)
  804774:	1000391e 	bne	r2,zero,80485c <__srefill_r+0x174>
  804778:	80800417 	ldw	r2,16(r16)
  80477c:	10004b26 	beq	r2,zero,8048ac <__srefill_r+0x1c4>
  804780:	8480030b 	ldhu	r18,12(r16)
  804784:	908000cc 	andi	r2,r18,3
  804788:	10001f1e 	bne	r2,zero,804808 <__srefill_r+0x120>
  80478c:	81800417 	ldw	r6,16(r16)
  804790:	80800817 	ldw	r2,32(r16)
  804794:	81c00517 	ldw	r7,20(r16)
  804798:	81400717 	ldw	r5,28(r16)
  80479c:	81800015 	stw	r6,0(r16)
  8047a0:	8809883a 	mov	r4,r17
  8047a4:	103ee83a 	callr	r2
  8047a8:	80800115 	stw	r2,4(r16)
  8047ac:	00800e0e 	bge	zero,r2,8047e8 <__srefill_r+0x100>
  8047b0:	0005883a 	mov	r2,zero
  8047b4:	dfc00317 	ldw	ra,12(sp)
  8047b8:	dc800217 	ldw	r18,8(sp)
  8047bc:	dc400117 	ldw	r17,4(sp)
  8047c0:	dc000017 	ldw	r16,0(sp)
  8047c4:	dec00404 	addi	sp,sp,16
  8047c8:	f800283a 	ret
  8047cc:	1100040c 	andi	r4,r2,16
  8047d0:	20003026 	beq	r4,zero,804894 <__srefill_r+0x1ac>
  8047d4:	1080020c 	andi	r2,r2,8
  8047d8:	1000241e 	bne	r2,zero,80486c <__srefill_r+0x184>
  8047dc:	18c00114 	ori	r3,r3,4
  8047e0:	80c0030d 	sth	r3,12(r16)
  8047e4:	003fe406 	br	804778 <__alt_mem_onchip_mem+0xff784778>
  8047e8:	80c0030b 	ldhu	r3,12(r16)
  8047ec:	1000161e 	bne	r2,zero,804848 <__srefill_r+0x160>
  8047f0:	18c00814 	ori	r3,r3,32
  8047f4:	00bfffc4 	movi	r2,-1
  8047f8:	80c0030d 	sth	r3,12(r16)
  8047fc:	003fed06 	br	8047b4 <__alt_mem_onchip_mem+0xff7847b4>
  804800:	0802cfc0 	call	802cfc <__sinit>
  804804:	003fc206 	br	804710 <__alt_mem_onchip_mem+0xff784710>
  804808:	00802074 	movhi	r2,129
  80480c:	10979704 	addi	r2,r2,24156
  804810:	11000017 	ldw	r4,0(r2)
  804814:	01402034 	movhi	r5,128
  804818:	00800044 	movi	r2,1
  80481c:	2951b304 	addi	r5,r5,18124
  804820:	8080030d 	sth	r2,12(r16)
  804824:	08037b40 	call	8037b4 <_fwalk>
  804828:	00800244 	movi	r2,9
  80482c:	8480030d 	sth	r18,12(r16)
  804830:	9480024c 	andi	r18,r18,9
  804834:	90bfd51e 	bne	r18,r2,80478c <__alt_mem_onchip_mem+0xff78478c>
  804838:	800b883a 	mov	r5,r16
  80483c:	8809883a 	mov	r4,r17
  804840:	08027040 	call	802704 <__sflush_r>
  804844:	003fd106 	br	80478c <__alt_mem_onchip_mem+0xff78478c>
  804848:	18c01014 	ori	r3,r3,64
  80484c:	80000115 	stw	zero,4(r16)
  804850:	00bfffc4 	movi	r2,-1
  804854:	80c0030d 	sth	r3,12(r16)
  804858:	003fd606 	br	8047b4 <__alt_mem_onchip_mem+0xff7847b4>
  80485c:	80c00e17 	ldw	r3,56(r16)
  804860:	0005883a 	mov	r2,zero
  804864:	80c00015 	stw	r3,0(r16)
  804868:	003fd206 	br	8047b4 <__alt_mem_onchip_mem+0xff7847b4>
  80486c:	800b883a 	mov	r5,r16
  804870:	8809883a 	mov	r4,r17
  804874:	08029200 	call	802920 <_fflush_r>
  804878:	10000a1e 	bne	r2,zero,8048a4 <__srefill_r+0x1bc>
  80487c:	8080030b 	ldhu	r2,12(r16)
  804880:	00fffdc4 	movi	r3,-9
  804884:	80000215 	stw	zero,8(r16)
  804888:	1886703a 	and	r3,r3,r2
  80488c:	80000615 	stw	zero,24(r16)
  804890:	003fd206 	br	8047dc <__alt_mem_onchip_mem+0xff7847dc>
  804894:	00800244 	movi	r2,9
  804898:	88800015 	stw	r2,0(r17)
  80489c:	18c01014 	ori	r3,r3,64
  8048a0:	80c0030d 	sth	r3,12(r16)
  8048a4:	00bfffc4 	movi	r2,-1
  8048a8:	003fc206 	br	8047b4 <__alt_mem_onchip_mem+0xff7847b4>
  8048ac:	800b883a 	mov	r5,r16
  8048b0:	8809883a 	mov	r4,r17
  8048b4:	0803a3c0 	call	803a3c <__smakebuf_r>
  8048b8:	003fb106 	br	804780 <__alt_mem_onchip_mem+0xff784780>

008048bc <_sbrk_r>:
  8048bc:	defffd04 	addi	sp,sp,-12
  8048c0:	dc000015 	stw	r16,0(sp)
  8048c4:	04002074 	movhi	r16,129
  8048c8:	dc400115 	stw	r17,4(sp)
  8048cc:	841f1b04 	addi	r16,r16,31852
  8048d0:	2023883a 	mov	r17,r4
  8048d4:	2809883a 	mov	r4,r5
  8048d8:	dfc00215 	stw	ra,8(sp)
  8048dc:	80000015 	stw	zero,0(r16)
  8048e0:	08104d80 	call	8104d8 <sbrk>
  8048e4:	00ffffc4 	movi	r3,-1
  8048e8:	10c00526 	beq	r2,r3,804900 <_sbrk_r+0x44>
  8048ec:	dfc00217 	ldw	ra,8(sp)
  8048f0:	dc400117 	ldw	r17,4(sp)
  8048f4:	dc000017 	ldw	r16,0(sp)
  8048f8:	dec00304 	addi	sp,sp,12
  8048fc:	f800283a 	ret
  804900:	80c00017 	ldw	r3,0(r16)
  804904:	183ff926 	beq	r3,zero,8048ec <__alt_mem_onchip_mem+0xff7848ec>
  804908:	88c00015 	stw	r3,0(r17)
  80490c:	003ff706 	br	8048ec <__alt_mem_onchip_mem+0xff7848ec>

00804910 <__sread>:
  804910:	defffe04 	addi	sp,sp,-8
  804914:	dc000015 	stw	r16,0(sp)
  804918:	2821883a 	mov	r16,r5
  80491c:	2940038f 	ldh	r5,14(r5)
  804920:	dfc00115 	stw	ra,4(sp)
  804924:	080a3c40 	call	80a3c4 <_read_r>
  804928:	10000716 	blt	r2,zero,804948 <__sread+0x38>
  80492c:	80c01417 	ldw	r3,80(r16)
  804930:	1887883a 	add	r3,r3,r2
  804934:	80c01415 	stw	r3,80(r16)
  804938:	dfc00117 	ldw	ra,4(sp)
  80493c:	dc000017 	ldw	r16,0(sp)
  804940:	dec00204 	addi	sp,sp,8
  804944:	f800283a 	ret
  804948:	80c0030b 	ldhu	r3,12(r16)
  80494c:	18fbffcc 	andi	r3,r3,61439
  804950:	80c0030d 	sth	r3,12(r16)
  804954:	dfc00117 	ldw	ra,4(sp)
  804958:	dc000017 	ldw	r16,0(sp)
  80495c:	dec00204 	addi	sp,sp,8
  804960:	f800283a 	ret

00804964 <__seofread>:
  804964:	0005883a 	mov	r2,zero
  804968:	f800283a 	ret

0080496c <__swrite>:
  80496c:	2880030b 	ldhu	r2,12(r5)
  804970:	defffb04 	addi	sp,sp,-20
  804974:	dcc00315 	stw	r19,12(sp)
  804978:	dc800215 	stw	r18,8(sp)
  80497c:	dc400115 	stw	r17,4(sp)
  804980:	dc000015 	stw	r16,0(sp)
  804984:	dfc00415 	stw	ra,16(sp)
  804988:	10c0400c 	andi	r3,r2,256
  80498c:	2821883a 	mov	r16,r5
  804990:	2023883a 	mov	r17,r4
  804994:	3025883a 	mov	r18,r6
  804998:	3827883a 	mov	r19,r7
  80499c:	18000526 	beq	r3,zero,8049b4 <__swrite+0x48>
  8049a0:	2940038f 	ldh	r5,14(r5)
  8049a4:	01c00084 	movi	r7,2
  8049a8:	000d883a 	mov	r6,zero
  8049ac:	0808fe00 	call	808fe0 <_lseek_r>
  8049b0:	8080030b 	ldhu	r2,12(r16)
  8049b4:	8140038f 	ldh	r5,14(r16)
  8049b8:	10bbffcc 	andi	r2,r2,61439
  8049bc:	980f883a 	mov	r7,r19
  8049c0:	900d883a 	mov	r6,r18
  8049c4:	8809883a 	mov	r4,r17
  8049c8:	8080030d 	sth	r2,12(r16)
  8049cc:	dfc00417 	ldw	ra,16(sp)
  8049d0:	dcc00317 	ldw	r19,12(sp)
  8049d4:	dc800217 	ldw	r18,8(sp)
  8049d8:	dc400117 	ldw	r17,4(sp)
  8049dc:	dc000017 	ldw	r16,0(sp)
  8049e0:	dec00504 	addi	sp,sp,20
  8049e4:	0806db41 	jmpi	806db4 <_write_r>

008049e8 <__sseek>:
  8049e8:	defffe04 	addi	sp,sp,-8
  8049ec:	dc000015 	stw	r16,0(sp)
  8049f0:	2821883a 	mov	r16,r5
  8049f4:	2940038f 	ldh	r5,14(r5)
  8049f8:	dfc00115 	stw	ra,4(sp)
  8049fc:	0808fe00 	call	808fe0 <_lseek_r>
  804a00:	00ffffc4 	movi	r3,-1
  804a04:	10c00826 	beq	r2,r3,804a28 <__sseek+0x40>
  804a08:	80c0030b 	ldhu	r3,12(r16)
  804a0c:	80801415 	stw	r2,80(r16)
  804a10:	18c40014 	ori	r3,r3,4096
  804a14:	80c0030d 	sth	r3,12(r16)
  804a18:	dfc00117 	ldw	ra,4(sp)
  804a1c:	dc000017 	ldw	r16,0(sp)
  804a20:	dec00204 	addi	sp,sp,8
  804a24:	f800283a 	ret
  804a28:	80c0030b 	ldhu	r3,12(r16)
  804a2c:	18fbffcc 	andi	r3,r3,61439
  804a30:	80c0030d 	sth	r3,12(r16)
  804a34:	dfc00117 	ldw	ra,4(sp)
  804a38:	dc000017 	ldw	r16,0(sp)
  804a3c:	dec00204 	addi	sp,sp,8
  804a40:	f800283a 	ret

00804a44 <__sclose>:
  804a44:	2940038f 	ldh	r5,14(r5)
  804a48:	0806f681 	jmpi	806f68 <_close_r>

00804a4c <strlen>:
  804a4c:	208000cc 	andi	r2,r4,3
  804a50:	10002026 	beq	r2,zero,804ad4 <strlen+0x88>
  804a54:	20800007 	ldb	r2,0(r4)
  804a58:	10002026 	beq	r2,zero,804adc <strlen+0x90>
  804a5c:	2005883a 	mov	r2,r4
  804a60:	00000206 	br	804a6c <strlen+0x20>
  804a64:	10c00007 	ldb	r3,0(r2)
  804a68:	18001826 	beq	r3,zero,804acc <strlen+0x80>
  804a6c:	10800044 	addi	r2,r2,1
  804a70:	10c000cc 	andi	r3,r2,3
  804a74:	183ffb1e 	bne	r3,zero,804a64 <__alt_mem_onchip_mem+0xff784a64>
  804a78:	10c00017 	ldw	r3,0(r2)
  804a7c:	01ffbff4 	movhi	r7,65279
  804a80:	39ffbfc4 	addi	r7,r7,-257
  804a84:	00ca303a 	nor	r5,zero,r3
  804a88:	01a02074 	movhi	r6,32897
  804a8c:	19c7883a 	add	r3,r3,r7
  804a90:	31a02004 	addi	r6,r6,-32640
  804a94:	1946703a 	and	r3,r3,r5
  804a98:	1986703a 	and	r3,r3,r6
  804a9c:	1800091e 	bne	r3,zero,804ac4 <strlen+0x78>
  804aa0:	10800104 	addi	r2,r2,4
  804aa4:	10c00017 	ldw	r3,0(r2)
  804aa8:	19cb883a 	add	r5,r3,r7
  804aac:	00c6303a 	nor	r3,zero,r3
  804ab0:	28c6703a 	and	r3,r5,r3
  804ab4:	1986703a 	and	r3,r3,r6
  804ab8:	183ff926 	beq	r3,zero,804aa0 <__alt_mem_onchip_mem+0xff784aa0>
  804abc:	00000106 	br	804ac4 <strlen+0x78>
  804ac0:	10800044 	addi	r2,r2,1
  804ac4:	10c00007 	ldb	r3,0(r2)
  804ac8:	183ffd1e 	bne	r3,zero,804ac0 <__alt_mem_onchip_mem+0xff784ac0>
  804acc:	1105c83a 	sub	r2,r2,r4
  804ad0:	f800283a 	ret
  804ad4:	2005883a 	mov	r2,r4
  804ad8:	003fe706 	br	804a78 <__alt_mem_onchip_mem+0xff784a78>
  804adc:	0005883a 	mov	r2,zero
  804ae0:	f800283a 	ret

00804ae4 <___vfprintf_internal_r>:
  804ae4:	deffb804 	addi	sp,sp,-288
  804ae8:	dfc04715 	stw	ra,284(sp)
  804aec:	ddc04515 	stw	r23,276(sp)
  804af0:	dd404315 	stw	r21,268(sp)
  804af4:	d9002c15 	stw	r4,176(sp)
  804af8:	282f883a 	mov	r23,r5
  804afc:	302b883a 	mov	r21,r6
  804b00:	d9c02d15 	stw	r7,180(sp)
  804b04:	df004615 	stw	fp,280(sp)
  804b08:	dd804415 	stw	r22,272(sp)
  804b0c:	dd004215 	stw	r20,264(sp)
  804b10:	dcc04115 	stw	r19,260(sp)
  804b14:	dc804015 	stw	r18,256(sp)
  804b18:	dc403f15 	stw	r17,252(sp)
  804b1c:	dc003e15 	stw	r16,248(sp)
  804b20:	0808fb00 	call	808fb0 <_localeconv_r>
  804b24:	10800017 	ldw	r2,0(r2)
  804b28:	1009883a 	mov	r4,r2
  804b2c:	d8803415 	stw	r2,208(sp)
  804b30:	0804a4c0 	call	804a4c <strlen>
  804b34:	d8803715 	stw	r2,220(sp)
  804b38:	d8802c17 	ldw	r2,176(sp)
  804b3c:	10000226 	beq	r2,zero,804b48 <___vfprintf_internal_r+0x64>
  804b40:	10800e17 	ldw	r2,56(r2)
  804b44:	1000f926 	beq	r2,zero,804f2c <___vfprintf_internal_r+0x448>
  804b48:	b880030b 	ldhu	r2,12(r23)
  804b4c:	10c8000c 	andi	r3,r2,8192
  804b50:	1800061e 	bne	r3,zero,804b6c <___vfprintf_internal_r+0x88>
  804b54:	b9001917 	ldw	r4,100(r23)
  804b58:	00f7ffc4 	movi	r3,-8193
  804b5c:	10880014 	ori	r2,r2,8192
  804b60:	20c6703a 	and	r3,r4,r3
  804b64:	b880030d 	sth	r2,12(r23)
  804b68:	b8c01915 	stw	r3,100(r23)
  804b6c:	10c0020c 	andi	r3,r2,8
  804b70:	1800c126 	beq	r3,zero,804e78 <___vfprintf_internal_r+0x394>
  804b74:	b8c00417 	ldw	r3,16(r23)
  804b78:	1800bf26 	beq	r3,zero,804e78 <___vfprintf_internal_r+0x394>
  804b7c:	1080068c 	andi	r2,r2,26
  804b80:	00c00284 	movi	r3,10
  804b84:	10c0c426 	beq	r2,r3,804e98 <___vfprintf_internal_r+0x3b4>
  804b88:	d8c00404 	addi	r3,sp,16
  804b8c:	05002074 	movhi	r20,129
  804b90:	d9001e04 	addi	r4,sp,120
  804b94:	a50f2084 	addi	r20,r20,15490
  804b98:	d8c01e15 	stw	r3,120(sp)
  804b9c:	d8002015 	stw	zero,128(sp)
  804ba0:	d8001f15 	stw	zero,124(sp)
  804ba4:	d8003315 	stw	zero,204(sp)
  804ba8:	d8003615 	stw	zero,216(sp)
  804bac:	d8003815 	stw	zero,224(sp)
  804bb0:	1811883a 	mov	r8,r3
  804bb4:	d8003915 	stw	zero,228(sp)
  804bb8:	d8003a15 	stw	zero,232(sp)
  804bbc:	d8002f15 	stw	zero,188(sp)
  804bc0:	d9002815 	stw	r4,160(sp)
  804bc4:	a8800007 	ldb	r2,0(r21)
  804bc8:	10027b26 	beq	r2,zero,8055b8 <___vfprintf_internal_r+0xad4>
  804bcc:	00c00944 	movi	r3,37
  804bd0:	a821883a 	mov	r16,r21
  804bd4:	10c0021e 	bne	r2,r3,804be0 <___vfprintf_internal_r+0xfc>
  804bd8:	00001406 	br	804c2c <___vfprintf_internal_r+0x148>
  804bdc:	10c00326 	beq	r2,r3,804bec <___vfprintf_internal_r+0x108>
  804be0:	84000044 	addi	r16,r16,1
  804be4:	80800007 	ldb	r2,0(r16)
  804be8:	103ffc1e 	bne	r2,zero,804bdc <__alt_mem_onchip_mem+0xff784bdc>
  804bec:	8563c83a 	sub	r17,r16,r21
  804bf0:	88000e26 	beq	r17,zero,804c2c <___vfprintf_internal_r+0x148>
  804bf4:	d8c02017 	ldw	r3,128(sp)
  804bf8:	d8801f17 	ldw	r2,124(sp)
  804bfc:	45400015 	stw	r21,0(r8)
  804c00:	1c47883a 	add	r3,r3,r17
  804c04:	10800044 	addi	r2,r2,1
  804c08:	d8c02015 	stw	r3,128(sp)
  804c0c:	44400115 	stw	r17,4(r8)
  804c10:	d8801f15 	stw	r2,124(sp)
  804c14:	00c001c4 	movi	r3,7
  804c18:	1880a716 	blt	r3,r2,804eb8 <___vfprintf_internal_r+0x3d4>
  804c1c:	42000204 	addi	r8,r8,8
  804c20:	d9402f17 	ldw	r5,188(sp)
  804c24:	2c4b883a 	add	r5,r5,r17
  804c28:	d9402f15 	stw	r5,188(sp)
  804c2c:	80800007 	ldb	r2,0(r16)
  804c30:	1000a826 	beq	r2,zero,804ed4 <___vfprintf_internal_r+0x3f0>
  804c34:	84400047 	ldb	r17,1(r16)
  804c38:	00bfffc4 	movi	r2,-1
  804c3c:	85400044 	addi	r21,r16,1
  804c40:	d8002785 	stb	zero,158(sp)
  804c44:	0007883a 	mov	r3,zero
  804c48:	000f883a 	mov	r7,zero
  804c4c:	d8802915 	stw	r2,164(sp)
  804c50:	d8003115 	stw	zero,196(sp)
  804c54:	0025883a 	mov	r18,zero
  804c58:	01401604 	movi	r5,88
  804c5c:	01800244 	movi	r6,9
  804c60:	02800a84 	movi	r10,42
  804c64:	02401b04 	movi	r9,108
  804c68:	ad400044 	addi	r21,r21,1
  804c6c:	88bff804 	addi	r2,r17,-32
  804c70:	28830436 	bltu	r5,r2,805884 <___vfprintf_internal_r+0xda0>
  804c74:	100490ba 	slli	r2,r2,2
  804c78:	01002034 	movhi	r4,128
  804c7c:	21132304 	addi	r4,r4,19596
  804c80:	1105883a 	add	r2,r2,r4
  804c84:	10800017 	ldw	r2,0(r2)
  804c88:	1000683a 	jmp	r2
  804c8c:	008057a4 	muli	r2,zero,350
  804c90:	00805884 	movi	r2,354
  804c94:	00805884 	movi	r2,354
  804c98:	008057c4 	movi	r2,351
  804c9c:	00805884 	movi	r2,354
  804ca0:	00805884 	movi	r2,354
  804ca4:	00805884 	movi	r2,354
  804ca8:	00805884 	movi	r2,354
  804cac:	00805884 	movi	r2,354
  804cb0:	00805884 	movi	r2,354
  804cb4:	00804f38 	rdprs	r2,zero,316
  804cb8:	008056e0 	cmpeqi	r2,zero,347
  804cbc:	00805884 	movi	r2,354
  804cc0:	00804e00 	call	804e0 <__alt_mem_sdram-0x77fb20>
  804cc4:	00804f60 	cmpeqi	r2,zero,317
  804cc8:	00805884 	movi	r2,354
  804ccc:	00804fa0 	cmpeqi	r2,zero,318
  804cd0:	00804fac 	andhi	r2,zero,318
  804cd4:	00804fac 	andhi	r2,zero,318
  804cd8:	00804fac 	andhi	r2,zero,318
  804cdc:	00804fac 	andhi	r2,zero,318
  804ce0:	00804fac 	andhi	r2,zero,318
  804ce4:	00804fac 	andhi	r2,zero,318
  804ce8:	00804fac 	andhi	r2,zero,318
  804cec:	00804fac 	andhi	r2,zero,318
  804cf0:	00804fac 	andhi	r2,zero,318
  804cf4:	00805884 	movi	r2,354
  804cf8:	00805884 	movi	r2,354
  804cfc:	00805884 	movi	r2,354
  804d00:	00805884 	movi	r2,354
  804d04:	00805884 	movi	r2,354
  804d08:	00805884 	movi	r2,354
  804d0c:	00805884 	movi	r2,354
  804d10:	00805884 	movi	r2,354
  804d14:	00805884 	movi	r2,354
  804d18:	00805884 	movi	r2,354
  804d1c:	00804fe0 	cmpeqi	r2,zero,319
  804d20:	0080509c 	xori	r2,zero,322
  804d24:	00805884 	movi	r2,354
  804d28:	0080509c 	xori	r2,zero,322
  804d2c:	00805884 	movi	r2,354
  804d30:	00805884 	movi	r2,354
  804d34:	00805884 	movi	r2,354
  804d38:	00805884 	movi	r2,354
  804d3c:	0080513c 	xorhi	r2,zero,324
  804d40:	00805884 	movi	r2,354
  804d44:	00805884 	movi	r2,354
  804d48:	00805148 	cmpgei	r2,zero,325
  804d4c:	00805884 	movi	r2,354
  804d50:	00805884 	movi	r2,354
  804d54:	00805884 	movi	r2,354
  804d58:	00805884 	movi	r2,354
  804d5c:	00805884 	movi	r2,354
  804d60:	008055c0 	call	8055c <__alt_mem_sdram-0x77faa4>
  804d64:	00805884 	movi	r2,354
  804d68:	00805884 	movi	r2,354
  804d6c:	00805620 	cmpeqi	r2,zero,344
  804d70:	00805884 	movi	r2,354
  804d74:	00805884 	movi	r2,354
  804d78:	00805884 	movi	r2,354
  804d7c:	00805884 	movi	r2,354
  804d80:	00805884 	movi	r2,354
  804d84:	00805884 	movi	r2,354
  804d88:	00805884 	movi	r2,354
  804d8c:	00805884 	movi	r2,354
  804d90:	00805884 	movi	r2,354
  804d94:	00805884 	movi	r2,354
  804d98:	00805830 	cmpltui	r2,zero,352
  804d9c:	008057d0 	cmplti	r2,zero,351
  804da0:	0080509c 	xori	r2,zero,322
  804da4:	0080509c 	xori	r2,zero,322
  804da8:	0080509c 	xori	r2,zero,322
  804dac:	008057e0 	cmpeqi	r2,zero,351
  804db0:	008057d0 	cmplti	r2,zero,351
  804db4:	00805884 	movi	r2,354
  804db8:	00805884 	movi	r2,354
  804dbc:	008057ec 	andhi	r2,zero,351
  804dc0:	00805884 	movi	r2,354
  804dc4:	008057fc 	xorhi	r2,zero,351
  804dc8:	008056d0 	cmplti	r2,zero,347
  804dcc:	00804e0c 	andi	r2,zero,312
  804dd0:	008056f0 	cmpltui	r2,zero,347
  804dd4:	00805884 	movi	r2,354
  804dd8:	008056fc 	xorhi	r2,zero,347
  804ddc:	00805884 	movi	r2,354
  804de0:	00805758 	cmpnei	r2,zero,349
  804de4:	00805884 	movi	r2,354
  804de8:	00805884 	movi	r2,354
  804dec:	00805768 	cmpgeui	r2,zero,349
  804df0:	d9003117 	ldw	r4,196(sp)
  804df4:	d8802d15 	stw	r2,180(sp)
  804df8:	0109c83a 	sub	r4,zero,r4
  804dfc:	d9003115 	stw	r4,196(sp)
  804e00:	94800114 	ori	r18,r18,4
  804e04:	ac400007 	ldb	r17,0(r21)
  804e08:	003f9706 	br	804c68 <__alt_mem_onchip_mem+0xff784c68>
  804e0c:	00800c04 	movi	r2,48
  804e10:	d9002d17 	ldw	r4,180(sp)
  804e14:	d9402917 	ldw	r5,164(sp)
  804e18:	d8802705 	stb	r2,156(sp)
  804e1c:	00801e04 	movi	r2,120
  804e20:	d8802745 	stb	r2,157(sp)
  804e24:	d8002785 	stb	zero,158(sp)
  804e28:	20c00104 	addi	r3,r4,4
  804e2c:	24c00017 	ldw	r19,0(r4)
  804e30:	002d883a 	mov	r22,zero
  804e34:	90800094 	ori	r2,r18,2
  804e38:	28029a16 	blt	r5,zero,8058a4 <___vfprintf_internal_r+0xdc0>
  804e3c:	00bfdfc4 	movi	r2,-129
  804e40:	90a4703a 	and	r18,r18,r2
  804e44:	d8c02d15 	stw	r3,180(sp)
  804e48:	94800094 	ori	r18,r18,2
  804e4c:	9802871e 	bne	r19,zero,80586c <___vfprintf_internal_r+0xd88>
  804e50:	00802074 	movhi	r2,129
  804e54:	108f1904 	addi	r2,r2,15460
  804e58:	d8803915 	stw	r2,228(sp)
  804e5c:	04401e04 	movi	r17,120
  804e60:	d8802917 	ldw	r2,164(sp)
  804e64:	0039883a 	mov	fp,zero
  804e68:	1001e926 	beq	r2,zero,805610 <___vfprintf_internal_r+0xb2c>
  804e6c:	0027883a 	mov	r19,zero
  804e70:	002d883a 	mov	r22,zero
  804e74:	00020506 	br	80568c <___vfprintf_internal_r+0xba8>
  804e78:	d9002c17 	ldw	r4,176(sp)
  804e7c:	b80b883a 	mov	r5,r23
  804e80:	0806e140 	call	806e14 <__swsetup_r>
  804e84:	1005ac1e 	bne	r2,zero,806538 <___vfprintf_internal_r+0x1a54>
  804e88:	b880030b 	ldhu	r2,12(r23)
  804e8c:	00c00284 	movi	r3,10
  804e90:	1080068c 	andi	r2,r2,26
  804e94:	10ff3c1e 	bne	r2,r3,804b88 <__alt_mem_onchip_mem+0xff784b88>
  804e98:	b880038f 	ldh	r2,14(r23)
  804e9c:	103f3a16 	blt	r2,zero,804b88 <__alt_mem_onchip_mem+0xff784b88>
  804ea0:	d9c02d17 	ldw	r7,180(sp)
  804ea4:	d9002c17 	ldw	r4,176(sp)
  804ea8:	a80d883a 	mov	r6,r21
  804eac:	b80b883a 	mov	r5,r23
  804eb0:	0806cf80 	call	806cf8 <__sbprintf>
  804eb4:	00001106 	br	804efc <___vfprintf_internal_r+0x418>
  804eb8:	d9002c17 	ldw	r4,176(sp)
  804ebc:	d9801e04 	addi	r6,sp,120
  804ec0:	b80b883a 	mov	r5,r23
  804ec4:	080abd40 	call	80abd4 <__sprint_r>
  804ec8:	1000081e 	bne	r2,zero,804eec <___vfprintf_internal_r+0x408>
  804ecc:	da000404 	addi	r8,sp,16
  804ed0:	003f5306 	br	804c20 <__alt_mem_onchip_mem+0xff784c20>
  804ed4:	d8802017 	ldw	r2,128(sp)
  804ed8:	10000426 	beq	r2,zero,804eec <___vfprintf_internal_r+0x408>
  804edc:	d9002c17 	ldw	r4,176(sp)
  804ee0:	d9801e04 	addi	r6,sp,120
  804ee4:	b80b883a 	mov	r5,r23
  804ee8:	080abd40 	call	80abd4 <__sprint_r>
  804eec:	b880030b 	ldhu	r2,12(r23)
  804ef0:	1080100c 	andi	r2,r2,64
  804ef4:	1005901e 	bne	r2,zero,806538 <___vfprintf_internal_r+0x1a54>
  804ef8:	d8802f17 	ldw	r2,188(sp)
  804efc:	dfc04717 	ldw	ra,284(sp)
  804f00:	df004617 	ldw	fp,280(sp)
  804f04:	ddc04517 	ldw	r23,276(sp)
  804f08:	dd804417 	ldw	r22,272(sp)
  804f0c:	dd404317 	ldw	r21,268(sp)
  804f10:	dd004217 	ldw	r20,264(sp)
  804f14:	dcc04117 	ldw	r19,260(sp)
  804f18:	dc804017 	ldw	r18,256(sp)
  804f1c:	dc403f17 	ldw	r17,252(sp)
  804f20:	dc003e17 	ldw	r16,248(sp)
  804f24:	dec04804 	addi	sp,sp,288
  804f28:	f800283a 	ret
  804f2c:	d9002c17 	ldw	r4,176(sp)
  804f30:	0802cfc0 	call	802cfc <__sinit>
  804f34:	003f0406 	br	804b48 <__alt_mem_onchip_mem+0xff784b48>
  804f38:	d8802d17 	ldw	r2,180(sp)
  804f3c:	d9002d17 	ldw	r4,180(sp)
  804f40:	10800017 	ldw	r2,0(r2)
  804f44:	d8803115 	stw	r2,196(sp)
  804f48:	20800104 	addi	r2,r4,4
  804f4c:	d9003117 	ldw	r4,196(sp)
  804f50:	203fa716 	blt	r4,zero,804df0 <__alt_mem_onchip_mem+0xff784df0>
  804f54:	d8802d15 	stw	r2,180(sp)
  804f58:	ac400007 	ldb	r17,0(r21)
  804f5c:	003f4206 	br	804c68 <__alt_mem_onchip_mem+0xff784c68>
  804f60:	ac400007 	ldb	r17,0(r21)
  804f64:	aac00044 	addi	r11,r21,1
  804f68:	8a872826 	beq	r17,r10,806c0c <___vfprintf_internal_r+0x2128>
  804f6c:	88bff404 	addi	r2,r17,-48
  804f70:	0009883a 	mov	r4,zero
  804f74:	30867d36 	bltu	r6,r2,80696c <___vfprintf_internal_r+0x1e88>
  804f78:	5c400007 	ldb	r17,0(r11)
  804f7c:	210002a4 	muli	r4,r4,10
  804f80:	5d400044 	addi	r21,r11,1
  804f84:	a817883a 	mov	r11,r21
  804f88:	2089883a 	add	r4,r4,r2
  804f8c:	88bff404 	addi	r2,r17,-48
  804f90:	30bff92e 	bgeu	r6,r2,804f78 <__alt_mem_onchip_mem+0xff784f78>
  804f94:	2005c916 	blt	r4,zero,8066bc <___vfprintf_internal_r+0x1bd8>
  804f98:	d9002915 	stw	r4,164(sp)
  804f9c:	003f3306 	br	804c6c <__alt_mem_onchip_mem+0xff784c6c>
  804fa0:	94802014 	ori	r18,r18,128
  804fa4:	ac400007 	ldb	r17,0(r21)
  804fa8:	003f2f06 	br	804c68 <__alt_mem_onchip_mem+0xff784c68>
  804fac:	a809883a 	mov	r4,r21
  804fb0:	d8003115 	stw	zero,196(sp)
  804fb4:	88bff404 	addi	r2,r17,-48
  804fb8:	0017883a 	mov	r11,zero
  804fbc:	24400007 	ldb	r17,0(r4)
  804fc0:	5ac002a4 	muli	r11,r11,10
  804fc4:	ad400044 	addi	r21,r21,1
  804fc8:	a809883a 	mov	r4,r21
  804fcc:	12d7883a 	add	r11,r2,r11
  804fd0:	88bff404 	addi	r2,r17,-48
  804fd4:	30bff92e 	bgeu	r6,r2,804fbc <__alt_mem_onchip_mem+0xff784fbc>
  804fd8:	dac03115 	stw	r11,196(sp)
  804fdc:	003f2306 	br	804c6c <__alt_mem_onchip_mem+0xff784c6c>
  804fe0:	18c03fcc 	andi	r3,r3,255
  804fe4:	18072b1e 	bne	r3,zero,806c94 <___vfprintf_internal_r+0x21b0>
  804fe8:	94800414 	ori	r18,r18,16
  804fec:	9080080c 	andi	r2,r18,32
  804ff0:	10037b26 	beq	r2,zero,805de0 <___vfprintf_internal_r+0x12fc>
  804ff4:	d9402d17 	ldw	r5,180(sp)
  804ff8:	28800117 	ldw	r2,4(r5)
  804ffc:	2cc00017 	ldw	r19,0(r5)
  805000:	29400204 	addi	r5,r5,8
  805004:	d9402d15 	stw	r5,180(sp)
  805008:	102d883a 	mov	r22,r2
  80500c:	10044b16 	blt	r2,zero,80613c <___vfprintf_internal_r+0x1658>
  805010:	d9402917 	ldw	r5,164(sp)
  805014:	df002783 	ldbu	fp,158(sp)
  805018:	2803bc16 	blt	r5,zero,805f0c <___vfprintf_internal_r+0x1428>
  80501c:	00ffdfc4 	movi	r3,-129
  805020:	9d84b03a 	or	r2,r19,r22
  805024:	90e4703a 	and	r18,r18,r3
  805028:	10017726 	beq	r2,zero,805608 <___vfprintf_internal_r+0xb24>
  80502c:	b0038326 	beq	r22,zero,805e3c <___vfprintf_internal_r+0x1358>
  805030:	dc402a15 	stw	r17,168(sp)
  805034:	dc001e04 	addi	r16,sp,120
  805038:	b023883a 	mov	r17,r22
  80503c:	402d883a 	mov	r22,r8
  805040:	9809883a 	mov	r4,r19
  805044:	880b883a 	mov	r5,r17
  805048:	01800284 	movi	r6,10
  80504c:	000f883a 	mov	r7,zero
  805050:	080cca40 	call	80cca4 <__umoddi3>
  805054:	10800c04 	addi	r2,r2,48
  805058:	843fffc4 	addi	r16,r16,-1
  80505c:	9809883a 	mov	r4,r19
  805060:	880b883a 	mov	r5,r17
  805064:	80800005 	stb	r2,0(r16)
  805068:	01800284 	movi	r6,10
  80506c:	000f883a 	mov	r7,zero
  805070:	080c72c0 	call	80c72c <__udivdi3>
  805074:	1027883a 	mov	r19,r2
  805078:	10c4b03a 	or	r2,r2,r3
  80507c:	1823883a 	mov	r17,r3
  805080:	103fef1e 	bne	r2,zero,805040 <__alt_mem_onchip_mem+0xff785040>
  805084:	d8c02817 	ldw	r3,160(sp)
  805088:	dc402a17 	ldw	r17,168(sp)
  80508c:	b011883a 	mov	r8,r22
  805090:	1c07c83a 	sub	r3,r3,r16
  805094:	d8c02e15 	stw	r3,184(sp)
  805098:	00005906 	br	805200 <___vfprintf_internal_r+0x71c>
  80509c:	18c03fcc 	andi	r3,r3,255
  8050a0:	1806fa1e 	bne	r3,zero,806c8c <___vfprintf_internal_r+0x21a8>
  8050a4:	9080020c 	andi	r2,r18,8
  8050a8:	10048a26 	beq	r2,zero,8062d4 <___vfprintf_internal_r+0x17f0>
  8050ac:	d8c02d17 	ldw	r3,180(sp)
  8050b0:	d9002d17 	ldw	r4,180(sp)
  8050b4:	d9402d17 	ldw	r5,180(sp)
  8050b8:	18c00017 	ldw	r3,0(r3)
  8050bc:	21000117 	ldw	r4,4(r4)
  8050c0:	29400204 	addi	r5,r5,8
  8050c4:	d8c03615 	stw	r3,216(sp)
  8050c8:	d9003815 	stw	r4,224(sp)
  8050cc:	d9402d15 	stw	r5,180(sp)
  8050d0:	d9003617 	ldw	r4,216(sp)
  8050d4:	d9403817 	ldw	r5,224(sp)
  8050d8:	da003d15 	stw	r8,244(sp)
  8050dc:	04000044 	movi	r16,1
  8050e0:	080a9880 	call	80a988 <__fpclassifyd>
  8050e4:	da003d17 	ldw	r8,244(sp)
  8050e8:	14041f1e 	bne	r2,r16,806168 <___vfprintf_internal_r+0x1684>
  8050ec:	d9003617 	ldw	r4,216(sp)
  8050f0:	d9403817 	ldw	r5,224(sp)
  8050f4:	000d883a 	mov	r6,zero
  8050f8:	000f883a 	mov	r7,zero
  8050fc:	080e6880 	call	80e688 <__ledf2>
  805100:	da003d17 	ldw	r8,244(sp)
  805104:	1005be16 	blt	r2,zero,806800 <___vfprintf_internal_r+0x1d1c>
  805108:	df002783 	ldbu	fp,158(sp)
  80510c:	008011c4 	movi	r2,71
  805110:	1445330e 	bge	r2,r17,8065e0 <___vfprintf_internal_r+0x1afc>
  805114:	04002074 	movhi	r16,129
  805118:	840f1104 	addi	r16,r16,15428
  80511c:	00c000c4 	movi	r3,3
  805120:	00bfdfc4 	movi	r2,-129
  805124:	d8c02a15 	stw	r3,168(sp)
  805128:	90a4703a 	and	r18,r18,r2
  80512c:	d8c02e15 	stw	r3,184(sp)
  805130:	d8002915 	stw	zero,164(sp)
  805134:	d8003215 	stw	zero,200(sp)
  805138:	00003706 	br	805218 <___vfprintf_internal_r+0x734>
  80513c:	94800214 	ori	r18,r18,8
  805140:	ac400007 	ldb	r17,0(r21)
  805144:	003ec806 	br	804c68 <__alt_mem_onchip_mem+0xff784c68>
  805148:	18c03fcc 	andi	r3,r3,255
  80514c:	1806db1e 	bne	r3,zero,806cbc <___vfprintf_internal_r+0x21d8>
  805150:	94800414 	ori	r18,r18,16
  805154:	9080080c 	andi	r2,r18,32
  805158:	1002d826 	beq	r2,zero,805cbc <___vfprintf_internal_r+0x11d8>
  80515c:	d9402d17 	ldw	r5,180(sp)
  805160:	d8c02917 	ldw	r3,164(sp)
  805164:	d8002785 	stb	zero,158(sp)
  805168:	28800204 	addi	r2,r5,8
  80516c:	2cc00017 	ldw	r19,0(r5)
  805170:	2d800117 	ldw	r22,4(r5)
  805174:	18048f16 	blt	r3,zero,8063b4 <___vfprintf_internal_r+0x18d0>
  805178:	013fdfc4 	movi	r4,-129
  80517c:	9d86b03a 	or	r3,r19,r22
  805180:	d8802d15 	stw	r2,180(sp)
  805184:	9124703a 	and	r18,r18,r4
  805188:	1802d91e 	bne	r3,zero,805cf0 <___vfprintf_internal_r+0x120c>
  80518c:	d8c02917 	ldw	r3,164(sp)
  805190:	0039883a 	mov	fp,zero
  805194:	1805c326 	beq	r3,zero,8068a4 <___vfprintf_internal_r+0x1dc0>
  805198:	0027883a 	mov	r19,zero
  80519c:	002d883a 	mov	r22,zero
  8051a0:	dc001e04 	addi	r16,sp,120
  8051a4:	9806d0fa 	srli	r3,r19,3
  8051a8:	b008977a 	slli	r4,r22,29
  8051ac:	b02cd0fa 	srli	r22,r22,3
  8051b0:	9cc001cc 	andi	r19,r19,7
  8051b4:	98800c04 	addi	r2,r19,48
  8051b8:	843fffc4 	addi	r16,r16,-1
  8051bc:	20e6b03a 	or	r19,r4,r3
  8051c0:	80800005 	stb	r2,0(r16)
  8051c4:	9d86b03a 	or	r3,r19,r22
  8051c8:	183ff61e 	bne	r3,zero,8051a4 <__alt_mem_onchip_mem+0xff7851a4>
  8051cc:	90c0004c 	andi	r3,r18,1
  8051d0:	18013b26 	beq	r3,zero,8056c0 <___vfprintf_internal_r+0xbdc>
  8051d4:	10803fcc 	andi	r2,r2,255
  8051d8:	1080201c 	xori	r2,r2,128
  8051dc:	10bfe004 	addi	r2,r2,-128
  8051e0:	00c00c04 	movi	r3,48
  8051e4:	10c13626 	beq	r2,r3,8056c0 <___vfprintf_internal_r+0xbdc>
  8051e8:	80ffffc5 	stb	r3,-1(r16)
  8051ec:	d8c02817 	ldw	r3,160(sp)
  8051f0:	80bfffc4 	addi	r2,r16,-1
  8051f4:	1021883a 	mov	r16,r2
  8051f8:	1887c83a 	sub	r3,r3,r2
  8051fc:	d8c02e15 	stw	r3,184(sp)
  805200:	d8802e17 	ldw	r2,184(sp)
  805204:	d9002917 	ldw	r4,164(sp)
  805208:	1100010e 	bge	r2,r4,805210 <___vfprintf_internal_r+0x72c>
  80520c:	2005883a 	mov	r2,r4
  805210:	d8802a15 	stw	r2,168(sp)
  805214:	d8003215 	stw	zero,200(sp)
  805218:	e7003fcc 	andi	fp,fp,255
  80521c:	e700201c 	xori	fp,fp,128
  805220:	e73fe004 	addi	fp,fp,-128
  805224:	e0000326 	beq	fp,zero,805234 <___vfprintf_internal_r+0x750>
  805228:	d8c02a17 	ldw	r3,168(sp)
  80522c:	18c00044 	addi	r3,r3,1
  805230:	d8c02a15 	stw	r3,168(sp)
  805234:	90c0008c 	andi	r3,r18,2
  805238:	d8c02b15 	stw	r3,172(sp)
  80523c:	18000326 	beq	r3,zero,80524c <___vfprintf_internal_r+0x768>
  805240:	d8c02a17 	ldw	r3,168(sp)
  805244:	18c00084 	addi	r3,r3,2
  805248:	d8c02a15 	stw	r3,168(sp)
  80524c:	90c0210c 	andi	r3,r18,132
  805250:	d8c03015 	stw	r3,192(sp)
  805254:	1801a31e 	bne	r3,zero,8058e4 <___vfprintf_internal_r+0xe00>
  805258:	d9003117 	ldw	r4,196(sp)
  80525c:	d8c02a17 	ldw	r3,168(sp)
  805260:	20e7c83a 	sub	r19,r4,r3
  805264:	04c19f0e 	bge	zero,r19,8058e4 <___vfprintf_internal_r+0xe00>
  805268:	02400404 	movi	r9,16
  80526c:	d8c02017 	ldw	r3,128(sp)
  805270:	d8801f17 	ldw	r2,124(sp)
  805274:	4cc50d0e 	bge	r9,r19,8066ac <___vfprintf_internal_r+0x1bc8>
  805278:	01402074 	movhi	r5,129
  80527c:	294f2484 	addi	r5,r5,15506
  805280:	dc403b15 	stw	r17,236(sp)
  805284:	d9403515 	stw	r5,212(sp)
  805288:	9823883a 	mov	r17,r19
  80528c:	482d883a 	mov	r22,r9
  805290:	9027883a 	mov	r19,r18
  805294:	070001c4 	movi	fp,7
  805298:	8025883a 	mov	r18,r16
  80529c:	dc002c17 	ldw	r16,176(sp)
  8052a0:	00000306 	br	8052b0 <___vfprintf_internal_r+0x7cc>
  8052a4:	8c7ffc04 	addi	r17,r17,-16
  8052a8:	42000204 	addi	r8,r8,8
  8052ac:	b440130e 	bge	r22,r17,8052fc <___vfprintf_internal_r+0x818>
  8052b0:	01002074 	movhi	r4,129
  8052b4:	18c00404 	addi	r3,r3,16
  8052b8:	10800044 	addi	r2,r2,1
  8052bc:	210f2484 	addi	r4,r4,15506
  8052c0:	41000015 	stw	r4,0(r8)
  8052c4:	45800115 	stw	r22,4(r8)
  8052c8:	d8c02015 	stw	r3,128(sp)
  8052cc:	d8801f15 	stw	r2,124(sp)
  8052d0:	e0bff40e 	bge	fp,r2,8052a4 <__alt_mem_onchip_mem+0xff7852a4>
  8052d4:	d9801e04 	addi	r6,sp,120
  8052d8:	b80b883a 	mov	r5,r23
  8052dc:	8009883a 	mov	r4,r16
  8052e0:	080abd40 	call	80abd4 <__sprint_r>
  8052e4:	103f011e 	bne	r2,zero,804eec <__alt_mem_onchip_mem+0xff784eec>
  8052e8:	8c7ffc04 	addi	r17,r17,-16
  8052ec:	d8c02017 	ldw	r3,128(sp)
  8052f0:	d8801f17 	ldw	r2,124(sp)
  8052f4:	da000404 	addi	r8,sp,16
  8052f8:	b47fed16 	blt	r22,r17,8052b0 <__alt_mem_onchip_mem+0xff7852b0>
  8052fc:	9021883a 	mov	r16,r18
  805300:	9825883a 	mov	r18,r19
  805304:	8827883a 	mov	r19,r17
  805308:	dc403b17 	ldw	r17,236(sp)
  80530c:	d9403517 	ldw	r5,212(sp)
  805310:	98c7883a 	add	r3,r19,r3
  805314:	10800044 	addi	r2,r2,1
  805318:	41400015 	stw	r5,0(r8)
  80531c:	44c00115 	stw	r19,4(r8)
  805320:	d8c02015 	stw	r3,128(sp)
  805324:	d8801f15 	stw	r2,124(sp)
  805328:	010001c4 	movi	r4,7
  80532c:	2082a316 	blt	r4,r2,805dbc <___vfprintf_internal_r+0x12d8>
  805330:	df002787 	ldb	fp,158(sp)
  805334:	42000204 	addi	r8,r8,8
  805338:	e0000c26 	beq	fp,zero,80536c <___vfprintf_internal_r+0x888>
  80533c:	d8801f17 	ldw	r2,124(sp)
  805340:	d9002784 	addi	r4,sp,158
  805344:	18c00044 	addi	r3,r3,1
  805348:	10800044 	addi	r2,r2,1
  80534c:	41000015 	stw	r4,0(r8)
  805350:	01000044 	movi	r4,1
  805354:	41000115 	stw	r4,4(r8)
  805358:	d8c02015 	stw	r3,128(sp)
  80535c:	d8801f15 	stw	r2,124(sp)
  805360:	010001c4 	movi	r4,7
  805364:	20823c16 	blt	r4,r2,805c58 <___vfprintf_internal_r+0x1174>
  805368:	42000204 	addi	r8,r8,8
  80536c:	d8802b17 	ldw	r2,172(sp)
  805370:	10000c26 	beq	r2,zero,8053a4 <___vfprintf_internal_r+0x8c0>
  805374:	d8801f17 	ldw	r2,124(sp)
  805378:	d9002704 	addi	r4,sp,156
  80537c:	18c00084 	addi	r3,r3,2
  805380:	10800044 	addi	r2,r2,1
  805384:	41000015 	stw	r4,0(r8)
  805388:	01000084 	movi	r4,2
  80538c:	41000115 	stw	r4,4(r8)
  805390:	d8c02015 	stw	r3,128(sp)
  805394:	d8801f15 	stw	r2,124(sp)
  805398:	010001c4 	movi	r4,7
  80539c:	20823616 	blt	r4,r2,805c78 <___vfprintf_internal_r+0x1194>
  8053a0:	42000204 	addi	r8,r8,8
  8053a4:	d9003017 	ldw	r4,192(sp)
  8053a8:	00802004 	movi	r2,128
  8053ac:	20819926 	beq	r4,r2,805a14 <___vfprintf_internal_r+0xf30>
  8053b0:	d9402917 	ldw	r5,164(sp)
  8053b4:	d8802e17 	ldw	r2,184(sp)
  8053b8:	28adc83a 	sub	r22,r5,r2
  8053bc:	0580310e 	bge	zero,r22,805484 <___vfprintf_internal_r+0x9a0>
  8053c0:	07000404 	movi	fp,16
  8053c4:	d8801f17 	ldw	r2,124(sp)
  8053c8:	e584140e 	bge	fp,r22,80641c <___vfprintf_internal_r+0x1938>
  8053cc:	01402074 	movhi	r5,129
  8053d0:	294f2084 	addi	r5,r5,15490
  8053d4:	dc402915 	stw	r17,164(sp)
  8053d8:	d9402b15 	stw	r5,172(sp)
  8053dc:	b023883a 	mov	r17,r22
  8053e0:	04c001c4 	movi	r19,7
  8053e4:	a82d883a 	mov	r22,r21
  8053e8:	902b883a 	mov	r21,r18
  8053ec:	8025883a 	mov	r18,r16
  8053f0:	dc002c17 	ldw	r16,176(sp)
  8053f4:	00000306 	br	805404 <___vfprintf_internal_r+0x920>
  8053f8:	8c7ffc04 	addi	r17,r17,-16
  8053fc:	42000204 	addi	r8,r8,8
  805400:	e440110e 	bge	fp,r17,805448 <___vfprintf_internal_r+0x964>
  805404:	18c00404 	addi	r3,r3,16
  805408:	10800044 	addi	r2,r2,1
  80540c:	45000015 	stw	r20,0(r8)
  805410:	47000115 	stw	fp,4(r8)
  805414:	d8c02015 	stw	r3,128(sp)
  805418:	d8801f15 	stw	r2,124(sp)
  80541c:	98bff60e 	bge	r19,r2,8053f8 <__alt_mem_onchip_mem+0xff7853f8>
  805420:	d9801e04 	addi	r6,sp,120
  805424:	b80b883a 	mov	r5,r23
  805428:	8009883a 	mov	r4,r16
  80542c:	080abd40 	call	80abd4 <__sprint_r>
  805430:	103eae1e 	bne	r2,zero,804eec <__alt_mem_onchip_mem+0xff784eec>
  805434:	8c7ffc04 	addi	r17,r17,-16
  805438:	d8c02017 	ldw	r3,128(sp)
  80543c:	d8801f17 	ldw	r2,124(sp)
  805440:	da000404 	addi	r8,sp,16
  805444:	e47fef16 	blt	fp,r17,805404 <__alt_mem_onchip_mem+0xff785404>
  805448:	9021883a 	mov	r16,r18
  80544c:	a825883a 	mov	r18,r21
  805450:	b02b883a 	mov	r21,r22
  805454:	882d883a 	mov	r22,r17
  805458:	dc402917 	ldw	r17,164(sp)
  80545c:	d9002b17 	ldw	r4,172(sp)
  805460:	1d87883a 	add	r3,r3,r22
  805464:	10800044 	addi	r2,r2,1
  805468:	41000015 	stw	r4,0(r8)
  80546c:	45800115 	stw	r22,4(r8)
  805470:	d8c02015 	stw	r3,128(sp)
  805474:	d8801f15 	stw	r2,124(sp)
  805478:	010001c4 	movi	r4,7
  80547c:	2081ee16 	blt	r4,r2,805c38 <___vfprintf_internal_r+0x1154>
  805480:	42000204 	addi	r8,r8,8
  805484:	9080400c 	andi	r2,r18,256
  805488:	1001181e 	bne	r2,zero,8058ec <___vfprintf_internal_r+0xe08>
  80548c:	d9402e17 	ldw	r5,184(sp)
  805490:	d8801f17 	ldw	r2,124(sp)
  805494:	44000015 	stw	r16,0(r8)
  805498:	1947883a 	add	r3,r3,r5
  80549c:	10800044 	addi	r2,r2,1
  8054a0:	41400115 	stw	r5,4(r8)
  8054a4:	d8c02015 	stw	r3,128(sp)
  8054a8:	d8801f15 	stw	r2,124(sp)
  8054ac:	010001c4 	movi	r4,7
  8054b0:	2081d316 	blt	r4,r2,805c00 <___vfprintf_internal_r+0x111c>
  8054b4:	42000204 	addi	r8,r8,8
  8054b8:	9480010c 	andi	r18,r18,4
  8054bc:	90003226 	beq	r18,zero,805588 <___vfprintf_internal_r+0xaa4>
  8054c0:	d9403117 	ldw	r5,196(sp)
  8054c4:	d8802a17 	ldw	r2,168(sp)
  8054c8:	28a1c83a 	sub	r16,r5,r2
  8054cc:	04002e0e 	bge	zero,r16,805588 <___vfprintf_internal_r+0xaa4>
  8054d0:	04400404 	movi	r17,16
  8054d4:	d8801f17 	ldw	r2,124(sp)
  8054d8:	8c04a20e 	bge	r17,r16,806764 <___vfprintf_internal_r+0x1c80>
  8054dc:	01402074 	movhi	r5,129
  8054e0:	294f2484 	addi	r5,r5,15506
  8054e4:	d9403515 	stw	r5,212(sp)
  8054e8:	048001c4 	movi	r18,7
  8054ec:	dcc02c17 	ldw	r19,176(sp)
  8054f0:	00000306 	br	805500 <___vfprintf_internal_r+0xa1c>
  8054f4:	843ffc04 	addi	r16,r16,-16
  8054f8:	42000204 	addi	r8,r8,8
  8054fc:	8c00130e 	bge	r17,r16,80554c <___vfprintf_internal_r+0xa68>
  805500:	01002074 	movhi	r4,129
  805504:	18c00404 	addi	r3,r3,16
  805508:	10800044 	addi	r2,r2,1
  80550c:	210f2484 	addi	r4,r4,15506
  805510:	41000015 	stw	r4,0(r8)
  805514:	44400115 	stw	r17,4(r8)
  805518:	d8c02015 	stw	r3,128(sp)
  80551c:	d8801f15 	stw	r2,124(sp)
  805520:	90bff40e 	bge	r18,r2,8054f4 <__alt_mem_onchip_mem+0xff7854f4>
  805524:	d9801e04 	addi	r6,sp,120
  805528:	b80b883a 	mov	r5,r23
  80552c:	9809883a 	mov	r4,r19
  805530:	080abd40 	call	80abd4 <__sprint_r>
  805534:	103e6d1e 	bne	r2,zero,804eec <__alt_mem_onchip_mem+0xff784eec>
  805538:	843ffc04 	addi	r16,r16,-16
  80553c:	d8c02017 	ldw	r3,128(sp)
  805540:	d8801f17 	ldw	r2,124(sp)
  805544:	da000404 	addi	r8,sp,16
  805548:	8c3fed16 	blt	r17,r16,805500 <__alt_mem_onchip_mem+0xff785500>
  80554c:	d9403517 	ldw	r5,212(sp)
  805550:	1c07883a 	add	r3,r3,r16
  805554:	10800044 	addi	r2,r2,1
  805558:	41400015 	stw	r5,0(r8)
  80555c:	44000115 	stw	r16,4(r8)
  805560:	d8c02015 	stw	r3,128(sp)
  805564:	d8801f15 	stw	r2,124(sp)
  805568:	010001c4 	movi	r4,7
  80556c:	2080060e 	bge	r4,r2,805588 <___vfprintf_internal_r+0xaa4>
  805570:	d9002c17 	ldw	r4,176(sp)
  805574:	d9801e04 	addi	r6,sp,120
  805578:	b80b883a 	mov	r5,r23
  80557c:	080abd40 	call	80abd4 <__sprint_r>
  805580:	103e5a1e 	bne	r2,zero,804eec <__alt_mem_onchip_mem+0xff784eec>
  805584:	d8c02017 	ldw	r3,128(sp)
  805588:	d8803117 	ldw	r2,196(sp)
  80558c:	d9002a17 	ldw	r4,168(sp)
  805590:	1100010e 	bge	r2,r4,805598 <___vfprintf_internal_r+0xab4>
  805594:	2005883a 	mov	r2,r4
  805598:	d9402f17 	ldw	r5,188(sp)
  80559c:	288b883a 	add	r5,r5,r2
  8055a0:	d9402f15 	stw	r5,188(sp)
  8055a4:	18019e1e 	bne	r3,zero,805c20 <___vfprintf_internal_r+0x113c>
  8055a8:	a8800007 	ldb	r2,0(r21)
  8055ac:	d8001f15 	stw	zero,124(sp)
  8055b0:	da000404 	addi	r8,sp,16
  8055b4:	103d851e 	bne	r2,zero,804bcc <__alt_mem_onchip_mem+0xff784bcc>
  8055b8:	a821883a 	mov	r16,r21
  8055bc:	003d9b06 	br	804c2c <__alt_mem_onchip_mem+0xff784c2c>
  8055c0:	18c03fcc 	andi	r3,r3,255
  8055c4:	1805c11e 	bne	r3,zero,806ccc <___vfprintf_internal_r+0x21e8>
  8055c8:	94800414 	ori	r18,r18,16
  8055cc:	9080080c 	andi	r2,r18,32
  8055d0:	10020c26 	beq	r2,zero,805e04 <___vfprintf_internal_r+0x1320>
  8055d4:	d8802d17 	ldw	r2,180(sp)
  8055d8:	d9002917 	ldw	r4,164(sp)
  8055dc:	d8002785 	stb	zero,158(sp)
  8055e0:	10c00204 	addi	r3,r2,8
  8055e4:	14c00017 	ldw	r19,0(r2)
  8055e8:	15800117 	ldw	r22,4(r2)
  8055ec:	20040f16 	blt	r4,zero,80662c <___vfprintf_internal_r+0x1b48>
  8055f0:	013fdfc4 	movi	r4,-129
  8055f4:	9d84b03a 	or	r2,r19,r22
  8055f8:	d8c02d15 	stw	r3,180(sp)
  8055fc:	9124703a 	and	r18,r18,r4
  805600:	0039883a 	mov	fp,zero
  805604:	103e891e 	bne	r2,zero,80502c <__alt_mem_onchip_mem+0xff78502c>
  805608:	d9002917 	ldw	r4,164(sp)
  80560c:	2002c11e 	bne	r4,zero,806114 <___vfprintf_internal_r+0x1630>
  805610:	d8002915 	stw	zero,164(sp)
  805614:	d8002e15 	stw	zero,184(sp)
  805618:	dc001e04 	addi	r16,sp,120
  80561c:	003ef806 	br	805200 <__alt_mem_onchip_mem+0xff785200>
  805620:	18c03fcc 	andi	r3,r3,255
  805624:	18059d1e 	bne	r3,zero,806c9c <___vfprintf_internal_r+0x21b8>
  805628:	01402074 	movhi	r5,129
  80562c:	294f1404 	addi	r5,r5,15440
  805630:	d9403915 	stw	r5,228(sp)
  805634:	9080080c 	andi	r2,r18,32
  805638:	10005226 	beq	r2,zero,805784 <___vfprintf_internal_r+0xca0>
  80563c:	d8802d17 	ldw	r2,180(sp)
  805640:	14c00017 	ldw	r19,0(r2)
  805644:	15800117 	ldw	r22,4(r2)
  805648:	10800204 	addi	r2,r2,8
  80564c:	d8802d15 	stw	r2,180(sp)
  805650:	9080004c 	andi	r2,r18,1
  805654:	10019026 	beq	r2,zero,805c98 <___vfprintf_internal_r+0x11b4>
  805658:	9d84b03a 	or	r2,r19,r22
  80565c:	10036926 	beq	r2,zero,806404 <___vfprintf_internal_r+0x1920>
  805660:	d8c02917 	ldw	r3,164(sp)
  805664:	00800c04 	movi	r2,48
  805668:	d8802705 	stb	r2,156(sp)
  80566c:	dc402745 	stb	r17,157(sp)
  805670:	d8002785 	stb	zero,158(sp)
  805674:	90800094 	ori	r2,r18,2
  805678:	18045d16 	blt	r3,zero,8067f0 <___vfprintf_internal_r+0x1d0c>
  80567c:	00bfdfc4 	movi	r2,-129
  805680:	90a4703a 	and	r18,r18,r2
  805684:	94800094 	ori	r18,r18,2
  805688:	0039883a 	mov	fp,zero
  80568c:	d9003917 	ldw	r4,228(sp)
  805690:	dc001e04 	addi	r16,sp,120
  805694:	988003cc 	andi	r2,r19,15
  805698:	b006973a 	slli	r3,r22,28
  80569c:	2085883a 	add	r2,r4,r2
  8056a0:	9826d13a 	srli	r19,r19,4
  8056a4:	10800003 	ldbu	r2,0(r2)
  8056a8:	b02cd13a 	srli	r22,r22,4
  8056ac:	843fffc4 	addi	r16,r16,-1
  8056b0:	1ce6b03a 	or	r19,r3,r19
  8056b4:	80800005 	stb	r2,0(r16)
  8056b8:	9d84b03a 	or	r2,r19,r22
  8056bc:	103ff51e 	bne	r2,zero,805694 <__alt_mem_onchip_mem+0xff785694>
  8056c0:	d8c02817 	ldw	r3,160(sp)
  8056c4:	1c07c83a 	sub	r3,r3,r16
  8056c8:	d8c02e15 	stw	r3,184(sp)
  8056cc:	003ecc06 	br	805200 <__alt_mem_onchip_mem+0xff785200>
  8056d0:	18c03fcc 	andi	r3,r3,255
  8056d4:	183e9f26 	beq	r3,zero,805154 <__alt_mem_onchip_mem+0xff785154>
  8056d8:	d9c02785 	stb	r7,158(sp)
  8056dc:	003e9d06 	br	805154 <__alt_mem_onchip_mem+0xff785154>
  8056e0:	00c00044 	movi	r3,1
  8056e4:	01c00ac4 	movi	r7,43
  8056e8:	ac400007 	ldb	r17,0(r21)
  8056ec:	003d5e06 	br	804c68 <__alt_mem_onchip_mem+0xff784c68>
  8056f0:	94800814 	ori	r18,r18,32
  8056f4:	ac400007 	ldb	r17,0(r21)
  8056f8:	003d5b06 	br	804c68 <__alt_mem_onchip_mem+0xff784c68>
  8056fc:	d8c02d17 	ldw	r3,180(sp)
  805700:	d8002785 	stb	zero,158(sp)
  805704:	1c000017 	ldw	r16,0(r3)
  805708:	1cc00104 	addi	r19,r3,4
  80570c:	80041926 	beq	r16,zero,806774 <___vfprintf_internal_r+0x1c90>
  805710:	d9002917 	ldw	r4,164(sp)
  805714:	2003d016 	blt	r4,zero,806658 <___vfprintf_internal_r+0x1b74>
  805718:	200d883a 	mov	r6,r4
  80571c:	000b883a 	mov	r5,zero
  805720:	8009883a 	mov	r4,r16
  805724:	da003d15 	stw	r8,244(sp)
  805728:	08090400 	call	809040 <memchr>
  80572c:	da003d17 	ldw	r8,244(sp)
  805730:	10045426 	beq	r2,zero,806884 <___vfprintf_internal_r+0x1da0>
  805734:	1405c83a 	sub	r2,r2,r16
  805738:	d8802e15 	stw	r2,184(sp)
  80573c:	1003cc16 	blt	r2,zero,806670 <___vfprintf_internal_r+0x1b8c>
  805740:	df002783 	ldbu	fp,158(sp)
  805744:	d8802a15 	stw	r2,168(sp)
  805748:	dcc02d15 	stw	r19,180(sp)
  80574c:	d8002915 	stw	zero,164(sp)
  805750:	d8003215 	stw	zero,200(sp)
  805754:	003eb006 	br	805218 <__alt_mem_onchip_mem+0xff785218>
  805758:	18c03fcc 	andi	r3,r3,255
  80575c:	183f9b26 	beq	r3,zero,8055cc <__alt_mem_onchip_mem+0xff7855cc>
  805760:	d9c02785 	stb	r7,158(sp)
  805764:	003f9906 	br	8055cc <__alt_mem_onchip_mem+0xff7855cc>
  805768:	18c03fcc 	andi	r3,r3,255
  80576c:	1805551e 	bne	r3,zero,806cc4 <___vfprintf_internal_r+0x21e0>
  805770:	01402074 	movhi	r5,129
  805774:	294f1904 	addi	r5,r5,15460
  805778:	d9403915 	stw	r5,228(sp)
  80577c:	9080080c 	andi	r2,r18,32
  805780:	103fae1e 	bne	r2,zero,80563c <__alt_mem_onchip_mem+0xff78563c>
  805784:	9080040c 	andi	r2,r18,16
  805788:	1002de26 	beq	r2,zero,806304 <___vfprintf_internal_r+0x1820>
  80578c:	d8c02d17 	ldw	r3,180(sp)
  805790:	002d883a 	mov	r22,zero
  805794:	1cc00017 	ldw	r19,0(r3)
  805798:	18c00104 	addi	r3,r3,4
  80579c:	d8c02d15 	stw	r3,180(sp)
  8057a0:	003fab06 	br	805650 <__alt_mem_onchip_mem+0xff785650>
  8057a4:	38803fcc 	andi	r2,r7,255
  8057a8:	1080201c 	xori	r2,r2,128
  8057ac:	10bfe004 	addi	r2,r2,-128
  8057b0:	1002d21e 	bne	r2,zero,8062fc <___vfprintf_internal_r+0x1818>
  8057b4:	00c00044 	movi	r3,1
  8057b8:	01c00804 	movi	r7,32
  8057bc:	ac400007 	ldb	r17,0(r21)
  8057c0:	003d2906 	br	804c68 <__alt_mem_onchip_mem+0xff784c68>
  8057c4:	94800054 	ori	r18,r18,1
  8057c8:	ac400007 	ldb	r17,0(r21)
  8057cc:	003d2606 	br	804c68 <__alt_mem_onchip_mem+0xff784c68>
  8057d0:	18c03fcc 	andi	r3,r3,255
  8057d4:	183e0526 	beq	r3,zero,804fec <__alt_mem_onchip_mem+0xff784fec>
  8057d8:	d9c02785 	stb	r7,158(sp)
  8057dc:	003e0306 	br	804fec <__alt_mem_onchip_mem+0xff784fec>
  8057e0:	94801014 	ori	r18,r18,64
  8057e4:	ac400007 	ldb	r17,0(r21)
  8057e8:	003d1f06 	br	804c68 <__alt_mem_onchip_mem+0xff784c68>
  8057ec:	ac400007 	ldb	r17,0(r21)
  8057f0:	8a438726 	beq	r17,r9,806610 <___vfprintf_internal_r+0x1b2c>
  8057f4:	94800414 	ori	r18,r18,16
  8057f8:	003d1b06 	br	804c68 <__alt_mem_onchip_mem+0xff784c68>
  8057fc:	18c03fcc 	andi	r3,r3,255
  805800:	1805341e 	bne	r3,zero,806cd4 <___vfprintf_internal_r+0x21f0>
  805804:	9080080c 	andi	r2,r18,32
  805808:	1002cd26 	beq	r2,zero,806340 <___vfprintf_internal_r+0x185c>
  80580c:	d9402d17 	ldw	r5,180(sp)
  805810:	d9002f17 	ldw	r4,188(sp)
  805814:	28800017 	ldw	r2,0(r5)
  805818:	2007d7fa 	srai	r3,r4,31
  80581c:	29400104 	addi	r5,r5,4
  805820:	d9402d15 	stw	r5,180(sp)
  805824:	11000015 	stw	r4,0(r2)
  805828:	10c00115 	stw	r3,4(r2)
  80582c:	003ce506 	br	804bc4 <__alt_mem_onchip_mem+0xff784bc4>
  805830:	d8c02d17 	ldw	r3,180(sp)
  805834:	d9002d17 	ldw	r4,180(sp)
  805838:	d8002785 	stb	zero,158(sp)
  80583c:	18800017 	ldw	r2,0(r3)
  805840:	21000104 	addi	r4,r4,4
  805844:	00c00044 	movi	r3,1
  805848:	d8c02a15 	stw	r3,168(sp)
  80584c:	d8801405 	stb	r2,80(sp)
  805850:	d9002d15 	stw	r4,180(sp)
  805854:	d8c02e15 	stw	r3,184(sp)
  805858:	d8002915 	stw	zero,164(sp)
  80585c:	d8003215 	stw	zero,200(sp)
  805860:	dc001404 	addi	r16,sp,80
  805864:	0039883a 	mov	fp,zero
  805868:	003e7206 	br	805234 <__alt_mem_onchip_mem+0xff785234>
  80586c:	01002074 	movhi	r4,129
  805870:	210f1904 	addi	r4,r4,15460
  805874:	0039883a 	mov	fp,zero
  805878:	d9003915 	stw	r4,228(sp)
  80587c:	04401e04 	movi	r17,120
  805880:	003f8206 	br	80568c <__alt_mem_onchip_mem+0xff78568c>
  805884:	18c03fcc 	andi	r3,r3,255
  805888:	1805061e 	bne	r3,zero,806ca4 <___vfprintf_internal_r+0x21c0>
  80588c:	883d9126 	beq	r17,zero,804ed4 <__alt_mem_onchip_mem+0xff784ed4>
  805890:	00c00044 	movi	r3,1
  805894:	d8c02a15 	stw	r3,168(sp)
  805898:	dc401405 	stb	r17,80(sp)
  80589c:	d8002785 	stb	zero,158(sp)
  8058a0:	003fec06 	br	805854 <__alt_mem_onchip_mem+0xff785854>
  8058a4:	01402074 	movhi	r5,129
  8058a8:	294f1904 	addi	r5,r5,15460
  8058ac:	d9403915 	stw	r5,228(sp)
  8058b0:	d8c02d15 	stw	r3,180(sp)
  8058b4:	1025883a 	mov	r18,r2
  8058b8:	04401e04 	movi	r17,120
  8058bc:	9d84b03a 	or	r2,r19,r22
  8058c0:	1000fc1e 	bne	r2,zero,805cb4 <___vfprintf_internal_r+0x11d0>
  8058c4:	0039883a 	mov	fp,zero
  8058c8:	00800084 	movi	r2,2
  8058cc:	10803fcc 	andi	r2,r2,255
  8058d0:	00c00044 	movi	r3,1
  8058d4:	10c20f26 	beq	r2,r3,806114 <___vfprintf_internal_r+0x1630>
  8058d8:	00c00084 	movi	r3,2
  8058dc:	10fd6326 	beq	r2,r3,804e6c <__alt_mem_onchip_mem+0xff784e6c>
  8058e0:	003e2d06 	br	805198 <__alt_mem_onchip_mem+0xff785198>
  8058e4:	d8c02017 	ldw	r3,128(sp)
  8058e8:	003e9306 	br	805338 <__alt_mem_onchip_mem+0xff785338>
  8058ec:	00801944 	movi	r2,101
  8058f0:	14407e0e 	bge	r2,r17,805aec <___vfprintf_internal_r+0x1008>
  8058f4:	d9003617 	ldw	r4,216(sp)
  8058f8:	d9403817 	ldw	r5,224(sp)
  8058fc:	000d883a 	mov	r6,zero
  805900:	000f883a 	mov	r7,zero
  805904:	d8c03c15 	stw	r3,240(sp)
  805908:	da003d15 	stw	r8,244(sp)
  80590c:	080e5240 	call	80e524 <__eqdf2>
  805910:	d8c03c17 	ldw	r3,240(sp)
  805914:	da003d17 	ldw	r8,244(sp)
  805918:	1000f71e 	bne	r2,zero,805cf8 <___vfprintf_internal_r+0x1214>
  80591c:	d8801f17 	ldw	r2,124(sp)
  805920:	01002074 	movhi	r4,129
  805924:	210f2004 	addi	r4,r4,15488
  805928:	18c00044 	addi	r3,r3,1
  80592c:	10800044 	addi	r2,r2,1
  805930:	41000015 	stw	r4,0(r8)
  805934:	01000044 	movi	r4,1
  805938:	41000115 	stw	r4,4(r8)
  80593c:	d8c02015 	stw	r3,128(sp)
  805940:	d8801f15 	stw	r2,124(sp)
  805944:	010001c4 	movi	r4,7
  805948:	2082b816 	blt	r4,r2,80642c <___vfprintf_internal_r+0x1948>
  80594c:	42000204 	addi	r8,r8,8
  805950:	d8802617 	ldw	r2,152(sp)
  805954:	d9403317 	ldw	r5,204(sp)
  805958:	11400216 	blt	r2,r5,805964 <___vfprintf_internal_r+0xe80>
  80595c:	9080004c 	andi	r2,r18,1
  805960:	103ed526 	beq	r2,zero,8054b8 <__alt_mem_onchip_mem+0xff7854b8>
  805964:	d8803717 	ldw	r2,220(sp)
  805968:	d9003417 	ldw	r4,208(sp)
  80596c:	d9403717 	ldw	r5,220(sp)
  805970:	1887883a 	add	r3,r3,r2
  805974:	d8801f17 	ldw	r2,124(sp)
  805978:	41000015 	stw	r4,0(r8)
  80597c:	41400115 	stw	r5,4(r8)
  805980:	10800044 	addi	r2,r2,1
  805984:	d8c02015 	stw	r3,128(sp)
  805988:	d8801f15 	stw	r2,124(sp)
  80598c:	010001c4 	movi	r4,7
  805990:	20832916 	blt	r4,r2,806638 <___vfprintf_internal_r+0x1b54>
  805994:	42000204 	addi	r8,r8,8
  805998:	d8803317 	ldw	r2,204(sp)
  80599c:	143fffc4 	addi	r16,r2,-1
  8059a0:	043ec50e 	bge	zero,r16,8054b8 <__alt_mem_onchip_mem+0xff7854b8>
  8059a4:	04400404 	movi	r17,16
  8059a8:	d8801f17 	ldw	r2,124(sp)
  8059ac:	8c00880e 	bge	r17,r16,805bd0 <___vfprintf_internal_r+0x10ec>
  8059b0:	01402074 	movhi	r5,129
  8059b4:	294f2084 	addi	r5,r5,15490
  8059b8:	d9402b15 	stw	r5,172(sp)
  8059bc:	058001c4 	movi	r22,7
  8059c0:	dcc02c17 	ldw	r19,176(sp)
  8059c4:	00000306 	br	8059d4 <___vfprintf_internal_r+0xef0>
  8059c8:	42000204 	addi	r8,r8,8
  8059cc:	843ffc04 	addi	r16,r16,-16
  8059d0:	8c00820e 	bge	r17,r16,805bdc <___vfprintf_internal_r+0x10f8>
  8059d4:	18c00404 	addi	r3,r3,16
  8059d8:	10800044 	addi	r2,r2,1
  8059dc:	45000015 	stw	r20,0(r8)
  8059e0:	44400115 	stw	r17,4(r8)
  8059e4:	d8c02015 	stw	r3,128(sp)
  8059e8:	d8801f15 	stw	r2,124(sp)
  8059ec:	b0bff60e 	bge	r22,r2,8059c8 <__alt_mem_onchip_mem+0xff7859c8>
  8059f0:	d9801e04 	addi	r6,sp,120
  8059f4:	b80b883a 	mov	r5,r23
  8059f8:	9809883a 	mov	r4,r19
  8059fc:	080abd40 	call	80abd4 <__sprint_r>
  805a00:	103d3a1e 	bne	r2,zero,804eec <__alt_mem_onchip_mem+0xff784eec>
  805a04:	d8c02017 	ldw	r3,128(sp)
  805a08:	d8801f17 	ldw	r2,124(sp)
  805a0c:	da000404 	addi	r8,sp,16
  805a10:	003fee06 	br	8059cc <__alt_mem_onchip_mem+0xff7859cc>
  805a14:	d9403117 	ldw	r5,196(sp)
  805a18:	d8802a17 	ldw	r2,168(sp)
  805a1c:	28adc83a 	sub	r22,r5,r2
  805a20:	05be630e 	bge	zero,r22,8053b0 <__alt_mem_onchip_mem+0xff7853b0>
  805a24:	07000404 	movi	fp,16
  805a28:	d8801f17 	ldw	r2,124(sp)
  805a2c:	e5838f0e 	bge	fp,r22,80686c <___vfprintf_internal_r+0x1d88>
  805a30:	01402074 	movhi	r5,129
  805a34:	294f2084 	addi	r5,r5,15490
  805a38:	dc403015 	stw	r17,192(sp)
  805a3c:	d9402b15 	stw	r5,172(sp)
  805a40:	b023883a 	mov	r17,r22
  805a44:	04c001c4 	movi	r19,7
  805a48:	a82d883a 	mov	r22,r21
  805a4c:	902b883a 	mov	r21,r18
  805a50:	8025883a 	mov	r18,r16
  805a54:	dc002c17 	ldw	r16,176(sp)
  805a58:	00000306 	br	805a68 <___vfprintf_internal_r+0xf84>
  805a5c:	8c7ffc04 	addi	r17,r17,-16
  805a60:	42000204 	addi	r8,r8,8
  805a64:	e440110e 	bge	fp,r17,805aac <___vfprintf_internal_r+0xfc8>
  805a68:	18c00404 	addi	r3,r3,16
  805a6c:	10800044 	addi	r2,r2,1
  805a70:	45000015 	stw	r20,0(r8)
  805a74:	47000115 	stw	fp,4(r8)
  805a78:	d8c02015 	stw	r3,128(sp)
  805a7c:	d8801f15 	stw	r2,124(sp)
  805a80:	98bff60e 	bge	r19,r2,805a5c <__alt_mem_onchip_mem+0xff785a5c>
  805a84:	d9801e04 	addi	r6,sp,120
  805a88:	b80b883a 	mov	r5,r23
  805a8c:	8009883a 	mov	r4,r16
  805a90:	080abd40 	call	80abd4 <__sprint_r>
  805a94:	103d151e 	bne	r2,zero,804eec <__alt_mem_onchip_mem+0xff784eec>
  805a98:	8c7ffc04 	addi	r17,r17,-16
  805a9c:	d8c02017 	ldw	r3,128(sp)
  805aa0:	d8801f17 	ldw	r2,124(sp)
  805aa4:	da000404 	addi	r8,sp,16
  805aa8:	e47fef16 	blt	fp,r17,805a68 <__alt_mem_onchip_mem+0xff785a68>
  805aac:	9021883a 	mov	r16,r18
  805ab0:	a825883a 	mov	r18,r21
  805ab4:	b02b883a 	mov	r21,r22
  805ab8:	882d883a 	mov	r22,r17
  805abc:	dc403017 	ldw	r17,192(sp)
  805ac0:	d9002b17 	ldw	r4,172(sp)
  805ac4:	1d87883a 	add	r3,r3,r22
  805ac8:	10800044 	addi	r2,r2,1
  805acc:	41000015 	stw	r4,0(r8)
  805ad0:	45800115 	stw	r22,4(r8)
  805ad4:	d8c02015 	stw	r3,128(sp)
  805ad8:	d8801f15 	stw	r2,124(sp)
  805adc:	010001c4 	movi	r4,7
  805ae0:	20818e16 	blt	r4,r2,80611c <___vfprintf_internal_r+0x1638>
  805ae4:	42000204 	addi	r8,r8,8
  805ae8:	003e3106 	br	8053b0 <__alt_mem_onchip_mem+0xff7853b0>
  805aec:	d9403317 	ldw	r5,204(sp)
  805af0:	00800044 	movi	r2,1
  805af4:	18c00044 	addi	r3,r3,1
  805af8:	1141530e 	bge	r2,r5,806048 <___vfprintf_internal_r+0x1564>
  805afc:	dc401f17 	ldw	r17,124(sp)
  805b00:	00800044 	movi	r2,1
  805b04:	40800115 	stw	r2,4(r8)
  805b08:	8c400044 	addi	r17,r17,1
  805b0c:	44000015 	stw	r16,0(r8)
  805b10:	d8c02015 	stw	r3,128(sp)
  805b14:	dc401f15 	stw	r17,124(sp)
  805b18:	008001c4 	movi	r2,7
  805b1c:	14416b16 	blt	r2,r17,8060cc <___vfprintf_internal_r+0x15e8>
  805b20:	42000204 	addi	r8,r8,8
  805b24:	d8803717 	ldw	r2,220(sp)
  805b28:	d9003417 	ldw	r4,208(sp)
  805b2c:	8c400044 	addi	r17,r17,1
  805b30:	10c7883a 	add	r3,r2,r3
  805b34:	40800115 	stw	r2,4(r8)
  805b38:	41000015 	stw	r4,0(r8)
  805b3c:	d8c02015 	stw	r3,128(sp)
  805b40:	dc401f15 	stw	r17,124(sp)
  805b44:	008001c4 	movi	r2,7
  805b48:	14416916 	blt	r2,r17,8060f0 <___vfprintf_internal_r+0x160c>
  805b4c:	45800204 	addi	r22,r8,8
  805b50:	d9003617 	ldw	r4,216(sp)
  805b54:	d9403817 	ldw	r5,224(sp)
  805b58:	000d883a 	mov	r6,zero
  805b5c:	000f883a 	mov	r7,zero
  805b60:	d8c03c15 	stw	r3,240(sp)
  805b64:	080e5240 	call	80e524 <__eqdf2>
  805b68:	d8c03c17 	ldw	r3,240(sp)
  805b6c:	1000bc26 	beq	r2,zero,805e60 <___vfprintf_internal_r+0x137c>
  805b70:	d9403317 	ldw	r5,204(sp)
  805b74:	84000044 	addi	r16,r16,1
  805b78:	8c400044 	addi	r17,r17,1
  805b7c:	28bfffc4 	addi	r2,r5,-1
  805b80:	1887883a 	add	r3,r3,r2
  805b84:	b0800115 	stw	r2,4(r22)
  805b88:	b4000015 	stw	r16,0(r22)
  805b8c:	d8c02015 	stw	r3,128(sp)
  805b90:	dc401f15 	stw	r17,124(sp)
  805b94:	008001c4 	movi	r2,7
  805b98:	14414316 	blt	r2,r17,8060a8 <___vfprintf_internal_r+0x15c4>
  805b9c:	b5800204 	addi	r22,r22,8
  805ba0:	d9003a17 	ldw	r4,232(sp)
  805ba4:	df0022c4 	addi	fp,sp,139
  805ba8:	8c400044 	addi	r17,r17,1
  805bac:	20c7883a 	add	r3,r4,r3
  805bb0:	b7000015 	stw	fp,0(r22)
  805bb4:	b1000115 	stw	r4,4(r22)
  805bb8:	d8c02015 	stw	r3,128(sp)
  805bbc:	dc401f15 	stw	r17,124(sp)
  805bc0:	008001c4 	movi	r2,7
  805bc4:	14400e16 	blt	r2,r17,805c00 <___vfprintf_internal_r+0x111c>
  805bc8:	b2000204 	addi	r8,r22,8
  805bcc:	003e3a06 	br	8054b8 <__alt_mem_onchip_mem+0xff7854b8>
  805bd0:	01002074 	movhi	r4,129
  805bd4:	210f2084 	addi	r4,r4,15490
  805bd8:	d9002b15 	stw	r4,172(sp)
  805bdc:	d9002b17 	ldw	r4,172(sp)
  805be0:	1c07883a 	add	r3,r3,r16
  805be4:	44000115 	stw	r16,4(r8)
  805be8:	41000015 	stw	r4,0(r8)
  805bec:	10800044 	addi	r2,r2,1
  805bf0:	d8c02015 	stw	r3,128(sp)
  805bf4:	d8801f15 	stw	r2,124(sp)
  805bf8:	010001c4 	movi	r4,7
  805bfc:	20be2d0e 	bge	r4,r2,8054b4 <__alt_mem_onchip_mem+0xff7854b4>
  805c00:	d9002c17 	ldw	r4,176(sp)
  805c04:	d9801e04 	addi	r6,sp,120
  805c08:	b80b883a 	mov	r5,r23
  805c0c:	080abd40 	call	80abd4 <__sprint_r>
  805c10:	103cb61e 	bne	r2,zero,804eec <__alt_mem_onchip_mem+0xff784eec>
  805c14:	d8c02017 	ldw	r3,128(sp)
  805c18:	da000404 	addi	r8,sp,16
  805c1c:	003e2606 	br	8054b8 <__alt_mem_onchip_mem+0xff7854b8>
  805c20:	d9002c17 	ldw	r4,176(sp)
  805c24:	d9801e04 	addi	r6,sp,120
  805c28:	b80b883a 	mov	r5,r23
  805c2c:	080abd40 	call	80abd4 <__sprint_r>
  805c30:	103e5d26 	beq	r2,zero,8055a8 <__alt_mem_onchip_mem+0xff7855a8>
  805c34:	003cad06 	br	804eec <__alt_mem_onchip_mem+0xff784eec>
  805c38:	d9002c17 	ldw	r4,176(sp)
  805c3c:	d9801e04 	addi	r6,sp,120
  805c40:	b80b883a 	mov	r5,r23
  805c44:	080abd40 	call	80abd4 <__sprint_r>
  805c48:	103ca81e 	bne	r2,zero,804eec <__alt_mem_onchip_mem+0xff784eec>
  805c4c:	d8c02017 	ldw	r3,128(sp)
  805c50:	da000404 	addi	r8,sp,16
  805c54:	003e0b06 	br	805484 <__alt_mem_onchip_mem+0xff785484>
  805c58:	d9002c17 	ldw	r4,176(sp)
  805c5c:	d9801e04 	addi	r6,sp,120
  805c60:	b80b883a 	mov	r5,r23
  805c64:	080abd40 	call	80abd4 <__sprint_r>
  805c68:	103ca01e 	bne	r2,zero,804eec <__alt_mem_onchip_mem+0xff784eec>
  805c6c:	d8c02017 	ldw	r3,128(sp)
  805c70:	da000404 	addi	r8,sp,16
  805c74:	003dbd06 	br	80536c <__alt_mem_onchip_mem+0xff78536c>
  805c78:	d9002c17 	ldw	r4,176(sp)
  805c7c:	d9801e04 	addi	r6,sp,120
  805c80:	b80b883a 	mov	r5,r23
  805c84:	080abd40 	call	80abd4 <__sprint_r>
  805c88:	103c981e 	bne	r2,zero,804eec <__alt_mem_onchip_mem+0xff784eec>
  805c8c:	d8c02017 	ldw	r3,128(sp)
  805c90:	da000404 	addi	r8,sp,16
  805c94:	003dc306 	br	8053a4 <__alt_mem_onchip_mem+0xff7853a4>
  805c98:	d8802917 	ldw	r2,164(sp)
  805c9c:	d8002785 	stb	zero,158(sp)
  805ca0:	103f0616 	blt	r2,zero,8058bc <__alt_mem_onchip_mem+0xff7858bc>
  805ca4:	00ffdfc4 	movi	r3,-129
  805ca8:	9d84b03a 	or	r2,r19,r22
  805cac:	90e4703a 	and	r18,r18,r3
  805cb0:	103c6b26 	beq	r2,zero,804e60 <__alt_mem_onchip_mem+0xff784e60>
  805cb4:	0039883a 	mov	fp,zero
  805cb8:	003e7406 	br	80568c <__alt_mem_onchip_mem+0xff78568c>
  805cbc:	9080040c 	andi	r2,r18,16
  805cc0:	1001b326 	beq	r2,zero,806390 <___vfprintf_internal_r+0x18ac>
  805cc4:	d9002d17 	ldw	r4,180(sp)
  805cc8:	d9402917 	ldw	r5,164(sp)
  805ccc:	d8002785 	stb	zero,158(sp)
  805cd0:	20800104 	addi	r2,r4,4
  805cd4:	24c00017 	ldw	r19,0(r4)
  805cd8:	002d883a 	mov	r22,zero
  805cdc:	2801b516 	blt	r5,zero,8063b4 <___vfprintf_internal_r+0x18d0>
  805ce0:	00ffdfc4 	movi	r3,-129
  805ce4:	d8802d15 	stw	r2,180(sp)
  805ce8:	90e4703a 	and	r18,r18,r3
  805cec:	983d2726 	beq	r19,zero,80518c <__alt_mem_onchip_mem+0xff78518c>
  805cf0:	0039883a 	mov	fp,zero
  805cf4:	003d2a06 	br	8051a0 <__alt_mem_onchip_mem+0xff7851a0>
  805cf8:	dc402617 	ldw	r17,152(sp)
  805cfc:	0441d30e 	bge	zero,r17,80644c <___vfprintf_internal_r+0x1968>
  805d00:	dc403217 	ldw	r17,200(sp)
  805d04:	d8803317 	ldw	r2,204(sp)
  805d08:	1440010e 	bge	r2,r17,805d10 <___vfprintf_internal_r+0x122c>
  805d0c:	1023883a 	mov	r17,r2
  805d10:	04400a0e 	bge	zero,r17,805d3c <___vfprintf_internal_r+0x1258>
  805d14:	d8801f17 	ldw	r2,124(sp)
  805d18:	1c47883a 	add	r3,r3,r17
  805d1c:	44000015 	stw	r16,0(r8)
  805d20:	10800044 	addi	r2,r2,1
  805d24:	44400115 	stw	r17,4(r8)
  805d28:	d8c02015 	stw	r3,128(sp)
  805d2c:	d8801f15 	stw	r2,124(sp)
  805d30:	010001c4 	movi	r4,7
  805d34:	20826516 	blt	r4,r2,8066cc <___vfprintf_internal_r+0x1be8>
  805d38:	42000204 	addi	r8,r8,8
  805d3c:	88026116 	blt	r17,zero,8066c4 <___vfprintf_internal_r+0x1be0>
  805d40:	d9003217 	ldw	r4,200(sp)
  805d44:	2463c83a 	sub	r17,r4,r17
  805d48:	04407b0e 	bge	zero,r17,805f38 <___vfprintf_internal_r+0x1454>
  805d4c:	05800404 	movi	r22,16
  805d50:	d8801f17 	ldw	r2,124(sp)
  805d54:	b4419d0e 	bge	r22,r17,8063cc <___vfprintf_internal_r+0x18e8>
  805d58:	01002074 	movhi	r4,129
  805d5c:	210f2084 	addi	r4,r4,15490
  805d60:	d9002b15 	stw	r4,172(sp)
  805d64:	070001c4 	movi	fp,7
  805d68:	dcc02c17 	ldw	r19,176(sp)
  805d6c:	00000306 	br	805d7c <___vfprintf_internal_r+0x1298>
  805d70:	42000204 	addi	r8,r8,8
  805d74:	8c7ffc04 	addi	r17,r17,-16
  805d78:	b441970e 	bge	r22,r17,8063d8 <___vfprintf_internal_r+0x18f4>
  805d7c:	18c00404 	addi	r3,r3,16
  805d80:	10800044 	addi	r2,r2,1
  805d84:	45000015 	stw	r20,0(r8)
  805d88:	45800115 	stw	r22,4(r8)
  805d8c:	d8c02015 	stw	r3,128(sp)
  805d90:	d8801f15 	stw	r2,124(sp)
  805d94:	e0bff60e 	bge	fp,r2,805d70 <__alt_mem_onchip_mem+0xff785d70>
  805d98:	d9801e04 	addi	r6,sp,120
  805d9c:	b80b883a 	mov	r5,r23
  805da0:	9809883a 	mov	r4,r19
  805da4:	080abd40 	call	80abd4 <__sprint_r>
  805da8:	103c501e 	bne	r2,zero,804eec <__alt_mem_onchip_mem+0xff784eec>
  805dac:	d8c02017 	ldw	r3,128(sp)
  805db0:	d8801f17 	ldw	r2,124(sp)
  805db4:	da000404 	addi	r8,sp,16
  805db8:	003fee06 	br	805d74 <__alt_mem_onchip_mem+0xff785d74>
  805dbc:	d9002c17 	ldw	r4,176(sp)
  805dc0:	d9801e04 	addi	r6,sp,120
  805dc4:	b80b883a 	mov	r5,r23
  805dc8:	080abd40 	call	80abd4 <__sprint_r>
  805dcc:	103c471e 	bne	r2,zero,804eec <__alt_mem_onchip_mem+0xff784eec>
  805dd0:	d8c02017 	ldw	r3,128(sp)
  805dd4:	df002787 	ldb	fp,158(sp)
  805dd8:	da000404 	addi	r8,sp,16
  805ddc:	003d5606 	br	805338 <__alt_mem_onchip_mem+0xff785338>
  805de0:	9080040c 	andi	r2,r18,16
  805de4:	10016126 	beq	r2,zero,80636c <___vfprintf_internal_r+0x1888>
  805de8:	d8802d17 	ldw	r2,180(sp)
  805dec:	14c00017 	ldw	r19,0(r2)
  805df0:	10800104 	addi	r2,r2,4
  805df4:	d8802d15 	stw	r2,180(sp)
  805df8:	982dd7fa 	srai	r22,r19,31
  805dfc:	b005883a 	mov	r2,r22
  805e00:	003c8206 	br	80500c <__alt_mem_onchip_mem+0xff78500c>
  805e04:	9080040c 	andi	r2,r18,16
  805e08:	10003526 	beq	r2,zero,805ee0 <___vfprintf_internal_r+0x13fc>
  805e0c:	d9402d17 	ldw	r5,180(sp)
  805e10:	d8c02917 	ldw	r3,164(sp)
  805e14:	d8002785 	stb	zero,158(sp)
  805e18:	28800104 	addi	r2,r5,4
  805e1c:	2cc00017 	ldw	r19,0(r5)
  805e20:	002d883a 	mov	r22,zero
  805e24:	18003716 	blt	r3,zero,805f04 <___vfprintf_internal_r+0x1420>
  805e28:	00ffdfc4 	movi	r3,-129
  805e2c:	d8802d15 	stw	r2,180(sp)
  805e30:	90e4703a 	and	r18,r18,r3
  805e34:	0039883a 	mov	fp,zero
  805e38:	983df326 	beq	r19,zero,805608 <__alt_mem_onchip_mem+0xff785608>
  805e3c:	00800244 	movi	r2,9
  805e40:	14fc7b36 	bltu	r2,r19,805030 <__alt_mem_onchip_mem+0xff785030>
  805e44:	d8c02817 	ldw	r3,160(sp)
  805e48:	dc001dc4 	addi	r16,sp,119
  805e4c:	9cc00c04 	addi	r19,r19,48
  805e50:	1c07c83a 	sub	r3,r3,r16
  805e54:	dcc01dc5 	stb	r19,119(sp)
  805e58:	d8c02e15 	stw	r3,184(sp)
  805e5c:	003ce806 	br	805200 <__alt_mem_onchip_mem+0xff785200>
  805e60:	d8803317 	ldw	r2,204(sp)
  805e64:	143fffc4 	addi	r16,r2,-1
  805e68:	043f4d0e 	bge	zero,r16,805ba0 <__alt_mem_onchip_mem+0xff785ba0>
  805e6c:	07000404 	movi	fp,16
  805e70:	e400810e 	bge	fp,r16,806078 <___vfprintf_internal_r+0x1594>
  805e74:	01402074 	movhi	r5,129
  805e78:	294f2084 	addi	r5,r5,15490
  805e7c:	d9402b15 	stw	r5,172(sp)
  805e80:	01c001c4 	movi	r7,7
  805e84:	dcc02c17 	ldw	r19,176(sp)
  805e88:	00000306 	br	805e98 <___vfprintf_internal_r+0x13b4>
  805e8c:	b5800204 	addi	r22,r22,8
  805e90:	843ffc04 	addi	r16,r16,-16
  805e94:	e4007b0e 	bge	fp,r16,806084 <___vfprintf_internal_r+0x15a0>
  805e98:	18c00404 	addi	r3,r3,16
  805e9c:	8c400044 	addi	r17,r17,1
  805ea0:	b5000015 	stw	r20,0(r22)
  805ea4:	b7000115 	stw	fp,4(r22)
  805ea8:	d8c02015 	stw	r3,128(sp)
  805eac:	dc401f15 	stw	r17,124(sp)
  805eb0:	3c7ff60e 	bge	r7,r17,805e8c <__alt_mem_onchip_mem+0xff785e8c>
  805eb4:	d9801e04 	addi	r6,sp,120
  805eb8:	b80b883a 	mov	r5,r23
  805ebc:	9809883a 	mov	r4,r19
  805ec0:	d9c03c15 	stw	r7,240(sp)
  805ec4:	080abd40 	call	80abd4 <__sprint_r>
  805ec8:	d9c03c17 	ldw	r7,240(sp)
  805ecc:	103c071e 	bne	r2,zero,804eec <__alt_mem_onchip_mem+0xff784eec>
  805ed0:	d8c02017 	ldw	r3,128(sp)
  805ed4:	dc401f17 	ldw	r17,124(sp)
  805ed8:	dd800404 	addi	r22,sp,16
  805edc:	003fec06 	br	805e90 <__alt_mem_onchip_mem+0xff785e90>
  805ee0:	9080100c 	andi	r2,r18,64
  805ee4:	d8002785 	stb	zero,158(sp)
  805ee8:	10010e26 	beq	r2,zero,806324 <___vfprintf_internal_r+0x1840>
  805eec:	d9002d17 	ldw	r4,180(sp)
  805ef0:	d9402917 	ldw	r5,164(sp)
  805ef4:	002d883a 	mov	r22,zero
  805ef8:	20800104 	addi	r2,r4,4
  805efc:	24c0000b 	ldhu	r19,0(r4)
  805f00:	283fc90e 	bge	r5,zero,805e28 <__alt_mem_onchip_mem+0xff785e28>
  805f04:	d8802d15 	stw	r2,180(sp)
  805f08:	0039883a 	mov	fp,zero
  805f0c:	9d84b03a 	or	r2,r19,r22
  805f10:	103c461e 	bne	r2,zero,80502c <__alt_mem_onchip_mem+0xff78502c>
  805f14:	00800044 	movi	r2,1
  805f18:	003e6c06 	br	8058cc <__alt_mem_onchip_mem+0xff7858cc>
  805f1c:	d9002c17 	ldw	r4,176(sp)
  805f20:	d9801e04 	addi	r6,sp,120
  805f24:	b80b883a 	mov	r5,r23
  805f28:	080abd40 	call	80abd4 <__sprint_r>
  805f2c:	103bef1e 	bne	r2,zero,804eec <__alt_mem_onchip_mem+0xff784eec>
  805f30:	d8c02017 	ldw	r3,128(sp)
  805f34:	da000404 	addi	r8,sp,16
  805f38:	d9003217 	ldw	r4,200(sp)
  805f3c:	d8802617 	ldw	r2,152(sp)
  805f40:	d9403317 	ldw	r5,204(sp)
  805f44:	8123883a 	add	r17,r16,r4
  805f48:	11400216 	blt	r2,r5,805f54 <___vfprintf_internal_r+0x1470>
  805f4c:	9100004c 	andi	r4,r18,1
  805f50:	20000d26 	beq	r4,zero,805f88 <___vfprintf_internal_r+0x14a4>
  805f54:	d9003717 	ldw	r4,220(sp)
  805f58:	d9403417 	ldw	r5,208(sp)
  805f5c:	1907883a 	add	r3,r3,r4
  805f60:	d9001f17 	ldw	r4,124(sp)
  805f64:	41400015 	stw	r5,0(r8)
  805f68:	d9403717 	ldw	r5,220(sp)
  805f6c:	21000044 	addi	r4,r4,1
  805f70:	d8c02015 	stw	r3,128(sp)
  805f74:	41400115 	stw	r5,4(r8)
  805f78:	d9001f15 	stw	r4,124(sp)
  805f7c:	014001c4 	movi	r5,7
  805f80:	2901e816 	blt	r5,r4,806724 <___vfprintf_internal_r+0x1c40>
  805f84:	42000204 	addi	r8,r8,8
  805f88:	d9003317 	ldw	r4,204(sp)
  805f8c:	8121883a 	add	r16,r16,r4
  805f90:	2085c83a 	sub	r2,r4,r2
  805f94:	8461c83a 	sub	r16,r16,r17
  805f98:	1400010e 	bge	r2,r16,805fa0 <___vfprintf_internal_r+0x14bc>
  805f9c:	1021883a 	mov	r16,r2
  805fa0:	04000a0e 	bge	zero,r16,805fcc <___vfprintf_internal_r+0x14e8>
  805fa4:	d9001f17 	ldw	r4,124(sp)
  805fa8:	1c07883a 	add	r3,r3,r16
  805fac:	44400015 	stw	r17,0(r8)
  805fb0:	21000044 	addi	r4,r4,1
  805fb4:	44000115 	stw	r16,4(r8)
  805fb8:	d8c02015 	stw	r3,128(sp)
  805fbc:	d9001f15 	stw	r4,124(sp)
  805fc0:	014001c4 	movi	r5,7
  805fc4:	2901fb16 	blt	r5,r4,8067b4 <___vfprintf_internal_r+0x1cd0>
  805fc8:	42000204 	addi	r8,r8,8
  805fcc:	8001f716 	blt	r16,zero,8067ac <___vfprintf_internal_r+0x1cc8>
  805fd0:	1421c83a 	sub	r16,r2,r16
  805fd4:	043d380e 	bge	zero,r16,8054b8 <__alt_mem_onchip_mem+0xff7854b8>
  805fd8:	04400404 	movi	r17,16
  805fdc:	d8801f17 	ldw	r2,124(sp)
  805fe0:	8c3efb0e 	bge	r17,r16,805bd0 <__alt_mem_onchip_mem+0xff785bd0>
  805fe4:	01402074 	movhi	r5,129
  805fe8:	294f2084 	addi	r5,r5,15490
  805fec:	d9402b15 	stw	r5,172(sp)
  805ff0:	058001c4 	movi	r22,7
  805ff4:	dcc02c17 	ldw	r19,176(sp)
  805ff8:	00000306 	br	806008 <___vfprintf_internal_r+0x1524>
  805ffc:	42000204 	addi	r8,r8,8
  806000:	843ffc04 	addi	r16,r16,-16
  806004:	8c3ef50e 	bge	r17,r16,805bdc <__alt_mem_onchip_mem+0xff785bdc>
  806008:	18c00404 	addi	r3,r3,16
  80600c:	10800044 	addi	r2,r2,1
  806010:	45000015 	stw	r20,0(r8)
  806014:	44400115 	stw	r17,4(r8)
  806018:	d8c02015 	stw	r3,128(sp)
  80601c:	d8801f15 	stw	r2,124(sp)
  806020:	b0bff60e 	bge	r22,r2,805ffc <__alt_mem_onchip_mem+0xff785ffc>
  806024:	d9801e04 	addi	r6,sp,120
  806028:	b80b883a 	mov	r5,r23
  80602c:	9809883a 	mov	r4,r19
  806030:	080abd40 	call	80abd4 <__sprint_r>
  806034:	103bad1e 	bne	r2,zero,804eec <__alt_mem_onchip_mem+0xff784eec>
  806038:	d8c02017 	ldw	r3,128(sp)
  80603c:	d8801f17 	ldw	r2,124(sp)
  806040:	da000404 	addi	r8,sp,16
  806044:	003fee06 	br	806000 <__alt_mem_onchip_mem+0xff786000>
  806048:	9088703a 	and	r4,r18,r2
  80604c:	203eab1e 	bne	r4,zero,805afc <__alt_mem_onchip_mem+0xff785afc>
  806050:	dc401f17 	ldw	r17,124(sp)
  806054:	40800115 	stw	r2,4(r8)
  806058:	44000015 	stw	r16,0(r8)
  80605c:	8c400044 	addi	r17,r17,1
  806060:	d8c02015 	stw	r3,128(sp)
  806064:	dc401f15 	stw	r17,124(sp)
  806068:	008001c4 	movi	r2,7
  80606c:	14400e16 	blt	r2,r17,8060a8 <___vfprintf_internal_r+0x15c4>
  806070:	45800204 	addi	r22,r8,8
  806074:	003eca06 	br	805ba0 <__alt_mem_onchip_mem+0xff785ba0>
  806078:	01002074 	movhi	r4,129
  80607c:	210f2084 	addi	r4,r4,15490
  806080:	d9002b15 	stw	r4,172(sp)
  806084:	d8802b17 	ldw	r2,172(sp)
  806088:	1c07883a 	add	r3,r3,r16
  80608c:	8c400044 	addi	r17,r17,1
  806090:	b0800015 	stw	r2,0(r22)
  806094:	b4000115 	stw	r16,4(r22)
  806098:	d8c02015 	stw	r3,128(sp)
  80609c:	dc401f15 	stw	r17,124(sp)
  8060a0:	008001c4 	movi	r2,7
  8060a4:	147ebd0e 	bge	r2,r17,805b9c <__alt_mem_onchip_mem+0xff785b9c>
  8060a8:	d9002c17 	ldw	r4,176(sp)
  8060ac:	d9801e04 	addi	r6,sp,120
  8060b0:	b80b883a 	mov	r5,r23
  8060b4:	080abd40 	call	80abd4 <__sprint_r>
  8060b8:	103b8c1e 	bne	r2,zero,804eec <__alt_mem_onchip_mem+0xff784eec>
  8060bc:	d8c02017 	ldw	r3,128(sp)
  8060c0:	dc401f17 	ldw	r17,124(sp)
  8060c4:	dd800404 	addi	r22,sp,16
  8060c8:	003eb506 	br	805ba0 <__alt_mem_onchip_mem+0xff785ba0>
  8060cc:	d9002c17 	ldw	r4,176(sp)
  8060d0:	d9801e04 	addi	r6,sp,120
  8060d4:	b80b883a 	mov	r5,r23
  8060d8:	080abd40 	call	80abd4 <__sprint_r>
  8060dc:	103b831e 	bne	r2,zero,804eec <__alt_mem_onchip_mem+0xff784eec>
  8060e0:	d8c02017 	ldw	r3,128(sp)
  8060e4:	dc401f17 	ldw	r17,124(sp)
  8060e8:	da000404 	addi	r8,sp,16
  8060ec:	003e8d06 	br	805b24 <__alt_mem_onchip_mem+0xff785b24>
  8060f0:	d9002c17 	ldw	r4,176(sp)
  8060f4:	d9801e04 	addi	r6,sp,120
  8060f8:	b80b883a 	mov	r5,r23
  8060fc:	080abd40 	call	80abd4 <__sprint_r>
  806100:	103b7a1e 	bne	r2,zero,804eec <__alt_mem_onchip_mem+0xff784eec>
  806104:	d8c02017 	ldw	r3,128(sp)
  806108:	dc401f17 	ldw	r17,124(sp)
  80610c:	dd800404 	addi	r22,sp,16
  806110:	003e8f06 	br	805b50 <__alt_mem_onchip_mem+0xff785b50>
  806114:	0027883a 	mov	r19,zero
  806118:	003f4a06 	br	805e44 <__alt_mem_onchip_mem+0xff785e44>
  80611c:	d9002c17 	ldw	r4,176(sp)
  806120:	d9801e04 	addi	r6,sp,120
  806124:	b80b883a 	mov	r5,r23
  806128:	080abd40 	call	80abd4 <__sprint_r>
  80612c:	103b6f1e 	bne	r2,zero,804eec <__alt_mem_onchip_mem+0xff784eec>
  806130:	d8c02017 	ldw	r3,128(sp)
  806134:	da000404 	addi	r8,sp,16
  806138:	003c9d06 	br	8053b0 <__alt_mem_onchip_mem+0xff7853b0>
  80613c:	04e7c83a 	sub	r19,zero,r19
  806140:	9804c03a 	cmpne	r2,r19,zero
  806144:	05adc83a 	sub	r22,zero,r22
  806148:	b0adc83a 	sub	r22,r22,r2
  80614c:	d8802917 	ldw	r2,164(sp)
  806150:	07000b44 	movi	fp,45
  806154:	df002785 	stb	fp,158(sp)
  806158:	10017b16 	blt	r2,zero,806748 <___vfprintf_internal_r+0x1c64>
  80615c:	00bfdfc4 	movi	r2,-129
  806160:	90a4703a 	and	r18,r18,r2
  806164:	003bb106 	br	80502c <__alt_mem_onchip_mem+0xff78502c>
  806168:	d9003617 	ldw	r4,216(sp)
  80616c:	d9403817 	ldw	r5,224(sp)
  806170:	da003d15 	stw	r8,244(sp)
  806174:	080a9880 	call	80a988 <__fpclassifyd>
  806178:	da003d17 	ldw	r8,244(sp)
  80617c:	1000f026 	beq	r2,zero,806540 <___vfprintf_internal_r+0x1a5c>
  806180:	d9002917 	ldw	r4,164(sp)
  806184:	05bff7c4 	movi	r22,-33
  806188:	00bfffc4 	movi	r2,-1
  80618c:	8dac703a 	and	r22,r17,r22
  806190:	20820026 	beq	r4,r2,806994 <___vfprintf_internal_r+0x1eb0>
  806194:	008011c4 	movi	r2,71
  806198:	b081f726 	beq	r22,r2,806978 <___vfprintf_internal_r+0x1e94>
  80619c:	d9003817 	ldw	r4,224(sp)
  8061a0:	90c04014 	ori	r3,r18,256
  8061a4:	d8c02b15 	stw	r3,172(sp)
  8061a8:	20021516 	blt	r4,zero,806a00 <___vfprintf_internal_r+0x1f1c>
  8061ac:	dcc03817 	ldw	r19,224(sp)
  8061b0:	d8002a05 	stb	zero,168(sp)
  8061b4:	00801984 	movi	r2,102
  8061b8:	8881f926 	beq	r17,r2,8069a0 <___vfprintf_internal_r+0x1ebc>
  8061bc:	00801184 	movi	r2,70
  8061c0:	88821c26 	beq	r17,r2,806a34 <___vfprintf_internal_r+0x1f50>
  8061c4:	00801144 	movi	r2,69
  8061c8:	b081ef26 	beq	r22,r2,806988 <___vfprintf_internal_r+0x1ea4>
  8061cc:	d8c02917 	ldw	r3,164(sp)
  8061d0:	d8802104 	addi	r2,sp,132
  8061d4:	d8800315 	stw	r2,12(sp)
  8061d8:	d9403617 	ldw	r5,216(sp)
  8061dc:	d8802504 	addi	r2,sp,148
  8061e0:	d9002c17 	ldw	r4,176(sp)
  8061e4:	d8800215 	stw	r2,8(sp)
  8061e8:	d8802604 	addi	r2,sp,152
  8061ec:	d8c00015 	stw	r3,0(sp)
  8061f0:	d8800115 	stw	r2,4(sp)
  8061f4:	01c00084 	movi	r7,2
  8061f8:	980d883a 	mov	r6,r19
  8061fc:	d8c03c15 	stw	r3,240(sp)
  806200:	da003d15 	stw	r8,244(sp)
  806204:	08071bc0 	call	8071bc <_dtoa_r>
  806208:	1021883a 	mov	r16,r2
  80620c:	008019c4 	movi	r2,103
  806210:	d8c03c17 	ldw	r3,240(sp)
  806214:	da003d17 	ldw	r8,244(sp)
  806218:	88817126 	beq	r17,r2,8067e0 <___vfprintf_internal_r+0x1cfc>
  80621c:	008011c4 	movi	r2,71
  806220:	88829226 	beq	r17,r2,806c6c <___vfprintf_internal_r+0x2188>
  806224:	80f9883a 	add	fp,r16,r3
  806228:	d9003617 	ldw	r4,216(sp)
  80622c:	000d883a 	mov	r6,zero
  806230:	000f883a 	mov	r7,zero
  806234:	980b883a 	mov	r5,r19
  806238:	da003d15 	stw	r8,244(sp)
  80623c:	080e5240 	call	80e524 <__eqdf2>
  806240:	da003d17 	ldw	r8,244(sp)
  806244:	10018d26 	beq	r2,zero,80687c <___vfprintf_internal_r+0x1d98>
  806248:	d8802117 	ldw	r2,132(sp)
  80624c:	1700062e 	bgeu	r2,fp,806268 <___vfprintf_internal_r+0x1784>
  806250:	01000c04 	movi	r4,48
  806254:	10c00044 	addi	r3,r2,1
  806258:	d8c02115 	stw	r3,132(sp)
  80625c:	11000005 	stb	r4,0(r2)
  806260:	d8802117 	ldw	r2,132(sp)
  806264:	173ffb36 	bltu	r2,fp,806254 <__alt_mem_onchip_mem+0xff786254>
  806268:	1405c83a 	sub	r2,r2,r16
  80626c:	d8803315 	stw	r2,204(sp)
  806270:	008011c4 	movi	r2,71
  806274:	b0817626 	beq	r22,r2,806850 <___vfprintf_internal_r+0x1d6c>
  806278:	00801944 	movi	r2,101
  80627c:	1442810e 	bge	r2,r17,806c84 <___vfprintf_internal_r+0x21a0>
  806280:	d8c02617 	ldw	r3,152(sp)
  806284:	00801984 	movi	r2,102
  806288:	d8c03215 	stw	r3,200(sp)
  80628c:	8881fe26 	beq	r17,r2,806a88 <___vfprintf_internal_r+0x1fa4>
  806290:	d8c03217 	ldw	r3,200(sp)
  806294:	d9003317 	ldw	r4,204(sp)
  806298:	1901dd16 	blt	r3,r4,806a10 <___vfprintf_internal_r+0x1f2c>
  80629c:	9480004c 	andi	r18,r18,1
  8062a0:	90022b1e 	bne	r18,zero,806b50 <___vfprintf_internal_r+0x206c>
  8062a4:	1805883a 	mov	r2,r3
  8062a8:	18028016 	blt	r3,zero,806cac <___vfprintf_internal_r+0x21c8>
  8062ac:	d8c03217 	ldw	r3,200(sp)
  8062b0:	044019c4 	movi	r17,103
  8062b4:	d8c02e15 	stw	r3,184(sp)
  8062b8:	df002a07 	ldb	fp,168(sp)
  8062bc:	e001531e 	bne	fp,zero,80680c <___vfprintf_internal_r+0x1d28>
  8062c0:	df002783 	ldbu	fp,158(sp)
  8062c4:	d8802a15 	stw	r2,168(sp)
  8062c8:	dc802b17 	ldw	r18,172(sp)
  8062cc:	d8002915 	stw	zero,164(sp)
  8062d0:	003bd106 	br	805218 <__alt_mem_onchip_mem+0xff785218>
  8062d4:	d8802d17 	ldw	r2,180(sp)
  8062d8:	d8c02d17 	ldw	r3,180(sp)
  8062dc:	d9002d17 	ldw	r4,180(sp)
  8062e0:	10800017 	ldw	r2,0(r2)
  8062e4:	18c00117 	ldw	r3,4(r3)
  8062e8:	21000204 	addi	r4,r4,8
  8062ec:	d8803615 	stw	r2,216(sp)
  8062f0:	d8c03815 	stw	r3,224(sp)
  8062f4:	d9002d15 	stw	r4,180(sp)
  8062f8:	003b7506 	br	8050d0 <__alt_mem_onchip_mem+0xff7850d0>
  8062fc:	ac400007 	ldb	r17,0(r21)
  806300:	003a5906 	br	804c68 <__alt_mem_onchip_mem+0xff784c68>
  806304:	9080100c 	andi	r2,r18,64
  806308:	1000a826 	beq	r2,zero,8065ac <___vfprintf_internal_r+0x1ac8>
  80630c:	d9002d17 	ldw	r4,180(sp)
  806310:	002d883a 	mov	r22,zero
  806314:	24c0000b 	ldhu	r19,0(r4)
  806318:	21000104 	addi	r4,r4,4
  80631c:	d9002d15 	stw	r4,180(sp)
  806320:	003ccb06 	br	805650 <__alt_mem_onchip_mem+0xff785650>
  806324:	d8c02d17 	ldw	r3,180(sp)
  806328:	d9002917 	ldw	r4,164(sp)
  80632c:	002d883a 	mov	r22,zero
  806330:	18800104 	addi	r2,r3,4
  806334:	1cc00017 	ldw	r19,0(r3)
  806338:	203ebb0e 	bge	r4,zero,805e28 <__alt_mem_onchip_mem+0xff785e28>
  80633c:	003ef106 	br	805f04 <__alt_mem_onchip_mem+0xff785f04>
  806340:	9080040c 	andi	r2,r18,16
  806344:	1000921e 	bne	r2,zero,806590 <___vfprintf_internal_r+0x1aac>
  806348:	9480100c 	andi	r18,r18,64
  80634c:	90013926 	beq	r18,zero,806834 <___vfprintf_internal_r+0x1d50>
  806350:	d9002d17 	ldw	r4,180(sp)
  806354:	d9402f17 	ldw	r5,188(sp)
  806358:	20800017 	ldw	r2,0(r4)
  80635c:	21000104 	addi	r4,r4,4
  806360:	d9002d15 	stw	r4,180(sp)
  806364:	1140000d 	sth	r5,0(r2)
  806368:	003a1606 	br	804bc4 <__alt_mem_onchip_mem+0xff784bc4>
  80636c:	9080100c 	andi	r2,r18,64
  806370:	10008026 	beq	r2,zero,806574 <___vfprintf_internal_r+0x1a90>
  806374:	d8c02d17 	ldw	r3,180(sp)
  806378:	1cc0000f 	ldh	r19,0(r3)
  80637c:	18c00104 	addi	r3,r3,4
  806380:	d8c02d15 	stw	r3,180(sp)
  806384:	982dd7fa 	srai	r22,r19,31
  806388:	b005883a 	mov	r2,r22
  80638c:	003b1f06 	br	80500c <__alt_mem_onchip_mem+0xff78500c>
  806390:	9080100c 	andi	r2,r18,64
  806394:	d8002785 	stb	zero,158(sp)
  806398:	10008a1e 	bne	r2,zero,8065c4 <___vfprintf_internal_r+0x1ae0>
  80639c:	d9402d17 	ldw	r5,180(sp)
  8063a0:	d8c02917 	ldw	r3,164(sp)
  8063a4:	002d883a 	mov	r22,zero
  8063a8:	28800104 	addi	r2,r5,4
  8063ac:	2cc00017 	ldw	r19,0(r5)
  8063b0:	183e4b0e 	bge	r3,zero,805ce0 <__alt_mem_onchip_mem+0xff785ce0>
  8063b4:	9d86b03a 	or	r3,r19,r22
  8063b8:	d8802d15 	stw	r2,180(sp)
  8063bc:	183e4c1e 	bne	r3,zero,805cf0 <__alt_mem_onchip_mem+0xff785cf0>
  8063c0:	0039883a 	mov	fp,zero
  8063c4:	0005883a 	mov	r2,zero
  8063c8:	003d4006 	br	8058cc <__alt_mem_onchip_mem+0xff7858cc>
  8063cc:	01402074 	movhi	r5,129
  8063d0:	294f2084 	addi	r5,r5,15490
  8063d4:	d9402b15 	stw	r5,172(sp)
  8063d8:	d9402b17 	ldw	r5,172(sp)
  8063dc:	1c47883a 	add	r3,r3,r17
  8063e0:	10800044 	addi	r2,r2,1
  8063e4:	41400015 	stw	r5,0(r8)
  8063e8:	44400115 	stw	r17,4(r8)
  8063ec:	d8c02015 	stw	r3,128(sp)
  8063f0:	d8801f15 	stw	r2,124(sp)
  8063f4:	010001c4 	movi	r4,7
  8063f8:	20bec816 	blt	r4,r2,805f1c <__alt_mem_onchip_mem+0xff785f1c>
  8063fc:	42000204 	addi	r8,r8,8
  806400:	003ecd06 	br	805f38 <__alt_mem_onchip_mem+0xff785f38>
  806404:	d9002917 	ldw	r4,164(sp)
  806408:	d8002785 	stb	zero,158(sp)
  80640c:	203d2d16 	blt	r4,zero,8058c4 <__alt_mem_onchip_mem+0xff7858c4>
  806410:	00bfdfc4 	movi	r2,-129
  806414:	90a4703a 	and	r18,r18,r2
  806418:	003a9106 	br	804e60 <__alt_mem_onchip_mem+0xff784e60>
  80641c:	01002074 	movhi	r4,129
  806420:	210f2084 	addi	r4,r4,15490
  806424:	d9002b15 	stw	r4,172(sp)
  806428:	003c0c06 	br	80545c <__alt_mem_onchip_mem+0xff78545c>
  80642c:	d9002c17 	ldw	r4,176(sp)
  806430:	d9801e04 	addi	r6,sp,120
  806434:	b80b883a 	mov	r5,r23
  806438:	080abd40 	call	80abd4 <__sprint_r>
  80643c:	103aab1e 	bne	r2,zero,804eec <__alt_mem_onchip_mem+0xff784eec>
  806440:	d8c02017 	ldw	r3,128(sp)
  806444:	da000404 	addi	r8,sp,16
  806448:	003d4106 	br	805950 <__alt_mem_onchip_mem+0xff785950>
  80644c:	d8801f17 	ldw	r2,124(sp)
  806450:	01402074 	movhi	r5,129
  806454:	01000044 	movi	r4,1
  806458:	18c00044 	addi	r3,r3,1
  80645c:	10800044 	addi	r2,r2,1
  806460:	294f2004 	addi	r5,r5,15488
  806464:	41000115 	stw	r4,4(r8)
  806468:	41400015 	stw	r5,0(r8)
  80646c:	d8c02015 	stw	r3,128(sp)
  806470:	d8801f15 	stw	r2,124(sp)
  806474:	010001c4 	movi	r4,7
  806478:	20805c16 	blt	r4,r2,8065ec <___vfprintf_internal_r+0x1b08>
  80647c:	42000204 	addi	r8,r8,8
  806480:	8800041e 	bne	r17,zero,806494 <___vfprintf_internal_r+0x19b0>
  806484:	d8803317 	ldw	r2,204(sp)
  806488:	1000021e 	bne	r2,zero,806494 <___vfprintf_internal_r+0x19b0>
  80648c:	9080004c 	andi	r2,r18,1
  806490:	103c0926 	beq	r2,zero,8054b8 <__alt_mem_onchip_mem+0xff7854b8>
  806494:	d9003717 	ldw	r4,220(sp)
  806498:	d8801f17 	ldw	r2,124(sp)
  80649c:	d9403417 	ldw	r5,208(sp)
  8064a0:	20c7883a 	add	r3,r4,r3
  8064a4:	10800044 	addi	r2,r2,1
  8064a8:	41000115 	stw	r4,4(r8)
  8064ac:	41400015 	stw	r5,0(r8)
  8064b0:	d8c02015 	stw	r3,128(sp)
  8064b4:	d8801f15 	stw	r2,124(sp)
  8064b8:	010001c4 	movi	r4,7
  8064bc:	20812116 	blt	r4,r2,806944 <___vfprintf_internal_r+0x1e60>
  8064c0:	42000204 	addi	r8,r8,8
  8064c4:	0463c83a 	sub	r17,zero,r17
  8064c8:	0440730e 	bge	zero,r17,806698 <___vfprintf_internal_r+0x1bb4>
  8064cc:	05800404 	movi	r22,16
  8064d0:	b440860e 	bge	r22,r17,8066ec <___vfprintf_internal_r+0x1c08>
  8064d4:	01402074 	movhi	r5,129
  8064d8:	294f2084 	addi	r5,r5,15490
  8064dc:	d9402b15 	stw	r5,172(sp)
  8064e0:	070001c4 	movi	fp,7
  8064e4:	dcc02c17 	ldw	r19,176(sp)
  8064e8:	00000306 	br	8064f8 <___vfprintf_internal_r+0x1a14>
  8064ec:	42000204 	addi	r8,r8,8
  8064f0:	8c7ffc04 	addi	r17,r17,-16
  8064f4:	b440800e 	bge	r22,r17,8066f8 <___vfprintf_internal_r+0x1c14>
  8064f8:	18c00404 	addi	r3,r3,16
  8064fc:	10800044 	addi	r2,r2,1
  806500:	45000015 	stw	r20,0(r8)
  806504:	45800115 	stw	r22,4(r8)
  806508:	d8c02015 	stw	r3,128(sp)
  80650c:	d8801f15 	stw	r2,124(sp)
  806510:	e0bff60e 	bge	fp,r2,8064ec <__alt_mem_onchip_mem+0xff7864ec>
  806514:	d9801e04 	addi	r6,sp,120
  806518:	b80b883a 	mov	r5,r23
  80651c:	9809883a 	mov	r4,r19
  806520:	080abd40 	call	80abd4 <__sprint_r>
  806524:	103a711e 	bne	r2,zero,804eec <__alt_mem_onchip_mem+0xff784eec>
  806528:	d8c02017 	ldw	r3,128(sp)
  80652c:	d8801f17 	ldw	r2,124(sp)
  806530:	da000404 	addi	r8,sp,16
  806534:	003fee06 	br	8064f0 <__alt_mem_onchip_mem+0xff7864f0>
  806538:	00bfffc4 	movi	r2,-1
  80653c:	003a6f06 	br	804efc <__alt_mem_onchip_mem+0xff784efc>
  806540:	008011c4 	movi	r2,71
  806544:	1440b816 	blt	r2,r17,806828 <___vfprintf_internal_r+0x1d44>
  806548:	04002074 	movhi	r16,129
  80654c:	840f1204 	addi	r16,r16,15432
  806550:	00c000c4 	movi	r3,3
  806554:	00bfdfc4 	movi	r2,-129
  806558:	d8c02a15 	stw	r3,168(sp)
  80655c:	90a4703a 	and	r18,r18,r2
  806560:	df002783 	ldbu	fp,158(sp)
  806564:	d8c02e15 	stw	r3,184(sp)
  806568:	d8002915 	stw	zero,164(sp)
  80656c:	d8003215 	stw	zero,200(sp)
  806570:	003b2906 	br	805218 <__alt_mem_onchip_mem+0xff785218>
  806574:	d9002d17 	ldw	r4,180(sp)
  806578:	24c00017 	ldw	r19,0(r4)
  80657c:	21000104 	addi	r4,r4,4
  806580:	d9002d15 	stw	r4,180(sp)
  806584:	982dd7fa 	srai	r22,r19,31
  806588:	b005883a 	mov	r2,r22
  80658c:	003a9f06 	br	80500c <__alt_mem_onchip_mem+0xff78500c>
  806590:	d9402d17 	ldw	r5,180(sp)
  806594:	d8c02f17 	ldw	r3,188(sp)
  806598:	28800017 	ldw	r2,0(r5)
  80659c:	29400104 	addi	r5,r5,4
  8065a0:	d9402d15 	stw	r5,180(sp)
  8065a4:	10c00015 	stw	r3,0(r2)
  8065a8:	00398606 	br	804bc4 <__alt_mem_onchip_mem+0xff784bc4>
  8065ac:	d9402d17 	ldw	r5,180(sp)
  8065b0:	002d883a 	mov	r22,zero
  8065b4:	2cc00017 	ldw	r19,0(r5)
  8065b8:	29400104 	addi	r5,r5,4
  8065bc:	d9402d15 	stw	r5,180(sp)
  8065c0:	003c2306 	br	805650 <__alt_mem_onchip_mem+0xff785650>
  8065c4:	d8c02d17 	ldw	r3,180(sp)
  8065c8:	d9002917 	ldw	r4,164(sp)
  8065cc:	002d883a 	mov	r22,zero
  8065d0:	18800104 	addi	r2,r3,4
  8065d4:	1cc0000b 	ldhu	r19,0(r3)
  8065d8:	203dc10e 	bge	r4,zero,805ce0 <__alt_mem_onchip_mem+0xff785ce0>
  8065dc:	003f7506 	br	8063b4 <__alt_mem_onchip_mem+0xff7863b4>
  8065e0:	04002074 	movhi	r16,129
  8065e4:	840f1004 	addi	r16,r16,15424
  8065e8:	003acc06 	br	80511c <__alt_mem_onchip_mem+0xff78511c>
  8065ec:	d9002c17 	ldw	r4,176(sp)
  8065f0:	d9801e04 	addi	r6,sp,120
  8065f4:	b80b883a 	mov	r5,r23
  8065f8:	080abd40 	call	80abd4 <__sprint_r>
  8065fc:	103a3b1e 	bne	r2,zero,804eec <__alt_mem_onchip_mem+0xff784eec>
  806600:	dc402617 	ldw	r17,152(sp)
  806604:	d8c02017 	ldw	r3,128(sp)
  806608:	da000404 	addi	r8,sp,16
  80660c:	003f9c06 	br	806480 <__alt_mem_onchip_mem+0xff786480>
  806610:	ac400043 	ldbu	r17,1(r21)
  806614:	94800814 	ori	r18,r18,32
  806618:	ad400044 	addi	r21,r21,1
  80661c:	8c403fcc 	andi	r17,r17,255
  806620:	8c40201c 	xori	r17,r17,128
  806624:	8c7fe004 	addi	r17,r17,-128
  806628:	00398f06 	br	804c68 <__alt_mem_onchip_mem+0xff784c68>
  80662c:	d8c02d15 	stw	r3,180(sp)
  806630:	0039883a 	mov	fp,zero
  806634:	003e3506 	br	805f0c <__alt_mem_onchip_mem+0xff785f0c>
  806638:	d9002c17 	ldw	r4,176(sp)
  80663c:	d9801e04 	addi	r6,sp,120
  806640:	b80b883a 	mov	r5,r23
  806644:	080abd40 	call	80abd4 <__sprint_r>
  806648:	103a281e 	bne	r2,zero,804eec <__alt_mem_onchip_mem+0xff784eec>
  80664c:	d8c02017 	ldw	r3,128(sp)
  806650:	da000404 	addi	r8,sp,16
  806654:	003cd006 	br	805998 <__alt_mem_onchip_mem+0xff785998>
  806658:	8009883a 	mov	r4,r16
  80665c:	da003d15 	stw	r8,244(sp)
  806660:	0804a4c0 	call	804a4c <strlen>
  806664:	d8802e15 	stw	r2,184(sp)
  806668:	da003d17 	ldw	r8,244(sp)
  80666c:	103c340e 	bge	r2,zero,805740 <__alt_mem_onchip_mem+0xff785740>
  806670:	0005883a 	mov	r2,zero
  806674:	003c3206 	br	805740 <__alt_mem_onchip_mem+0xff785740>
  806678:	d9002c17 	ldw	r4,176(sp)
  80667c:	d9801e04 	addi	r6,sp,120
  806680:	b80b883a 	mov	r5,r23
  806684:	080abd40 	call	80abd4 <__sprint_r>
  806688:	103a181e 	bne	r2,zero,804eec <__alt_mem_onchip_mem+0xff784eec>
  80668c:	d8c02017 	ldw	r3,128(sp)
  806690:	d8801f17 	ldw	r2,124(sp)
  806694:	da000404 	addi	r8,sp,16
  806698:	d9403317 	ldw	r5,204(sp)
  80669c:	10800044 	addi	r2,r2,1
  8066a0:	44000015 	stw	r16,0(r8)
  8066a4:	28c7883a 	add	r3,r5,r3
  8066a8:	003b7d06 	br	8054a0 <__alt_mem_onchip_mem+0xff7854a0>
  8066ac:	01002074 	movhi	r4,129
  8066b0:	210f2484 	addi	r4,r4,15506
  8066b4:	d9003515 	stw	r4,212(sp)
  8066b8:	003b1406 	br	80530c <__alt_mem_onchip_mem+0xff78530c>
  8066bc:	013fffc4 	movi	r4,-1
  8066c0:	003a3506 	br	804f98 <__alt_mem_onchip_mem+0xff784f98>
  8066c4:	0023883a 	mov	r17,zero
  8066c8:	003d9d06 	br	805d40 <__alt_mem_onchip_mem+0xff785d40>
  8066cc:	d9002c17 	ldw	r4,176(sp)
  8066d0:	d9801e04 	addi	r6,sp,120
  8066d4:	b80b883a 	mov	r5,r23
  8066d8:	080abd40 	call	80abd4 <__sprint_r>
  8066dc:	103a031e 	bne	r2,zero,804eec <__alt_mem_onchip_mem+0xff784eec>
  8066e0:	d8c02017 	ldw	r3,128(sp)
  8066e4:	da000404 	addi	r8,sp,16
  8066e8:	003d9406 	br	805d3c <__alt_mem_onchip_mem+0xff785d3c>
  8066ec:	01002074 	movhi	r4,129
  8066f0:	210f2084 	addi	r4,r4,15490
  8066f4:	d9002b15 	stw	r4,172(sp)
  8066f8:	d9002b17 	ldw	r4,172(sp)
  8066fc:	1c47883a 	add	r3,r3,r17
  806700:	10800044 	addi	r2,r2,1
  806704:	41000015 	stw	r4,0(r8)
  806708:	44400115 	stw	r17,4(r8)
  80670c:	d8c02015 	stw	r3,128(sp)
  806710:	d8801f15 	stw	r2,124(sp)
  806714:	010001c4 	movi	r4,7
  806718:	20bfd716 	blt	r4,r2,806678 <__alt_mem_onchip_mem+0xff786678>
  80671c:	42000204 	addi	r8,r8,8
  806720:	003fdd06 	br	806698 <__alt_mem_onchip_mem+0xff786698>
  806724:	d9002c17 	ldw	r4,176(sp)
  806728:	d9801e04 	addi	r6,sp,120
  80672c:	b80b883a 	mov	r5,r23
  806730:	080abd40 	call	80abd4 <__sprint_r>
  806734:	1039ed1e 	bne	r2,zero,804eec <__alt_mem_onchip_mem+0xff784eec>
  806738:	d8802617 	ldw	r2,152(sp)
  80673c:	d8c02017 	ldw	r3,128(sp)
  806740:	da000404 	addi	r8,sp,16
  806744:	003e1006 	br	805f88 <__alt_mem_onchip_mem+0xff785f88>
  806748:	00800044 	movi	r2,1
  80674c:	10803fcc 	andi	r2,r2,255
  806750:	00c00044 	movi	r3,1
  806754:	10fa3526 	beq	r2,r3,80502c <__alt_mem_onchip_mem+0xff78502c>
  806758:	00c00084 	movi	r3,2
  80675c:	10fbcb26 	beq	r2,r3,80568c <__alt_mem_onchip_mem+0xff78568c>
  806760:	003a8f06 	br	8051a0 <__alt_mem_onchip_mem+0xff7851a0>
  806764:	01002074 	movhi	r4,129
  806768:	210f2484 	addi	r4,r4,15506
  80676c:	d9003515 	stw	r4,212(sp)
  806770:	003b7606 	br	80554c <__alt_mem_onchip_mem+0xff78554c>
  806774:	d8802917 	ldw	r2,164(sp)
  806778:	00c00184 	movi	r3,6
  80677c:	1880012e 	bgeu	r3,r2,806784 <___vfprintf_internal_r+0x1ca0>
  806780:	1805883a 	mov	r2,r3
  806784:	d8802e15 	stw	r2,184(sp)
  806788:	1000ef16 	blt	r2,zero,806b48 <___vfprintf_internal_r+0x2064>
  80678c:	04002074 	movhi	r16,129
  806790:	d8802a15 	stw	r2,168(sp)
  806794:	dcc02d15 	stw	r19,180(sp)
  806798:	d8002915 	stw	zero,164(sp)
  80679c:	d8003215 	stw	zero,200(sp)
  8067a0:	840f1e04 	addi	r16,r16,15480
  8067a4:	0039883a 	mov	fp,zero
  8067a8:	003aa206 	br	805234 <__alt_mem_onchip_mem+0xff785234>
  8067ac:	0021883a 	mov	r16,zero
  8067b0:	003e0706 	br	805fd0 <__alt_mem_onchip_mem+0xff785fd0>
  8067b4:	d9002c17 	ldw	r4,176(sp)
  8067b8:	d9801e04 	addi	r6,sp,120
  8067bc:	b80b883a 	mov	r5,r23
  8067c0:	080abd40 	call	80abd4 <__sprint_r>
  8067c4:	1039c91e 	bne	r2,zero,804eec <__alt_mem_onchip_mem+0xff784eec>
  8067c8:	d8802617 	ldw	r2,152(sp)
  8067cc:	d9403317 	ldw	r5,204(sp)
  8067d0:	d8c02017 	ldw	r3,128(sp)
  8067d4:	da000404 	addi	r8,sp,16
  8067d8:	2885c83a 	sub	r2,r5,r2
  8067dc:	003dfb06 	br	805fcc <__alt_mem_onchip_mem+0xff785fcc>
  8067e0:	9080004c 	andi	r2,r18,1
  8067e4:	103e8f1e 	bne	r2,zero,806224 <__alt_mem_onchip_mem+0xff786224>
  8067e8:	d8802117 	ldw	r2,132(sp)
  8067ec:	003e9e06 	br	806268 <__alt_mem_onchip_mem+0xff786268>
  8067f0:	1025883a 	mov	r18,r2
  8067f4:	0039883a 	mov	fp,zero
  8067f8:	00800084 	movi	r2,2
  8067fc:	003fd306 	br	80674c <__alt_mem_onchip_mem+0xff78674c>
  806800:	07000b44 	movi	fp,45
  806804:	df002785 	stb	fp,158(sp)
  806808:	003a4006 	br	80510c <__alt_mem_onchip_mem+0xff78510c>
  80680c:	00c00b44 	movi	r3,45
  806810:	d8c02785 	stb	r3,158(sp)
  806814:	d8802a15 	stw	r2,168(sp)
  806818:	dc802b17 	ldw	r18,172(sp)
  80681c:	d8002915 	stw	zero,164(sp)
  806820:	07000b44 	movi	fp,45
  806824:	003a8006 	br	805228 <__alt_mem_onchip_mem+0xff785228>
  806828:	04002074 	movhi	r16,129
  80682c:	840f1304 	addi	r16,r16,15436
  806830:	003f4706 	br	806550 <__alt_mem_onchip_mem+0xff786550>
  806834:	d8c02d17 	ldw	r3,180(sp)
  806838:	d9002f17 	ldw	r4,188(sp)
  80683c:	18800017 	ldw	r2,0(r3)
  806840:	18c00104 	addi	r3,r3,4
  806844:	d8c02d15 	stw	r3,180(sp)
  806848:	11000015 	stw	r4,0(r2)
  80684c:	0038dd06 	br	804bc4 <__alt_mem_onchip_mem+0xff784bc4>
  806850:	dd802617 	ldw	r22,152(sp)
  806854:	00bfff44 	movi	r2,-3
  806858:	b0801c16 	blt	r22,r2,8068cc <___vfprintf_internal_r+0x1de8>
  80685c:	d9402917 	ldw	r5,164(sp)
  806860:	2d801a16 	blt	r5,r22,8068cc <___vfprintf_internal_r+0x1de8>
  806864:	dd803215 	stw	r22,200(sp)
  806868:	003e8906 	br	806290 <__alt_mem_onchip_mem+0xff786290>
  80686c:	01002074 	movhi	r4,129
  806870:	210f2084 	addi	r4,r4,15490
  806874:	d9002b15 	stw	r4,172(sp)
  806878:	003c9106 	br	805ac0 <__alt_mem_onchip_mem+0xff785ac0>
  80687c:	e005883a 	mov	r2,fp
  806880:	003e7906 	br	806268 <__alt_mem_onchip_mem+0xff786268>
  806884:	d9402917 	ldw	r5,164(sp)
  806888:	df002783 	ldbu	fp,158(sp)
  80688c:	dcc02d15 	stw	r19,180(sp)
  806890:	d9402a15 	stw	r5,168(sp)
  806894:	d9402e15 	stw	r5,184(sp)
  806898:	d8002915 	stw	zero,164(sp)
  80689c:	d8003215 	stw	zero,200(sp)
  8068a0:	003a5d06 	br	805218 <__alt_mem_onchip_mem+0xff785218>
  8068a4:	9080004c 	andi	r2,r18,1
  8068a8:	0039883a 	mov	fp,zero
  8068ac:	10000426 	beq	r2,zero,8068c0 <___vfprintf_internal_r+0x1ddc>
  8068b0:	00800c04 	movi	r2,48
  8068b4:	dc001dc4 	addi	r16,sp,119
  8068b8:	d8801dc5 	stb	r2,119(sp)
  8068bc:	003b8006 	br	8056c0 <__alt_mem_onchip_mem+0xff7856c0>
  8068c0:	d8002e15 	stw	zero,184(sp)
  8068c4:	dc001e04 	addi	r16,sp,120
  8068c8:	003a4d06 	br	805200 <__alt_mem_onchip_mem+0xff785200>
  8068cc:	8c7fff84 	addi	r17,r17,-2
  8068d0:	b5bfffc4 	addi	r22,r22,-1
  8068d4:	dd802615 	stw	r22,152(sp)
  8068d8:	dc4022c5 	stb	r17,139(sp)
  8068dc:	b000bf16 	blt	r22,zero,806bdc <___vfprintf_internal_r+0x20f8>
  8068e0:	00800ac4 	movi	r2,43
  8068e4:	d8802305 	stb	r2,140(sp)
  8068e8:	00800244 	movi	r2,9
  8068ec:	15807016 	blt	r2,r22,806ab0 <___vfprintf_internal_r+0x1fcc>
  8068f0:	00800c04 	movi	r2,48
  8068f4:	b5800c04 	addi	r22,r22,48
  8068f8:	d8802345 	stb	r2,141(sp)
  8068fc:	dd802385 	stb	r22,142(sp)
  806900:	d88023c4 	addi	r2,sp,143
  806904:	df0022c4 	addi	fp,sp,139
  806908:	d8c03317 	ldw	r3,204(sp)
  80690c:	1739c83a 	sub	fp,r2,fp
  806910:	d9003317 	ldw	r4,204(sp)
  806914:	e0c7883a 	add	r3,fp,r3
  806918:	df003a15 	stw	fp,232(sp)
  80691c:	d8c02e15 	stw	r3,184(sp)
  806920:	00800044 	movi	r2,1
  806924:	1100b30e 	bge	r2,r4,806bf4 <___vfprintf_internal_r+0x2110>
  806928:	d8c02e17 	ldw	r3,184(sp)
  80692c:	18c00044 	addi	r3,r3,1
  806930:	d8c02e15 	stw	r3,184(sp)
  806934:	1805883a 	mov	r2,r3
  806938:	1800ac16 	blt	r3,zero,806bec <___vfprintf_internal_r+0x2108>
  80693c:	d8003215 	stw	zero,200(sp)
  806940:	003e5d06 	br	8062b8 <__alt_mem_onchip_mem+0xff7862b8>
  806944:	d9002c17 	ldw	r4,176(sp)
  806948:	d9801e04 	addi	r6,sp,120
  80694c:	b80b883a 	mov	r5,r23
  806950:	080abd40 	call	80abd4 <__sprint_r>
  806954:	1039651e 	bne	r2,zero,804eec <__alt_mem_onchip_mem+0xff784eec>
  806958:	dc402617 	ldw	r17,152(sp)
  80695c:	d8c02017 	ldw	r3,128(sp)
  806960:	d8801f17 	ldw	r2,124(sp)
  806964:	da000404 	addi	r8,sp,16
  806968:	003ed606 	br	8064c4 <__alt_mem_onchip_mem+0xff7864c4>
  80696c:	582b883a 	mov	r21,r11
  806970:	d8002915 	stw	zero,164(sp)
  806974:	0038bd06 	br	804c6c <__alt_mem_onchip_mem+0xff784c6c>
  806978:	d8802917 	ldw	r2,164(sp)
  80697c:	103e071e 	bne	r2,zero,80619c <__alt_mem_onchip_mem+0xff78619c>
  806980:	dc002915 	stw	r16,164(sp)
  806984:	003e0506 	br	80619c <__alt_mem_onchip_mem+0xff78619c>
  806988:	d9002917 	ldw	r4,164(sp)
  80698c:	20c00044 	addi	r3,r4,1
  806990:	003e0f06 	br	8061d0 <__alt_mem_onchip_mem+0xff7861d0>
  806994:	01400184 	movi	r5,6
  806998:	d9402915 	stw	r5,164(sp)
  80699c:	003dff06 	br	80619c <__alt_mem_onchip_mem+0xff78619c>
  8069a0:	d8802104 	addi	r2,sp,132
  8069a4:	d8800315 	stw	r2,12(sp)
  8069a8:	d8802504 	addi	r2,sp,148
  8069ac:	d8800215 	stw	r2,8(sp)
  8069b0:	d8802604 	addi	r2,sp,152
  8069b4:	d8800115 	stw	r2,4(sp)
  8069b8:	d8802917 	ldw	r2,164(sp)
  8069bc:	d9403617 	ldw	r5,216(sp)
  8069c0:	d9002c17 	ldw	r4,176(sp)
  8069c4:	d8800015 	stw	r2,0(sp)
  8069c8:	01c000c4 	movi	r7,3
  8069cc:	980d883a 	mov	r6,r19
  8069d0:	da003d15 	stw	r8,244(sp)
  8069d4:	08071bc0 	call	8071bc <_dtoa_r>
  8069d8:	d8c02917 	ldw	r3,164(sp)
  8069dc:	da003d17 	ldw	r8,244(sp)
  8069e0:	1021883a 	mov	r16,r2
  8069e4:	10f9883a 	add	fp,r2,r3
  8069e8:	81000007 	ldb	r4,0(r16)
  8069ec:	00800c04 	movi	r2,48
  8069f0:	20805e26 	beq	r4,r2,806b6c <___vfprintf_internal_r+0x2088>
  8069f4:	d8c02617 	ldw	r3,152(sp)
  8069f8:	e0f9883a 	add	fp,fp,r3
  8069fc:	003e0a06 	br	806228 <__alt_mem_onchip_mem+0xff786228>
  806a00:	00c00b44 	movi	r3,45
  806a04:	24e0003c 	xorhi	r19,r4,32768
  806a08:	d8c02a05 	stb	r3,168(sp)
  806a0c:	003de906 	br	8061b4 <__alt_mem_onchip_mem+0xff7861b4>
  806a10:	d8c03217 	ldw	r3,200(sp)
  806a14:	00c07a0e 	bge	zero,r3,806c00 <___vfprintf_internal_r+0x211c>
  806a18:	00800044 	movi	r2,1
  806a1c:	d9003317 	ldw	r4,204(sp)
  806a20:	1105883a 	add	r2,r2,r4
  806a24:	d8802e15 	stw	r2,184(sp)
  806a28:	10004e16 	blt	r2,zero,806b64 <___vfprintf_internal_r+0x2080>
  806a2c:	044019c4 	movi	r17,103
  806a30:	003e2106 	br	8062b8 <__alt_mem_onchip_mem+0xff7862b8>
  806a34:	d9002917 	ldw	r4,164(sp)
  806a38:	d8802104 	addi	r2,sp,132
  806a3c:	d8800315 	stw	r2,12(sp)
  806a40:	d9000015 	stw	r4,0(sp)
  806a44:	d8802504 	addi	r2,sp,148
  806a48:	d9403617 	ldw	r5,216(sp)
  806a4c:	d9002c17 	ldw	r4,176(sp)
  806a50:	d8800215 	stw	r2,8(sp)
  806a54:	d8802604 	addi	r2,sp,152
  806a58:	d8800115 	stw	r2,4(sp)
  806a5c:	01c000c4 	movi	r7,3
  806a60:	980d883a 	mov	r6,r19
  806a64:	da003d15 	stw	r8,244(sp)
  806a68:	08071bc0 	call	8071bc <_dtoa_r>
  806a6c:	d8c02917 	ldw	r3,164(sp)
  806a70:	da003d17 	ldw	r8,244(sp)
  806a74:	1021883a 	mov	r16,r2
  806a78:	00801184 	movi	r2,70
  806a7c:	80f9883a 	add	fp,r16,r3
  806a80:	88bfd926 	beq	r17,r2,8069e8 <__alt_mem_onchip_mem+0xff7869e8>
  806a84:	003de806 	br	806228 <__alt_mem_onchip_mem+0xff786228>
  806a88:	d9002917 	ldw	r4,164(sp)
  806a8c:	00c04d0e 	bge	zero,r3,806bc4 <___vfprintf_internal_r+0x20e0>
  806a90:	2000441e 	bne	r4,zero,806ba4 <___vfprintf_internal_r+0x20c0>
  806a94:	9480004c 	andi	r18,r18,1
  806a98:	9000421e 	bne	r18,zero,806ba4 <___vfprintf_internal_r+0x20c0>
  806a9c:	1805883a 	mov	r2,r3
  806aa0:	18007016 	blt	r3,zero,806c64 <___vfprintf_internal_r+0x2180>
  806aa4:	d8c03217 	ldw	r3,200(sp)
  806aa8:	d8c02e15 	stw	r3,184(sp)
  806aac:	003e0206 	br	8062b8 <__alt_mem_onchip_mem+0xff7862b8>
  806ab0:	df0022c4 	addi	fp,sp,139
  806ab4:	dc002915 	stw	r16,164(sp)
  806ab8:	4027883a 	mov	r19,r8
  806abc:	e021883a 	mov	r16,fp
  806ac0:	b009883a 	mov	r4,r22
  806ac4:	01400284 	movi	r5,10
  806ac8:	080d2600 	call	80d260 <__modsi3>
  806acc:	10800c04 	addi	r2,r2,48
  806ad0:	843fffc4 	addi	r16,r16,-1
  806ad4:	b009883a 	mov	r4,r22
  806ad8:	01400284 	movi	r5,10
  806adc:	80800005 	stb	r2,0(r16)
  806ae0:	080d1dc0 	call	80d1dc <__divsi3>
  806ae4:	102d883a 	mov	r22,r2
  806ae8:	00800244 	movi	r2,9
  806aec:	15bff416 	blt	r2,r22,806ac0 <__alt_mem_onchip_mem+0xff786ac0>
  806af0:	9811883a 	mov	r8,r19
  806af4:	b0800c04 	addi	r2,r22,48
  806af8:	8027883a 	mov	r19,r16
  806afc:	997fffc4 	addi	r5,r19,-1
  806b00:	98bfffc5 	stb	r2,-1(r19)
  806b04:	dc002917 	ldw	r16,164(sp)
  806b08:	2f006a2e 	bgeu	r5,fp,806cb4 <___vfprintf_internal_r+0x21d0>
  806b0c:	d9c02384 	addi	r7,sp,142
  806b10:	3ccfc83a 	sub	r7,r7,r19
  806b14:	d9002344 	addi	r4,sp,141
  806b18:	e1cf883a 	add	r7,fp,r7
  806b1c:	00000106 	br	806b24 <___vfprintf_internal_r+0x2040>
  806b20:	28800003 	ldbu	r2,0(r5)
  806b24:	20800005 	stb	r2,0(r4)
  806b28:	21000044 	addi	r4,r4,1
  806b2c:	29400044 	addi	r5,r5,1
  806b30:	393ffb1e 	bne	r7,r4,806b20 <__alt_mem_onchip_mem+0xff786b20>
  806b34:	d8802304 	addi	r2,sp,140
  806b38:	14c5c83a 	sub	r2,r2,r19
  806b3c:	d8c02344 	addi	r3,sp,141
  806b40:	1885883a 	add	r2,r3,r2
  806b44:	003f7006 	br	806908 <__alt_mem_onchip_mem+0xff786908>
  806b48:	0005883a 	mov	r2,zero
  806b4c:	003f0f06 	br	80678c <__alt_mem_onchip_mem+0xff78678c>
  806b50:	d8c03217 	ldw	r3,200(sp)
  806b54:	18c00044 	addi	r3,r3,1
  806b58:	d8c02e15 	stw	r3,184(sp)
  806b5c:	1805883a 	mov	r2,r3
  806b60:	183fb20e 	bge	r3,zero,806a2c <__alt_mem_onchip_mem+0xff786a2c>
  806b64:	0005883a 	mov	r2,zero
  806b68:	003fb006 	br	806a2c <__alt_mem_onchip_mem+0xff786a2c>
  806b6c:	d9003617 	ldw	r4,216(sp)
  806b70:	000d883a 	mov	r6,zero
  806b74:	000f883a 	mov	r7,zero
  806b78:	980b883a 	mov	r5,r19
  806b7c:	d8c03c15 	stw	r3,240(sp)
  806b80:	da003d15 	stw	r8,244(sp)
  806b84:	080e5240 	call	80e524 <__eqdf2>
  806b88:	d8c03c17 	ldw	r3,240(sp)
  806b8c:	da003d17 	ldw	r8,244(sp)
  806b90:	103f9826 	beq	r2,zero,8069f4 <__alt_mem_onchip_mem+0xff7869f4>
  806b94:	00800044 	movi	r2,1
  806b98:	10c7c83a 	sub	r3,r2,r3
  806b9c:	d8c02615 	stw	r3,152(sp)
  806ba0:	003f9506 	br	8069f8 <__alt_mem_onchip_mem+0xff7869f8>
  806ba4:	d9002917 	ldw	r4,164(sp)
  806ba8:	d8c03217 	ldw	r3,200(sp)
  806bac:	20800044 	addi	r2,r4,1
  806bb0:	1885883a 	add	r2,r3,r2
  806bb4:	d8802e15 	stw	r2,184(sp)
  806bb8:	103dbf0e 	bge	r2,zero,8062b8 <__alt_mem_onchip_mem+0xff7862b8>
  806bbc:	0005883a 	mov	r2,zero
  806bc0:	003dbd06 	br	8062b8 <__alt_mem_onchip_mem+0xff7862b8>
  806bc4:	2000211e 	bne	r4,zero,806c4c <___vfprintf_internal_r+0x2168>
  806bc8:	9480004c 	andi	r18,r18,1
  806bcc:	90001f1e 	bne	r18,zero,806c4c <___vfprintf_internal_r+0x2168>
  806bd0:	00800044 	movi	r2,1
  806bd4:	d8802e15 	stw	r2,184(sp)
  806bd8:	003db706 	br	8062b8 <__alt_mem_onchip_mem+0xff7862b8>
  806bdc:	00800b44 	movi	r2,45
  806be0:	05adc83a 	sub	r22,zero,r22
  806be4:	d8802305 	stb	r2,140(sp)
  806be8:	003f3f06 	br	8068e8 <__alt_mem_onchip_mem+0xff7868e8>
  806bec:	0005883a 	mov	r2,zero
  806bf0:	003f5206 	br	80693c <__alt_mem_onchip_mem+0xff78693c>
  806bf4:	90a4703a 	and	r18,r18,r2
  806bf8:	903f4e26 	beq	r18,zero,806934 <__alt_mem_onchip_mem+0xff786934>
  806bfc:	003f4a06 	br	806928 <__alt_mem_onchip_mem+0xff786928>
  806c00:	00800084 	movi	r2,2
  806c04:	10c5c83a 	sub	r2,r2,r3
  806c08:	003f8406 	br	806a1c <__alt_mem_onchip_mem+0xff786a1c>
  806c0c:	d8802d17 	ldw	r2,180(sp)
  806c10:	d9002d17 	ldw	r4,180(sp)
  806c14:	ac400043 	ldbu	r17,1(r21)
  806c18:	10800017 	ldw	r2,0(r2)
  806c1c:	582b883a 	mov	r21,r11
  806c20:	d8802915 	stw	r2,164(sp)
  806c24:	20800104 	addi	r2,r4,4
  806c28:	d9002917 	ldw	r4,164(sp)
  806c2c:	d8802d15 	stw	r2,180(sp)
  806c30:	203e7a0e 	bge	r4,zero,80661c <__alt_mem_onchip_mem+0xff78661c>
  806c34:	8c403fcc 	andi	r17,r17,255
  806c38:	00bfffc4 	movi	r2,-1
  806c3c:	8c40201c 	xori	r17,r17,128
  806c40:	d8802915 	stw	r2,164(sp)
  806c44:	8c7fe004 	addi	r17,r17,-128
  806c48:	00380706 	br	804c68 <__alt_mem_onchip_mem+0xff784c68>
  806c4c:	d8c02917 	ldw	r3,164(sp)
  806c50:	18c00084 	addi	r3,r3,2
  806c54:	d8c02e15 	stw	r3,184(sp)
  806c58:	1805883a 	mov	r2,r3
  806c5c:	183d960e 	bge	r3,zero,8062b8 <__alt_mem_onchip_mem+0xff7862b8>
  806c60:	003fd606 	br	806bbc <__alt_mem_onchip_mem+0xff786bbc>
  806c64:	0005883a 	mov	r2,zero
  806c68:	003f8e06 	br	806aa4 <__alt_mem_onchip_mem+0xff786aa4>
  806c6c:	9080004c 	andi	r2,r18,1
  806c70:	103f811e 	bne	r2,zero,806a78 <__alt_mem_onchip_mem+0xff786a78>
  806c74:	d8802117 	ldw	r2,132(sp)
  806c78:	1405c83a 	sub	r2,r2,r16
  806c7c:	d8803315 	stw	r2,204(sp)
  806c80:	b47ef326 	beq	r22,r17,806850 <__alt_mem_onchip_mem+0xff786850>
  806c84:	dd802617 	ldw	r22,152(sp)
  806c88:	003f1106 	br	8068d0 <__alt_mem_onchip_mem+0xff7868d0>
  806c8c:	d9c02785 	stb	r7,158(sp)
  806c90:	00390406 	br	8050a4 <__alt_mem_onchip_mem+0xff7850a4>
  806c94:	d9c02785 	stb	r7,158(sp)
  806c98:	0038d306 	br	804fe8 <__alt_mem_onchip_mem+0xff784fe8>
  806c9c:	d9c02785 	stb	r7,158(sp)
  806ca0:	003a6106 	br	805628 <__alt_mem_onchip_mem+0xff785628>
  806ca4:	d9c02785 	stb	r7,158(sp)
  806ca8:	003af806 	br	80588c <__alt_mem_onchip_mem+0xff78588c>
  806cac:	0005883a 	mov	r2,zero
  806cb0:	003d7e06 	br	8062ac <__alt_mem_onchip_mem+0xff7862ac>
  806cb4:	d8802344 	addi	r2,sp,141
  806cb8:	003f1306 	br	806908 <__alt_mem_onchip_mem+0xff786908>
  806cbc:	d9c02785 	stb	r7,158(sp)
  806cc0:	00392306 	br	805150 <__alt_mem_onchip_mem+0xff785150>
  806cc4:	d9c02785 	stb	r7,158(sp)
  806cc8:	003aa906 	br	805770 <__alt_mem_onchip_mem+0xff785770>
  806ccc:	d9c02785 	stb	r7,158(sp)
  806cd0:	003a3d06 	br	8055c8 <__alt_mem_onchip_mem+0xff7855c8>
  806cd4:	d9c02785 	stb	r7,158(sp)
  806cd8:	003aca06 	br	805804 <__alt_mem_onchip_mem+0xff785804>

00806cdc <__vfprintf_internal>:
  806cdc:	00802074 	movhi	r2,129
  806ce0:	10979804 	addi	r2,r2,24160
  806ce4:	300f883a 	mov	r7,r6
  806ce8:	280d883a 	mov	r6,r5
  806cec:	200b883a 	mov	r5,r4
  806cf0:	11000017 	ldw	r4,0(r2)
  806cf4:	0804ae41 	jmpi	804ae4 <___vfprintf_internal_r>

00806cf8 <__sbprintf>:
  806cf8:	2880030b 	ldhu	r2,12(r5)
  806cfc:	2ac01917 	ldw	r11,100(r5)
  806d00:	2a80038b 	ldhu	r10,14(r5)
  806d04:	2a400717 	ldw	r9,28(r5)
  806d08:	2a000917 	ldw	r8,36(r5)
  806d0c:	defee204 	addi	sp,sp,-1144
  806d10:	00c10004 	movi	r3,1024
  806d14:	dc011a15 	stw	r16,1128(sp)
  806d18:	10bfff4c 	andi	r2,r2,65533
  806d1c:	2821883a 	mov	r16,r5
  806d20:	d8cb883a 	add	r5,sp,r3
  806d24:	dc811c15 	stw	r18,1136(sp)
  806d28:	dc411b15 	stw	r17,1132(sp)
  806d2c:	dfc11d15 	stw	ra,1140(sp)
  806d30:	2025883a 	mov	r18,r4
  806d34:	d881030d 	sth	r2,1036(sp)
  806d38:	dac11915 	stw	r11,1124(sp)
  806d3c:	da81038d 	sth	r10,1038(sp)
  806d40:	da410715 	stw	r9,1052(sp)
  806d44:	da010915 	stw	r8,1060(sp)
  806d48:	dec10015 	stw	sp,1024(sp)
  806d4c:	dec10415 	stw	sp,1040(sp)
  806d50:	d8c10215 	stw	r3,1032(sp)
  806d54:	d8c10515 	stw	r3,1044(sp)
  806d58:	d8010615 	stw	zero,1048(sp)
  806d5c:	0804ae40 	call	804ae4 <___vfprintf_internal_r>
  806d60:	1023883a 	mov	r17,r2
  806d64:	10000416 	blt	r2,zero,806d78 <__sbprintf+0x80>
  806d68:	d9410004 	addi	r5,sp,1024
  806d6c:	9009883a 	mov	r4,r18
  806d70:	08029200 	call	802920 <_fflush_r>
  806d74:	10000d1e 	bne	r2,zero,806dac <__sbprintf+0xb4>
  806d78:	d881030b 	ldhu	r2,1036(sp)
  806d7c:	1080100c 	andi	r2,r2,64
  806d80:	10000326 	beq	r2,zero,806d90 <__sbprintf+0x98>
  806d84:	8080030b 	ldhu	r2,12(r16)
  806d88:	10801014 	ori	r2,r2,64
  806d8c:	8080030d 	sth	r2,12(r16)
  806d90:	8805883a 	mov	r2,r17
  806d94:	dfc11d17 	ldw	ra,1140(sp)
  806d98:	dc811c17 	ldw	r18,1136(sp)
  806d9c:	dc411b17 	ldw	r17,1132(sp)
  806da0:	dc011a17 	ldw	r16,1128(sp)
  806da4:	dec11e04 	addi	sp,sp,1144
  806da8:	f800283a 	ret
  806dac:	047fffc4 	movi	r17,-1
  806db0:	003ff106 	br	806d78 <__alt_mem_onchip_mem+0xff786d78>

00806db4 <_write_r>:
  806db4:	defffd04 	addi	sp,sp,-12
  806db8:	2805883a 	mov	r2,r5
  806dbc:	dc000015 	stw	r16,0(sp)
  806dc0:	04002074 	movhi	r16,129
  806dc4:	dc400115 	stw	r17,4(sp)
  806dc8:	300b883a 	mov	r5,r6
  806dcc:	841f1b04 	addi	r16,r16,31852
  806dd0:	2023883a 	mov	r17,r4
  806dd4:	380d883a 	mov	r6,r7
  806dd8:	1009883a 	mov	r4,r2
  806ddc:	dfc00215 	stw	ra,8(sp)
  806de0:	80000015 	stw	zero,0(r16)
  806de4:	08107680 	call	810768 <write>
  806de8:	00ffffc4 	movi	r3,-1
  806dec:	10c00526 	beq	r2,r3,806e04 <_write_r+0x50>
  806df0:	dfc00217 	ldw	ra,8(sp)
  806df4:	dc400117 	ldw	r17,4(sp)
  806df8:	dc000017 	ldw	r16,0(sp)
  806dfc:	dec00304 	addi	sp,sp,12
  806e00:	f800283a 	ret
  806e04:	80c00017 	ldw	r3,0(r16)
  806e08:	183ff926 	beq	r3,zero,806df0 <__alt_mem_onchip_mem+0xff786df0>
  806e0c:	88c00015 	stw	r3,0(r17)
  806e10:	003ff706 	br	806df0 <__alt_mem_onchip_mem+0xff786df0>

00806e14 <__swsetup_r>:
  806e14:	00802074 	movhi	r2,129
  806e18:	defffd04 	addi	sp,sp,-12
  806e1c:	10979804 	addi	r2,r2,24160
  806e20:	dc400115 	stw	r17,4(sp)
  806e24:	2023883a 	mov	r17,r4
  806e28:	11000017 	ldw	r4,0(r2)
  806e2c:	dc000015 	stw	r16,0(sp)
  806e30:	dfc00215 	stw	ra,8(sp)
  806e34:	2821883a 	mov	r16,r5
  806e38:	20000226 	beq	r4,zero,806e44 <__swsetup_r+0x30>
  806e3c:	20800e17 	ldw	r2,56(r4)
  806e40:	10003126 	beq	r2,zero,806f08 <__swsetup_r+0xf4>
  806e44:	8080030b 	ldhu	r2,12(r16)
  806e48:	10c0020c 	andi	r3,r2,8
  806e4c:	1009883a 	mov	r4,r2
  806e50:	18000f26 	beq	r3,zero,806e90 <__swsetup_r+0x7c>
  806e54:	80c00417 	ldw	r3,16(r16)
  806e58:	18001526 	beq	r3,zero,806eb0 <__swsetup_r+0x9c>
  806e5c:	1100004c 	andi	r4,r2,1
  806e60:	20001c1e 	bne	r4,zero,806ed4 <__swsetup_r+0xc0>
  806e64:	1080008c 	andi	r2,r2,2
  806e68:	1000291e 	bne	r2,zero,806f10 <__swsetup_r+0xfc>
  806e6c:	80800517 	ldw	r2,20(r16)
  806e70:	80800215 	stw	r2,8(r16)
  806e74:	18001c26 	beq	r3,zero,806ee8 <__swsetup_r+0xd4>
  806e78:	0005883a 	mov	r2,zero
  806e7c:	dfc00217 	ldw	ra,8(sp)
  806e80:	dc400117 	ldw	r17,4(sp)
  806e84:	dc000017 	ldw	r16,0(sp)
  806e88:	dec00304 	addi	sp,sp,12
  806e8c:	f800283a 	ret
  806e90:	2080040c 	andi	r2,r4,16
  806e94:	10002e26 	beq	r2,zero,806f50 <__swsetup_r+0x13c>
  806e98:	2080010c 	andi	r2,r4,4
  806e9c:	10001e1e 	bne	r2,zero,806f18 <__swsetup_r+0x104>
  806ea0:	80c00417 	ldw	r3,16(r16)
  806ea4:	20800214 	ori	r2,r4,8
  806ea8:	8080030d 	sth	r2,12(r16)
  806eac:	183feb1e 	bne	r3,zero,806e5c <__alt_mem_onchip_mem+0xff786e5c>
  806eb0:	1100a00c 	andi	r4,r2,640
  806eb4:	01408004 	movi	r5,512
  806eb8:	217fe826 	beq	r4,r5,806e5c <__alt_mem_onchip_mem+0xff786e5c>
  806ebc:	800b883a 	mov	r5,r16
  806ec0:	8809883a 	mov	r4,r17
  806ec4:	0803a3c0 	call	803a3c <__smakebuf_r>
  806ec8:	8080030b 	ldhu	r2,12(r16)
  806ecc:	80c00417 	ldw	r3,16(r16)
  806ed0:	003fe206 	br	806e5c <__alt_mem_onchip_mem+0xff786e5c>
  806ed4:	80800517 	ldw	r2,20(r16)
  806ed8:	80000215 	stw	zero,8(r16)
  806edc:	0085c83a 	sub	r2,zero,r2
  806ee0:	80800615 	stw	r2,24(r16)
  806ee4:	183fe41e 	bne	r3,zero,806e78 <__alt_mem_onchip_mem+0xff786e78>
  806ee8:	80c0030b 	ldhu	r3,12(r16)
  806eec:	0005883a 	mov	r2,zero
  806ef0:	1900200c 	andi	r4,r3,128
  806ef4:	203fe126 	beq	r4,zero,806e7c <__alt_mem_onchip_mem+0xff786e7c>
  806ef8:	18c01014 	ori	r3,r3,64
  806efc:	80c0030d 	sth	r3,12(r16)
  806f00:	00bfffc4 	movi	r2,-1
  806f04:	003fdd06 	br	806e7c <__alt_mem_onchip_mem+0xff786e7c>
  806f08:	0802cfc0 	call	802cfc <__sinit>
  806f0c:	003fcd06 	br	806e44 <__alt_mem_onchip_mem+0xff786e44>
  806f10:	0005883a 	mov	r2,zero
  806f14:	003fd606 	br	806e70 <__alt_mem_onchip_mem+0xff786e70>
  806f18:	81400c17 	ldw	r5,48(r16)
  806f1c:	28000626 	beq	r5,zero,806f38 <__swsetup_r+0x124>
  806f20:	80801004 	addi	r2,r16,64
  806f24:	28800326 	beq	r5,r2,806f34 <__swsetup_r+0x120>
  806f28:	8809883a 	mov	r4,r17
  806f2c:	0802fc80 	call	802fc8 <_free_r>
  806f30:	8100030b 	ldhu	r4,12(r16)
  806f34:	80000c15 	stw	zero,48(r16)
  806f38:	80c00417 	ldw	r3,16(r16)
  806f3c:	00bff6c4 	movi	r2,-37
  806f40:	1108703a 	and	r4,r2,r4
  806f44:	80000115 	stw	zero,4(r16)
  806f48:	80c00015 	stw	r3,0(r16)
  806f4c:	003fd506 	br	806ea4 <__alt_mem_onchip_mem+0xff786ea4>
  806f50:	00800244 	movi	r2,9
  806f54:	88800015 	stw	r2,0(r17)
  806f58:	20801014 	ori	r2,r4,64
  806f5c:	8080030d 	sth	r2,12(r16)
  806f60:	00bfffc4 	movi	r2,-1
  806f64:	003fc506 	br	806e7c <__alt_mem_onchip_mem+0xff786e7c>

00806f68 <_close_r>:
  806f68:	defffd04 	addi	sp,sp,-12
  806f6c:	dc000015 	stw	r16,0(sp)
  806f70:	04002074 	movhi	r16,129
  806f74:	dc400115 	stw	r17,4(sp)
  806f78:	841f1b04 	addi	r16,r16,31852
  806f7c:	2023883a 	mov	r17,r4
  806f80:	2809883a 	mov	r4,r5
  806f84:	dfc00215 	stw	ra,8(sp)
  806f88:	80000015 	stw	zero,0(r16)
  806f8c:	080fb600 	call	80fb60 <close>
  806f90:	00ffffc4 	movi	r3,-1
  806f94:	10c00526 	beq	r2,r3,806fac <_close_r+0x44>
  806f98:	dfc00217 	ldw	ra,8(sp)
  806f9c:	dc400117 	ldw	r17,4(sp)
  806fa0:	dc000017 	ldw	r16,0(sp)
  806fa4:	dec00304 	addi	sp,sp,12
  806fa8:	f800283a 	ret
  806fac:	80c00017 	ldw	r3,0(r16)
  806fb0:	183ff926 	beq	r3,zero,806f98 <__alt_mem_onchip_mem+0xff786f98>
  806fb4:	88c00015 	stw	r3,0(r17)
  806fb8:	003ff706 	br	806f98 <__alt_mem_onchip_mem+0xff786f98>

00806fbc <quorem>:
  806fbc:	defff704 	addi	sp,sp,-36
  806fc0:	dc800215 	stw	r18,8(sp)
  806fc4:	20800417 	ldw	r2,16(r4)
  806fc8:	2c800417 	ldw	r18,16(r5)
  806fcc:	dfc00815 	stw	ra,32(sp)
  806fd0:	ddc00715 	stw	r23,28(sp)
  806fd4:	dd800615 	stw	r22,24(sp)
  806fd8:	dd400515 	stw	r21,20(sp)
  806fdc:	dd000415 	stw	r20,16(sp)
  806fe0:	dcc00315 	stw	r19,12(sp)
  806fe4:	dc400115 	stw	r17,4(sp)
  806fe8:	dc000015 	stw	r16,0(sp)
  806fec:	14807116 	blt	r2,r18,8071b4 <quorem+0x1f8>
  806ff0:	94bfffc4 	addi	r18,r18,-1
  806ff4:	94ad883a 	add	r22,r18,r18
  806ff8:	b5ad883a 	add	r22,r22,r22
  806ffc:	2c400504 	addi	r17,r5,20
  807000:	8da9883a 	add	r20,r17,r22
  807004:	25400504 	addi	r21,r4,20
  807008:	282f883a 	mov	r23,r5
  80700c:	adad883a 	add	r22,r21,r22
  807010:	a1400017 	ldw	r5,0(r20)
  807014:	2021883a 	mov	r16,r4
  807018:	b1000017 	ldw	r4,0(r22)
  80701c:	29400044 	addi	r5,r5,1
  807020:	080d2d40 	call	80d2d4 <__udivsi3>
  807024:	1027883a 	mov	r19,r2
  807028:	10002c26 	beq	r2,zero,8070dc <quorem+0x120>
  80702c:	a813883a 	mov	r9,r21
  807030:	880b883a 	mov	r5,r17
  807034:	0009883a 	mov	r4,zero
  807038:	000d883a 	mov	r6,zero
  80703c:	2a000017 	ldw	r8,0(r5)
  807040:	49c00017 	ldw	r7,0(r9)
  807044:	29400104 	addi	r5,r5,4
  807048:	40bfffcc 	andi	r2,r8,65535
  80704c:	14c5383a 	mul	r2,r2,r19
  807050:	4010d43a 	srli	r8,r8,16
  807054:	38ffffcc 	andi	r3,r7,65535
  807058:	1105883a 	add	r2,r2,r4
  80705c:	1008d43a 	srli	r4,r2,16
  807060:	44d1383a 	mul	r8,r8,r19
  807064:	198d883a 	add	r6,r3,r6
  807068:	10ffffcc 	andi	r3,r2,65535
  80706c:	30c7c83a 	sub	r3,r6,r3
  807070:	380ed43a 	srli	r7,r7,16
  807074:	4105883a 	add	r2,r8,r4
  807078:	180dd43a 	srai	r6,r3,16
  80707c:	113fffcc 	andi	r4,r2,65535
  807080:	390fc83a 	sub	r7,r7,r4
  807084:	398d883a 	add	r6,r7,r6
  807088:	300e943a 	slli	r7,r6,16
  80708c:	18ffffcc 	andi	r3,r3,65535
  807090:	1008d43a 	srli	r4,r2,16
  807094:	38ceb03a 	or	r7,r7,r3
  807098:	49c00015 	stw	r7,0(r9)
  80709c:	300dd43a 	srai	r6,r6,16
  8070a0:	4a400104 	addi	r9,r9,4
  8070a4:	a17fe52e 	bgeu	r20,r5,80703c <__alt_mem_onchip_mem+0xff78703c>
  8070a8:	b0800017 	ldw	r2,0(r22)
  8070ac:	10000b1e 	bne	r2,zero,8070dc <quorem+0x120>
  8070b0:	b0bfff04 	addi	r2,r22,-4
  8070b4:	a880082e 	bgeu	r21,r2,8070d8 <quorem+0x11c>
  8070b8:	b0ffff17 	ldw	r3,-4(r22)
  8070bc:	18000326 	beq	r3,zero,8070cc <quorem+0x110>
  8070c0:	00000506 	br	8070d8 <quorem+0x11c>
  8070c4:	10c00017 	ldw	r3,0(r2)
  8070c8:	1800031e 	bne	r3,zero,8070d8 <quorem+0x11c>
  8070cc:	10bfff04 	addi	r2,r2,-4
  8070d0:	94bfffc4 	addi	r18,r18,-1
  8070d4:	a8bffb36 	bltu	r21,r2,8070c4 <__alt_mem_onchip_mem+0xff7870c4>
  8070d8:	84800415 	stw	r18,16(r16)
  8070dc:	b80b883a 	mov	r5,r23
  8070e0:	8009883a 	mov	r4,r16
  8070e4:	0809c900 	call	809c90 <__mcmp>
  8070e8:	10002616 	blt	r2,zero,807184 <quorem+0x1c8>
  8070ec:	9cc00044 	addi	r19,r19,1
  8070f0:	a805883a 	mov	r2,r21
  8070f4:	000b883a 	mov	r5,zero
  8070f8:	11000017 	ldw	r4,0(r2)
  8070fc:	89800017 	ldw	r6,0(r17)
  807100:	10800104 	addi	r2,r2,4
  807104:	20ffffcc 	andi	r3,r4,65535
  807108:	194b883a 	add	r5,r3,r5
  80710c:	30ffffcc 	andi	r3,r6,65535
  807110:	28c7c83a 	sub	r3,r5,r3
  807114:	300cd43a 	srli	r6,r6,16
  807118:	2008d43a 	srli	r4,r4,16
  80711c:	180bd43a 	srai	r5,r3,16
  807120:	18ffffcc 	andi	r3,r3,65535
  807124:	2189c83a 	sub	r4,r4,r6
  807128:	2149883a 	add	r4,r4,r5
  80712c:	200c943a 	slli	r6,r4,16
  807130:	8c400104 	addi	r17,r17,4
  807134:	200bd43a 	srai	r5,r4,16
  807138:	30c6b03a 	or	r3,r6,r3
  80713c:	10ffff15 	stw	r3,-4(r2)
  807140:	a47fed2e 	bgeu	r20,r17,8070f8 <__alt_mem_onchip_mem+0xff7870f8>
  807144:	9485883a 	add	r2,r18,r18
  807148:	1085883a 	add	r2,r2,r2
  80714c:	a887883a 	add	r3,r21,r2
  807150:	18800017 	ldw	r2,0(r3)
  807154:	10000b1e 	bne	r2,zero,807184 <quorem+0x1c8>
  807158:	18bfff04 	addi	r2,r3,-4
  80715c:	a880082e 	bgeu	r21,r2,807180 <quorem+0x1c4>
  807160:	18ffff17 	ldw	r3,-4(r3)
  807164:	18000326 	beq	r3,zero,807174 <quorem+0x1b8>
  807168:	00000506 	br	807180 <quorem+0x1c4>
  80716c:	10c00017 	ldw	r3,0(r2)
  807170:	1800031e 	bne	r3,zero,807180 <quorem+0x1c4>
  807174:	10bfff04 	addi	r2,r2,-4
  807178:	94bfffc4 	addi	r18,r18,-1
  80717c:	a8bffb36 	bltu	r21,r2,80716c <__alt_mem_onchip_mem+0xff78716c>
  807180:	84800415 	stw	r18,16(r16)
  807184:	9805883a 	mov	r2,r19
  807188:	dfc00817 	ldw	ra,32(sp)
  80718c:	ddc00717 	ldw	r23,28(sp)
  807190:	dd800617 	ldw	r22,24(sp)
  807194:	dd400517 	ldw	r21,20(sp)
  807198:	dd000417 	ldw	r20,16(sp)
  80719c:	dcc00317 	ldw	r19,12(sp)
  8071a0:	dc800217 	ldw	r18,8(sp)
  8071a4:	dc400117 	ldw	r17,4(sp)
  8071a8:	dc000017 	ldw	r16,0(sp)
  8071ac:	dec00904 	addi	sp,sp,36
  8071b0:	f800283a 	ret
  8071b4:	0005883a 	mov	r2,zero
  8071b8:	003ff306 	br	807188 <__alt_mem_onchip_mem+0xff787188>

008071bc <_dtoa_r>:
  8071bc:	20801017 	ldw	r2,64(r4)
  8071c0:	deffde04 	addi	sp,sp,-136
  8071c4:	df002015 	stw	fp,128(sp)
  8071c8:	dcc01b15 	stw	r19,108(sp)
  8071cc:	dc801a15 	stw	r18,104(sp)
  8071d0:	dc401915 	stw	r17,100(sp)
  8071d4:	dc001815 	stw	r16,96(sp)
  8071d8:	dfc02115 	stw	ra,132(sp)
  8071dc:	ddc01f15 	stw	r23,124(sp)
  8071e0:	dd801e15 	stw	r22,120(sp)
  8071e4:	dd401d15 	stw	r21,116(sp)
  8071e8:	dd001c15 	stw	r20,112(sp)
  8071ec:	d9c00315 	stw	r7,12(sp)
  8071f0:	2039883a 	mov	fp,r4
  8071f4:	3023883a 	mov	r17,r6
  8071f8:	2825883a 	mov	r18,r5
  8071fc:	dc002417 	ldw	r16,144(sp)
  807200:	3027883a 	mov	r19,r6
  807204:	10000826 	beq	r2,zero,807228 <_dtoa_r+0x6c>
  807208:	21801117 	ldw	r6,68(r4)
  80720c:	00c00044 	movi	r3,1
  807210:	100b883a 	mov	r5,r2
  807214:	1986983a 	sll	r3,r3,r6
  807218:	11800115 	stw	r6,4(r2)
  80721c:	10c00215 	stw	r3,8(r2)
  807220:	08094700 	call	809470 <_Bfree>
  807224:	e0001015 	stw	zero,64(fp)
  807228:	88002e16 	blt	r17,zero,8072e4 <_dtoa_r+0x128>
  80722c:	80000015 	stw	zero,0(r16)
  807230:	889ffc2c 	andhi	r2,r17,32752
  807234:	00dffc34 	movhi	r3,32752
  807238:	10c01c26 	beq	r2,r3,8072ac <_dtoa_r+0xf0>
  80723c:	000d883a 	mov	r6,zero
  807240:	000f883a 	mov	r7,zero
  807244:	9009883a 	mov	r4,r18
  807248:	980b883a 	mov	r5,r19
  80724c:	080e5240 	call	80e524 <__eqdf2>
  807250:	10002b1e 	bne	r2,zero,807300 <_dtoa_r+0x144>
  807254:	d9c02317 	ldw	r7,140(sp)
  807258:	00800044 	movi	r2,1
  80725c:	38800015 	stw	r2,0(r7)
  807260:	d8802517 	ldw	r2,148(sp)
  807264:	10019e26 	beq	r2,zero,8078e0 <_dtoa_r+0x724>
  807268:	d8c02517 	ldw	r3,148(sp)
  80726c:	00802074 	movhi	r2,129
  807270:	108f2044 	addi	r2,r2,15489
  807274:	18800015 	stw	r2,0(r3)
  807278:	10bfffc4 	addi	r2,r2,-1
  80727c:	dfc02117 	ldw	ra,132(sp)
  807280:	df002017 	ldw	fp,128(sp)
  807284:	ddc01f17 	ldw	r23,124(sp)
  807288:	dd801e17 	ldw	r22,120(sp)
  80728c:	dd401d17 	ldw	r21,116(sp)
  807290:	dd001c17 	ldw	r20,112(sp)
  807294:	dcc01b17 	ldw	r19,108(sp)
  807298:	dc801a17 	ldw	r18,104(sp)
  80729c:	dc401917 	ldw	r17,100(sp)
  8072a0:	dc001817 	ldw	r16,96(sp)
  8072a4:	dec02204 	addi	sp,sp,136
  8072a8:	f800283a 	ret
  8072ac:	d8c02317 	ldw	r3,140(sp)
  8072b0:	0089c3c4 	movi	r2,9999
  8072b4:	18800015 	stw	r2,0(r3)
  8072b8:	90017726 	beq	r18,zero,807898 <_dtoa_r+0x6dc>
  8072bc:	00802074 	movhi	r2,129
  8072c0:	108f2c04 	addi	r2,r2,15536
  8072c4:	d9002517 	ldw	r4,148(sp)
  8072c8:	203fec26 	beq	r4,zero,80727c <__alt_mem_onchip_mem+0xff78727c>
  8072cc:	10c000c7 	ldb	r3,3(r2)
  8072d0:	1801781e 	bne	r3,zero,8078b4 <_dtoa_r+0x6f8>
  8072d4:	10c000c4 	addi	r3,r2,3
  8072d8:	d9802517 	ldw	r6,148(sp)
  8072dc:	30c00015 	stw	r3,0(r6)
  8072e0:	003fe606 	br	80727c <__alt_mem_onchip_mem+0xff78727c>
  8072e4:	04e00034 	movhi	r19,32768
  8072e8:	9cffffc4 	addi	r19,r19,-1
  8072ec:	00800044 	movi	r2,1
  8072f0:	8ce6703a 	and	r19,r17,r19
  8072f4:	80800015 	stw	r2,0(r16)
  8072f8:	9823883a 	mov	r17,r19
  8072fc:	003fcc06 	br	807230 <__alt_mem_onchip_mem+0xff787230>
  807300:	d8800204 	addi	r2,sp,8
  807304:	d8800015 	stw	r2,0(sp)
  807308:	d9c00104 	addi	r7,sp,4
  80730c:	900b883a 	mov	r5,r18
  807310:	980d883a 	mov	r6,r19
  807314:	e009883a 	mov	r4,fp
  807318:	8820d53a 	srli	r16,r17,20
  80731c:	080a05c0 	call	80a05c <__d2b>
  807320:	d8800915 	stw	r2,36(sp)
  807324:	8001651e 	bne	r16,zero,8078bc <_dtoa_r+0x700>
  807328:	dd800217 	ldw	r22,8(sp)
  80732c:	dc000117 	ldw	r16,4(sp)
  807330:	00800804 	movi	r2,32
  807334:	b421883a 	add	r16,r22,r16
  807338:	80c10c84 	addi	r3,r16,1074
  80733c:	10c2d10e 	bge	r2,r3,807e84 <_dtoa_r+0xcc8>
  807340:	00801004 	movi	r2,64
  807344:	81010484 	addi	r4,r16,1042
  807348:	10c7c83a 	sub	r3,r2,r3
  80734c:	9108d83a 	srl	r4,r18,r4
  807350:	88e2983a 	sll	r17,r17,r3
  807354:	2448b03a 	or	r4,r4,r17
  807358:	080f8ec0 	call	80f8ec <__floatunsidf>
  80735c:	017f8434 	movhi	r5,65040
  807360:	01800044 	movi	r6,1
  807364:	1009883a 	mov	r4,r2
  807368:	194b883a 	add	r5,r3,r5
  80736c:	843fffc4 	addi	r16,r16,-1
  807370:	d9801115 	stw	r6,68(sp)
  807374:	000d883a 	mov	r6,zero
  807378:	01cffe34 	movhi	r7,16376
  80737c:	080ee940 	call	80ee94 <__subdf3>
  807380:	0198dbf4 	movhi	r6,25455
  807384:	01cff4f4 	movhi	r7,16339
  807388:	3190d844 	addi	r6,r6,17249
  80738c:	39e1e9c4 	addi	r7,r7,-30809
  807390:	1009883a 	mov	r4,r2
  807394:	180b883a 	mov	r5,r3
  807398:	080e77c0 	call	80e77c <__muldf3>
  80739c:	01a2d874 	movhi	r6,35681
  8073a0:	01cff1f4 	movhi	r7,16327
  8073a4:	31b22cc4 	addi	r6,r6,-14157
  8073a8:	39e28a04 	addi	r7,r7,-30168
  8073ac:	180b883a 	mov	r5,r3
  8073b0:	1009883a 	mov	r4,r2
  8073b4:	080d3900 	call	80d390 <__adddf3>
  8073b8:	8009883a 	mov	r4,r16
  8073bc:	1029883a 	mov	r20,r2
  8073c0:	1823883a 	mov	r17,r3
  8073c4:	080f8100 	call	80f810 <__floatsidf>
  8073c8:	019427f4 	movhi	r6,20639
  8073cc:	01cff4f4 	movhi	r7,16339
  8073d0:	319e7ec4 	addi	r6,r6,31227
  8073d4:	39d104c4 	addi	r7,r7,17427
  8073d8:	1009883a 	mov	r4,r2
  8073dc:	180b883a 	mov	r5,r3
  8073e0:	080e77c0 	call	80e77c <__muldf3>
  8073e4:	100d883a 	mov	r6,r2
  8073e8:	180f883a 	mov	r7,r3
  8073ec:	a009883a 	mov	r4,r20
  8073f0:	880b883a 	mov	r5,r17
  8073f4:	080d3900 	call	80d390 <__adddf3>
  8073f8:	1009883a 	mov	r4,r2
  8073fc:	180b883a 	mov	r5,r3
  807400:	1029883a 	mov	r20,r2
  807404:	1823883a 	mov	r17,r3
  807408:	080f7900 	call	80f790 <__fixdfsi>
  80740c:	000d883a 	mov	r6,zero
  807410:	000f883a 	mov	r7,zero
  807414:	a009883a 	mov	r4,r20
  807418:	880b883a 	mov	r5,r17
  80741c:	d8800515 	stw	r2,20(sp)
  807420:	080e6880 	call	80e688 <__ledf2>
  807424:	10028716 	blt	r2,zero,807e44 <_dtoa_r+0xc88>
  807428:	d8c00517 	ldw	r3,20(sp)
  80742c:	00800584 	movi	r2,22
  807430:	10c27536 	bltu	r2,r3,807e08 <_dtoa_r+0xc4c>
  807434:	180490fa 	slli	r2,r3,3
  807438:	00c02074 	movhi	r3,129
  80743c:	18cf4704 	addi	r3,r3,15644
  807440:	1885883a 	add	r2,r3,r2
  807444:	11000017 	ldw	r4,0(r2)
  807448:	11400117 	ldw	r5,4(r2)
  80744c:	900d883a 	mov	r6,r18
  807450:	980f883a 	mov	r7,r19
  807454:	080e5ac0 	call	80e5ac <__gedf2>
  807458:	00828d0e 	bge	zero,r2,807e90 <_dtoa_r+0xcd4>
  80745c:	d9000517 	ldw	r4,20(sp)
  807460:	d8000e15 	stw	zero,56(sp)
  807464:	213fffc4 	addi	r4,r4,-1
  807468:	d9000515 	stw	r4,20(sp)
  80746c:	b42dc83a 	sub	r22,r22,r16
  807470:	b5bfffc4 	addi	r22,r22,-1
  807474:	b0026f16 	blt	r22,zero,807e34 <_dtoa_r+0xc78>
  807478:	d8000815 	stw	zero,32(sp)
  80747c:	d9c00517 	ldw	r7,20(sp)
  807480:	38026416 	blt	r7,zero,807e14 <_dtoa_r+0xc58>
  807484:	b1ed883a 	add	r22,r22,r7
  807488:	d9c00d15 	stw	r7,52(sp)
  80748c:	d8000a15 	stw	zero,40(sp)
  807490:	d9800317 	ldw	r6,12(sp)
  807494:	00800244 	movi	r2,9
  807498:	11811436 	bltu	r2,r6,8078ec <_dtoa_r+0x730>
  80749c:	00800144 	movi	r2,5
  8074a0:	1184e10e 	bge	r2,r6,808828 <_dtoa_r+0x166c>
  8074a4:	31bfff04 	addi	r6,r6,-4
  8074a8:	d9800315 	stw	r6,12(sp)
  8074ac:	0023883a 	mov	r17,zero
  8074b0:	d9800317 	ldw	r6,12(sp)
  8074b4:	008000c4 	movi	r2,3
  8074b8:	30836726 	beq	r6,r2,808258 <_dtoa_r+0x109c>
  8074bc:	1183410e 	bge	r2,r6,8081c4 <_dtoa_r+0x1008>
  8074c0:	d9c00317 	ldw	r7,12(sp)
  8074c4:	00800104 	movi	r2,4
  8074c8:	38827c26 	beq	r7,r2,807ebc <_dtoa_r+0xd00>
  8074cc:	00800144 	movi	r2,5
  8074d0:	3884c41e 	bne	r7,r2,8087e4 <_dtoa_r+0x1628>
  8074d4:	00800044 	movi	r2,1
  8074d8:	d8800b15 	stw	r2,44(sp)
  8074dc:	d8c00517 	ldw	r3,20(sp)
  8074e0:	d9002217 	ldw	r4,136(sp)
  8074e4:	1907883a 	add	r3,r3,r4
  8074e8:	19800044 	addi	r6,r3,1
  8074ec:	d8c00c15 	stw	r3,48(sp)
  8074f0:	d9800615 	stw	r6,24(sp)
  8074f4:	0183a40e 	bge	zero,r6,808388 <_dtoa_r+0x11cc>
  8074f8:	d9800617 	ldw	r6,24(sp)
  8074fc:	3021883a 	mov	r16,r6
  807500:	e0001115 	stw	zero,68(fp)
  807504:	008005c4 	movi	r2,23
  807508:	1184c92e 	bgeu	r2,r6,808830 <_dtoa_r+0x1674>
  80750c:	00c00044 	movi	r3,1
  807510:	00800104 	movi	r2,4
  807514:	1085883a 	add	r2,r2,r2
  807518:	11000504 	addi	r4,r2,20
  80751c:	180b883a 	mov	r5,r3
  807520:	18c00044 	addi	r3,r3,1
  807524:	313ffb2e 	bgeu	r6,r4,807514 <__alt_mem_onchip_mem+0xff787514>
  807528:	e1401115 	stw	r5,68(fp)
  80752c:	e009883a 	mov	r4,fp
  807530:	08093c80 	call	8093c8 <_Balloc>
  807534:	d8800715 	stw	r2,28(sp)
  807538:	e0801015 	stw	r2,64(fp)
  80753c:	00800384 	movi	r2,14
  807540:	1400f736 	bltu	r2,r16,807920 <_dtoa_r+0x764>
  807544:	8800f626 	beq	r17,zero,807920 <_dtoa_r+0x764>
  807548:	d9c00517 	ldw	r7,20(sp)
  80754c:	01c39a0e 	bge	zero,r7,8083b8 <_dtoa_r+0x11fc>
  807550:	388003cc 	andi	r2,r7,15
  807554:	100490fa 	slli	r2,r2,3
  807558:	382bd13a 	srai	r21,r7,4
  80755c:	00c02074 	movhi	r3,129
  807560:	18cf4704 	addi	r3,r3,15644
  807564:	1885883a 	add	r2,r3,r2
  807568:	a8c0040c 	andi	r3,r21,16
  80756c:	12400017 	ldw	r9,0(r2)
  807570:	12000117 	ldw	r8,4(r2)
  807574:	18037926 	beq	r3,zero,80835c <_dtoa_r+0x11a0>
  807578:	00802074 	movhi	r2,129
  80757c:	108f3d04 	addi	r2,r2,15604
  807580:	11800817 	ldw	r6,32(r2)
  807584:	11c00917 	ldw	r7,36(r2)
  807588:	9009883a 	mov	r4,r18
  80758c:	980b883a 	mov	r5,r19
  807590:	da001715 	stw	r8,92(sp)
  807594:	da401615 	stw	r9,88(sp)
  807598:	080dc3c0 	call	80dc3c <__divdf3>
  80759c:	da001717 	ldw	r8,92(sp)
  8075a0:	da401617 	ldw	r9,88(sp)
  8075a4:	ad4003cc 	andi	r21,r21,15
  8075a8:	040000c4 	movi	r16,3
  8075ac:	1023883a 	mov	r17,r2
  8075b0:	1829883a 	mov	r20,r3
  8075b4:	a8001126 	beq	r21,zero,8075fc <_dtoa_r+0x440>
  8075b8:	05c02074 	movhi	r23,129
  8075bc:	bdcf3d04 	addi	r23,r23,15604
  8075c0:	4805883a 	mov	r2,r9
  8075c4:	4007883a 	mov	r3,r8
  8075c8:	a980004c 	andi	r6,r21,1
  8075cc:	1009883a 	mov	r4,r2
  8075d0:	a82bd07a 	srai	r21,r21,1
  8075d4:	180b883a 	mov	r5,r3
  8075d8:	30000426 	beq	r6,zero,8075ec <_dtoa_r+0x430>
  8075dc:	b9800017 	ldw	r6,0(r23)
  8075e0:	b9c00117 	ldw	r7,4(r23)
  8075e4:	84000044 	addi	r16,r16,1
  8075e8:	080e77c0 	call	80e77c <__muldf3>
  8075ec:	bdc00204 	addi	r23,r23,8
  8075f0:	a83ff51e 	bne	r21,zero,8075c8 <__alt_mem_onchip_mem+0xff7875c8>
  8075f4:	1013883a 	mov	r9,r2
  8075f8:	1811883a 	mov	r8,r3
  8075fc:	480d883a 	mov	r6,r9
  807600:	400f883a 	mov	r7,r8
  807604:	8809883a 	mov	r4,r17
  807608:	a00b883a 	mov	r5,r20
  80760c:	080dc3c0 	call	80dc3c <__divdf3>
  807610:	d8800f15 	stw	r2,60(sp)
  807614:	d8c01015 	stw	r3,64(sp)
  807618:	d8c00e17 	ldw	r3,56(sp)
  80761c:	18000626 	beq	r3,zero,807638 <_dtoa_r+0x47c>
  807620:	d9000f17 	ldw	r4,60(sp)
  807624:	d9401017 	ldw	r5,64(sp)
  807628:	000d883a 	mov	r6,zero
  80762c:	01cffc34 	movhi	r7,16368
  807630:	080e6880 	call	80e688 <__ledf2>
  807634:	10040b16 	blt	r2,zero,808664 <_dtoa_r+0x14a8>
  807638:	8009883a 	mov	r4,r16
  80763c:	080f8100 	call	80f810 <__floatsidf>
  807640:	d9800f17 	ldw	r6,60(sp)
  807644:	d9c01017 	ldw	r7,64(sp)
  807648:	1009883a 	mov	r4,r2
  80764c:	180b883a 	mov	r5,r3
  807650:	080e77c0 	call	80e77c <__muldf3>
  807654:	000d883a 	mov	r6,zero
  807658:	01d00734 	movhi	r7,16412
  80765c:	1009883a 	mov	r4,r2
  807660:	180b883a 	mov	r5,r3
  807664:	080d3900 	call	80d390 <__adddf3>
  807668:	1021883a 	mov	r16,r2
  80766c:	d8800617 	ldw	r2,24(sp)
  807670:	047f3034 	movhi	r17,64704
  807674:	1c63883a 	add	r17,r3,r17
  807678:	10031826 	beq	r2,zero,8082dc <_dtoa_r+0x1120>
  80767c:	d8c00517 	ldw	r3,20(sp)
  807680:	db000617 	ldw	r12,24(sp)
  807684:	d8c01315 	stw	r3,76(sp)
  807688:	d9000b17 	ldw	r4,44(sp)
  80768c:	20038f26 	beq	r4,zero,8084cc <_dtoa_r+0x1310>
  807690:	60bfffc4 	addi	r2,r12,-1
  807694:	100490fa 	slli	r2,r2,3
  807698:	00c02074 	movhi	r3,129
  80769c:	18cf4704 	addi	r3,r3,15644
  8076a0:	1885883a 	add	r2,r3,r2
  8076a4:	11800017 	ldw	r6,0(r2)
  8076a8:	11c00117 	ldw	r7,4(r2)
  8076ac:	d8800717 	ldw	r2,28(sp)
  8076b0:	0009883a 	mov	r4,zero
  8076b4:	014ff834 	movhi	r5,16352
  8076b8:	db001615 	stw	r12,88(sp)
  8076bc:	15c00044 	addi	r23,r2,1
  8076c0:	080dc3c0 	call	80dc3c <__divdf3>
  8076c4:	800d883a 	mov	r6,r16
  8076c8:	880f883a 	mov	r7,r17
  8076cc:	1009883a 	mov	r4,r2
  8076d0:	180b883a 	mov	r5,r3
  8076d4:	080ee940 	call	80ee94 <__subdf3>
  8076d8:	d9401017 	ldw	r5,64(sp)
  8076dc:	d9000f17 	ldw	r4,60(sp)
  8076e0:	102b883a 	mov	r21,r2
  8076e4:	d8c01215 	stw	r3,72(sp)
  8076e8:	080f7900 	call	80f790 <__fixdfsi>
  8076ec:	1009883a 	mov	r4,r2
  8076f0:	1029883a 	mov	r20,r2
  8076f4:	080f8100 	call	80f810 <__floatsidf>
  8076f8:	d9000f17 	ldw	r4,60(sp)
  8076fc:	d9401017 	ldw	r5,64(sp)
  807700:	100d883a 	mov	r6,r2
  807704:	180f883a 	mov	r7,r3
  807708:	080ee940 	call	80ee94 <__subdf3>
  80770c:	1823883a 	mov	r17,r3
  807710:	d8c00717 	ldw	r3,28(sp)
  807714:	d9401217 	ldw	r5,72(sp)
  807718:	a2000c04 	addi	r8,r20,48
  80771c:	1021883a 	mov	r16,r2
  807720:	1a000005 	stb	r8,0(r3)
  807724:	800d883a 	mov	r6,r16
  807728:	880f883a 	mov	r7,r17
  80772c:	a809883a 	mov	r4,r21
  807730:	4029883a 	mov	r20,r8
  807734:	080e5ac0 	call	80e5ac <__gedf2>
  807738:	00841d16 	blt	zero,r2,8087b0 <_dtoa_r+0x15f4>
  80773c:	800d883a 	mov	r6,r16
  807740:	880f883a 	mov	r7,r17
  807744:	0009883a 	mov	r4,zero
  807748:	014ffc34 	movhi	r5,16368
  80774c:	080ee940 	call	80ee94 <__subdf3>
  807750:	d9401217 	ldw	r5,72(sp)
  807754:	100d883a 	mov	r6,r2
  807758:	180f883a 	mov	r7,r3
  80775c:	a809883a 	mov	r4,r21
  807760:	080e5ac0 	call	80e5ac <__gedf2>
  807764:	db001617 	ldw	r12,88(sp)
  807768:	00840e16 	blt	zero,r2,8087a4 <_dtoa_r+0x15e8>
  80776c:	00800044 	movi	r2,1
  807770:	13006b0e 	bge	r2,r12,807920 <_dtoa_r+0x764>
  807774:	d9000717 	ldw	r4,28(sp)
  807778:	dd800f15 	stw	r22,60(sp)
  80777c:	dcc01015 	stw	r19,64(sp)
  807780:	2319883a 	add	r12,r4,r12
  807784:	dcc01217 	ldw	r19,72(sp)
  807788:	602d883a 	mov	r22,r12
  80778c:	dc801215 	stw	r18,72(sp)
  807790:	b825883a 	mov	r18,r23
  807794:	00000906 	br	8077bc <_dtoa_r+0x600>
  807798:	080ee940 	call	80ee94 <__subdf3>
  80779c:	a80d883a 	mov	r6,r21
  8077a0:	980f883a 	mov	r7,r19
  8077a4:	1009883a 	mov	r4,r2
  8077a8:	180b883a 	mov	r5,r3
  8077ac:	080e6880 	call	80e688 <__ledf2>
  8077b0:	1003e816 	blt	r2,zero,808754 <_dtoa_r+0x1598>
  8077b4:	b825883a 	mov	r18,r23
  8077b8:	bd83e926 	beq	r23,r22,808760 <_dtoa_r+0x15a4>
  8077bc:	a809883a 	mov	r4,r21
  8077c0:	980b883a 	mov	r5,r19
  8077c4:	000d883a 	mov	r6,zero
  8077c8:	01d00934 	movhi	r7,16420
  8077cc:	080e77c0 	call	80e77c <__muldf3>
  8077d0:	000d883a 	mov	r6,zero
  8077d4:	01d00934 	movhi	r7,16420
  8077d8:	8009883a 	mov	r4,r16
  8077dc:	880b883a 	mov	r5,r17
  8077e0:	102b883a 	mov	r21,r2
  8077e4:	1827883a 	mov	r19,r3
  8077e8:	080e77c0 	call	80e77c <__muldf3>
  8077ec:	180b883a 	mov	r5,r3
  8077f0:	1009883a 	mov	r4,r2
  8077f4:	1821883a 	mov	r16,r3
  8077f8:	1023883a 	mov	r17,r2
  8077fc:	080f7900 	call	80f790 <__fixdfsi>
  807800:	1009883a 	mov	r4,r2
  807804:	1029883a 	mov	r20,r2
  807808:	080f8100 	call	80f810 <__floatsidf>
  80780c:	8809883a 	mov	r4,r17
  807810:	800b883a 	mov	r5,r16
  807814:	100d883a 	mov	r6,r2
  807818:	180f883a 	mov	r7,r3
  80781c:	080ee940 	call	80ee94 <__subdf3>
  807820:	a5000c04 	addi	r20,r20,48
  807824:	a80d883a 	mov	r6,r21
  807828:	980f883a 	mov	r7,r19
  80782c:	1009883a 	mov	r4,r2
  807830:	180b883a 	mov	r5,r3
  807834:	95000005 	stb	r20,0(r18)
  807838:	1021883a 	mov	r16,r2
  80783c:	1823883a 	mov	r17,r3
  807840:	080e6880 	call	80e688 <__ledf2>
  807844:	bdc00044 	addi	r23,r23,1
  807848:	800d883a 	mov	r6,r16
  80784c:	880f883a 	mov	r7,r17
  807850:	0009883a 	mov	r4,zero
  807854:	014ffc34 	movhi	r5,16368
  807858:	103fcf0e 	bge	r2,zero,807798 <__alt_mem_onchip_mem+0xff787798>
  80785c:	d8c01317 	ldw	r3,76(sp)
  807860:	d8c00515 	stw	r3,20(sp)
  807864:	d9400917 	ldw	r5,36(sp)
  807868:	e009883a 	mov	r4,fp
  80786c:	08094700 	call	809470 <_Bfree>
  807870:	d9000517 	ldw	r4,20(sp)
  807874:	d9802317 	ldw	r6,140(sp)
  807878:	d9c02517 	ldw	r7,148(sp)
  80787c:	b8000005 	stb	zero,0(r23)
  807880:	20800044 	addi	r2,r4,1
  807884:	30800015 	stw	r2,0(r6)
  807888:	3802aa26 	beq	r7,zero,808334 <_dtoa_r+0x1178>
  80788c:	3dc00015 	stw	r23,0(r7)
  807890:	d8800717 	ldw	r2,28(sp)
  807894:	003e7906 	br	80727c <__alt_mem_onchip_mem+0xff78727c>
  807898:	00800434 	movhi	r2,16
  80789c:	10bfffc4 	addi	r2,r2,-1
  8078a0:	88a2703a 	and	r17,r17,r2
  8078a4:	883e851e 	bne	r17,zero,8072bc <__alt_mem_onchip_mem+0xff7872bc>
  8078a8:	00802074 	movhi	r2,129
  8078ac:	108f2904 	addi	r2,r2,15524
  8078b0:	003e8406 	br	8072c4 <__alt_mem_onchip_mem+0xff7872c4>
  8078b4:	10c00204 	addi	r3,r2,8
  8078b8:	003e8706 	br	8072d8 <__alt_mem_onchip_mem+0xff7872d8>
  8078bc:	01400434 	movhi	r5,16
  8078c0:	297fffc4 	addi	r5,r5,-1
  8078c4:	994a703a 	and	r5,r19,r5
  8078c8:	9009883a 	mov	r4,r18
  8078cc:	843f0044 	addi	r16,r16,-1023
  8078d0:	294ffc34 	orhi	r5,r5,16368
  8078d4:	dd800217 	ldw	r22,8(sp)
  8078d8:	d8001115 	stw	zero,68(sp)
  8078dc:	003ea506 	br	807374 <__alt_mem_onchip_mem+0xff787374>
  8078e0:	00802074 	movhi	r2,129
  8078e4:	108f2004 	addi	r2,r2,15488
  8078e8:	003e6406 	br	80727c <__alt_mem_onchip_mem+0xff78727c>
  8078ec:	e0001115 	stw	zero,68(fp)
  8078f0:	000b883a 	mov	r5,zero
  8078f4:	e009883a 	mov	r4,fp
  8078f8:	08093c80 	call	8093c8 <_Balloc>
  8078fc:	01bfffc4 	movi	r6,-1
  807900:	01c00044 	movi	r7,1
  807904:	d8800715 	stw	r2,28(sp)
  807908:	d9800c15 	stw	r6,48(sp)
  80790c:	e0801015 	stw	r2,64(fp)
  807910:	d8000315 	stw	zero,12(sp)
  807914:	d9c00b15 	stw	r7,44(sp)
  807918:	d9800615 	stw	r6,24(sp)
  80791c:	d8002215 	stw	zero,136(sp)
  807920:	d8800117 	ldw	r2,4(sp)
  807924:	10008916 	blt	r2,zero,807b4c <_dtoa_r+0x990>
  807928:	d9000517 	ldw	r4,20(sp)
  80792c:	00c00384 	movi	r3,14
  807930:	19008616 	blt	r3,r4,807b4c <_dtoa_r+0x990>
  807934:	200490fa 	slli	r2,r4,3
  807938:	00c02074 	movhi	r3,129
  80793c:	d9802217 	ldw	r6,136(sp)
  807940:	18cf4704 	addi	r3,r3,15644
  807944:	1885883a 	add	r2,r3,r2
  807948:	14000017 	ldw	r16,0(r2)
  80794c:	14400117 	ldw	r17,4(r2)
  807950:	30016316 	blt	r6,zero,807ee0 <_dtoa_r+0xd24>
  807954:	800d883a 	mov	r6,r16
  807958:	880f883a 	mov	r7,r17
  80795c:	9009883a 	mov	r4,r18
  807960:	980b883a 	mov	r5,r19
  807964:	080dc3c0 	call	80dc3c <__divdf3>
  807968:	180b883a 	mov	r5,r3
  80796c:	1009883a 	mov	r4,r2
  807970:	080f7900 	call	80f790 <__fixdfsi>
  807974:	1009883a 	mov	r4,r2
  807978:	102b883a 	mov	r21,r2
  80797c:	080f8100 	call	80f810 <__floatsidf>
  807980:	800d883a 	mov	r6,r16
  807984:	880f883a 	mov	r7,r17
  807988:	1009883a 	mov	r4,r2
  80798c:	180b883a 	mov	r5,r3
  807990:	080e77c0 	call	80e77c <__muldf3>
  807994:	100d883a 	mov	r6,r2
  807998:	180f883a 	mov	r7,r3
  80799c:	9009883a 	mov	r4,r18
  8079a0:	980b883a 	mov	r5,r19
  8079a4:	080ee940 	call	80ee94 <__subdf3>
  8079a8:	d9c00717 	ldw	r7,28(sp)
  8079ac:	1009883a 	mov	r4,r2
  8079b0:	a8800c04 	addi	r2,r21,48
  8079b4:	38800005 	stb	r2,0(r7)
  8079b8:	3dc00044 	addi	r23,r7,1
  8079bc:	d9c00617 	ldw	r7,24(sp)
  8079c0:	01800044 	movi	r6,1
  8079c4:	180b883a 	mov	r5,r3
  8079c8:	2005883a 	mov	r2,r4
  8079cc:	39803826 	beq	r7,r6,807ab0 <_dtoa_r+0x8f4>
  8079d0:	000d883a 	mov	r6,zero
  8079d4:	01d00934 	movhi	r7,16420
  8079d8:	080e77c0 	call	80e77c <__muldf3>
  8079dc:	000d883a 	mov	r6,zero
  8079e0:	000f883a 	mov	r7,zero
  8079e4:	1009883a 	mov	r4,r2
  8079e8:	180b883a 	mov	r5,r3
  8079ec:	1025883a 	mov	r18,r2
  8079f0:	1827883a 	mov	r19,r3
  8079f4:	080e5240 	call	80e524 <__eqdf2>
  8079f8:	103f9a26 	beq	r2,zero,807864 <__alt_mem_onchip_mem+0xff787864>
  8079fc:	d9c00617 	ldw	r7,24(sp)
  807a00:	d8c00717 	ldw	r3,28(sp)
  807a04:	b829883a 	mov	r20,r23
  807a08:	38bfffc4 	addi	r2,r7,-1
  807a0c:	18ad883a 	add	r22,r3,r2
  807a10:	00000a06 	br	807a3c <_dtoa_r+0x880>
  807a14:	080e77c0 	call	80e77c <__muldf3>
  807a18:	000d883a 	mov	r6,zero
  807a1c:	000f883a 	mov	r7,zero
  807a20:	1009883a 	mov	r4,r2
  807a24:	180b883a 	mov	r5,r3
  807a28:	1025883a 	mov	r18,r2
  807a2c:	1827883a 	mov	r19,r3
  807a30:	b829883a 	mov	r20,r23
  807a34:	080e5240 	call	80e524 <__eqdf2>
  807a38:	103f8a26 	beq	r2,zero,807864 <__alt_mem_onchip_mem+0xff787864>
  807a3c:	800d883a 	mov	r6,r16
  807a40:	880f883a 	mov	r7,r17
  807a44:	9009883a 	mov	r4,r18
  807a48:	980b883a 	mov	r5,r19
  807a4c:	080dc3c0 	call	80dc3c <__divdf3>
  807a50:	180b883a 	mov	r5,r3
  807a54:	1009883a 	mov	r4,r2
  807a58:	080f7900 	call	80f790 <__fixdfsi>
  807a5c:	1009883a 	mov	r4,r2
  807a60:	102b883a 	mov	r21,r2
  807a64:	080f8100 	call	80f810 <__floatsidf>
  807a68:	800d883a 	mov	r6,r16
  807a6c:	880f883a 	mov	r7,r17
  807a70:	1009883a 	mov	r4,r2
  807a74:	180b883a 	mov	r5,r3
  807a78:	080e77c0 	call	80e77c <__muldf3>
  807a7c:	100d883a 	mov	r6,r2
  807a80:	180f883a 	mov	r7,r3
  807a84:	9009883a 	mov	r4,r18
  807a88:	980b883a 	mov	r5,r19
  807a8c:	080ee940 	call	80ee94 <__subdf3>
  807a90:	aa000c04 	addi	r8,r21,48
  807a94:	a2000005 	stb	r8,0(r20)
  807a98:	000d883a 	mov	r6,zero
  807a9c:	01d00934 	movhi	r7,16420
  807aa0:	1009883a 	mov	r4,r2
  807aa4:	180b883a 	mov	r5,r3
  807aa8:	a5c00044 	addi	r23,r20,1
  807aac:	b53fd91e 	bne	r22,r20,807a14 <__alt_mem_onchip_mem+0xff787a14>
  807ab0:	100d883a 	mov	r6,r2
  807ab4:	180f883a 	mov	r7,r3
  807ab8:	1009883a 	mov	r4,r2
  807abc:	180b883a 	mov	r5,r3
  807ac0:	080d3900 	call	80d390 <__adddf3>
  807ac4:	100d883a 	mov	r6,r2
  807ac8:	180f883a 	mov	r7,r3
  807acc:	8009883a 	mov	r4,r16
  807ad0:	880b883a 	mov	r5,r17
  807ad4:	1027883a 	mov	r19,r2
  807ad8:	1825883a 	mov	r18,r3
  807adc:	080e6880 	call	80e688 <__ledf2>
  807ae0:	10000816 	blt	r2,zero,807b04 <_dtoa_r+0x948>
  807ae4:	980d883a 	mov	r6,r19
  807ae8:	900f883a 	mov	r7,r18
  807aec:	8009883a 	mov	r4,r16
  807af0:	880b883a 	mov	r5,r17
  807af4:	080e5240 	call	80e524 <__eqdf2>
  807af8:	103f5a1e 	bne	r2,zero,807864 <__alt_mem_onchip_mem+0xff787864>
  807afc:	ad40004c 	andi	r21,r21,1
  807b00:	a83f5826 	beq	r21,zero,807864 <__alt_mem_onchip_mem+0xff787864>
  807b04:	bd3fffc3 	ldbu	r20,-1(r23)
  807b08:	b8bfffc4 	addi	r2,r23,-1
  807b0c:	1007883a 	mov	r3,r2
  807b10:	01400e44 	movi	r5,57
  807b14:	d9800717 	ldw	r6,28(sp)
  807b18:	00000506 	br	807b30 <_dtoa_r+0x974>
  807b1c:	18ffffc4 	addi	r3,r3,-1
  807b20:	11824726 	beq	r2,r6,808440 <_dtoa_r+0x1284>
  807b24:	1d000003 	ldbu	r20,0(r3)
  807b28:	102f883a 	mov	r23,r2
  807b2c:	10bfffc4 	addi	r2,r2,-1
  807b30:	a1003fcc 	andi	r4,r20,255
  807b34:	2100201c 	xori	r4,r4,128
  807b38:	213fe004 	addi	r4,r4,-128
  807b3c:	217ff726 	beq	r4,r5,807b1c <__alt_mem_onchip_mem+0xff787b1c>
  807b40:	a2000044 	addi	r8,r20,1
  807b44:	12000005 	stb	r8,0(r2)
  807b48:	003f4606 	br	807864 <__alt_mem_onchip_mem+0xff787864>
  807b4c:	d9000b17 	ldw	r4,44(sp)
  807b50:	2000c826 	beq	r4,zero,807e74 <_dtoa_r+0xcb8>
  807b54:	d9800317 	ldw	r6,12(sp)
  807b58:	00c00044 	movi	r3,1
  807b5c:	1980f90e 	bge	r3,r6,807f44 <_dtoa_r+0xd88>
  807b60:	d8800617 	ldw	r2,24(sp)
  807b64:	d8c00a17 	ldw	r3,40(sp)
  807b68:	157fffc4 	addi	r21,r2,-1
  807b6c:	1d41f316 	blt	r3,r21,80833c <_dtoa_r+0x1180>
  807b70:	1d6bc83a 	sub	r21,r3,r21
  807b74:	d9c00617 	ldw	r7,24(sp)
  807b78:	3802aa16 	blt	r7,zero,808624 <_dtoa_r+0x1468>
  807b7c:	dd000817 	ldw	r20,32(sp)
  807b80:	d8800617 	ldw	r2,24(sp)
  807b84:	d8c00817 	ldw	r3,32(sp)
  807b88:	01400044 	movi	r5,1
  807b8c:	e009883a 	mov	r4,fp
  807b90:	1887883a 	add	r3,r3,r2
  807b94:	d8c00815 	stw	r3,32(sp)
  807b98:	b0ad883a 	add	r22,r22,r2
  807b9c:	08097d40 	call	8097d4 <__i2b>
  807ba0:	1023883a 	mov	r17,r2
  807ba4:	a0000826 	beq	r20,zero,807bc8 <_dtoa_r+0xa0c>
  807ba8:	0580070e 	bge	zero,r22,807bc8 <_dtoa_r+0xa0c>
  807bac:	a005883a 	mov	r2,r20
  807bb0:	b500b916 	blt	r22,r20,807e98 <_dtoa_r+0xcdc>
  807bb4:	d9000817 	ldw	r4,32(sp)
  807bb8:	a0a9c83a 	sub	r20,r20,r2
  807bbc:	b0adc83a 	sub	r22,r22,r2
  807bc0:	2089c83a 	sub	r4,r4,r2
  807bc4:	d9000815 	stw	r4,32(sp)
  807bc8:	d9800a17 	ldw	r6,40(sp)
  807bcc:	0181810e 	bge	zero,r6,8081d4 <_dtoa_r+0x1018>
  807bd0:	d9c00b17 	ldw	r7,44(sp)
  807bd4:	3800b326 	beq	r7,zero,807ea4 <_dtoa_r+0xce8>
  807bd8:	a800b226 	beq	r21,zero,807ea4 <_dtoa_r+0xce8>
  807bdc:	880b883a 	mov	r5,r17
  807be0:	a80d883a 	mov	r6,r21
  807be4:	e009883a 	mov	r4,fp
  807be8:	0809a080 	call	809a08 <__pow5mult>
  807bec:	d9800917 	ldw	r6,36(sp)
  807bf0:	100b883a 	mov	r5,r2
  807bf4:	e009883a 	mov	r4,fp
  807bf8:	1023883a 	mov	r17,r2
  807bfc:	08098100 	call	809810 <__multiply>
  807c00:	1021883a 	mov	r16,r2
  807c04:	d8800a17 	ldw	r2,40(sp)
  807c08:	d9400917 	ldw	r5,36(sp)
  807c0c:	e009883a 	mov	r4,fp
  807c10:	1545c83a 	sub	r2,r2,r21
  807c14:	d8800a15 	stw	r2,40(sp)
  807c18:	08094700 	call	809470 <_Bfree>
  807c1c:	d8c00a17 	ldw	r3,40(sp)
  807c20:	18009f1e 	bne	r3,zero,807ea0 <_dtoa_r+0xce4>
  807c24:	05c00044 	movi	r23,1
  807c28:	e009883a 	mov	r4,fp
  807c2c:	b80b883a 	mov	r5,r23
  807c30:	08097d40 	call	8097d4 <__i2b>
  807c34:	d9000d17 	ldw	r4,52(sp)
  807c38:	102b883a 	mov	r21,r2
  807c3c:	2000ce26 	beq	r4,zero,807f78 <_dtoa_r+0xdbc>
  807c40:	200d883a 	mov	r6,r4
  807c44:	100b883a 	mov	r5,r2
  807c48:	e009883a 	mov	r4,fp
  807c4c:	0809a080 	call	809a08 <__pow5mult>
  807c50:	d9800317 	ldw	r6,12(sp)
  807c54:	102b883a 	mov	r21,r2
  807c58:	b981810e 	bge	r23,r6,808260 <_dtoa_r+0x10a4>
  807c5c:	0027883a 	mov	r19,zero
  807c60:	a8800417 	ldw	r2,16(r21)
  807c64:	05c00804 	movi	r23,32
  807c68:	10800104 	addi	r2,r2,4
  807c6c:	1085883a 	add	r2,r2,r2
  807c70:	1085883a 	add	r2,r2,r2
  807c74:	a885883a 	add	r2,r21,r2
  807c78:	11000017 	ldw	r4,0(r2)
  807c7c:	08096bc0 	call	8096bc <__hi0bits>
  807c80:	b885c83a 	sub	r2,r23,r2
  807c84:	1585883a 	add	r2,r2,r22
  807c88:	108007cc 	andi	r2,r2,31
  807c8c:	1000b326 	beq	r2,zero,807f5c <_dtoa_r+0xda0>
  807c90:	00c00804 	movi	r3,32
  807c94:	1887c83a 	sub	r3,r3,r2
  807c98:	01000104 	movi	r4,4
  807c9c:	20c2cd0e 	bge	r4,r3,8087d4 <_dtoa_r+0x1618>
  807ca0:	00c00704 	movi	r3,28
  807ca4:	1885c83a 	sub	r2,r3,r2
  807ca8:	d8c00817 	ldw	r3,32(sp)
  807cac:	a0a9883a 	add	r20,r20,r2
  807cb0:	b0ad883a 	add	r22,r22,r2
  807cb4:	1887883a 	add	r3,r3,r2
  807cb8:	d8c00815 	stw	r3,32(sp)
  807cbc:	d9800817 	ldw	r6,32(sp)
  807cc0:	0180040e 	bge	zero,r6,807cd4 <_dtoa_r+0xb18>
  807cc4:	800b883a 	mov	r5,r16
  807cc8:	e009883a 	mov	r4,fp
  807ccc:	0809b480 	call	809b48 <__lshift>
  807cd0:	1021883a 	mov	r16,r2
  807cd4:	0580050e 	bge	zero,r22,807cec <_dtoa_r+0xb30>
  807cd8:	a80b883a 	mov	r5,r21
  807cdc:	b00d883a 	mov	r6,r22
  807ce0:	e009883a 	mov	r4,fp
  807ce4:	0809b480 	call	809b48 <__lshift>
  807ce8:	102b883a 	mov	r21,r2
  807cec:	d9c00e17 	ldw	r7,56(sp)
  807cf0:	3801211e 	bne	r7,zero,808178 <_dtoa_r+0xfbc>
  807cf4:	d9800617 	ldw	r6,24(sp)
  807cf8:	0181380e 	bge	zero,r6,8081dc <_dtoa_r+0x1020>
  807cfc:	d8c00b17 	ldw	r3,44(sp)
  807d00:	1800ab1e 	bne	r3,zero,807fb0 <_dtoa_r+0xdf4>
  807d04:	dc800717 	ldw	r18,28(sp)
  807d08:	dcc00617 	ldw	r19,24(sp)
  807d0c:	9029883a 	mov	r20,r18
  807d10:	00000206 	br	807d1c <_dtoa_r+0xb60>
  807d14:	08094980 	call	809498 <__multadd>
  807d18:	1021883a 	mov	r16,r2
  807d1c:	a80b883a 	mov	r5,r21
  807d20:	8009883a 	mov	r4,r16
  807d24:	0806fbc0 	call	806fbc <quorem>
  807d28:	10800c04 	addi	r2,r2,48
  807d2c:	90800005 	stb	r2,0(r18)
  807d30:	94800044 	addi	r18,r18,1
  807d34:	9507c83a 	sub	r3,r18,r20
  807d38:	000f883a 	mov	r7,zero
  807d3c:	01800284 	movi	r6,10
  807d40:	800b883a 	mov	r5,r16
  807d44:	e009883a 	mov	r4,fp
  807d48:	1cfff216 	blt	r3,r19,807d14 <__alt_mem_onchip_mem+0xff787d14>
  807d4c:	1011883a 	mov	r8,r2
  807d50:	d8800617 	ldw	r2,24(sp)
  807d54:	0082370e 	bge	zero,r2,808634 <_dtoa_r+0x1478>
  807d58:	d9000717 	ldw	r4,28(sp)
  807d5c:	0025883a 	mov	r18,zero
  807d60:	20af883a 	add	r23,r4,r2
  807d64:	01800044 	movi	r6,1
  807d68:	800b883a 	mov	r5,r16
  807d6c:	e009883a 	mov	r4,fp
  807d70:	da001715 	stw	r8,92(sp)
  807d74:	0809b480 	call	809b48 <__lshift>
  807d78:	a80b883a 	mov	r5,r21
  807d7c:	1009883a 	mov	r4,r2
  807d80:	d8800915 	stw	r2,36(sp)
  807d84:	0809c900 	call	809c90 <__mcmp>
  807d88:	da001717 	ldw	r8,92(sp)
  807d8c:	0081800e 	bge	zero,r2,808390 <_dtoa_r+0x11d4>
  807d90:	b93fffc3 	ldbu	r4,-1(r23)
  807d94:	b8bfffc4 	addi	r2,r23,-1
  807d98:	1007883a 	mov	r3,r2
  807d9c:	01800e44 	movi	r6,57
  807da0:	d9c00717 	ldw	r7,28(sp)
  807da4:	00000506 	br	807dbc <_dtoa_r+0xc00>
  807da8:	18ffffc4 	addi	r3,r3,-1
  807dac:	11c12326 	beq	r2,r7,80823c <_dtoa_r+0x1080>
  807db0:	19000003 	ldbu	r4,0(r3)
  807db4:	102f883a 	mov	r23,r2
  807db8:	10bfffc4 	addi	r2,r2,-1
  807dbc:	21403fcc 	andi	r5,r4,255
  807dc0:	2940201c 	xori	r5,r5,128
  807dc4:	297fe004 	addi	r5,r5,-128
  807dc8:	29bff726 	beq	r5,r6,807da8 <__alt_mem_onchip_mem+0xff787da8>
  807dcc:	21000044 	addi	r4,r4,1
  807dd0:	11000005 	stb	r4,0(r2)
  807dd4:	a80b883a 	mov	r5,r21
  807dd8:	e009883a 	mov	r4,fp
  807ddc:	08094700 	call	809470 <_Bfree>
  807de0:	883ea026 	beq	r17,zero,807864 <__alt_mem_onchip_mem+0xff787864>
  807de4:	90000426 	beq	r18,zero,807df8 <_dtoa_r+0xc3c>
  807de8:	94400326 	beq	r18,r17,807df8 <_dtoa_r+0xc3c>
  807dec:	900b883a 	mov	r5,r18
  807df0:	e009883a 	mov	r4,fp
  807df4:	08094700 	call	809470 <_Bfree>
  807df8:	880b883a 	mov	r5,r17
  807dfc:	e009883a 	mov	r4,fp
  807e00:	08094700 	call	809470 <_Bfree>
  807e04:	003e9706 	br	807864 <__alt_mem_onchip_mem+0xff787864>
  807e08:	01800044 	movi	r6,1
  807e0c:	d9800e15 	stw	r6,56(sp)
  807e10:	003d9606 	br	80746c <__alt_mem_onchip_mem+0xff78746c>
  807e14:	d8800817 	ldw	r2,32(sp)
  807e18:	d8c00517 	ldw	r3,20(sp)
  807e1c:	d8000d15 	stw	zero,52(sp)
  807e20:	10c5c83a 	sub	r2,r2,r3
  807e24:	00c9c83a 	sub	r4,zero,r3
  807e28:	d8800815 	stw	r2,32(sp)
  807e2c:	d9000a15 	stw	r4,40(sp)
  807e30:	003d9706 	br	807490 <__alt_mem_onchip_mem+0xff787490>
  807e34:	05adc83a 	sub	r22,zero,r22
  807e38:	dd800815 	stw	r22,32(sp)
  807e3c:	002d883a 	mov	r22,zero
  807e40:	003d8e06 	br	80747c <__alt_mem_onchip_mem+0xff78747c>
  807e44:	d9000517 	ldw	r4,20(sp)
  807e48:	080f8100 	call	80f810 <__floatsidf>
  807e4c:	100d883a 	mov	r6,r2
  807e50:	180f883a 	mov	r7,r3
  807e54:	a009883a 	mov	r4,r20
  807e58:	880b883a 	mov	r5,r17
  807e5c:	080e5240 	call	80e524 <__eqdf2>
  807e60:	103d7126 	beq	r2,zero,807428 <__alt_mem_onchip_mem+0xff787428>
  807e64:	d9c00517 	ldw	r7,20(sp)
  807e68:	39ffffc4 	addi	r7,r7,-1
  807e6c:	d9c00515 	stw	r7,20(sp)
  807e70:	003d6d06 	br	807428 <__alt_mem_onchip_mem+0xff787428>
  807e74:	dd400a17 	ldw	r21,40(sp)
  807e78:	dd000817 	ldw	r20,32(sp)
  807e7c:	0023883a 	mov	r17,zero
  807e80:	003f4806 	br	807ba4 <__alt_mem_onchip_mem+0xff787ba4>
  807e84:	10e3c83a 	sub	r17,r2,r3
  807e88:	9448983a 	sll	r4,r18,r17
  807e8c:	003d3206 	br	807358 <__alt_mem_onchip_mem+0xff787358>
  807e90:	d8000e15 	stw	zero,56(sp)
  807e94:	003d7506 	br	80746c <__alt_mem_onchip_mem+0xff78746c>
  807e98:	b005883a 	mov	r2,r22
  807e9c:	003f4506 	br	807bb4 <__alt_mem_onchip_mem+0xff787bb4>
  807ea0:	dc000915 	stw	r16,36(sp)
  807ea4:	d9800a17 	ldw	r6,40(sp)
  807ea8:	d9400917 	ldw	r5,36(sp)
  807eac:	e009883a 	mov	r4,fp
  807eb0:	0809a080 	call	809a08 <__pow5mult>
  807eb4:	1021883a 	mov	r16,r2
  807eb8:	003f5a06 	br	807c24 <__alt_mem_onchip_mem+0xff787c24>
  807ebc:	01c00044 	movi	r7,1
  807ec0:	d9c00b15 	stw	r7,44(sp)
  807ec4:	d8802217 	ldw	r2,136(sp)
  807ec8:	0081280e 	bge	zero,r2,80836c <_dtoa_r+0x11b0>
  807ecc:	100d883a 	mov	r6,r2
  807ed0:	1021883a 	mov	r16,r2
  807ed4:	d8800c15 	stw	r2,48(sp)
  807ed8:	d8800615 	stw	r2,24(sp)
  807edc:	003d8806 	br	807500 <__alt_mem_onchip_mem+0xff787500>
  807ee0:	d8800617 	ldw	r2,24(sp)
  807ee4:	00be9b16 	blt	zero,r2,807954 <__alt_mem_onchip_mem+0xff787954>
  807ee8:	10010f1e 	bne	r2,zero,808328 <_dtoa_r+0x116c>
  807eec:	880b883a 	mov	r5,r17
  807ef0:	000d883a 	mov	r6,zero
  807ef4:	01d00534 	movhi	r7,16404
  807ef8:	8009883a 	mov	r4,r16
  807efc:	080e77c0 	call	80e77c <__muldf3>
  807f00:	900d883a 	mov	r6,r18
  807f04:	980f883a 	mov	r7,r19
  807f08:	1009883a 	mov	r4,r2
  807f0c:	180b883a 	mov	r5,r3
  807f10:	080e5ac0 	call	80e5ac <__gedf2>
  807f14:	002b883a 	mov	r21,zero
  807f18:	0023883a 	mov	r17,zero
  807f1c:	1000bf16 	blt	r2,zero,80821c <_dtoa_r+0x1060>
  807f20:	d9802217 	ldw	r6,136(sp)
  807f24:	ddc00717 	ldw	r23,28(sp)
  807f28:	018c303a 	nor	r6,zero,r6
  807f2c:	d9800515 	stw	r6,20(sp)
  807f30:	a80b883a 	mov	r5,r21
  807f34:	e009883a 	mov	r4,fp
  807f38:	08094700 	call	809470 <_Bfree>
  807f3c:	883e4926 	beq	r17,zero,807864 <__alt_mem_onchip_mem+0xff787864>
  807f40:	003fad06 	br	807df8 <__alt_mem_onchip_mem+0xff787df8>
  807f44:	d9c01117 	ldw	r7,68(sp)
  807f48:	3801bc26 	beq	r7,zero,80863c <_dtoa_r+0x1480>
  807f4c:	10810cc4 	addi	r2,r2,1075
  807f50:	dd400a17 	ldw	r21,40(sp)
  807f54:	dd000817 	ldw	r20,32(sp)
  807f58:	003f0a06 	br	807b84 <__alt_mem_onchip_mem+0xff787b84>
  807f5c:	00800704 	movi	r2,28
  807f60:	d9000817 	ldw	r4,32(sp)
  807f64:	a0a9883a 	add	r20,r20,r2
  807f68:	b0ad883a 	add	r22,r22,r2
  807f6c:	2089883a 	add	r4,r4,r2
  807f70:	d9000815 	stw	r4,32(sp)
  807f74:	003f5106 	br	807cbc <__alt_mem_onchip_mem+0xff787cbc>
  807f78:	d8c00317 	ldw	r3,12(sp)
  807f7c:	b8c1fc0e 	bge	r23,r3,808770 <_dtoa_r+0x15b4>
  807f80:	0027883a 	mov	r19,zero
  807f84:	b805883a 	mov	r2,r23
  807f88:	003f3e06 	br	807c84 <__alt_mem_onchip_mem+0xff787c84>
  807f8c:	880b883a 	mov	r5,r17
  807f90:	e009883a 	mov	r4,fp
  807f94:	000f883a 	mov	r7,zero
  807f98:	01800284 	movi	r6,10
  807f9c:	08094980 	call	809498 <__multadd>
  807fa0:	d9000c17 	ldw	r4,48(sp)
  807fa4:	1023883a 	mov	r17,r2
  807fa8:	0102040e 	bge	zero,r4,8087bc <_dtoa_r+0x1600>
  807fac:	d9000615 	stw	r4,24(sp)
  807fb0:	0500050e 	bge	zero,r20,807fc8 <_dtoa_r+0xe0c>
  807fb4:	880b883a 	mov	r5,r17
  807fb8:	a00d883a 	mov	r6,r20
  807fbc:	e009883a 	mov	r4,fp
  807fc0:	0809b480 	call	809b48 <__lshift>
  807fc4:	1023883a 	mov	r17,r2
  807fc8:	9801241e 	bne	r19,zero,80845c <_dtoa_r+0x12a0>
  807fcc:	8829883a 	mov	r20,r17
  807fd0:	d9000617 	ldw	r4,24(sp)
  807fd4:	dcc00717 	ldw	r19,28(sp)
  807fd8:	9480004c 	andi	r18,r18,1
  807fdc:	20bfffc4 	addi	r2,r4,-1
  807fe0:	9885883a 	add	r2,r19,r2
  807fe4:	d8800415 	stw	r2,16(sp)
  807fe8:	dc800615 	stw	r18,24(sp)
  807fec:	a80b883a 	mov	r5,r21
  807ff0:	8009883a 	mov	r4,r16
  807ff4:	0806fbc0 	call	806fbc <quorem>
  807ff8:	880b883a 	mov	r5,r17
  807ffc:	8009883a 	mov	r4,r16
  808000:	102f883a 	mov	r23,r2
  808004:	0809c900 	call	809c90 <__mcmp>
  808008:	a80b883a 	mov	r5,r21
  80800c:	a00d883a 	mov	r6,r20
  808010:	e009883a 	mov	r4,fp
  808014:	102d883a 	mov	r22,r2
  808018:	0809cf00 	call	809cf0 <__mdiff>
  80801c:	1007883a 	mov	r3,r2
  808020:	10800317 	ldw	r2,12(r2)
  808024:	bc800c04 	addi	r18,r23,48
  808028:	180b883a 	mov	r5,r3
  80802c:	10004e1e 	bne	r2,zero,808168 <_dtoa_r+0xfac>
  808030:	8009883a 	mov	r4,r16
  808034:	d8c01615 	stw	r3,88(sp)
  808038:	0809c900 	call	809c90 <__mcmp>
  80803c:	d8c01617 	ldw	r3,88(sp)
  808040:	e009883a 	mov	r4,fp
  808044:	d8801615 	stw	r2,88(sp)
  808048:	180b883a 	mov	r5,r3
  80804c:	08094700 	call	809470 <_Bfree>
  808050:	d8801617 	ldw	r2,88(sp)
  808054:	1000041e 	bne	r2,zero,808068 <_dtoa_r+0xeac>
  808058:	d9800317 	ldw	r6,12(sp)
  80805c:	3000021e 	bne	r6,zero,808068 <_dtoa_r+0xeac>
  808060:	d8c00617 	ldw	r3,24(sp)
  808064:	18003726 	beq	r3,zero,808144 <_dtoa_r+0xf88>
  808068:	b0002016 	blt	r22,zero,8080ec <_dtoa_r+0xf30>
  80806c:	b000041e 	bne	r22,zero,808080 <_dtoa_r+0xec4>
  808070:	d9000317 	ldw	r4,12(sp)
  808074:	2000021e 	bne	r4,zero,808080 <_dtoa_r+0xec4>
  808078:	d8c00617 	ldw	r3,24(sp)
  80807c:	18001b26 	beq	r3,zero,8080ec <_dtoa_r+0xf30>
  808080:	00810716 	blt	zero,r2,8084a0 <_dtoa_r+0x12e4>
  808084:	d8c00417 	ldw	r3,16(sp)
  808088:	9d800044 	addi	r22,r19,1
  80808c:	9c800005 	stb	r18,0(r19)
  808090:	b02f883a 	mov	r23,r22
  808094:	98c10626 	beq	r19,r3,8084b0 <_dtoa_r+0x12f4>
  808098:	800b883a 	mov	r5,r16
  80809c:	000f883a 	mov	r7,zero
  8080a0:	01800284 	movi	r6,10
  8080a4:	e009883a 	mov	r4,fp
  8080a8:	08094980 	call	809498 <__multadd>
  8080ac:	1021883a 	mov	r16,r2
  8080b0:	000f883a 	mov	r7,zero
  8080b4:	01800284 	movi	r6,10
  8080b8:	880b883a 	mov	r5,r17
  8080bc:	e009883a 	mov	r4,fp
  8080c0:	8d002526 	beq	r17,r20,808158 <_dtoa_r+0xf9c>
  8080c4:	08094980 	call	809498 <__multadd>
  8080c8:	a00b883a 	mov	r5,r20
  8080cc:	000f883a 	mov	r7,zero
  8080d0:	01800284 	movi	r6,10
  8080d4:	e009883a 	mov	r4,fp
  8080d8:	1023883a 	mov	r17,r2
  8080dc:	08094980 	call	809498 <__multadd>
  8080e0:	1029883a 	mov	r20,r2
  8080e4:	b027883a 	mov	r19,r22
  8080e8:	003fc006 	br	807fec <__alt_mem_onchip_mem+0xff787fec>
  8080ec:	9011883a 	mov	r8,r18
  8080f0:	00800e0e 	bge	zero,r2,80812c <_dtoa_r+0xf70>
  8080f4:	800b883a 	mov	r5,r16
  8080f8:	01800044 	movi	r6,1
  8080fc:	e009883a 	mov	r4,fp
  808100:	da001715 	stw	r8,92(sp)
  808104:	0809b480 	call	809b48 <__lshift>
  808108:	a80b883a 	mov	r5,r21
  80810c:	1009883a 	mov	r4,r2
  808110:	1021883a 	mov	r16,r2
  808114:	0809c900 	call	809c90 <__mcmp>
  808118:	da001717 	ldw	r8,92(sp)
  80811c:	0081960e 	bge	zero,r2,808778 <_dtoa_r+0x15bc>
  808120:	00800e44 	movi	r2,57
  808124:	40817026 	beq	r8,r2,8086e8 <_dtoa_r+0x152c>
  808128:	ba000c44 	addi	r8,r23,49
  80812c:	8825883a 	mov	r18,r17
  808130:	9dc00044 	addi	r23,r19,1
  808134:	9a000005 	stb	r8,0(r19)
  808138:	a023883a 	mov	r17,r20
  80813c:	dc000915 	stw	r16,36(sp)
  808140:	003f2406 	br	807dd4 <__alt_mem_onchip_mem+0xff787dd4>
  808144:	00800e44 	movi	r2,57
  808148:	9011883a 	mov	r8,r18
  80814c:	90816626 	beq	r18,r2,8086e8 <_dtoa_r+0x152c>
  808150:	05bff516 	blt	zero,r22,808128 <__alt_mem_onchip_mem+0xff788128>
  808154:	003ff506 	br	80812c <__alt_mem_onchip_mem+0xff78812c>
  808158:	08094980 	call	809498 <__multadd>
  80815c:	1023883a 	mov	r17,r2
  808160:	1029883a 	mov	r20,r2
  808164:	003fdf06 	br	8080e4 <__alt_mem_onchip_mem+0xff7880e4>
  808168:	e009883a 	mov	r4,fp
  80816c:	08094700 	call	809470 <_Bfree>
  808170:	00800044 	movi	r2,1
  808174:	003fbc06 	br	808068 <__alt_mem_onchip_mem+0xff788068>
  808178:	a80b883a 	mov	r5,r21
  80817c:	8009883a 	mov	r4,r16
  808180:	0809c900 	call	809c90 <__mcmp>
  808184:	103edb0e 	bge	r2,zero,807cf4 <__alt_mem_onchip_mem+0xff787cf4>
  808188:	800b883a 	mov	r5,r16
  80818c:	000f883a 	mov	r7,zero
  808190:	01800284 	movi	r6,10
  808194:	e009883a 	mov	r4,fp
  808198:	08094980 	call	809498 <__multadd>
  80819c:	1021883a 	mov	r16,r2
  8081a0:	d8800517 	ldw	r2,20(sp)
  8081a4:	d8c00b17 	ldw	r3,44(sp)
  8081a8:	10bfffc4 	addi	r2,r2,-1
  8081ac:	d8800515 	stw	r2,20(sp)
  8081b0:	183f761e 	bne	r3,zero,807f8c <__alt_mem_onchip_mem+0xff787f8c>
  8081b4:	d9000c17 	ldw	r4,48(sp)
  8081b8:	0101730e 	bge	zero,r4,808788 <_dtoa_r+0x15cc>
  8081bc:	d9000615 	stw	r4,24(sp)
  8081c0:	003ed006 	br	807d04 <__alt_mem_onchip_mem+0xff787d04>
  8081c4:	00800084 	movi	r2,2
  8081c8:	3081861e 	bne	r6,r2,8087e4 <_dtoa_r+0x1628>
  8081cc:	d8000b15 	stw	zero,44(sp)
  8081d0:	003f3c06 	br	807ec4 <__alt_mem_onchip_mem+0xff787ec4>
  8081d4:	dc000917 	ldw	r16,36(sp)
  8081d8:	003e9206 	br	807c24 <__alt_mem_onchip_mem+0xff787c24>
  8081dc:	d9c00317 	ldw	r7,12(sp)
  8081e0:	00800084 	movi	r2,2
  8081e4:	11fec50e 	bge	r2,r7,807cfc <__alt_mem_onchip_mem+0xff787cfc>
  8081e8:	d9000617 	ldw	r4,24(sp)
  8081ec:	20013c1e 	bne	r4,zero,8086e0 <_dtoa_r+0x1524>
  8081f0:	a80b883a 	mov	r5,r21
  8081f4:	000f883a 	mov	r7,zero
  8081f8:	01800144 	movi	r6,5
  8081fc:	e009883a 	mov	r4,fp
  808200:	08094980 	call	809498 <__multadd>
  808204:	100b883a 	mov	r5,r2
  808208:	8009883a 	mov	r4,r16
  80820c:	102b883a 	mov	r21,r2
  808210:	0809c900 	call	809c90 <__mcmp>
  808214:	dc000915 	stw	r16,36(sp)
  808218:	00bf410e 	bge	zero,r2,807f20 <__alt_mem_onchip_mem+0xff787f20>
  80821c:	d9c00717 	ldw	r7,28(sp)
  808220:	00800c44 	movi	r2,49
  808224:	38800005 	stb	r2,0(r7)
  808228:	d8800517 	ldw	r2,20(sp)
  80822c:	3dc00044 	addi	r23,r7,1
  808230:	10800044 	addi	r2,r2,1
  808234:	d8800515 	stw	r2,20(sp)
  808238:	003f3d06 	br	807f30 <__alt_mem_onchip_mem+0xff787f30>
  80823c:	d9800517 	ldw	r6,20(sp)
  808240:	d9c00717 	ldw	r7,28(sp)
  808244:	00800c44 	movi	r2,49
  808248:	31800044 	addi	r6,r6,1
  80824c:	d9800515 	stw	r6,20(sp)
  808250:	38800005 	stb	r2,0(r7)
  808254:	003edf06 	br	807dd4 <__alt_mem_onchip_mem+0xff787dd4>
  808258:	d8000b15 	stw	zero,44(sp)
  80825c:	003c9f06 	br	8074dc <__alt_mem_onchip_mem+0xff7874dc>
  808260:	903e7e1e 	bne	r18,zero,807c5c <__alt_mem_onchip_mem+0xff787c5c>
  808264:	00800434 	movhi	r2,16
  808268:	10bfffc4 	addi	r2,r2,-1
  80826c:	9884703a 	and	r2,r19,r2
  808270:	1000ea1e 	bne	r2,zero,80861c <_dtoa_r+0x1460>
  808274:	9cdffc2c 	andhi	r19,r19,32752
  808278:	9800e826 	beq	r19,zero,80861c <_dtoa_r+0x1460>
  80827c:	d9c00817 	ldw	r7,32(sp)
  808280:	b5800044 	addi	r22,r22,1
  808284:	04c00044 	movi	r19,1
  808288:	39c00044 	addi	r7,r7,1
  80828c:	d9c00815 	stw	r7,32(sp)
  808290:	d8800d17 	ldw	r2,52(sp)
  808294:	103e721e 	bne	r2,zero,807c60 <__alt_mem_onchip_mem+0xff787c60>
  808298:	00800044 	movi	r2,1
  80829c:	003e7906 	br	807c84 <__alt_mem_onchip_mem+0xff787c84>
  8082a0:	8009883a 	mov	r4,r16
  8082a4:	080f8100 	call	80f810 <__floatsidf>
  8082a8:	d9800f17 	ldw	r6,60(sp)
  8082ac:	d9c01017 	ldw	r7,64(sp)
  8082b0:	1009883a 	mov	r4,r2
  8082b4:	180b883a 	mov	r5,r3
  8082b8:	080e77c0 	call	80e77c <__muldf3>
  8082bc:	000d883a 	mov	r6,zero
  8082c0:	01d00734 	movhi	r7,16412
  8082c4:	1009883a 	mov	r4,r2
  8082c8:	180b883a 	mov	r5,r3
  8082cc:	080d3900 	call	80d390 <__adddf3>
  8082d0:	047f3034 	movhi	r17,64704
  8082d4:	1021883a 	mov	r16,r2
  8082d8:	1c63883a 	add	r17,r3,r17
  8082dc:	d9000f17 	ldw	r4,60(sp)
  8082e0:	d9401017 	ldw	r5,64(sp)
  8082e4:	000d883a 	mov	r6,zero
  8082e8:	01d00534 	movhi	r7,16404
  8082ec:	080ee940 	call	80ee94 <__subdf3>
  8082f0:	800d883a 	mov	r6,r16
  8082f4:	880f883a 	mov	r7,r17
  8082f8:	1009883a 	mov	r4,r2
  8082fc:	180b883a 	mov	r5,r3
  808300:	102b883a 	mov	r21,r2
  808304:	1829883a 	mov	r20,r3
  808308:	080e5ac0 	call	80e5ac <__gedf2>
  80830c:	00806c16 	blt	zero,r2,8084c0 <_dtoa_r+0x1304>
  808310:	89e0003c 	xorhi	r7,r17,32768
  808314:	800d883a 	mov	r6,r16
  808318:	a809883a 	mov	r4,r21
  80831c:	a00b883a 	mov	r5,r20
  808320:	080e6880 	call	80e688 <__ledf2>
  808324:	103d7e0e 	bge	r2,zero,807920 <__alt_mem_onchip_mem+0xff787920>
  808328:	002b883a 	mov	r21,zero
  80832c:	0023883a 	mov	r17,zero
  808330:	003efb06 	br	807f20 <__alt_mem_onchip_mem+0xff787f20>
  808334:	d8800717 	ldw	r2,28(sp)
  808338:	003bd006 	br	80727c <__alt_mem_onchip_mem+0xff78727c>
  80833c:	d9000a17 	ldw	r4,40(sp)
  808340:	d9800d17 	ldw	r6,52(sp)
  808344:	dd400a15 	stw	r21,40(sp)
  808348:	a905c83a 	sub	r2,r21,r4
  80834c:	308d883a 	add	r6,r6,r2
  808350:	d9800d15 	stw	r6,52(sp)
  808354:	002b883a 	mov	r21,zero
  808358:	003e0606 	br	807b74 <__alt_mem_onchip_mem+0xff787b74>
  80835c:	9023883a 	mov	r17,r18
  808360:	9829883a 	mov	r20,r19
  808364:	04000084 	movi	r16,2
  808368:	003c9206 	br	8075b4 <__alt_mem_onchip_mem+0xff7875b4>
  80836c:	04000044 	movi	r16,1
  808370:	dc000c15 	stw	r16,48(sp)
  808374:	dc000615 	stw	r16,24(sp)
  808378:	dc002215 	stw	r16,136(sp)
  80837c:	e0001115 	stw	zero,68(fp)
  808380:	000b883a 	mov	r5,zero
  808384:	003c6906 	br	80752c <__alt_mem_onchip_mem+0xff78752c>
  808388:	3021883a 	mov	r16,r6
  80838c:	003ffb06 	br	80837c <__alt_mem_onchip_mem+0xff78837c>
  808390:	1000021e 	bne	r2,zero,80839c <_dtoa_r+0x11e0>
  808394:	4200004c 	andi	r8,r8,1
  808398:	403e7d1e 	bne	r8,zero,807d90 <__alt_mem_onchip_mem+0xff787d90>
  80839c:	01000c04 	movi	r4,48
  8083a0:	00000106 	br	8083a8 <_dtoa_r+0x11ec>
  8083a4:	102f883a 	mov	r23,r2
  8083a8:	b8bfffc4 	addi	r2,r23,-1
  8083ac:	10c00007 	ldb	r3,0(r2)
  8083b0:	193ffc26 	beq	r3,r4,8083a4 <__alt_mem_onchip_mem+0xff7883a4>
  8083b4:	003e8706 	br	807dd4 <__alt_mem_onchip_mem+0xff787dd4>
  8083b8:	d8800517 	ldw	r2,20(sp)
  8083bc:	00a3c83a 	sub	r17,zero,r2
  8083c0:	8800a426 	beq	r17,zero,808654 <_dtoa_r+0x1498>
  8083c4:	888003cc 	andi	r2,r17,15
  8083c8:	100490fa 	slli	r2,r2,3
  8083cc:	00c02074 	movhi	r3,129
  8083d0:	18cf4704 	addi	r3,r3,15644
  8083d4:	1885883a 	add	r2,r3,r2
  8083d8:	11800017 	ldw	r6,0(r2)
  8083dc:	11c00117 	ldw	r7,4(r2)
  8083e0:	9009883a 	mov	r4,r18
  8083e4:	980b883a 	mov	r5,r19
  8083e8:	8823d13a 	srai	r17,r17,4
  8083ec:	080e77c0 	call	80e77c <__muldf3>
  8083f0:	d8800f15 	stw	r2,60(sp)
  8083f4:	d8c01015 	stw	r3,64(sp)
  8083f8:	8800e826 	beq	r17,zero,80879c <_dtoa_r+0x15e0>
  8083fc:	05002074 	movhi	r20,129
  808400:	a50f3d04 	addi	r20,r20,15604
  808404:	04000084 	movi	r16,2
  808408:	8980004c 	andi	r6,r17,1
  80840c:	1009883a 	mov	r4,r2
  808410:	8823d07a 	srai	r17,r17,1
  808414:	180b883a 	mov	r5,r3
  808418:	30000426 	beq	r6,zero,80842c <_dtoa_r+0x1270>
  80841c:	a1800017 	ldw	r6,0(r20)
  808420:	a1c00117 	ldw	r7,4(r20)
  808424:	84000044 	addi	r16,r16,1
  808428:	080e77c0 	call	80e77c <__muldf3>
  80842c:	a5000204 	addi	r20,r20,8
  808430:	883ff51e 	bne	r17,zero,808408 <__alt_mem_onchip_mem+0xff788408>
  808434:	d8800f15 	stw	r2,60(sp)
  808438:	d8c01015 	stw	r3,64(sp)
  80843c:	003c7606 	br	807618 <__alt_mem_onchip_mem+0xff787618>
  808440:	00c00c04 	movi	r3,48
  808444:	10c00005 	stb	r3,0(r2)
  808448:	d8c00517 	ldw	r3,20(sp)
  80844c:	bd3fffc3 	ldbu	r20,-1(r23)
  808450:	18c00044 	addi	r3,r3,1
  808454:	d8c00515 	stw	r3,20(sp)
  808458:	003db906 	br	807b40 <__alt_mem_onchip_mem+0xff787b40>
  80845c:	89400117 	ldw	r5,4(r17)
  808460:	e009883a 	mov	r4,fp
  808464:	08093c80 	call	8093c8 <_Balloc>
  808468:	89800417 	ldw	r6,16(r17)
  80846c:	89400304 	addi	r5,r17,12
  808470:	11000304 	addi	r4,r2,12
  808474:	31800084 	addi	r6,r6,2
  808478:	318d883a 	add	r6,r6,r6
  80847c:	318d883a 	add	r6,r6,r6
  808480:	1027883a 	mov	r19,r2
  808484:	08091240 	call	809124 <memcpy>
  808488:	01800044 	movi	r6,1
  80848c:	980b883a 	mov	r5,r19
  808490:	e009883a 	mov	r4,fp
  808494:	0809b480 	call	809b48 <__lshift>
  808498:	1029883a 	mov	r20,r2
  80849c:	003ecc06 	br	807fd0 <__alt_mem_onchip_mem+0xff787fd0>
  8084a0:	00800e44 	movi	r2,57
  8084a4:	90809026 	beq	r18,r2,8086e8 <_dtoa_r+0x152c>
  8084a8:	92000044 	addi	r8,r18,1
  8084ac:	003f1f06 	br	80812c <__alt_mem_onchip_mem+0xff78812c>
  8084b0:	9011883a 	mov	r8,r18
  8084b4:	8825883a 	mov	r18,r17
  8084b8:	a023883a 	mov	r17,r20
  8084bc:	003e2906 	br	807d64 <__alt_mem_onchip_mem+0xff787d64>
  8084c0:	002b883a 	mov	r21,zero
  8084c4:	0023883a 	mov	r17,zero
  8084c8:	003f5406 	br	80821c <__alt_mem_onchip_mem+0xff78821c>
  8084cc:	61bfffc4 	addi	r6,r12,-1
  8084d0:	300490fa 	slli	r2,r6,3
  8084d4:	00c02074 	movhi	r3,129
  8084d8:	18cf4704 	addi	r3,r3,15644
  8084dc:	1885883a 	add	r2,r3,r2
  8084e0:	11000017 	ldw	r4,0(r2)
  8084e4:	11400117 	ldw	r5,4(r2)
  8084e8:	d8800717 	ldw	r2,28(sp)
  8084ec:	880f883a 	mov	r7,r17
  8084f0:	d9801215 	stw	r6,72(sp)
  8084f4:	800d883a 	mov	r6,r16
  8084f8:	db001615 	stw	r12,88(sp)
  8084fc:	15c00044 	addi	r23,r2,1
  808500:	080e77c0 	call	80e77c <__muldf3>
  808504:	d9401017 	ldw	r5,64(sp)
  808508:	d9000f17 	ldw	r4,60(sp)
  80850c:	d8c01515 	stw	r3,84(sp)
  808510:	d8801415 	stw	r2,80(sp)
  808514:	080f7900 	call	80f790 <__fixdfsi>
  808518:	1009883a 	mov	r4,r2
  80851c:	1021883a 	mov	r16,r2
  808520:	080f8100 	call	80f810 <__floatsidf>
  808524:	d9000f17 	ldw	r4,60(sp)
  808528:	d9401017 	ldw	r5,64(sp)
  80852c:	100d883a 	mov	r6,r2
  808530:	180f883a 	mov	r7,r3
  808534:	080ee940 	call	80ee94 <__subdf3>
  808538:	1829883a 	mov	r20,r3
  80853c:	d8c00717 	ldw	r3,28(sp)
  808540:	84000c04 	addi	r16,r16,48
  808544:	1023883a 	mov	r17,r2
  808548:	1c000005 	stb	r16,0(r3)
  80854c:	db001617 	ldw	r12,88(sp)
  808550:	00800044 	movi	r2,1
  808554:	60802226 	beq	r12,r2,8085e0 <_dtoa_r+0x1424>
  808558:	d9c00717 	ldw	r7,28(sp)
  80855c:	8805883a 	mov	r2,r17
  808560:	b82b883a 	mov	r21,r23
  808564:	3b19883a 	add	r12,r7,r12
  808568:	6023883a 	mov	r17,r12
  80856c:	a007883a 	mov	r3,r20
  808570:	dc800f15 	stw	r18,60(sp)
  808574:	000d883a 	mov	r6,zero
  808578:	01d00934 	movhi	r7,16420
  80857c:	1009883a 	mov	r4,r2
  808580:	180b883a 	mov	r5,r3
  808584:	080e77c0 	call	80e77c <__muldf3>
  808588:	180b883a 	mov	r5,r3
  80858c:	1009883a 	mov	r4,r2
  808590:	1829883a 	mov	r20,r3
  808594:	1025883a 	mov	r18,r2
  808598:	080f7900 	call	80f790 <__fixdfsi>
  80859c:	1009883a 	mov	r4,r2
  8085a0:	1021883a 	mov	r16,r2
  8085a4:	080f8100 	call	80f810 <__floatsidf>
  8085a8:	100d883a 	mov	r6,r2
  8085ac:	180f883a 	mov	r7,r3
  8085b0:	9009883a 	mov	r4,r18
  8085b4:	a00b883a 	mov	r5,r20
  8085b8:	84000c04 	addi	r16,r16,48
  8085bc:	080ee940 	call	80ee94 <__subdf3>
  8085c0:	ad400044 	addi	r21,r21,1
  8085c4:	ac3fffc5 	stb	r16,-1(r21)
  8085c8:	ac7fea1e 	bne	r21,r17,808574 <__alt_mem_onchip_mem+0xff788574>
  8085cc:	1023883a 	mov	r17,r2
  8085d0:	d8801217 	ldw	r2,72(sp)
  8085d4:	dc800f17 	ldw	r18,60(sp)
  8085d8:	1829883a 	mov	r20,r3
  8085dc:	b8af883a 	add	r23,r23,r2
  8085e0:	d9001417 	ldw	r4,80(sp)
  8085e4:	d9401517 	ldw	r5,84(sp)
  8085e8:	000d883a 	mov	r6,zero
  8085ec:	01cff834 	movhi	r7,16352
  8085f0:	080d3900 	call	80d390 <__adddf3>
  8085f4:	880d883a 	mov	r6,r17
  8085f8:	a00f883a 	mov	r7,r20
  8085fc:	1009883a 	mov	r4,r2
  808600:	180b883a 	mov	r5,r3
  808604:	080e6880 	call	80e688 <__ledf2>
  808608:	10003e0e 	bge	r2,zero,808704 <_dtoa_r+0x1548>
  80860c:	d9001317 	ldw	r4,76(sp)
  808610:	bd3fffc3 	ldbu	r20,-1(r23)
  808614:	d9000515 	stw	r4,20(sp)
  808618:	003d3b06 	br	807b08 <__alt_mem_onchip_mem+0xff787b08>
  80861c:	0027883a 	mov	r19,zero
  808620:	003f1b06 	br	808290 <__alt_mem_onchip_mem+0xff788290>
  808624:	d8800817 	ldw	r2,32(sp)
  808628:	11e9c83a 	sub	r20,r2,r7
  80862c:	0005883a 	mov	r2,zero
  808630:	003d5406 	br	807b84 <__alt_mem_onchip_mem+0xff787b84>
  808634:	00800044 	movi	r2,1
  808638:	003dc706 	br	807d58 <__alt_mem_onchip_mem+0xff787d58>
  80863c:	d8c00217 	ldw	r3,8(sp)
  808640:	00800d84 	movi	r2,54
  808644:	dd400a17 	ldw	r21,40(sp)
  808648:	10c5c83a 	sub	r2,r2,r3
  80864c:	dd000817 	ldw	r20,32(sp)
  808650:	003d4c06 	br	807b84 <__alt_mem_onchip_mem+0xff787b84>
  808654:	dc800f15 	stw	r18,60(sp)
  808658:	dcc01015 	stw	r19,64(sp)
  80865c:	04000084 	movi	r16,2
  808660:	003bed06 	br	807618 <__alt_mem_onchip_mem+0xff787618>
  808664:	d9000617 	ldw	r4,24(sp)
  808668:	203f0d26 	beq	r4,zero,8082a0 <__alt_mem_onchip_mem+0xff7882a0>
  80866c:	d9800c17 	ldw	r6,48(sp)
  808670:	01bcab0e 	bge	zero,r6,807920 <__alt_mem_onchip_mem+0xff787920>
  808674:	d9401017 	ldw	r5,64(sp)
  808678:	d9000f17 	ldw	r4,60(sp)
  80867c:	000d883a 	mov	r6,zero
  808680:	01d00934 	movhi	r7,16420
  808684:	080e77c0 	call	80e77c <__muldf3>
  808688:	81000044 	addi	r4,r16,1
  80868c:	d8800f15 	stw	r2,60(sp)
  808690:	d8c01015 	stw	r3,64(sp)
  808694:	080f8100 	call	80f810 <__floatsidf>
  808698:	d9800f17 	ldw	r6,60(sp)
  80869c:	d9c01017 	ldw	r7,64(sp)
  8086a0:	1009883a 	mov	r4,r2
  8086a4:	180b883a 	mov	r5,r3
  8086a8:	080e77c0 	call	80e77c <__muldf3>
  8086ac:	01d00734 	movhi	r7,16412
  8086b0:	000d883a 	mov	r6,zero
  8086b4:	1009883a 	mov	r4,r2
  8086b8:	180b883a 	mov	r5,r3
  8086bc:	080d3900 	call	80d390 <__adddf3>
  8086c0:	d9c00517 	ldw	r7,20(sp)
  8086c4:	047f3034 	movhi	r17,64704
  8086c8:	1021883a 	mov	r16,r2
  8086cc:	39ffffc4 	addi	r7,r7,-1
  8086d0:	d9c01315 	stw	r7,76(sp)
  8086d4:	1c63883a 	add	r17,r3,r17
  8086d8:	db000c17 	ldw	r12,48(sp)
  8086dc:	003bea06 	br	807688 <__alt_mem_onchip_mem+0xff787688>
  8086e0:	dc000915 	stw	r16,36(sp)
  8086e4:	003e0e06 	br	807f20 <__alt_mem_onchip_mem+0xff787f20>
  8086e8:	01000e44 	movi	r4,57
  8086ec:	8825883a 	mov	r18,r17
  8086f0:	9dc00044 	addi	r23,r19,1
  8086f4:	99000005 	stb	r4,0(r19)
  8086f8:	a023883a 	mov	r17,r20
  8086fc:	dc000915 	stw	r16,36(sp)
  808700:	003da406 	br	807d94 <__alt_mem_onchip_mem+0xff787d94>
  808704:	d9801417 	ldw	r6,80(sp)
  808708:	d9c01517 	ldw	r7,84(sp)
  80870c:	0009883a 	mov	r4,zero
  808710:	014ff834 	movhi	r5,16352
  808714:	080ee940 	call	80ee94 <__subdf3>
  808718:	880d883a 	mov	r6,r17
  80871c:	a00f883a 	mov	r7,r20
  808720:	1009883a 	mov	r4,r2
  808724:	180b883a 	mov	r5,r3
  808728:	080e5ac0 	call	80e5ac <__gedf2>
  80872c:	00bc7c0e 	bge	zero,r2,807920 <__alt_mem_onchip_mem+0xff787920>
  808730:	01000c04 	movi	r4,48
  808734:	00000106 	br	80873c <_dtoa_r+0x1580>
  808738:	102f883a 	mov	r23,r2
  80873c:	b8bfffc4 	addi	r2,r23,-1
  808740:	10c00007 	ldb	r3,0(r2)
  808744:	193ffc26 	beq	r3,r4,808738 <__alt_mem_onchip_mem+0xff788738>
  808748:	d9801317 	ldw	r6,76(sp)
  80874c:	d9800515 	stw	r6,20(sp)
  808750:	003c4406 	br	807864 <__alt_mem_onchip_mem+0xff787864>
  808754:	d9801317 	ldw	r6,76(sp)
  808758:	d9800515 	stw	r6,20(sp)
  80875c:	003cea06 	br	807b08 <__alt_mem_onchip_mem+0xff787b08>
  808760:	dd800f17 	ldw	r22,60(sp)
  808764:	dcc01017 	ldw	r19,64(sp)
  808768:	dc801217 	ldw	r18,72(sp)
  80876c:	003c6c06 	br	807920 <__alt_mem_onchip_mem+0xff787920>
  808770:	903e031e 	bne	r18,zero,807f80 <__alt_mem_onchip_mem+0xff787f80>
  808774:	003ebb06 	br	808264 <__alt_mem_onchip_mem+0xff788264>
  808778:	103e6c1e 	bne	r2,zero,80812c <__alt_mem_onchip_mem+0xff78812c>
  80877c:	4080004c 	andi	r2,r8,1
  808780:	103e6a26 	beq	r2,zero,80812c <__alt_mem_onchip_mem+0xff78812c>
  808784:	003e6606 	br	808120 <__alt_mem_onchip_mem+0xff788120>
  808788:	d8c00317 	ldw	r3,12(sp)
  80878c:	00800084 	movi	r2,2
  808790:	10c02916 	blt	r2,r3,808838 <_dtoa_r+0x167c>
  808794:	d9000c17 	ldw	r4,48(sp)
  808798:	003e8806 	br	8081bc <__alt_mem_onchip_mem+0xff7881bc>
  80879c:	04000084 	movi	r16,2
  8087a0:	003b9d06 	br	807618 <__alt_mem_onchip_mem+0xff787618>
  8087a4:	d9001317 	ldw	r4,76(sp)
  8087a8:	d9000515 	stw	r4,20(sp)
  8087ac:	003cd606 	br	807b08 <__alt_mem_onchip_mem+0xff787b08>
  8087b0:	d8801317 	ldw	r2,76(sp)
  8087b4:	d8800515 	stw	r2,20(sp)
  8087b8:	003c2a06 	br	807864 <__alt_mem_onchip_mem+0xff787864>
  8087bc:	d9800317 	ldw	r6,12(sp)
  8087c0:	00800084 	movi	r2,2
  8087c4:	11801516 	blt	r2,r6,80881c <_dtoa_r+0x1660>
  8087c8:	d9c00c17 	ldw	r7,48(sp)
  8087cc:	d9c00615 	stw	r7,24(sp)
  8087d0:	003df706 	br	807fb0 <__alt_mem_onchip_mem+0xff787fb0>
  8087d4:	193d3926 	beq	r3,r4,807cbc <__alt_mem_onchip_mem+0xff787cbc>
  8087d8:	00c00f04 	movi	r3,60
  8087dc:	1885c83a 	sub	r2,r3,r2
  8087e0:	003ddf06 	br	807f60 <__alt_mem_onchip_mem+0xff787f60>
  8087e4:	e009883a 	mov	r4,fp
  8087e8:	e0001115 	stw	zero,68(fp)
  8087ec:	000b883a 	mov	r5,zero
  8087f0:	08093c80 	call	8093c8 <_Balloc>
  8087f4:	d8800715 	stw	r2,28(sp)
  8087f8:	d8c00717 	ldw	r3,28(sp)
  8087fc:	00bfffc4 	movi	r2,-1
  808800:	01000044 	movi	r4,1
  808804:	d8800c15 	stw	r2,48(sp)
  808808:	e0c01015 	stw	r3,64(fp)
  80880c:	d9000b15 	stw	r4,44(sp)
  808810:	d8800615 	stw	r2,24(sp)
  808814:	d8002215 	stw	zero,136(sp)
  808818:	003c4106 	br	807920 <__alt_mem_onchip_mem+0xff787920>
  80881c:	d8c00c17 	ldw	r3,48(sp)
  808820:	d8c00615 	stw	r3,24(sp)
  808824:	003e7006 	br	8081e8 <__alt_mem_onchip_mem+0xff7881e8>
  808828:	04400044 	movi	r17,1
  80882c:	003b2006 	br	8074b0 <__alt_mem_onchip_mem+0xff7874b0>
  808830:	000b883a 	mov	r5,zero
  808834:	003b3d06 	br	80752c <__alt_mem_onchip_mem+0xff78752c>
  808838:	d8800c17 	ldw	r2,48(sp)
  80883c:	d8800615 	stw	r2,24(sp)
  808840:	003e6906 	br	8081e8 <__alt_mem_onchip_mem+0xff7881e8>

00808844 <_fclose_r>:
  808844:	28003926 	beq	r5,zero,80892c <_fclose_r+0xe8>
  808848:	defffc04 	addi	sp,sp,-16
  80884c:	dc400115 	stw	r17,4(sp)
  808850:	dc000015 	stw	r16,0(sp)
  808854:	dfc00315 	stw	ra,12(sp)
  808858:	dc800215 	stw	r18,8(sp)
  80885c:	2023883a 	mov	r17,r4
  808860:	2821883a 	mov	r16,r5
  808864:	20000226 	beq	r4,zero,808870 <_fclose_r+0x2c>
  808868:	20800e17 	ldw	r2,56(r4)
  80886c:	10002726 	beq	r2,zero,80890c <_fclose_r+0xc8>
  808870:	8080030f 	ldh	r2,12(r16)
  808874:	1000071e 	bne	r2,zero,808894 <_fclose_r+0x50>
  808878:	0005883a 	mov	r2,zero
  80887c:	dfc00317 	ldw	ra,12(sp)
  808880:	dc800217 	ldw	r18,8(sp)
  808884:	dc400117 	ldw	r17,4(sp)
  808888:	dc000017 	ldw	r16,0(sp)
  80888c:	dec00404 	addi	sp,sp,16
  808890:	f800283a 	ret
  808894:	800b883a 	mov	r5,r16
  808898:	8809883a 	mov	r4,r17
  80889c:	08027040 	call	802704 <__sflush_r>
  8088a0:	1025883a 	mov	r18,r2
  8088a4:	80800b17 	ldw	r2,44(r16)
  8088a8:	10000426 	beq	r2,zero,8088bc <_fclose_r+0x78>
  8088ac:	81400717 	ldw	r5,28(r16)
  8088b0:	8809883a 	mov	r4,r17
  8088b4:	103ee83a 	callr	r2
  8088b8:	10001616 	blt	r2,zero,808914 <_fclose_r+0xd0>
  8088bc:	8080030b 	ldhu	r2,12(r16)
  8088c0:	1080200c 	andi	r2,r2,128
  8088c4:	1000151e 	bne	r2,zero,80891c <_fclose_r+0xd8>
  8088c8:	81400c17 	ldw	r5,48(r16)
  8088cc:	28000526 	beq	r5,zero,8088e4 <_fclose_r+0xa0>
  8088d0:	80801004 	addi	r2,r16,64
  8088d4:	28800226 	beq	r5,r2,8088e0 <_fclose_r+0x9c>
  8088d8:	8809883a 	mov	r4,r17
  8088dc:	0802fc80 	call	802fc8 <_free_r>
  8088e0:	80000c15 	stw	zero,48(r16)
  8088e4:	81401117 	ldw	r5,68(r16)
  8088e8:	28000326 	beq	r5,zero,8088f8 <_fclose_r+0xb4>
  8088ec:	8809883a 	mov	r4,r17
  8088f0:	0802fc80 	call	802fc8 <_free_r>
  8088f4:	80001115 	stw	zero,68(r16)
  8088f8:	0802d0c0 	call	802d0c <__sfp_lock_acquire>
  8088fc:	8000030d 	sth	zero,12(r16)
  808900:	0802d100 	call	802d10 <__sfp_lock_release>
  808904:	9005883a 	mov	r2,r18
  808908:	003fdc06 	br	80887c <__alt_mem_onchip_mem+0xff78887c>
  80890c:	0802cfc0 	call	802cfc <__sinit>
  808910:	003fd706 	br	808870 <__alt_mem_onchip_mem+0xff788870>
  808914:	04bfffc4 	movi	r18,-1
  808918:	003fe806 	br	8088bc <__alt_mem_onchip_mem+0xff7888bc>
  80891c:	81400417 	ldw	r5,16(r16)
  808920:	8809883a 	mov	r4,r17
  808924:	0802fc80 	call	802fc8 <_free_r>
  808928:	003fe706 	br	8088c8 <__alt_mem_onchip_mem+0xff7888c8>
  80892c:	0005883a 	mov	r2,zero
  808930:	f800283a 	ret

00808934 <fclose>:
  808934:	00802074 	movhi	r2,129
  808938:	10979804 	addi	r2,r2,24160
  80893c:	200b883a 	mov	r5,r4
  808940:	11000017 	ldw	r4,0(r2)
  808944:	08088441 	jmpi	808844 <_fclose_r>

00808948 <__sflags>:
  808948:	28800007 	ldb	r2,0(r5)
  80894c:	00c01c84 	movi	r3,114
  808950:	10c02426 	beq	r2,r3,8089e4 <__sflags+0x9c>
  808954:	00c01dc4 	movi	r3,119
  808958:	10c01e26 	beq	r2,r3,8089d4 <__sflags+0x8c>
  80895c:	00c01844 	movi	r3,97
  808960:	10c00426 	beq	r2,r3,808974 <__sflags+0x2c>
  808964:	00800584 	movi	r2,22
  808968:	20800015 	stw	r2,0(r4)
  80896c:	0005883a 	mov	r2,zero
  808970:	f800283a 	ret
  808974:	02c08204 	movi	r11,520
  808978:	01000044 	movi	r4,1
  80897c:	00804204 	movi	r2,264
  808980:	01c00ac4 	movi	r7,43
  808984:	02bff8c4 	movi	r10,-29
  808988:	027fff04 	movi	r9,-4
  80898c:	02001e04 	movi	r8,120
  808990:	29400044 	addi	r5,r5,1
  808994:	28c00007 	ldb	r3,0(r5)
  808998:	18000626 	beq	r3,zero,8089b4 <__sflags+0x6c>
  80899c:	19c00826 	beq	r3,r7,8089c0 <__sflags+0x78>
  8089a0:	1a3ffb1e 	bne	r3,r8,808990 <__alt_mem_onchip_mem+0xff788990>
  8089a4:	29400044 	addi	r5,r5,1
  8089a8:	28c00007 	ldb	r3,0(r5)
  8089ac:	21020014 	ori	r4,r4,2048
  8089b0:	183ffa1e 	bne	r3,zero,80899c <__alt_mem_onchip_mem+0xff78899c>
  8089b4:	22c8b03a 	or	r4,r4,r11
  8089b8:	31000015 	stw	r4,0(r6)
  8089bc:	f800283a 	ret
  8089c0:	1284703a 	and	r2,r2,r10
  8089c4:	2248703a 	and	r4,r4,r9
  8089c8:	10800414 	ori	r2,r2,16
  8089cc:	21000094 	ori	r4,r4,2
  8089d0:	003fef06 	br	808990 <__alt_mem_onchip_mem+0xff788990>
  8089d4:	02c18004 	movi	r11,1536
  8089d8:	01000044 	movi	r4,1
  8089dc:	00800204 	movi	r2,8
  8089e0:	003fe706 	br	808980 <__alt_mem_onchip_mem+0xff788980>
  8089e4:	0017883a 	mov	r11,zero
  8089e8:	0009883a 	mov	r4,zero
  8089ec:	00800104 	movi	r2,4
  8089f0:	003fe306 	br	808980 <__alt_mem_onchip_mem+0xff788980>

008089f4 <__sfvwrite_r>:
  8089f4:	30800217 	ldw	r2,8(r6)
  8089f8:	10006726 	beq	r2,zero,808b98 <__sfvwrite_r+0x1a4>
  8089fc:	28c0030b 	ldhu	r3,12(r5)
  808a00:	defff404 	addi	sp,sp,-48
  808a04:	dd400715 	stw	r21,28(sp)
  808a08:	dd000615 	stw	r20,24(sp)
  808a0c:	dc000215 	stw	r16,8(sp)
  808a10:	dfc00b15 	stw	ra,44(sp)
  808a14:	df000a15 	stw	fp,40(sp)
  808a18:	ddc00915 	stw	r23,36(sp)
  808a1c:	dd800815 	stw	r22,32(sp)
  808a20:	dcc00515 	stw	r19,20(sp)
  808a24:	dc800415 	stw	r18,16(sp)
  808a28:	dc400315 	stw	r17,12(sp)
  808a2c:	1880020c 	andi	r2,r3,8
  808a30:	2821883a 	mov	r16,r5
  808a34:	202b883a 	mov	r21,r4
  808a38:	3029883a 	mov	r20,r6
  808a3c:	10002726 	beq	r2,zero,808adc <__sfvwrite_r+0xe8>
  808a40:	28800417 	ldw	r2,16(r5)
  808a44:	10002526 	beq	r2,zero,808adc <__sfvwrite_r+0xe8>
  808a48:	1880008c 	andi	r2,r3,2
  808a4c:	a4400017 	ldw	r17,0(r20)
  808a50:	10002a26 	beq	r2,zero,808afc <__sfvwrite_r+0x108>
  808a54:	05a00034 	movhi	r22,32768
  808a58:	0027883a 	mov	r19,zero
  808a5c:	0025883a 	mov	r18,zero
  808a60:	b5bf0004 	addi	r22,r22,-1024
  808a64:	980d883a 	mov	r6,r19
  808a68:	a809883a 	mov	r4,r21
  808a6c:	90004626 	beq	r18,zero,808b88 <__sfvwrite_r+0x194>
  808a70:	900f883a 	mov	r7,r18
  808a74:	b480022e 	bgeu	r22,r18,808a80 <__sfvwrite_r+0x8c>
  808a78:	01e00034 	movhi	r7,32768
  808a7c:	39ff0004 	addi	r7,r7,-1024
  808a80:	80800917 	ldw	r2,36(r16)
  808a84:	81400717 	ldw	r5,28(r16)
  808a88:	103ee83a 	callr	r2
  808a8c:	0080570e 	bge	zero,r2,808bec <__sfvwrite_r+0x1f8>
  808a90:	a0c00217 	ldw	r3,8(r20)
  808a94:	98a7883a 	add	r19,r19,r2
  808a98:	90a5c83a 	sub	r18,r18,r2
  808a9c:	1885c83a 	sub	r2,r3,r2
  808aa0:	a0800215 	stw	r2,8(r20)
  808aa4:	103fef1e 	bne	r2,zero,808a64 <__alt_mem_onchip_mem+0xff788a64>
  808aa8:	0005883a 	mov	r2,zero
  808aac:	dfc00b17 	ldw	ra,44(sp)
  808ab0:	df000a17 	ldw	fp,40(sp)
  808ab4:	ddc00917 	ldw	r23,36(sp)
  808ab8:	dd800817 	ldw	r22,32(sp)
  808abc:	dd400717 	ldw	r21,28(sp)
  808ac0:	dd000617 	ldw	r20,24(sp)
  808ac4:	dcc00517 	ldw	r19,20(sp)
  808ac8:	dc800417 	ldw	r18,16(sp)
  808acc:	dc400317 	ldw	r17,12(sp)
  808ad0:	dc000217 	ldw	r16,8(sp)
  808ad4:	dec00c04 	addi	sp,sp,48
  808ad8:	f800283a 	ret
  808adc:	800b883a 	mov	r5,r16
  808ae0:	a809883a 	mov	r4,r21
  808ae4:	0806e140 	call	806e14 <__swsetup_r>
  808ae8:	1000eb1e 	bne	r2,zero,808e98 <__sfvwrite_r+0x4a4>
  808aec:	80c0030b 	ldhu	r3,12(r16)
  808af0:	a4400017 	ldw	r17,0(r20)
  808af4:	1880008c 	andi	r2,r3,2
  808af8:	103fd61e 	bne	r2,zero,808a54 <__alt_mem_onchip_mem+0xff788a54>
  808afc:	1880004c 	andi	r2,r3,1
  808b00:	10003f1e 	bne	r2,zero,808c00 <__sfvwrite_r+0x20c>
  808b04:	0039883a 	mov	fp,zero
  808b08:	0025883a 	mov	r18,zero
  808b0c:	90001a26 	beq	r18,zero,808b78 <__sfvwrite_r+0x184>
  808b10:	1880800c 	andi	r2,r3,512
  808b14:	84c00217 	ldw	r19,8(r16)
  808b18:	10002126 	beq	r2,zero,808ba0 <__sfvwrite_r+0x1ac>
  808b1c:	982f883a 	mov	r23,r19
  808b20:	94c09336 	bltu	r18,r19,808d70 <__sfvwrite_r+0x37c>
  808b24:	1881200c 	andi	r2,r3,1152
  808b28:	10009e1e 	bne	r2,zero,808da4 <__sfvwrite_r+0x3b0>
  808b2c:	81000017 	ldw	r4,0(r16)
  808b30:	b80d883a 	mov	r6,r23
  808b34:	e00b883a 	mov	r5,fp
  808b38:	080926c0 	call	80926c <memmove>
  808b3c:	80c00217 	ldw	r3,8(r16)
  808b40:	81000017 	ldw	r4,0(r16)
  808b44:	9005883a 	mov	r2,r18
  808b48:	1ce7c83a 	sub	r19,r3,r19
  808b4c:	25cf883a 	add	r7,r4,r23
  808b50:	84c00215 	stw	r19,8(r16)
  808b54:	81c00015 	stw	r7,0(r16)
  808b58:	a0c00217 	ldw	r3,8(r20)
  808b5c:	e0b9883a 	add	fp,fp,r2
  808b60:	90a5c83a 	sub	r18,r18,r2
  808b64:	18a7c83a 	sub	r19,r3,r2
  808b68:	a4c00215 	stw	r19,8(r20)
  808b6c:	983fce26 	beq	r19,zero,808aa8 <__alt_mem_onchip_mem+0xff788aa8>
  808b70:	80c0030b 	ldhu	r3,12(r16)
  808b74:	903fe61e 	bne	r18,zero,808b10 <__alt_mem_onchip_mem+0xff788b10>
  808b78:	8f000017 	ldw	fp,0(r17)
  808b7c:	8c800117 	ldw	r18,4(r17)
  808b80:	8c400204 	addi	r17,r17,8
  808b84:	003fe106 	br	808b0c <__alt_mem_onchip_mem+0xff788b0c>
  808b88:	8cc00017 	ldw	r19,0(r17)
  808b8c:	8c800117 	ldw	r18,4(r17)
  808b90:	8c400204 	addi	r17,r17,8
  808b94:	003fb306 	br	808a64 <__alt_mem_onchip_mem+0xff788a64>
  808b98:	0005883a 	mov	r2,zero
  808b9c:	f800283a 	ret
  808ba0:	81000017 	ldw	r4,0(r16)
  808ba4:	80800417 	ldw	r2,16(r16)
  808ba8:	11005736 	bltu	r2,r4,808d08 <__sfvwrite_r+0x314>
  808bac:	85c00517 	ldw	r23,20(r16)
  808bb0:	95c05536 	bltu	r18,r23,808d08 <__sfvwrite_r+0x314>
  808bb4:	00a00034 	movhi	r2,32768
  808bb8:	10bfffc4 	addi	r2,r2,-1
  808bbc:	9009883a 	mov	r4,r18
  808bc0:	1480012e 	bgeu	r2,r18,808bc8 <__sfvwrite_r+0x1d4>
  808bc4:	1009883a 	mov	r4,r2
  808bc8:	b80b883a 	mov	r5,r23
  808bcc:	080d1dc0 	call	80d1dc <__divsi3>
  808bd0:	15cf383a 	mul	r7,r2,r23
  808bd4:	81400717 	ldw	r5,28(r16)
  808bd8:	80800917 	ldw	r2,36(r16)
  808bdc:	e00d883a 	mov	r6,fp
  808be0:	a809883a 	mov	r4,r21
  808be4:	103ee83a 	callr	r2
  808be8:	00bfdb16 	blt	zero,r2,808b58 <__alt_mem_onchip_mem+0xff788b58>
  808bec:	8080030b 	ldhu	r2,12(r16)
  808bf0:	10801014 	ori	r2,r2,64
  808bf4:	8080030d 	sth	r2,12(r16)
  808bf8:	00bfffc4 	movi	r2,-1
  808bfc:	003fab06 	br	808aac <__alt_mem_onchip_mem+0xff788aac>
  808c00:	0027883a 	mov	r19,zero
  808c04:	0011883a 	mov	r8,zero
  808c08:	0039883a 	mov	fp,zero
  808c0c:	0025883a 	mov	r18,zero
  808c10:	90001f26 	beq	r18,zero,808c90 <__sfvwrite_r+0x29c>
  808c14:	40005a26 	beq	r8,zero,808d80 <__sfvwrite_r+0x38c>
  808c18:	982d883a 	mov	r22,r19
  808c1c:	94c0012e 	bgeu	r18,r19,808c24 <__sfvwrite_r+0x230>
  808c20:	902d883a 	mov	r22,r18
  808c24:	81000017 	ldw	r4,0(r16)
  808c28:	80800417 	ldw	r2,16(r16)
  808c2c:	b02f883a 	mov	r23,r22
  808c30:	81c00517 	ldw	r7,20(r16)
  808c34:	1100032e 	bgeu	r2,r4,808c44 <__sfvwrite_r+0x250>
  808c38:	80c00217 	ldw	r3,8(r16)
  808c3c:	38c7883a 	add	r3,r7,r3
  808c40:	1d801816 	blt	r3,r22,808ca4 <__sfvwrite_r+0x2b0>
  808c44:	b1c03e16 	blt	r22,r7,808d40 <__sfvwrite_r+0x34c>
  808c48:	80800917 	ldw	r2,36(r16)
  808c4c:	81400717 	ldw	r5,28(r16)
  808c50:	e00d883a 	mov	r6,fp
  808c54:	da000115 	stw	r8,4(sp)
  808c58:	a809883a 	mov	r4,r21
  808c5c:	103ee83a 	callr	r2
  808c60:	102f883a 	mov	r23,r2
  808c64:	da000117 	ldw	r8,4(sp)
  808c68:	00bfe00e 	bge	zero,r2,808bec <__alt_mem_onchip_mem+0xff788bec>
  808c6c:	9de7c83a 	sub	r19,r19,r23
  808c70:	98001f26 	beq	r19,zero,808cf0 <__sfvwrite_r+0x2fc>
  808c74:	a0800217 	ldw	r2,8(r20)
  808c78:	e5f9883a 	add	fp,fp,r23
  808c7c:	95e5c83a 	sub	r18,r18,r23
  808c80:	15efc83a 	sub	r23,r2,r23
  808c84:	a5c00215 	stw	r23,8(r20)
  808c88:	b83f8726 	beq	r23,zero,808aa8 <__alt_mem_onchip_mem+0xff788aa8>
  808c8c:	903fe11e 	bne	r18,zero,808c14 <__alt_mem_onchip_mem+0xff788c14>
  808c90:	8f000017 	ldw	fp,0(r17)
  808c94:	8c800117 	ldw	r18,4(r17)
  808c98:	0011883a 	mov	r8,zero
  808c9c:	8c400204 	addi	r17,r17,8
  808ca0:	003fdb06 	br	808c10 <__alt_mem_onchip_mem+0xff788c10>
  808ca4:	180d883a 	mov	r6,r3
  808ca8:	e00b883a 	mov	r5,fp
  808cac:	da000115 	stw	r8,4(sp)
  808cb0:	d8c00015 	stw	r3,0(sp)
  808cb4:	080926c0 	call	80926c <memmove>
  808cb8:	d8c00017 	ldw	r3,0(sp)
  808cbc:	80800017 	ldw	r2,0(r16)
  808cc0:	800b883a 	mov	r5,r16
  808cc4:	a809883a 	mov	r4,r21
  808cc8:	10c5883a 	add	r2,r2,r3
  808ccc:	80800015 	stw	r2,0(r16)
  808cd0:	d8c00015 	stw	r3,0(sp)
  808cd4:	08029200 	call	802920 <_fflush_r>
  808cd8:	d8c00017 	ldw	r3,0(sp)
  808cdc:	da000117 	ldw	r8,4(sp)
  808ce0:	103fc21e 	bne	r2,zero,808bec <__alt_mem_onchip_mem+0xff788bec>
  808ce4:	182f883a 	mov	r23,r3
  808ce8:	9de7c83a 	sub	r19,r19,r23
  808cec:	983fe11e 	bne	r19,zero,808c74 <__alt_mem_onchip_mem+0xff788c74>
  808cf0:	800b883a 	mov	r5,r16
  808cf4:	a809883a 	mov	r4,r21
  808cf8:	08029200 	call	802920 <_fflush_r>
  808cfc:	103fbb1e 	bne	r2,zero,808bec <__alt_mem_onchip_mem+0xff788bec>
  808d00:	0011883a 	mov	r8,zero
  808d04:	003fdb06 	br	808c74 <__alt_mem_onchip_mem+0xff788c74>
  808d08:	94c0012e 	bgeu	r18,r19,808d10 <__sfvwrite_r+0x31c>
  808d0c:	9027883a 	mov	r19,r18
  808d10:	980d883a 	mov	r6,r19
  808d14:	e00b883a 	mov	r5,fp
  808d18:	080926c0 	call	80926c <memmove>
  808d1c:	80800217 	ldw	r2,8(r16)
  808d20:	80c00017 	ldw	r3,0(r16)
  808d24:	14c5c83a 	sub	r2,r2,r19
  808d28:	1cc7883a 	add	r3,r3,r19
  808d2c:	80800215 	stw	r2,8(r16)
  808d30:	80c00015 	stw	r3,0(r16)
  808d34:	10004326 	beq	r2,zero,808e44 <__sfvwrite_r+0x450>
  808d38:	9805883a 	mov	r2,r19
  808d3c:	003f8606 	br	808b58 <__alt_mem_onchip_mem+0xff788b58>
  808d40:	b00d883a 	mov	r6,r22
  808d44:	e00b883a 	mov	r5,fp
  808d48:	da000115 	stw	r8,4(sp)
  808d4c:	080926c0 	call	80926c <memmove>
  808d50:	80800217 	ldw	r2,8(r16)
  808d54:	80c00017 	ldw	r3,0(r16)
  808d58:	da000117 	ldw	r8,4(sp)
  808d5c:	1585c83a 	sub	r2,r2,r22
  808d60:	1dad883a 	add	r22,r3,r22
  808d64:	80800215 	stw	r2,8(r16)
  808d68:	85800015 	stw	r22,0(r16)
  808d6c:	003fbf06 	br	808c6c <__alt_mem_onchip_mem+0xff788c6c>
  808d70:	81000017 	ldw	r4,0(r16)
  808d74:	9027883a 	mov	r19,r18
  808d78:	902f883a 	mov	r23,r18
  808d7c:	003f6c06 	br	808b30 <__alt_mem_onchip_mem+0xff788b30>
  808d80:	900d883a 	mov	r6,r18
  808d84:	01400284 	movi	r5,10
  808d88:	e009883a 	mov	r4,fp
  808d8c:	08090400 	call	809040 <memchr>
  808d90:	10003e26 	beq	r2,zero,808e8c <__sfvwrite_r+0x498>
  808d94:	10800044 	addi	r2,r2,1
  808d98:	1727c83a 	sub	r19,r2,fp
  808d9c:	02000044 	movi	r8,1
  808da0:	003f9d06 	br	808c18 <__alt_mem_onchip_mem+0xff788c18>
  808da4:	80800517 	ldw	r2,20(r16)
  808da8:	81400417 	ldw	r5,16(r16)
  808dac:	81c00017 	ldw	r7,0(r16)
  808db0:	10a7883a 	add	r19,r2,r2
  808db4:	9885883a 	add	r2,r19,r2
  808db8:	1026d7fa 	srli	r19,r2,31
  808dbc:	396dc83a 	sub	r22,r7,r5
  808dc0:	b1000044 	addi	r4,r22,1
  808dc4:	9885883a 	add	r2,r19,r2
  808dc8:	1027d07a 	srai	r19,r2,1
  808dcc:	2485883a 	add	r2,r4,r18
  808dd0:	980d883a 	mov	r6,r19
  808dd4:	9880022e 	bgeu	r19,r2,808de0 <__sfvwrite_r+0x3ec>
  808dd8:	1027883a 	mov	r19,r2
  808ddc:	100d883a 	mov	r6,r2
  808de0:	18c1000c 	andi	r3,r3,1024
  808de4:	18001c26 	beq	r3,zero,808e58 <__sfvwrite_r+0x464>
  808de8:	300b883a 	mov	r5,r6
  808dec:	a809883a 	mov	r4,r21
  808df0:	0803bf80 	call	803bf8 <_malloc_r>
  808df4:	102f883a 	mov	r23,r2
  808df8:	10002926 	beq	r2,zero,808ea0 <__sfvwrite_r+0x4ac>
  808dfc:	81400417 	ldw	r5,16(r16)
  808e00:	b00d883a 	mov	r6,r22
  808e04:	1009883a 	mov	r4,r2
  808e08:	08091240 	call	809124 <memcpy>
  808e0c:	8080030b 	ldhu	r2,12(r16)
  808e10:	00fedfc4 	movi	r3,-1153
  808e14:	10c4703a 	and	r2,r2,r3
  808e18:	10802014 	ori	r2,r2,128
  808e1c:	8080030d 	sth	r2,12(r16)
  808e20:	bd89883a 	add	r4,r23,r22
  808e24:	9d8fc83a 	sub	r7,r19,r22
  808e28:	85c00415 	stw	r23,16(r16)
  808e2c:	84c00515 	stw	r19,20(r16)
  808e30:	81000015 	stw	r4,0(r16)
  808e34:	9027883a 	mov	r19,r18
  808e38:	81c00215 	stw	r7,8(r16)
  808e3c:	902f883a 	mov	r23,r18
  808e40:	003f3b06 	br	808b30 <__alt_mem_onchip_mem+0xff788b30>
  808e44:	800b883a 	mov	r5,r16
  808e48:	a809883a 	mov	r4,r21
  808e4c:	08029200 	call	802920 <_fflush_r>
  808e50:	103fb926 	beq	r2,zero,808d38 <__alt_mem_onchip_mem+0xff788d38>
  808e54:	003f6506 	br	808bec <__alt_mem_onchip_mem+0xff788bec>
  808e58:	a809883a 	mov	r4,r21
  808e5c:	080a4240 	call	80a424 <_realloc_r>
  808e60:	102f883a 	mov	r23,r2
  808e64:	103fee1e 	bne	r2,zero,808e20 <__alt_mem_onchip_mem+0xff788e20>
  808e68:	81400417 	ldw	r5,16(r16)
  808e6c:	a809883a 	mov	r4,r21
  808e70:	0802fc80 	call	802fc8 <_free_r>
  808e74:	8080030b 	ldhu	r2,12(r16)
  808e78:	00ffdfc4 	movi	r3,-129
  808e7c:	1884703a 	and	r2,r3,r2
  808e80:	00c00304 	movi	r3,12
  808e84:	a8c00015 	stw	r3,0(r21)
  808e88:	003f5906 	br	808bf0 <__alt_mem_onchip_mem+0xff788bf0>
  808e8c:	94c00044 	addi	r19,r18,1
  808e90:	02000044 	movi	r8,1
  808e94:	003f6006 	br	808c18 <__alt_mem_onchip_mem+0xff788c18>
  808e98:	00bfffc4 	movi	r2,-1
  808e9c:	003f0306 	br	808aac <__alt_mem_onchip_mem+0xff788aac>
  808ea0:	00800304 	movi	r2,12
  808ea4:	a8800015 	stw	r2,0(r21)
  808ea8:	8080030b 	ldhu	r2,12(r16)
  808eac:	003f5006 	br	808bf0 <__alt_mem_onchip_mem+0xff788bf0>

00808eb0 <_isatty_r>:
  808eb0:	defffd04 	addi	sp,sp,-12
  808eb4:	dc000015 	stw	r16,0(sp)
  808eb8:	04002074 	movhi	r16,129
  808ebc:	dc400115 	stw	r17,4(sp)
  808ec0:	841f1b04 	addi	r16,r16,31852
  808ec4:	2023883a 	mov	r17,r4
  808ec8:	2809883a 	mov	r4,r5
  808ecc:	dfc00215 	stw	ra,8(sp)
  808ed0:	80000015 	stw	zero,0(r16)
  808ed4:	080fd840 	call	80fd84 <isatty>
  808ed8:	00ffffc4 	movi	r3,-1
  808edc:	10c00526 	beq	r2,r3,808ef4 <_isatty_r+0x44>
  808ee0:	dfc00217 	ldw	ra,8(sp)
  808ee4:	dc400117 	ldw	r17,4(sp)
  808ee8:	dc000017 	ldw	r16,0(sp)
  808eec:	dec00304 	addi	sp,sp,12
  808ef0:	f800283a 	ret
  808ef4:	80c00017 	ldw	r3,0(r16)
  808ef8:	183ff926 	beq	r3,zero,808ee0 <__alt_mem_onchip_mem+0xff788ee0>
  808efc:	88c00015 	stw	r3,0(r17)
  808f00:	003ff706 	br	808ee0 <__alt_mem_onchip_mem+0xff788ee0>

00808f04 <_setlocale_r>:
  808f04:	30001b26 	beq	r6,zero,808f74 <_setlocale_r+0x70>
  808f08:	01402074 	movhi	r5,129
  808f0c:	defffe04 	addi	sp,sp,-8
  808f10:	294f2d04 	addi	r5,r5,15540
  808f14:	3009883a 	mov	r4,r6
  808f18:	dc000015 	stw	r16,0(sp)
  808f1c:	dfc00115 	stw	ra,4(sp)
  808f20:	3021883a 	mov	r16,r6
  808f24:	080a9fc0 	call	80a9fc <strcmp>
  808f28:	1000061e 	bne	r2,zero,808f44 <_setlocale_r+0x40>
  808f2c:	00802074 	movhi	r2,129
  808f30:	108f0e04 	addi	r2,r2,15416
  808f34:	dfc00117 	ldw	ra,4(sp)
  808f38:	dc000017 	ldw	r16,0(sp)
  808f3c:	dec00204 	addi	sp,sp,8
  808f40:	f800283a 	ret
  808f44:	01402074 	movhi	r5,129
  808f48:	294f0e04 	addi	r5,r5,15416
  808f4c:	8009883a 	mov	r4,r16
  808f50:	080a9fc0 	call	80a9fc <strcmp>
  808f54:	103ff526 	beq	r2,zero,808f2c <__alt_mem_onchip_mem+0xff788f2c>
  808f58:	01402074 	movhi	r5,129
  808f5c:	294f1804 	addi	r5,r5,15456
  808f60:	8009883a 	mov	r4,r16
  808f64:	080a9fc0 	call	80a9fc <strcmp>
  808f68:	103ff026 	beq	r2,zero,808f2c <__alt_mem_onchip_mem+0xff788f2c>
  808f6c:	0005883a 	mov	r2,zero
  808f70:	003ff006 	br	808f34 <__alt_mem_onchip_mem+0xff788f34>
  808f74:	00802074 	movhi	r2,129
  808f78:	108f0e04 	addi	r2,r2,15416
  808f7c:	f800283a 	ret

00808f80 <__locale_charset>:
  808f80:	00802074 	movhi	r2,129
  808f84:	10928504 	addi	r2,r2,18964
  808f88:	f800283a 	ret

00808f8c <__locale_mb_cur_max>:
  808f8c:	00802074 	movhi	r2,129
  808f90:	10979b04 	addi	r2,r2,24172
  808f94:	10800017 	ldw	r2,0(r2)
  808f98:	f800283a 	ret

00808f9c <__locale_msgcharset>:
  808f9c:	00802074 	movhi	r2,129
  808fa0:	10927d04 	addi	r2,r2,18932
  808fa4:	f800283a 	ret

00808fa8 <__locale_cjk_lang>:
  808fa8:	0005883a 	mov	r2,zero
  808fac:	f800283a 	ret

00808fb0 <_localeconv_r>:
  808fb0:	00802074 	movhi	r2,129
  808fb4:	10928d04 	addi	r2,r2,18996
  808fb8:	f800283a 	ret

00808fbc <setlocale>:
  808fbc:	00802074 	movhi	r2,129
  808fc0:	10979804 	addi	r2,r2,24160
  808fc4:	280d883a 	mov	r6,r5
  808fc8:	200b883a 	mov	r5,r4
  808fcc:	11000017 	ldw	r4,0(r2)
  808fd0:	0808f041 	jmpi	808f04 <_setlocale_r>

00808fd4 <localeconv>:
  808fd4:	00802074 	movhi	r2,129
  808fd8:	10928d04 	addi	r2,r2,18996
  808fdc:	f800283a 	ret

00808fe0 <_lseek_r>:
  808fe0:	defffd04 	addi	sp,sp,-12
  808fe4:	2805883a 	mov	r2,r5
  808fe8:	dc000015 	stw	r16,0(sp)
  808fec:	04002074 	movhi	r16,129
  808ff0:	dc400115 	stw	r17,4(sp)
  808ff4:	300b883a 	mov	r5,r6
  808ff8:	841f1b04 	addi	r16,r16,31852
  808ffc:	2023883a 	mov	r17,r4
  809000:	380d883a 	mov	r6,r7
  809004:	1009883a 	mov	r4,r2
  809008:	dfc00215 	stw	ra,8(sp)
  80900c:	80000015 	stw	zero,0(r16)
  809010:	080ff500 	call	80ff50 <lseek>
  809014:	00ffffc4 	movi	r3,-1
  809018:	10c00526 	beq	r2,r3,809030 <_lseek_r+0x50>
  80901c:	dfc00217 	ldw	ra,8(sp)
  809020:	dc400117 	ldw	r17,4(sp)
  809024:	dc000017 	ldw	r16,0(sp)
  809028:	dec00304 	addi	sp,sp,12
  80902c:	f800283a 	ret
  809030:	80c00017 	ldw	r3,0(r16)
  809034:	183ff926 	beq	r3,zero,80901c <__alt_mem_onchip_mem+0xff78901c>
  809038:	88c00015 	stw	r3,0(r17)
  80903c:	003ff706 	br	80901c <__alt_mem_onchip_mem+0xff78901c>

00809040 <memchr>:
  809040:	208000cc 	andi	r2,r4,3
  809044:	280f883a 	mov	r7,r5
  809048:	10003426 	beq	r2,zero,80911c <memchr+0xdc>
  80904c:	30bfffc4 	addi	r2,r6,-1
  809050:	30001a26 	beq	r6,zero,8090bc <memchr+0x7c>
  809054:	20c00003 	ldbu	r3,0(r4)
  809058:	29803fcc 	andi	r6,r5,255
  80905c:	30c0051e 	bne	r6,r3,809074 <memchr+0x34>
  809060:	00001806 	br	8090c4 <memchr+0x84>
  809064:	10001526 	beq	r2,zero,8090bc <memchr+0x7c>
  809068:	20c00003 	ldbu	r3,0(r4)
  80906c:	10bfffc4 	addi	r2,r2,-1
  809070:	30c01426 	beq	r6,r3,8090c4 <memchr+0x84>
  809074:	21000044 	addi	r4,r4,1
  809078:	20c000cc 	andi	r3,r4,3
  80907c:	183ff91e 	bne	r3,zero,809064 <__alt_mem_onchip_mem+0xff789064>
  809080:	020000c4 	movi	r8,3
  809084:	40801136 	bltu	r8,r2,8090cc <memchr+0x8c>
  809088:	10000c26 	beq	r2,zero,8090bc <memchr+0x7c>
  80908c:	20c00003 	ldbu	r3,0(r4)
  809090:	29403fcc 	andi	r5,r5,255
  809094:	28c00b26 	beq	r5,r3,8090c4 <memchr+0x84>
  809098:	20c00044 	addi	r3,r4,1
  80909c:	39803fcc 	andi	r6,r7,255
  8090a0:	2089883a 	add	r4,r4,r2
  8090a4:	00000306 	br	8090b4 <memchr+0x74>
  8090a8:	18c00044 	addi	r3,r3,1
  8090ac:	197fffc3 	ldbu	r5,-1(r3)
  8090b0:	31400526 	beq	r6,r5,8090c8 <memchr+0x88>
  8090b4:	1805883a 	mov	r2,r3
  8090b8:	20fffb1e 	bne	r4,r3,8090a8 <__alt_mem_onchip_mem+0xff7890a8>
  8090bc:	0005883a 	mov	r2,zero
  8090c0:	f800283a 	ret
  8090c4:	2005883a 	mov	r2,r4
  8090c8:	f800283a 	ret
  8090cc:	28c03fcc 	andi	r3,r5,255
  8090d0:	1812923a 	slli	r9,r3,8
  8090d4:	02ffbff4 	movhi	r11,65279
  8090d8:	02a02074 	movhi	r10,32897
  8090dc:	48d2b03a 	or	r9,r9,r3
  8090e0:	4806943a 	slli	r3,r9,16
  8090e4:	5affbfc4 	addi	r11,r11,-257
  8090e8:	52a02004 	addi	r10,r10,-32640
  8090ec:	48d2b03a 	or	r9,r9,r3
  8090f0:	20c00017 	ldw	r3,0(r4)
  8090f4:	48c6f03a 	xor	r3,r9,r3
  8090f8:	1acd883a 	add	r6,r3,r11
  8090fc:	00c6303a 	nor	r3,zero,r3
  809100:	30c6703a 	and	r3,r6,r3
  809104:	1a86703a 	and	r3,r3,r10
  809108:	183fe01e 	bne	r3,zero,80908c <__alt_mem_onchip_mem+0xff78908c>
  80910c:	10bfff04 	addi	r2,r2,-4
  809110:	21000104 	addi	r4,r4,4
  809114:	40bff636 	bltu	r8,r2,8090f0 <__alt_mem_onchip_mem+0xff7890f0>
  809118:	003fdb06 	br	809088 <__alt_mem_onchip_mem+0xff789088>
  80911c:	3005883a 	mov	r2,r6
  809120:	003fd706 	br	809080 <__alt_mem_onchip_mem+0xff789080>

00809124 <memcpy>:
  809124:	defffd04 	addi	sp,sp,-12
  809128:	dfc00215 	stw	ra,8(sp)
  80912c:	dc400115 	stw	r17,4(sp)
  809130:	dc000015 	stw	r16,0(sp)
  809134:	00c003c4 	movi	r3,15
  809138:	2005883a 	mov	r2,r4
  80913c:	1980452e 	bgeu	r3,r6,809254 <memcpy+0x130>
  809140:	2906b03a 	or	r3,r5,r4
  809144:	18c000cc 	andi	r3,r3,3
  809148:	1800441e 	bne	r3,zero,80925c <memcpy+0x138>
  80914c:	347ffc04 	addi	r17,r6,-16
  809150:	8822d13a 	srli	r17,r17,4
  809154:	28c00104 	addi	r3,r5,4
  809158:	23400104 	addi	r13,r4,4
  80915c:	8820913a 	slli	r16,r17,4
  809160:	2b000204 	addi	r12,r5,8
  809164:	22c00204 	addi	r11,r4,8
  809168:	84000504 	addi	r16,r16,20
  80916c:	2a800304 	addi	r10,r5,12
  809170:	22400304 	addi	r9,r4,12
  809174:	2c21883a 	add	r16,r5,r16
  809178:	2811883a 	mov	r8,r5
  80917c:	200f883a 	mov	r7,r4
  809180:	41000017 	ldw	r4,0(r8)
  809184:	1fc00017 	ldw	ra,0(r3)
  809188:	63c00017 	ldw	r15,0(r12)
  80918c:	39000015 	stw	r4,0(r7)
  809190:	53800017 	ldw	r14,0(r10)
  809194:	6fc00015 	stw	ra,0(r13)
  809198:	5bc00015 	stw	r15,0(r11)
  80919c:	4b800015 	stw	r14,0(r9)
  8091a0:	18c00404 	addi	r3,r3,16
  8091a4:	39c00404 	addi	r7,r7,16
  8091a8:	42000404 	addi	r8,r8,16
  8091ac:	6b400404 	addi	r13,r13,16
  8091b0:	63000404 	addi	r12,r12,16
  8091b4:	5ac00404 	addi	r11,r11,16
  8091b8:	52800404 	addi	r10,r10,16
  8091bc:	4a400404 	addi	r9,r9,16
  8091c0:	1c3fef1e 	bne	r3,r16,809180 <__alt_mem_onchip_mem+0xff789180>
  8091c4:	89c00044 	addi	r7,r17,1
  8091c8:	380e913a 	slli	r7,r7,4
  8091cc:	310003cc 	andi	r4,r6,15
  8091d0:	02c000c4 	movi	r11,3
  8091d4:	11c7883a 	add	r3,r2,r7
  8091d8:	29cb883a 	add	r5,r5,r7
  8091dc:	5900212e 	bgeu	r11,r4,809264 <memcpy+0x140>
  8091e0:	1813883a 	mov	r9,r3
  8091e4:	2811883a 	mov	r8,r5
  8091e8:	200f883a 	mov	r7,r4
  8091ec:	42800017 	ldw	r10,0(r8)
  8091f0:	4a400104 	addi	r9,r9,4
  8091f4:	39ffff04 	addi	r7,r7,-4
  8091f8:	4abfff15 	stw	r10,-4(r9)
  8091fc:	42000104 	addi	r8,r8,4
  809200:	59fffa36 	bltu	r11,r7,8091ec <__alt_mem_onchip_mem+0xff7891ec>
  809204:	213fff04 	addi	r4,r4,-4
  809208:	2008d0ba 	srli	r4,r4,2
  80920c:	318000cc 	andi	r6,r6,3
  809210:	21000044 	addi	r4,r4,1
  809214:	2109883a 	add	r4,r4,r4
  809218:	2109883a 	add	r4,r4,r4
  80921c:	1907883a 	add	r3,r3,r4
  809220:	290b883a 	add	r5,r5,r4
  809224:	30000626 	beq	r6,zero,809240 <memcpy+0x11c>
  809228:	198d883a 	add	r6,r3,r6
  80922c:	29c00003 	ldbu	r7,0(r5)
  809230:	18c00044 	addi	r3,r3,1
  809234:	29400044 	addi	r5,r5,1
  809238:	19ffffc5 	stb	r7,-1(r3)
  80923c:	19bffb1e 	bne	r3,r6,80922c <__alt_mem_onchip_mem+0xff78922c>
  809240:	dfc00217 	ldw	ra,8(sp)
  809244:	dc400117 	ldw	r17,4(sp)
  809248:	dc000017 	ldw	r16,0(sp)
  80924c:	dec00304 	addi	sp,sp,12
  809250:	f800283a 	ret
  809254:	2007883a 	mov	r3,r4
  809258:	003ff206 	br	809224 <__alt_mem_onchip_mem+0xff789224>
  80925c:	2007883a 	mov	r3,r4
  809260:	003ff106 	br	809228 <__alt_mem_onchip_mem+0xff789228>
  809264:	200d883a 	mov	r6,r4
  809268:	003fee06 	br	809224 <__alt_mem_onchip_mem+0xff789224>

0080926c <memmove>:
  80926c:	2005883a 	mov	r2,r4
  809270:	29000b2e 	bgeu	r5,r4,8092a0 <memmove+0x34>
  809274:	298f883a 	add	r7,r5,r6
  809278:	21c0092e 	bgeu	r4,r7,8092a0 <memmove+0x34>
  80927c:	2187883a 	add	r3,r4,r6
  809280:	198bc83a 	sub	r5,r3,r6
  809284:	30004826 	beq	r6,zero,8093a8 <memmove+0x13c>
  809288:	39ffffc4 	addi	r7,r7,-1
  80928c:	39000003 	ldbu	r4,0(r7)
  809290:	18ffffc4 	addi	r3,r3,-1
  809294:	19000005 	stb	r4,0(r3)
  809298:	28fffb1e 	bne	r5,r3,809288 <__alt_mem_onchip_mem+0xff789288>
  80929c:	f800283a 	ret
  8092a0:	00c003c4 	movi	r3,15
  8092a4:	1980412e 	bgeu	r3,r6,8093ac <memmove+0x140>
  8092a8:	2886b03a 	or	r3,r5,r2
  8092ac:	18c000cc 	andi	r3,r3,3
  8092b0:	1800401e 	bne	r3,zero,8093b4 <memmove+0x148>
  8092b4:	33fffc04 	addi	r15,r6,-16
  8092b8:	781ed13a 	srli	r15,r15,4
  8092bc:	28c00104 	addi	r3,r5,4
  8092c0:	13400104 	addi	r13,r2,4
  8092c4:	781c913a 	slli	r14,r15,4
  8092c8:	2b000204 	addi	r12,r5,8
  8092cc:	12c00204 	addi	r11,r2,8
  8092d0:	73800504 	addi	r14,r14,20
  8092d4:	2a800304 	addi	r10,r5,12
  8092d8:	12400304 	addi	r9,r2,12
  8092dc:	2b9d883a 	add	r14,r5,r14
  8092e0:	2811883a 	mov	r8,r5
  8092e4:	100f883a 	mov	r7,r2
  8092e8:	41000017 	ldw	r4,0(r8)
  8092ec:	39c00404 	addi	r7,r7,16
  8092f0:	18c00404 	addi	r3,r3,16
  8092f4:	393ffc15 	stw	r4,-16(r7)
  8092f8:	193ffc17 	ldw	r4,-16(r3)
  8092fc:	6b400404 	addi	r13,r13,16
  809300:	5ac00404 	addi	r11,r11,16
  809304:	693ffc15 	stw	r4,-16(r13)
  809308:	61000017 	ldw	r4,0(r12)
  80930c:	4a400404 	addi	r9,r9,16
  809310:	42000404 	addi	r8,r8,16
  809314:	593ffc15 	stw	r4,-16(r11)
  809318:	51000017 	ldw	r4,0(r10)
  80931c:	63000404 	addi	r12,r12,16
  809320:	52800404 	addi	r10,r10,16
  809324:	493ffc15 	stw	r4,-16(r9)
  809328:	1bbfef1e 	bne	r3,r14,8092e8 <__alt_mem_onchip_mem+0xff7892e8>
  80932c:	79000044 	addi	r4,r15,1
  809330:	2008913a 	slli	r4,r4,4
  809334:	328003cc 	andi	r10,r6,15
  809338:	02c000c4 	movi	r11,3
  80933c:	1107883a 	add	r3,r2,r4
  809340:	290b883a 	add	r5,r5,r4
  809344:	5a801e2e 	bgeu	r11,r10,8093c0 <memmove+0x154>
  809348:	1813883a 	mov	r9,r3
  80934c:	2811883a 	mov	r8,r5
  809350:	500f883a 	mov	r7,r10
  809354:	41000017 	ldw	r4,0(r8)
  809358:	4a400104 	addi	r9,r9,4
  80935c:	39ffff04 	addi	r7,r7,-4
  809360:	493fff15 	stw	r4,-4(r9)
  809364:	42000104 	addi	r8,r8,4
  809368:	59fffa36 	bltu	r11,r7,809354 <__alt_mem_onchip_mem+0xff789354>
  80936c:	513fff04 	addi	r4,r10,-4
  809370:	2008d0ba 	srli	r4,r4,2
  809374:	318000cc 	andi	r6,r6,3
  809378:	21000044 	addi	r4,r4,1
  80937c:	2109883a 	add	r4,r4,r4
  809380:	2109883a 	add	r4,r4,r4
  809384:	1907883a 	add	r3,r3,r4
  809388:	290b883a 	add	r5,r5,r4
  80938c:	30000b26 	beq	r6,zero,8093bc <memmove+0x150>
  809390:	198d883a 	add	r6,r3,r6
  809394:	29c00003 	ldbu	r7,0(r5)
  809398:	18c00044 	addi	r3,r3,1
  80939c:	29400044 	addi	r5,r5,1
  8093a0:	19ffffc5 	stb	r7,-1(r3)
  8093a4:	19bffb1e 	bne	r3,r6,809394 <__alt_mem_onchip_mem+0xff789394>
  8093a8:	f800283a 	ret
  8093ac:	1007883a 	mov	r3,r2
  8093b0:	003ff606 	br	80938c <__alt_mem_onchip_mem+0xff78938c>
  8093b4:	1007883a 	mov	r3,r2
  8093b8:	003ff506 	br	809390 <__alt_mem_onchip_mem+0xff789390>
  8093bc:	f800283a 	ret
  8093c0:	500d883a 	mov	r6,r10
  8093c4:	003ff106 	br	80938c <__alt_mem_onchip_mem+0xff78938c>

008093c8 <_Balloc>:
  8093c8:	20801317 	ldw	r2,76(r4)
  8093cc:	defffc04 	addi	sp,sp,-16
  8093d0:	dc400115 	stw	r17,4(sp)
  8093d4:	dc000015 	stw	r16,0(sp)
  8093d8:	dfc00315 	stw	ra,12(sp)
  8093dc:	dc800215 	stw	r18,8(sp)
  8093e0:	2023883a 	mov	r17,r4
  8093e4:	2821883a 	mov	r16,r5
  8093e8:	10000f26 	beq	r2,zero,809428 <_Balloc+0x60>
  8093ec:	8407883a 	add	r3,r16,r16
  8093f0:	18c7883a 	add	r3,r3,r3
  8093f4:	10c7883a 	add	r3,r2,r3
  8093f8:	18800017 	ldw	r2,0(r3)
  8093fc:	10001126 	beq	r2,zero,809444 <_Balloc+0x7c>
  809400:	11000017 	ldw	r4,0(r2)
  809404:	19000015 	stw	r4,0(r3)
  809408:	10000415 	stw	zero,16(r2)
  80940c:	10000315 	stw	zero,12(r2)
  809410:	dfc00317 	ldw	ra,12(sp)
  809414:	dc800217 	ldw	r18,8(sp)
  809418:	dc400117 	ldw	r17,4(sp)
  80941c:	dc000017 	ldw	r16,0(sp)
  809420:	dec00404 	addi	sp,sp,16
  809424:	f800283a 	ret
  809428:	01800844 	movi	r6,33
  80942c:	01400104 	movi	r5,4
  809430:	080c1200 	call	80c120 <_calloc_r>
  809434:	88801315 	stw	r2,76(r17)
  809438:	103fec1e 	bne	r2,zero,8093ec <__alt_mem_onchip_mem+0xff7893ec>
  80943c:	0005883a 	mov	r2,zero
  809440:	003ff306 	br	809410 <__alt_mem_onchip_mem+0xff789410>
  809444:	01400044 	movi	r5,1
  809448:	2c24983a 	sll	r18,r5,r16
  80944c:	8809883a 	mov	r4,r17
  809450:	91800144 	addi	r6,r18,5
  809454:	318d883a 	add	r6,r6,r6
  809458:	318d883a 	add	r6,r6,r6
  80945c:	080c1200 	call	80c120 <_calloc_r>
  809460:	103ff626 	beq	r2,zero,80943c <__alt_mem_onchip_mem+0xff78943c>
  809464:	14000115 	stw	r16,4(r2)
  809468:	14800215 	stw	r18,8(r2)
  80946c:	003fe606 	br	809408 <__alt_mem_onchip_mem+0xff789408>

00809470 <_Bfree>:
  809470:	28000826 	beq	r5,zero,809494 <_Bfree+0x24>
  809474:	28c00117 	ldw	r3,4(r5)
  809478:	20801317 	ldw	r2,76(r4)
  80947c:	18c7883a 	add	r3,r3,r3
  809480:	18c7883a 	add	r3,r3,r3
  809484:	10c5883a 	add	r2,r2,r3
  809488:	10c00017 	ldw	r3,0(r2)
  80948c:	28c00015 	stw	r3,0(r5)
  809490:	11400015 	stw	r5,0(r2)
  809494:	f800283a 	ret

00809498 <__multadd>:
  809498:	defffa04 	addi	sp,sp,-24
  80949c:	dc800315 	stw	r18,12(sp)
  8094a0:	dc400215 	stw	r17,8(sp)
  8094a4:	dc000115 	stw	r16,4(sp)
  8094a8:	2823883a 	mov	r17,r5
  8094ac:	2c000417 	ldw	r16,16(r5)
  8094b0:	dfc00515 	stw	ra,20(sp)
  8094b4:	dcc00415 	stw	r19,16(sp)
  8094b8:	2025883a 	mov	r18,r4
  8094bc:	29400504 	addi	r5,r5,20
  8094c0:	0011883a 	mov	r8,zero
  8094c4:	28c00017 	ldw	r3,0(r5)
  8094c8:	29400104 	addi	r5,r5,4
  8094cc:	42000044 	addi	r8,r8,1
  8094d0:	18bfffcc 	andi	r2,r3,65535
  8094d4:	1185383a 	mul	r2,r2,r6
  8094d8:	1806d43a 	srli	r3,r3,16
  8094dc:	11cf883a 	add	r7,r2,r7
  8094e0:	3808d43a 	srli	r4,r7,16
  8094e4:	1987383a 	mul	r3,r3,r6
  8094e8:	38bfffcc 	andi	r2,r7,65535
  8094ec:	1907883a 	add	r3,r3,r4
  8094f0:	1808943a 	slli	r4,r3,16
  8094f4:	180ed43a 	srli	r7,r3,16
  8094f8:	2085883a 	add	r2,r4,r2
  8094fc:	28bfff15 	stw	r2,-4(r5)
  809500:	443ff016 	blt	r8,r16,8094c4 <__alt_mem_onchip_mem+0xff7894c4>
  809504:	38000926 	beq	r7,zero,80952c <__multadd+0x94>
  809508:	88800217 	ldw	r2,8(r17)
  80950c:	80800f0e 	bge	r16,r2,80954c <__multadd+0xb4>
  809510:	80800144 	addi	r2,r16,5
  809514:	1085883a 	add	r2,r2,r2
  809518:	1085883a 	add	r2,r2,r2
  80951c:	8885883a 	add	r2,r17,r2
  809520:	11c00015 	stw	r7,0(r2)
  809524:	84000044 	addi	r16,r16,1
  809528:	8c000415 	stw	r16,16(r17)
  80952c:	8805883a 	mov	r2,r17
  809530:	dfc00517 	ldw	ra,20(sp)
  809534:	dcc00417 	ldw	r19,16(sp)
  809538:	dc800317 	ldw	r18,12(sp)
  80953c:	dc400217 	ldw	r17,8(sp)
  809540:	dc000117 	ldw	r16,4(sp)
  809544:	dec00604 	addi	sp,sp,24
  809548:	f800283a 	ret
  80954c:	89400117 	ldw	r5,4(r17)
  809550:	9009883a 	mov	r4,r18
  809554:	d9c00015 	stw	r7,0(sp)
  809558:	29400044 	addi	r5,r5,1
  80955c:	08093c80 	call	8093c8 <_Balloc>
  809560:	89800417 	ldw	r6,16(r17)
  809564:	89400304 	addi	r5,r17,12
  809568:	11000304 	addi	r4,r2,12
  80956c:	31800084 	addi	r6,r6,2
  809570:	318d883a 	add	r6,r6,r6
  809574:	318d883a 	add	r6,r6,r6
  809578:	1027883a 	mov	r19,r2
  80957c:	08091240 	call	809124 <memcpy>
  809580:	d9c00017 	ldw	r7,0(sp)
  809584:	88000a26 	beq	r17,zero,8095b0 <__multadd+0x118>
  809588:	88c00117 	ldw	r3,4(r17)
  80958c:	90801317 	ldw	r2,76(r18)
  809590:	18c7883a 	add	r3,r3,r3
  809594:	18c7883a 	add	r3,r3,r3
  809598:	10c5883a 	add	r2,r2,r3
  80959c:	10c00017 	ldw	r3,0(r2)
  8095a0:	88c00015 	stw	r3,0(r17)
  8095a4:	14400015 	stw	r17,0(r2)
  8095a8:	9823883a 	mov	r17,r19
  8095ac:	003fd806 	br	809510 <__alt_mem_onchip_mem+0xff789510>
  8095b0:	9823883a 	mov	r17,r19
  8095b4:	003fd606 	br	809510 <__alt_mem_onchip_mem+0xff789510>

008095b8 <__s2b>:
  8095b8:	defff904 	addi	sp,sp,-28
  8095bc:	dc400115 	stw	r17,4(sp)
  8095c0:	dc000015 	stw	r16,0(sp)
  8095c4:	2023883a 	mov	r17,r4
  8095c8:	2821883a 	mov	r16,r5
  8095cc:	39000204 	addi	r4,r7,8
  8095d0:	01400244 	movi	r5,9
  8095d4:	dcc00315 	stw	r19,12(sp)
  8095d8:	dc800215 	stw	r18,8(sp)
  8095dc:	dfc00615 	stw	ra,24(sp)
  8095e0:	dd400515 	stw	r21,20(sp)
  8095e4:	dd000415 	stw	r20,16(sp)
  8095e8:	3825883a 	mov	r18,r7
  8095ec:	3027883a 	mov	r19,r6
  8095f0:	080d1dc0 	call	80d1dc <__divsi3>
  8095f4:	00c00044 	movi	r3,1
  8095f8:	000b883a 	mov	r5,zero
  8095fc:	1880030e 	bge	r3,r2,80960c <__s2b+0x54>
  809600:	18c7883a 	add	r3,r3,r3
  809604:	29400044 	addi	r5,r5,1
  809608:	18bffd16 	blt	r3,r2,809600 <__alt_mem_onchip_mem+0xff789600>
  80960c:	8809883a 	mov	r4,r17
  809610:	08093c80 	call	8093c8 <_Balloc>
  809614:	d8c00717 	ldw	r3,28(sp)
  809618:	10c00515 	stw	r3,20(r2)
  80961c:	00c00044 	movi	r3,1
  809620:	10c00415 	stw	r3,16(r2)
  809624:	00c00244 	movi	r3,9
  809628:	1cc0210e 	bge	r3,r19,8096b0 <__s2b+0xf8>
  80962c:	80eb883a 	add	r21,r16,r3
  809630:	a829883a 	mov	r20,r21
  809634:	84e1883a 	add	r16,r16,r19
  809638:	a1c00007 	ldb	r7,0(r20)
  80963c:	01800284 	movi	r6,10
  809640:	a5000044 	addi	r20,r20,1
  809644:	100b883a 	mov	r5,r2
  809648:	39fff404 	addi	r7,r7,-48
  80964c:	8809883a 	mov	r4,r17
  809650:	08094980 	call	809498 <__multadd>
  809654:	a43ff81e 	bne	r20,r16,809638 <__alt_mem_onchip_mem+0xff789638>
  809658:	ace1883a 	add	r16,r21,r19
  80965c:	843ffe04 	addi	r16,r16,-8
  809660:	9c800a0e 	bge	r19,r18,80968c <__s2b+0xd4>
  809664:	94e5c83a 	sub	r18,r18,r19
  809668:	84a5883a 	add	r18,r16,r18
  80966c:	81c00007 	ldb	r7,0(r16)
  809670:	01800284 	movi	r6,10
  809674:	84000044 	addi	r16,r16,1
  809678:	100b883a 	mov	r5,r2
  80967c:	39fff404 	addi	r7,r7,-48
  809680:	8809883a 	mov	r4,r17
  809684:	08094980 	call	809498 <__multadd>
  809688:	84bff81e 	bne	r16,r18,80966c <__alt_mem_onchip_mem+0xff78966c>
  80968c:	dfc00617 	ldw	ra,24(sp)
  809690:	dd400517 	ldw	r21,20(sp)
  809694:	dd000417 	ldw	r20,16(sp)
  809698:	dcc00317 	ldw	r19,12(sp)
  80969c:	dc800217 	ldw	r18,8(sp)
  8096a0:	dc400117 	ldw	r17,4(sp)
  8096a4:	dc000017 	ldw	r16,0(sp)
  8096a8:	dec00704 	addi	sp,sp,28
  8096ac:	f800283a 	ret
  8096b0:	84000284 	addi	r16,r16,10
  8096b4:	1827883a 	mov	r19,r3
  8096b8:	003fe906 	br	809660 <__alt_mem_onchip_mem+0xff789660>

008096bc <__hi0bits>:
  8096bc:	20bfffec 	andhi	r2,r4,65535
  8096c0:	1000141e 	bne	r2,zero,809714 <__hi0bits+0x58>
  8096c4:	2008943a 	slli	r4,r4,16
  8096c8:	00800404 	movi	r2,16
  8096cc:	20ffc02c 	andhi	r3,r4,65280
  8096d0:	1800021e 	bne	r3,zero,8096dc <__hi0bits+0x20>
  8096d4:	2008923a 	slli	r4,r4,8
  8096d8:	10800204 	addi	r2,r2,8
  8096dc:	20fc002c 	andhi	r3,r4,61440
  8096e0:	1800021e 	bne	r3,zero,8096ec <__hi0bits+0x30>
  8096e4:	2008913a 	slli	r4,r4,4
  8096e8:	10800104 	addi	r2,r2,4
  8096ec:	20f0002c 	andhi	r3,r4,49152
  8096f0:	1800031e 	bne	r3,zero,809700 <__hi0bits+0x44>
  8096f4:	2109883a 	add	r4,r4,r4
  8096f8:	10800084 	addi	r2,r2,2
  8096fc:	2109883a 	add	r4,r4,r4
  809700:	20000316 	blt	r4,zero,809710 <__hi0bits+0x54>
  809704:	2110002c 	andhi	r4,r4,16384
  809708:	2000041e 	bne	r4,zero,80971c <__hi0bits+0x60>
  80970c:	00800804 	movi	r2,32
  809710:	f800283a 	ret
  809714:	0005883a 	mov	r2,zero
  809718:	003fec06 	br	8096cc <__alt_mem_onchip_mem+0xff7896cc>
  80971c:	10800044 	addi	r2,r2,1
  809720:	f800283a 	ret

00809724 <__lo0bits>:
  809724:	20c00017 	ldw	r3,0(r4)
  809728:	188001cc 	andi	r2,r3,7
  80972c:	10000826 	beq	r2,zero,809750 <__lo0bits+0x2c>
  809730:	1880004c 	andi	r2,r3,1
  809734:	1000211e 	bne	r2,zero,8097bc <__lo0bits+0x98>
  809738:	1880008c 	andi	r2,r3,2
  80973c:	1000211e 	bne	r2,zero,8097c4 <__lo0bits+0xa0>
  809740:	1806d0ba 	srli	r3,r3,2
  809744:	00800084 	movi	r2,2
  809748:	20c00015 	stw	r3,0(r4)
  80974c:	f800283a 	ret
  809750:	18bfffcc 	andi	r2,r3,65535
  809754:	10001326 	beq	r2,zero,8097a4 <__lo0bits+0x80>
  809758:	0005883a 	mov	r2,zero
  80975c:	19403fcc 	andi	r5,r3,255
  809760:	2800021e 	bne	r5,zero,80976c <__lo0bits+0x48>
  809764:	1806d23a 	srli	r3,r3,8
  809768:	10800204 	addi	r2,r2,8
  80976c:	194003cc 	andi	r5,r3,15
  809770:	2800021e 	bne	r5,zero,80977c <__lo0bits+0x58>
  809774:	1806d13a 	srli	r3,r3,4
  809778:	10800104 	addi	r2,r2,4
  80977c:	194000cc 	andi	r5,r3,3
  809780:	2800021e 	bne	r5,zero,80978c <__lo0bits+0x68>
  809784:	1806d0ba 	srli	r3,r3,2
  809788:	10800084 	addi	r2,r2,2
  80978c:	1940004c 	andi	r5,r3,1
  809790:	2800081e 	bne	r5,zero,8097b4 <__lo0bits+0x90>
  809794:	1806d07a 	srli	r3,r3,1
  809798:	1800051e 	bne	r3,zero,8097b0 <__lo0bits+0x8c>
  80979c:	00800804 	movi	r2,32
  8097a0:	f800283a 	ret
  8097a4:	1806d43a 	srli	r3,r3,16
  8097a8:	00800404 	movi	r2,16
  8097ac:	003feb06 	br	80975c <__alt_mem_onchip_mem+0xff78975c>
  8097b0:	10800044 	addi	r2,r2,1
  8097b4:	20c00015 	stw	r3,0(r4)
  8097b8:	f800283a 	ret
  8097bc:	0005883a 	mov	r2,zero
  8097c0:	f800283a 	ret
  8097c4:	1806d07a 	srli	r3,r3,1
  8097c8:	00800044 	movi	r2,1
  8097cc:	20c00015 	stw	r3,0(r4)
  8097d0:	f800283a 	ret

008097d4 <__i2b>:
  8097d4:	defffd04 	addi	sp,sp,-12
  8097d8:	dc000015 	stw	r16,0(sp)
  8097dc:	04000044 	movi	r16,1
  8097e0:	dc400115 	stw	r17,4(sp)
  8097e4:	2823883a 	mov	r17,r5
  8097e8:	800b883a 	mov	r5,r16
  8097ec:	dfc00215 	stw	ra,8(sp)
  8097f0:	08093c80 	call	8093c8 <_Balloc>
  8097f4:	14400515 	stw	r17,20(r2)
  8097f8:	14000415 	stw	r16,16(r2)
  8097fc:	dfc00217 	ldw	ra,8(sp)
  809800:	dc400117 	ldw	r17,4(sp)
  809804:	dc000017 	ldw	r16,0(sp)
  809808:	dec00304 	addi	sp,sp,12
  80980c:	f800283a 	ret

00809810 <__multiply>:
  809810:	defffa04 	addi	sp,sp,-24
  809814:	dcc00315 	stw	r19,12(sp)
  809818:	dc800215 	stw	r18,8(sp)
  80981c:	34c00417 	ldw	r19,16(r6)
  809820:	2c800417 	ldw	r18,16(r5)
  809824:	dd000415 	stw	r20,16(sp)
  809828:	dc400115 	stw	r17,4(sp)
  80982c:	dfc00515 	stw	ra,20(sp)
  809830:	dc000015 	stw	r16,0(sp)
  809834:	2829883a 	mov	r20,r5
  809838:	3023883a 	mov	r17,r6
  80983c:	94c0050e 	bge	r18,r19,809854 <__multiply+0x44>
  809840:	9007883a 	mov	r3,r18
  809844:	3029883a 	mov	r20,r6
  809848:	9825883a 	mov	r18,r19
  80984c:	2823883a 	mov	r17,r5
  809850:	1827883a 	mov	r19,r3
  809854:	a0800217 	ldw	r2,8(r20)
  809858:	94e1883a 	add	r16,r18,r19
  80985c:	a1400117 	ldw	r5,4(r20)
  809860:	1400010e 	bge	r2,r16,809868 <__multiply+0x58>
  809864:	29400044 	addi	r5,r5,1
  809868:	08093c80 	call	8093c8 <_Balloc>
  80986c:	8415883a 	add	r10,r16,r16
  809870:	12c00504 	addi	r11,r2,20
  809874:	5295883a 	add	r10,r10,r10
  809878:	5a95883a 	add	r10,r11,r10
  80987c:	5807883a 	mov	r3,r11
  809880:	5a80032e 	bgeu	r11,r10,809890 <__multiply+0x80>
  809884:	18000015 	stw	zero,0(r3)
  809888:	18c00104 	addi	r3,r3,4
  80988c:	1abffd36 	bltu	r3,r10,809884 <__alt_mem_onchip_mem+0xff789884>
  809890:	9ce7883a 	add	r19,r19,r19
  809894:	94a5883a 	add	r18,r18,r18
  809898:	89800504 	addi	r6,r17,20
  80989c:	9ce7883a 	add	r19,r19,r19
  8098a0:	a3400504 	addi	r13,r20,20
  8098a4:	94a5883a 	add	r18,r18,r18
  8098a8:	34d9883a 	add	r12,r6,r19
  8098ac:	6c93883a 	add	r9,r13,r18
  8098b0:	3300422e 	bgeu	r6,r12,8099bc <__multiply+0x1ac>
  8098b4:	37c00017 	ldw	ra,0(r6)
  8098b8:	fbffffcc 	andi	r15,ra,65535
  8098bc:	78001b26 	beq	r15,zero,80992c <__multiply+0x11c>
  8098c0:	5811883a 	mov	r8,r11
  8098c4:	681d883a 	mov	r14,r13
  8098c8:	000f883a 	mov	r7,zero
  8098cc:	71000017 	ldw	r4,0(r14)
  8098d0:	40c00017 	ldw	r3,0(r8)
  8098d4:	73800104 	addi	r14,r14,4
  8098d8:	217fffcc 	andi	r5,r4,65535
  8098dc:	2bcb383a 	mul	r5,r5,r15
  8098e0:	2008d43a 	srli	r4,r4,16
  8098e4:	1c7fffcc 	andi	r17,r3,65535
  8098e8:	2c4b883a 	add	r5,r5,r17
  8098ec:	29cb883a 	add	r5,r5,r7
  8098f0:	23c9383a 	mul	r4,r4,r15
  8098f4:	1806d43a 	srli	r3,r3,16
  8098f8:	280ed43a 	srli	r7,r5,16
  8098fc:	297fffcc 	andi	r5,r5,65535
  809900:	20c7883a 	add	r3,r4,r3
  809904:	19c7883a 	add	r3,r3,r7
  809908:	1808943a 	slli	r4,r3,16
  80990c:	4023883a 	mov	r17,r8
  809910:	180ed43a 	srli	r7,r3,16
  809914:	214ab03a 	or	r5,r4,r5
  809918:	41400015 	stw	r5,0(r8)
  80991c:	42000104 	addi	r8,r8,4
  809920:	727fea36 	bltu	r14,r9,8098cc <__alt_mem_onchip_mem+0xff7898cc>
  809924:	89c00115 	stw	r7,4(r17)
  809928:	37c00017 	ldw	ra,0(r6)
  80992c:	f83ed43a 	srli	ra,ra,16
  809930:	f8001f26 	beq	ra,zero,8099b0 <__multiply+0x1a0>
  809934:	58c00017 	ldw	r3,0(r11)
  809938:	681d883a 	mov	r14,r13
  80993c:	581f883a 	mov	r15,r11
  809940:	1811883a 	mov	r8,r3
  809944:	5825883a 	mov	r18,r11
  809948:	000f883a 	mov	r7,zero
  80994c:	00000106 	br	809954 <__multiply+0x144>
  809950:	8825883a 	mov	r18,r17
  809954:	7140000b 	ldhu	r5,0(r14)
  809958:	4010d43a 	srli	r8,r8,16
  80995c:	193fffcc 	andi	r4,r3,65535
  809960:	2fcb383a 	mul	r5,r5,ra
  809964:	7bc00104 	addi	r15,r15,4
  809968:	73800104 	addi	r14,r14,4
  80996c:	2a0b883a 	add	r5,r5,r8
  809970:	29cb883a 	add	r5,r5,r7
  809974:	2806943a 	slli	r3,r5,16
  809978:	94400104 	addi	r17,r18,4
  80997c:	280ad43a 	srli	r5,r5,16
  809980:	1908b03a 	or	r4,r3,r4
  809984:	793fff15 	stw	r4,-4(r15)
  809988:	70ffff17 	ldw	r3,-4(r14)
  80998c:	8a000017 	ldw	r8,0(r17)
  809990:	1806d43a 	srli	r3,r3,16
  809994:	413fffcc 	andi	r4,r8,65535
  809998:	1fc7383a 	mul	r3,r3,ra
  80999c:	1907883a 	add	r3,r3,r4
  8099a0:	1947883a 	add	r3,r3,r5
  8099a4:	180ed43a 	srli	r7,r3,16
  8099a8:	727fe936 	bltu	r14,r9,809950 <__alt_mem_onchip_mem+0xff789950>
  8099ac:	90c00115 	stw	r3,4(r18)
  8099b0:	31800104 	addi	r6,r6,4
  8099b4:	5ac00104 	addi	r11,r11,4
  8099b8:	333fbe36 	bltu	r6,r12,8098b4 <__alt_mem_onchip_mem+0xff7898b4>
  8099bc:	0400090e 	bge	zero,r16,8099e4 <__multiply+0x1d4>
  8099c0:	50ffff17 	ldw	r3,-4(r10)
  8099c4:	52bfff04 	addi	r10,r10,-4
  8099c8:	18000326 	beq	r3,zero,8099d8 <__multiply+0x1c8>
  8099cc:	00000506 	br	8099e4 <__multiply+0x1d4>
  8099d0:	50c00017 	ldw	r3,0(r10)
  8099d4:	1800031e 	bne	r3,zero,8099e4 <__multiply+0x1d4>
  8099d8:	843fffc4 	addi	r16,r16,-1
  8099dc:	52bfff04 	addi	r10,r10,-4
  8099e0:	803ffb1e 	bne	r16,zero,8099d0 <__alt_mem_onchip_mem+0xff7899d0>
  8099e4:	14000415 	stw	r16,16(r2)
  8099e8:	dfc00517 	ldw	ra,20(sp)
  8099ec:	dd000417 	ldw	r20,16(sp)
  8099f0:	dcc00317 	ldw	r19,12(sp)
  8099f4:	dc800217 	ldw	r18,8(sp)
  8099f8:	dc400117 	ldw	r17,4(sp)
  8099fc:	dc000017 	ldw	r16,0(sp)
  809a00:	dec00604 	addi	sp,sp,24
  809a04:	f800283a 	ret

00809a08 <__pow5mult>:
  809a08:	defffa04 	addi	sp,sp,-24
  809a0c:	dcc00315 	stw	r19,12(sp)
  809a10:	dc000015 	stw	r16,0(sp)
  809a14:	dfc00515 	stw	ra,20(sp)
  809a18:	dd000415 	stw	r20,16(sp)
  809a1c:	dc800215 	stw	r18,8(sp)
  809a20:	dc400115 	stw	r17,4(sp)
  809a24:	308000cc 	andi	r2,r6,3
  809a28:	3021883a 	mov	r16,r6
  809a2c:	2027883a 	mov	r19,r4
  809a30:	10002f1e 	bne	r2,zero,809af0 <__pow5mult+0xe8>
  809a34:	2825883a 	mov	r18,r5
  809a38:	8021d0ba 	srai	r16,r16,2
  809a3c:	80001a26 	beq	r16,zero,809aa8 <__pow5mult+0xa0>
  809a40:	9c401217 	ldw	r17,72(r19)
  809a44:	8800061e 	bne	r17,zero,809a60 <__pow5mult+0x58>
  809a48:	00003406 	br	809b1c <__pow5mult+0x114>
  809a4c:	8021d07a 	srai	r16,r16,1
  809a50:	80001526 	beq	r16,zero,809aa8 <__pow5mult+0xa0>
  809a54:	88800017 	ldw	r2,0(r17)
  809a58:	10001c26 	beq	r2,zero,809acc <__pow5mult+0xc4>
  809a5c:	1023883a 	mov	r17,r2
  809a60:	8080004c 	andi	r2,r16,1
  809a64:	103ff926 	beq	r2,zero,809a4c <__alt_mem_onchip_mem+0xff789a4c>
  809a68:	880d883a 	mov	r6,r17
  809a6c:	900b883a 	mov	r5,r18
  809a70:	9809883a 	mov	r4,r19
  809a74:	08098100 	call	809810 <__multiply>
  809a78:	90001b26 	beq	r18,zero,809ae8 <__pow5mult+0xe0>
  809a7c:	91000117 	ldw	r4,4(r18)
  809a80:	98c01317 	ldw	r3,76(r19)
  809a84:	8021d07a 	srai	r16,r16,1
  809a88:	2109883a 	add	r4,r4,r4
  809a8c:	2109883a 	add	r4,r4,r4
  809a90:	1907883a 	add	r3,r3,r4
  809a94:	19000017 	ldw	r4,0(r3)
  809a98:	91000015 	stw	r4,0(r18)
  809a9c:	1c800015 	stw	r18,0(r3)
  809aa0:	1025883a 	mov	r18,r2
  809aa4:	803feb1e 	bne	r16,zero,809a54 <__alt_mem_onchip_mem+0xff789a54>
  809aa8:	9005883a 	mov	r2,r18
  809aac:	dfc00517 	ldw	ra,20(sp)
  809ab0:	dd000417 	ldw	r20,16(sp)
  809ab4:	dcc00317 	ldw	r19,12(sp)
  809ab8:	dc800217 	ldw	r18,8(sp)
  809abc:	dc400117 	ldw	r17,4(sp)
  809ac0:	dc000017 	ldw	r16,0(sp)
  809ac4:	dec00604 	addi	sp,sp,24
  809ac8:	f800283a 	ret
  809acc:	880d883a 	mov	r6,r17
  809ad0:	880b883a 	mov	r5,r17
  809ad4:	9809883a 	mov	r4,r19
  809ad8:	08098100 	call	809810 <__multiply>
  809adc:	88800015 	stw	r2,0(r17)
  809ae0:	10000015 	stw	zero,0(r2)
  809ae4:	003fdd06 	br	809a5c <__alt_mem_onchip_mem+0xff789a5c>
  809ae8:	1025883a 	mov	r18,r2
  809aec:	003fd706 	br	809a4c <__alt_mem_onchip_mem+0xff789a4c>
  809af0:	10bfffc4 	addi	r2,r2,-1
  809af4:	1085883a 	add	r2,r2,r2
  809af8:	00c02074 	movhi	r3,129
  809afc:	18cf3004 	addi	r3,r3,15552
  809b00:	1085883a 	add	r2,r2,r2
  809b04:	1885883a 	add	r2,r3,r2
  809b08:	11800017 	ldw	r6,0(r2)
  809b0c:	000f883a 	mov	r7,zero
  809b10:	08094980 	call	809498 <__multadd>
  809b14:	1025883a 	mov	r18,r2
  809b18:	003fc706 	br	809a38 <__alt_mem_onchip_mem+0xff789a38>
  809b1c:	05000044 	movi	r20,1
  809b20:	a00b883a 	mov	r5,r20
  809b24:	9809883a 	mov	r4,r19
  809b28:	08093c80 	call	8093c8 <_Balloc>
  809b2c:	1023883a 	mov	r17,r2
  809b30:	00809c44 	movi	r2,625
  809b34:	88800515 	stw	r2,20(r17)
  809b38:	8d000415 	stw	r20,16(r17)
  809b3c:	9c401215 	stw	r17,72(r19)
  809b40:	88000015 	stw	zero,0(r17)
  809b44:	003fc606 	br	809a60 <__alt_mem_onchip_mem+0xff789a60>

00809b48 <__lshift>:
  809b48:	defff904 	addi	sp,sp,-28
  809b4c:	dd400515 	stw	r21,20(sp)
  809b50:	dcc00315 	stw	r19,12(sp)
  809b54:	302bd17a 	srai	r21,r6,5
  809b58:	2cc00417 	ldw	r19,16(r5)
  809b5c:	28800217 	ldw	r2,8(r5)
  809b60:	dd000415 	stw	r20,16(sp)
  809b64:	ace7883a 	add	r19,r21,r19
  809b68:	dc800215 	stw	r18,8(sp)
  809b6c:	dc400115 	stw	r17,4(sp)
  809b70:	dc000015 	stw	r16,0(sp)
  809b74:	dfc00615 	stw	ra,24(sp)
  809b78:	9c000044 	addi	r16,r19,1
  809b7c:	2823883a 	mov	r17,r5
  809b80:	3029883a 	mov	r20,r6
  809b84:	2025883a 	mov	r18,r4
  809b88:	29400117 	ldw	r5,4(r5)
  809b8c:	1400030e 	bge	r2,r16,809b9c <__lshift+0x54>
  809b90:	1085883a 	add	r2,r2,r2
  809b94:	29400044 	addi	r5,r5,1
  809b98:	143ffd16 	blt	r2,r16,809b90 <__alt_mem_onchip_mem+0xff789b90>
  809b9c:	9009883a 	mov	r4,r18
  809ba0:	08093c80 	call	8093c8 <_Balloc>
  809ba4:	10c00504 	addi	r3,r2,20
  809ba8:	0540070e 	bge	zero,r21,809bc8 <__lshift+0x80>
  809bac:	ad6b883a 	add	r21,r21,r21
  809bb0:	ad6b883a 	add	r21,r21,r21
  809bb4:	1809883a 	mov	r4,r3
  809bb8:	1d47883a 	add	r3,r3,r21
  809bbc:	20000015 	stw	zero,0(r4)
  809bc0:	21000104 	addi	r4,r4,4
  809bc4:	193ffd1e 	bne	r3,r4,809bbc <__alt_mem_onchip_mem+0xff789bbc>
  809bc8:	8a000417 	ldw	r8,16(r17)
  809bcc:	89000504 	addi	r4,r17,20
  809bd0:	a18007cc 	andi	r6,r20,31
  809bd4:	4211883a 	add	r8,r8,r8
  809bd8:	4211883a 	add	r8,r8,r8
  809bdc:	2211883a 	add	r8,r4,r8
  809be0:	30002326 	beq	r6,zero,809c70 <__lshift+0x128>
  809be4:	02400804 	movi	r9,32
  809be8:	4993c83a 	sub	r9,r9,r6
  809bec:	000b883a 	mov	r5,zero
  809bf0:	21c00017 	ldw	r7,0(r4)
  809bf4:	1815883a 	mov	r10,r3
  809bf8:	18c00104 	addi	r3,r3,4
  809bfc:	398e983a 	sll	r7,r7,r6
  809c00:	21000104 	addi	r4,r4,4
  809c04:	394ab03a 	or	r5,r7,r5
  809c08:	197fff15 	stw	r5,-4(r3)
  809c0c:	217fff17 	ldw	r5,-4(r4)
  809c10:	2a4ad83a 	srl	r5,r5,r9
  809c14:	223ff636 	bltu	r4,r8,809bf0 <__alt_mem_onchip_mem+0xff789bf0>
  809c18:	51400115 	stw	r5,4(r10)
  809c1c:	28001a1e 	bne	r5,zero,809c88 <__lshift+0x140>
  809c20:	843fffc4 	addi	r16,r16,-1
  809c24:	14000415 	stw	r16,16(r2)
  809c28:	88000826 	beq	r17,zero,809c4c <__lshift+0x104>
  809c2c:	89000117 	ldw	r4,4(r17)
  809c30:	90c01317 	ldw	r3,76(r18)
  809c34:	2109883a 	add	r4,r4,r4
  809c38:	2109883a 	add	r4,r4,r4
  809c3c:	1907883a 	add	r3,r3,r4
  809c40:	19000017 	ldw	r4,0(r3)
  809c44:	89000015 	stw	r4,0(r17)
  809c48:	1c400015 	stw	r17,0(r3)
  809c4c:	dfc00617 	ldw	ra,24(sp)
  809c50:	dd400517 	ldw	r21,20(sp)
  809c54:	dd000417 	ldw	r20,16(sp)
  809c58:	dcc00317 	ldw	r19,12(sp)
  809c5c:	dc800217 	ldw	r18,8(sp)
  809c60:	dc400117 	ldw	r17,4(sp)
  809c64:	dc000017 	ldw	r16,0(sp)
  809c68:	dec00704 	addi	sp,sp,28
  809c6c:	f800283a 	ret
  809c70:	21400017 	ldw	r5,0(r4)
  809c74:	18c00104 	addi	r3,r3,4
  809c78:	21000104 	addi	r4,r4,4
  809c7c:	197fff15 	stw	r5,-4(r3)
  809c80:	223ffb36 	bltu	r4,r8,809c70 <__alt_mem_onchip_mem+0xff789c70>
  809c84:	003fe606 	br	809c20 <__alt_mem_onchip_mem+0xff789c20>
  809c88:	9c000084 	addi	r16,r19,2
  809c8c:	003fe406 	br	809c20 <__alt_mem_onchip_mem+0xff789c20>

00809c90 <__mcmp>:
  809c90:	20800417 	ldw	r2,16(r4)
  809c94:	28c00417 	ldw	r3,16(r5)
  809c98:	10c5c83a 	sub	r2,r2,r3
  809c9c:	1000111e 	bne	r2,zero,809ce4 <__mcmp+0x54>
  809ca0:	18c7883a 	add	r3,r3,r3
  809ca4:	18c7883a 	add	r3,r3,r3
  809ca8:	21000504 	addi	r4,r4,20
  809cac:	29400504 	addi	r5,r5,20
  809cb0:	20c5883a 	add	r2,r4,r3
  809cb4:	28cb883a 	add	r5,r5,r3
  809cb8:	00000106 	br	809cc0 <__mcmp+0x30>
  809cbc:	20800a2e 	bgeu	r4,r2,809ce8 <__mcmp+0x58>
  809cc0:	10bfff04 	addi	r2,r2,-4
  809cc4:	297fff04 	addi	r5,r5,-4
  809cc8:	11800017 	ldw	r6,0(r2)
  809ccc:	28c00017 	ldw	r3,0(r5)
  809cd0:	30fffa26 	beq	r6,r3,809cbc <__alt_mem_onchip_mem+0xff789cbc>
  809cd4:	30c00236 	bltu	r6,r3,809ce0 <__mcmp+0x50>
  809cd8:	00800044 	movi	r2,1
  809cdc:	f800283a 	ret
  809ce0:	00bfffc4 	movi	r2,-1
  809ce4:	f800283a 	ret
  809ce8:	0005883a 	mov	r2,zero
  809cec:	f800283a 	ret

00809cf0 <__mdiff>:
  809cf0:	28c00417 	ldw	r3,16(r5)
  809cf4:	30800417 	ldw	r2,16(r6)
  809cf8:	defffa04 	addi	sp,sp,-24
  809cfc:	dcc00315 	stw	r19,12(sp)
  809d00:	dc800215 	stw	r18,8(sp)
  809d04:	dfc00515 	stw	ra,20(sp)
  809d08:	dd000415 	stw	r20,16(sp)
  809d0c:	dc400115 	stw	r17,4(sp)
  809d10:	dc000015 	stw	r16,0(sp)
  809d14:	1887c83a 	sub	r3,r3,r2
  809d18:	2825883a 	mov	r18,r5
  809d1c:	3027883a 	mov	r19,r6
  809d20:	1800141e 	bne	r3,zero,809d74 <__mdiff+0x84>
  809d24:	1085883a 	add	r2,r2,r2
  809d28:	1085883a 	add	r2,r2,r2
  809d2c:	2a000504 	addi	r8,r5,20
  809d30:	34000504 	addi	r16,r6,20
  809d34:	4087883a 	add	r3,r8,r2
  809d38:	8085883a 	add	r2,r16,r2
  809d3c:	00000106 	br	809d44 <__mdiff+0x54>
  809d40:	40c0592e 	bgeu	r8,r3,809ea8 <__mdiff+0x1b8>
  809d44:	18ffff04 	addi	r3,r3,-4
  809d48:	10bfff04 	addi	r2,r2,-4
  809d4c:	19c00017 	ldw	r7,0(r3)
  809d50:	11400017 	ldw	r5,0(r2)
  809d54:	397ffa26 	beq	r7,r5,809d40 <__alt_mem_onchip_mem+0xff789d40>
  809d58:	3940592e 	bgeu	r7,r5,809ec0 <__mdiff+0x1d0>
  809d5c:	9005883a 	mov	r2,r18
  809d60:	4023883a 	mov	r17,r8
  809d64:	9825883a 	mov	r18,r19
  809d68:	05000044 	movi	r20,1
  809d6c:	1027883a 	mov	r19,r2
  809d70:	00000406 	br	809d84 <__mdiff+0x94>
  809d74:	18005616 	blt	r3,zero,809ed0 <__mdiff+0x1e0>
  809d78:	34400504 	addi	r17,r6,20
  809d7c:	2c000504 	addi	r16,r5,20
  809d80:	0029883a 	mov	r20,zero
  809d84:	91400117 	ldw	r5,4(r18)
  809d88:	08093c80 	call	8093c8 <_Balloc>
  809d8c:	92400417 	ldw	r9,16(r18)
  809d90:	9b000417 	ldw	r12,16(r19)
  809d94:	12c00504 	addi	r11,r2,20
  809d98:	4a51883a 	add	r8,r9,r9
  809d9c:	6319883a 	add	r12,r12,r12
  809da0:	4211883a 	add	r8,r8,r8
  809da4:	6319883a 	add	r12,r12,r12
  809da8:	15000315 	stw	r20,12(r2)
  809dac:	8211883a 	add	r8,r16,r8
  809db0:	8b19883a 	add	r12,r17,r12
  809db4:	0007883a 	mov	r3,zero
  809db8:	81400017 	ldw	r5,0(r16)
  809dbc:	89c00017 	ldw	r7,0(r17)
  809dc0:	59800104 	addi	r6,r11,4
  809dc4:	293fffcc 	andi	r4,r5,65535
  809dc8:	20c7883a 	add	r3,r4,r3
  809dcc:	393fffcc 	andi	r4,r7,65535
  809dd0:	1909c83a 	sub	r4,r3,r4
  809dd4:	280ad43a 	srli	r5,r5,16
  809dd8:	380ed43a 	srli	r7,r7,16
  809ddc:	2007d43a 	srai	r3,r4,16
  809de0:	213fffcc 	andi	r4,r4,65535
  809de4:	29cbc83a 	sub	r5,r5,r7
  809de8:	28c7883a 	add	r3,r5,r3
  809dec:	180a943a 	slli	r5,r3,16
  809df0:	8c400104 	addi	r17,r17,4
  809df4:	84000104 	addi	r16,r16,4
  809df8:	2908b03a 	or	r4,r5,r4
  809dfc:	59000015 	stw	r4,0(r11)
  809e00:	1807d43a 	srai	r3,r3,16
  809e04:	3015883a 	mov	r10,r6
  809e08:	3017883a 	mov	r11,r6
  809e0c:	8b3fea36 	bltu	r17,r12,809db8 <__alt_mem_onchip_mem+0xff789db8>
  809e10:	8200162e 	bgeu	r16,r8,809e6c <__mdiff+0x17c>
  809e14:	8017883a 	mov	r11,r16
  809e18:	59400017 	ldw	r5,0(r11)
  809e1c:	31800104 	addi	r6,r6,4
  809e20:	5ac00104 	addi	r11,r11,4
  809e24:	293fffcc 	andi	r4,r5,65535
  809e28:	20c7883a 	add	r3,r4,r3
  809e2c:	280ed43a 	srli	r7,r5,16
  809e30:	180bd43a 	srai	r5,r3,16
  809e34:	193fffcc 	andi	r4,r3,65535
  809e38:	3947883a 	add	r3,r7,r5
  809e3c:	180a943a 	slli	r5,r3,16
  809e40:	1807d43a 	srai	r3,r3,16
  809e44:	2908b03a 	or	r4,r5,r4
  809e48:	313fff15 	stw	r4,-4(r6)
  809e4c:	5a3ff236 	bltu	r11,r8,809e18 <__alt_mem_onchip_mem+0xff789e18>
  809e50:	0406303a 	nor	r3,zero,r16
  809e54:	1a07883a 	add	r3,r3,r8
  809e58:	1806d0ba 	srli	r3,r3,2
  809e5c:	18c00044 	addi	r3,r3,1
  809e60:	18c7883a 	add	r3,r3,r3
  809e64:	18c7883a 	add	r3,r3,r3
  809e68:	50d5883a 	add	r10,r10,r3
  809e6c:	50ffff04 	addi	r3,r10,-4
  809e70:	2000041e 	bne	r4,zero,809e84 <__mdiff+0x194>
  809e74:	18ffff04 	addi	r3,r3,-4
  809e78:	19000017 	ldw	r4,0(r3)
  809e7c:	4a7fffc4 	addi	r9,r9,-1
  809e80:	203ffc26 	beq	r4,zero,809e74 <__alt_mem_onchip_mem+0xff789e74>
  809e84:	12400415 	stw	r9,16(r2)
  809e88:	dfc00517 	ldw	ra,20(sp)
  809e8c:	dd000417 	ldw	r20,16(sp)
  809e90:	dcc00317 	ldw	r19,12(sp)
  809e94:	dc800217 	ldw	r18,8(sp)
  809e98:	dc400117 	ldw	r17,4(sp)
  809e9c:	dc000017 	ldw	r16,0(sp)
  809ea0:	dec00604 	addi	sp,sp,24
  809ea4:	f800283a 	ret
  809ea8:	000b883a 	mov	r5,zero
  809eac:	08093c80 	call	8093c8 <_Balloc>
  809eb0:	00c00044 	movi	r3,1
  809eb4:	10c00415 	stw	r3,16(r2)
  809eb8:	10000515 	stw	zero,20(r2)
  809ebc:	003ff206 	br	809e88 <__alt_mem_onchip_mem+0xff789e88>
  809ec0:	8023883a 	mov	r17,r16
  809ec4:	0029883a 	mov	r20,zero
  809ec8:	4021883a 	mov	r16,r8
  809ecc:	003fad06 	br	809d84 <__alt_mem_onchip_mem+0xff789d84>
  809ed0:	9005883a 	mov	r2,r18
  809ed4:	94400504 	addi	r17,r18,20
  809ed8:	9c000504 	addi	r16,r19,20
  809edc:	9825883a 	mov	r18,r19
  809ee0:	05000044 	movi	r20,1
  809ee4:	1027883a 	mov	r19,r2
  809ee8:	003fa606 	br	809d84 <__alt_mem_onchip_mem+0xff789d84>

00809eec <__ulp>:
  809eec:	295ffc2c 	andhi	r5,r5,32752
  809ef0:	00bf3034 	movhi	r2,64704
  809ef4:	2887883a 	add	r3,r5,r2
  809ef8:	00c0020e 	bge	zero,r3,809f04 <__ulp+0x18>
  809efc:	0005883a 	mov	r2,zero
  809f00:	f800283a 	ret
  809f04:	00c7c83a 	sub	r3,zero,r3
  809f08:	1807d53a 	srai	r3,r3,20
  809f0c:	008004c4 	movi	r2,19
  809f10:	10c00b0e 	bge	r2,r3,809f40 <__ulp+0x54>
  809f14:	18bffb04 	addi	r2,r3,-20
  809f18:	01000784 	movi	r4,30
  809f1c:	0007883a 	mov	r3,zero
  809f20:	20800516 	blt	r4,r2,809f38 <__ulp+0x4c>
  809f24:	010007c4 	movi	r4,31
  809f28:	2089c83a 	sub	r4,r4,r2
  809f2c:	00800044 	movi	r2,1
  809f30:	1104983a 	sll	r2,r2,r4
  809f34:	f800283a 	ret
  809f38:	00800044 	movi	r2,1
  809f3c:	f800283a 	ret
  809f40:	01400234 	movhi	r5,8
  809f44:	28c7d83a 	sra	r3,r5,r3
  809f48:	0005883a 	mov	r2,zero
  809f4c:	f800283a 	ret

00809f50 <__b2d>:
  809f50:	defffa04 	addi	sp,sp,-24
  809f54:	dc000015 	stw	r16,0(sp)
  809f58:	24000417 	ldw	r16,16(r4)
  809f5c:	dc400115 	stw	r17,4(sp)
  809f60:	24400504 	addi	r17,r4,20
  809f64:	8421883a 	add	r16,r16,r16
  809f68:	8421883a 	add	r16,r16,r16
  809f6c:	8c21883a 	add	r16,r17,r16
  809f70:	dc800215 	stw	r18,8(sp)
  809f74:	84bfff17 	ldw	r18,-4(r16)
  809f78:	dd000415 	stw	r20,16(sp)
  809f7c:	dcc00315 	stw	r19,12(sp)
  809f80:	9009883a 	mov	r4,r18
  809f84:	2829883a 	mov	r20,r5
  809f88:	dfc00515 	stw	ra,20(sp)
  809f8c:	08096bc0 	call	8096bc <__hi0bits>
  809f90:	00c00804 	movi	r3,32
  809f94:	1889c83a 	sub	r4,r3,r2
  809f98:	a1000015 	stw	r4,0(r20)
  809f9c:	01000284 	movi	r4,10
  809fa0:	84ffff04 	addi	r19,r16,-4
  809fa4:	20801216 	blt	r4,r2,809ff0 <__b2d+0xa0>
  809fa8:	018002c4 	movi	r6,11
  809fac:	308dc83a 	sub	r6,r6,r2
  809fb0:	9186d83a 	srl	r3,r18,r6
  809fb4:	18cffc34 	orhi	r3,r3,16368
  809fb8:	8cc0212e 	bgeu	r17,r19,80a040 <__b2d+0xf0>
  809fbc:	813ffe17 	ldw	r4,-8(r16)
  809fc0:	218cd83a 	srl	r6,r4,r6
  809fc4:	10800544 	addi	r2,r2,21
  809fc8:	9084983a 	sll	r2,r18,r2
  809fcc:	1184b03a 	or	r2,r2,r6
  809fd0:	dfc00517 	ldw	ra,20(sp)
  809fd4:	dd000417 	ldw	r20,16(sp)
  809fd8:	dcc00317 	ldw	r19,12(sp)
  809fdc:	dc800217 	ldw	r18,8(sp)
  809fe0:	dc400117 	ldw	r17,4(sp)
  809fe4:	dc000017 	ldw	r16,0(sp)
  809fe8:	dec00604 	addi	sp,sp,24
  809fec:	f800283a 	ret
  809ff0:	8cc00f2e 	bgeu	r17,r19,80a030 <__b2d+0xe0>
  809ff4:	117ffd44 	addi	r5,r2,-11
  809ff8:	80bffe17 	ldw	r2,-8(r16)
  809ffc:	28000e26 	beq	r5,zero,80a038 <__b2d+0xe8>
  80a000:	1949c83a 	sub	r4,r3,r5
  80a004:	9164983a 	sll	r18,r18,r5
  80a008:	1106d83a 	srl	r3,r2,r4
  80a00c:	81bffe04 	addi	r6,r16,-8
  80a010:	948ffc34 	orhi	r18,r18,16368
  80a014:	90c6b03a 	or	r3,r18,r3
  80a018:	89800e2e 	bgeu	r17,r6,80a054 <__b2d+0x104>
  80a01c:	81bffd17 	ldw	r6,-12(r16)
  80a020:	1144983a 	sll	r2,r2,r5
  80a024:	310ad83a 	srl	r5,r6,r4
  80a028:	2884b03a 	or	r2,r5,r2
  80a02c:	003fe806 	br	809fd0 <__alt_mem_onchip_mem+0xff789fd0>
  80a030:	10bffd44 	addi	r2,r2,-11
  80a034:	1000041e 	bne	r2,zero,80a048 <__b2d+0xf8>
  80a038:	90cffc34 	orhi	r3,r18,16368
  80a03c:	003fe406 	br	809fd0 <__alt_mem_onchip_mem+0xff789fd0>
  80a040:	000d883a 	mov	r6,zero
  80a044:	003fdf06 	br	809fc4 <__alt_mem_onchip_mem+0xff789fc4>
  80a048:	90a4983a 	sll	r18,r18,r2
  80a04c:	0005883a 	mov	r2,zero
  80a050:	003ff906 	br	80a038 <__alt_mem_onchip_mem+0xff78a038>
  80a054:	1144983a 	sll	r2,r2,r5
  80a058:	003fdd06 	br	809fd0 <__alt_mem_onchip_mem+0xff789fd0>

0080a05c <__d2b>:
  80a05c:	defff804 	addi	sp,sp,-32
  80a060:	dc000215 	stw	r16,8(sp)
  80a064:	3021883a 	mov	r16,r6
  80a068:	dc400315 	stw	r17,12(sp)
  80a06c:	8022907a 	slli	r17,r16,1
  80a070:	dd000615 	stw	r20,24(sp)
  80a074:	2829883a 	mov	r20,r5
  80a078:	01400044 	movi	r5,1
  80a07c:	dcc00515 	stw	r19,20(sp)
  80a080:	dc800415 	stw	r18,16(sp)
  80a084:	dfc00715 	stw	ra,28(sp)
  80a088:	3825883a 	mov	r18,r7
  80a08c:	8822d57a 	srli	r17,r17,21
  80a090:	08093c80 	call	8093c8 <_Balloc>
  80a094:	1027883a 	mov	r19,r2
  80a098:	00800434 	movhi	r2,16
  80a09c:	10bfffc4 	addi	r2,r2,-1
  80a0a0:	808c703a 	and	r6,r16,r2
  80a0a4:	88000126 	beq	r17,zero,80a0ac <__d2b+0x50>
  80a0a8:	31800434 	orhi	r6,r6,16
  80a0ac:	d9800015 	stw	r6,0(sp)
  80a0b0:	a0002426 	beq	r20,zero,80a144 <__d2b+0xe8>
  80a0b4:	d9000104 	addi	r4,sp,4
  80a0b8:	dd000115 	stw	r20,4(sp)
  80a0bc:	08097240 	call	809724 <__lo0bits>
  80a0c0:	d8c00017 	ldw	r3,0(sp)
  80a0c4:	10002f1e 	bne	r2,zero,80a184 <__d2b+0x128>
  80a0c8:	d9000117 	ldw	r4,4(sp)
  80a0cc:	99000515 	stw	r4,20(r19)
  80a0d0:	1821003a 	cmpeq	r16,r3,zero
  80a0d4:	01000084 	movi	r4,2
  80a0d8:	2421c83a 	sub	r16,r4,r16
  80a0dc:	98c00615 	stw	r3,24(r19)
  80a0e0:	9c000415 	stw	r16,16(r19)
  80a0e4:	88001f1e 	bne	r17,zero,80a164 <__d2b+0x108>
  80a0e8:	10bef384 	addi	r2,r2,-1074
  80a0ec:	90800015 	stw	r2,0(r18)
  80a0f0:	00900034 	movhi	r2,16384
  80a0f4:	10bfffc4 	addi	r2,r2,-1
  80a0f8:	8085883a 	add	r2,r16,r2
  80a0fc:	1085883a 	add	r2,r2,r2
  80a100:	1085883a 	add	r2,r2,r2
  80a104:	9885883a 	add	r2,r19,r2
  80a108:	11000517 	ldw	r4,20(r2)
  80a10c:	8020917a 	slli	r16,r16,5
  80a110:	08096bc0 	call	8096bc <__hi0bits>
  80a114:	d8c00817 	ldw	r3,32(sp)
  80a118:	8085c83a 	sub	r2,r16,r2
  80a11c:	18800015 	stw	r2,0(r3)
  80a120:	9805883a 	mov	r2,r19
  80a124:	dfc00717 	ldw	ra,28(sp)
  80a128:	dd000617 	ldw	r20,24(sp)
  80a12c:	dcc00517 	ldw	r19,20(sp)
  80a130:	dc800417 	ldw	r18,16(sp)
  80a134:	dc400317 	ldw	r17,12(sp)
  80a138:	dc000217 	ldw	r16,8(sp)
  80a13c:	dec00804 	addi	sp,sp,32
  80a140:	f800283a 	ret
  80a144:	d809883a 	mov	r4,sp
  80a148:	08097240 	call	809724 <__lo0bits>
  80a14c:	d8c00017 	ldw	r3,0(sp)
  80a150:	04000044 	movi	r16,1
  80a154:	9c000415 	stw	r16,16(r19)
  80a158:	98c00515 	stw	r3,20(r19)
  80a15c:	10800804 	addi	r2,r2,32
  80a160:	883fe126 	beq	r17,zero,80a0e8 <__alt_mem_onchip_mem+0xff78a0e8>
  80a164:	00c00d44 	movi	r3,53
  80a168:	8c7ef344 	addi	r17,r17,-1075
  80a16c:	88a3883a 	add	r17,r17,r2
  80a170:	1885c83a 	sub	r2,r3,r2
  80a174:	d8c00817 	ldw	r3,32(sp)
  80a178:	94400015 	stw	r17,0(r18)
  80a17c:	18800015 	stw	r2,0(r3)
  80a180:	003fe706 	br	80a120 <__alt_mem_onchip_mem+0xff78a120>
  80a184:	01000804 	movi	r4,32
  80a188:	2089c83a 	sub	r4,r4,r2
  80a18c:	1908983a 	sll	r4,r3,r4
  80a190:	d9400117 	ldw	r5,4(sp)
  80a194:	1886d83a 	srl	r3,r3,r2
  80a198:	2148b03a 	or	r4,r4,r5
  80a19c:	99000515 	stw	r4,20(r19)
  80a1a0:	d8c00015 	stw	r3,0(sp)
  80a1a4:	003fca06 	br	80a0d0 <__alt_mem_onchip_mem+0xff78a0d0>

0080a1a8 <__ratio>:
  80a1a8:	defff904 	addi	sp,sp,-28
  80a1ac:	dc400315 	stw	r17,12(sp)
  80a1b0:	2823883a 	mov	r17,r5
  80a1b4:	d9400104 	addi	r5,sp,4
  80a1b8:	dfc00615 	stw	ra,24(sp)
  80a1bc:	dcc00515 	stw	r19,20(sp)
  80a1c0:	dc800415 	stw	r18,16(sp)
  80a1c4:	2027883a 	mov	r19,r4
  80a1c8:	dc000215 	stw	r16,8(sp)
  80a1cc:	0809f500 	call	809f50 <__b2d>
  80a1d0:	d80b883a 	mov	r5,sp
  80a1d4:	8809883a 	mov	r4,r17
  80a1d8:	1025883a 	mov	r18,r2
  80a1dc:	1821883a 	mov	r16,r3
  80a1e0:	0809f500 	call	809f50 <__b2d>
  80a1e4:	8a000417 	ldw	r8,16(r17)
  80a1e8:	99000417 	ldw	r4,16(r19)
  80a1ec:	d9400117 	ldw	r5,4(sp)
  80a1f0:	2209c83a 	sub	r4,r4,r8
  80a1f4:	2010917a 	slli	r8,r4,5
  80a1f8:	d9000017 	ldw	r4,0(sp)
  80a1fc:	2909c83a 	sub	r4,r5,r4
  80a200:	4109883a 	add	r4,r8,r4
  80a204:	01000e0e 	bge	zero,r4,80a240 <__ratio+0x98>
  80a208:	2008953a 	slli	r4,r4,20
  80a20c:	2421883a 	add	r16,r4,r16
  80a210:	100d883a 	mov	r6,r2
  80a214:	180f883a 	mov	r7,r3
  80a218:	9009883a 	mov	r4,r18
  80a21c:	800b883a 	mov	r5,r16
  80a220:	080dc3c0 	call	80dc3c <__divdf3>
  80a224:	dfc00617 	ldw	ra,24(sp)
  80a228:	dcc00517 	ldw	r19,20(sp)
  80a22c:	dc800417 	ldw	r18,16(sp)
  80a230:	dc400317 	ldw	r17,12(sp)
  80a234:	dc000217 	ldw	r16,8(sp)
  80a238:	dec00704 	addi	sp,sp,28
  80a23c:	f800283a 	ret
  80a240:	2008953a 	slli	r4,r4,20
  80a244:	1907c83a 	sub	r3,r3,r4
  80a248:	003ff106 	br	80a210 <__alt_mem_onchip_mem+0xff78a210>

0080a24c <_mprec_log10>:
  80a24c:	defffe04 	addi	sp,sp,-8
  80a250:	dc000015 	stw	r16,0(sp)
  80a254:	dfc00115 	stw	ra,4(sp)
  80a258:	008005c4 	movi	r2,23
  80a25c:	2021883a 	mov	r16,r4
  80a260:	11000d0e 	bge	r2,r4,80a298 <_mprec_log10+0x4c>
  80a264:	0005883a 	mov	r2,zero
  80a268:	00cffc34 	movhi	r3,16368
  80a26c:	843fffc4 	addi	r16,r16,-1
  80a270:	000d883a 	mov	r6,zero
  80a274:	01d00934 	movhi	r7,16420
  80a278:	1009883a 	mov	r4,r2
  80a27c:	180b883a 	mov	r5,r3
  80a280:	080e77c0 	call	80e77c <__muldf3>
  80a284:	803ff91e 	bne	r16,zero,80a26c <__alt_mem_onchip_mem+0xff78a26c>
  80a288:	dfc00117 	ldw	ra,4(sp)
  80a28c:	dc000017 	ldw	r16,0(sp)
  80a290:	dec00204 	addi	sp,sp,8
  80a294:	f800283a 	ret
  80a298:	202090fa 	slli	r16,r4,3
  80a29c:	00802074 	movhi	r2,129
  80a2a0:	108f4704 	addi	r2,r2,15644
  80a2a4:	1421883a 	add	r16,r2,r16
  80a2a8:	80800017 	ldw	r2,0(r16)
  80a2ac:	80c00117 	ldw	r3,4(r16)
  80a2b0:	dfc00117 	ldw	ra,4(sp)
  80a2b4:	dc000017 	ldw	r16,0(sp)
  80a2b8:	dec00204 	addi	sp,sp,8
  80a2bc:	f800283a 	ret

0080a2c0 <__copybits>:
  80a2c0:	297fffc4 	addi	r5,r5,-1
  80a2c4:	280fd17a 	srai	r7,r5,5
  80a2c8:	30c00417 	ldw	r3,16(r6)
  80a2cc:	30800504 	addi	r2,r6,20
  80a2d0:	39c00044 	addi	r7,r7,1
  80a2d4:	18c7883a 	add	r3,r3,r3
  80a2d8:	39cf883a 	add	r7,r7,r7
  80a2dc:	18c7883a 	add	r3,r3,r3
  80a2e0:	39cf883a 	add	r7,r7,r7
  80a2e4:	10c7883a 	add	r3,r2,r3
  80a2e8:	21cf883a 	add	r7,r4,r7
  80a2ec:	10c00d2e 	bgeu	r2,r3,80a324 <__copybits+0x64>
  80a2f0:	200b883a 	mov	r5,r4
  80a2f4:	12000017 	ldw	r8,0(r2)
  80a2f8:	29400104 	addi	r5,r5,4
  80a2fc:	10800104 	addi	r2,r2,4
  80a300:	2a3fff15 	stw	r8,-4(r5)
  80a304:	10fffb36 	bltu	r2,r3,80a2f4 <__alt_mem_onchip_mem+0xff78a2f4>
  80a308:	1985c83a 	sub	r2,r3,r6
  80a30c:	10bffac4 	addi	r2,r2,-21
  80a310:	1004d0ba 	srli	r2,r2,2
  80a314:	10800044 	addi	r2,r2,1
  80a318:	1085883a 	add	r2,r2,r2
  80a31c:	1085883a 	add	r2,r2,r2
  80a320:	2089883a 	add	r4,r4,r2
  80a324:	21c0032e 	bgeu	r4,r7,80a334 <__copybits+0x74>
  80a328:	20000015 	stw	zero,0(r4)
  80a32c:	21000104 	addi	r4,r4,4
  80a330:	21fffd36 	bltu	r4,r7,80a328 <__alt_mem_onchip_mem+0xff78a328>
  80a334:	f800283a 	ret

0080a338 <__any_on>:
  80a338:	20c00417 	ldw	r3,16(r4)
  80a33c:	2805d17a 	srai	r2,r5,5
  80a340:	21000504 	addi	r4,r4,20
  80a344:	18800d0e 	bge	r3,r2,80a37c <__any_on+0x44>
  80a348:	18c7883a 	add	r3,r3,r3
  80a34c:	18c7883a 	add	r3,r3,r3
  80a350:	20c7883a 	add	r3,r4,r3
  80a354:	20c0192e 	bgeu	r4,r3,80a3bc <__any_on+0x84>
  80a358:	18bfff17 	ldw	r2,-4(r3)
  80a35c:	18ffff04 	addi	r3,r3,-4
  80a360:	1000041e 	bne	r2,zero,80a374 <__any_on+0x3c>
  80a364:	20c0142e 	bgeu	r4,r3,80a3b8 <__any_on+0x80>
  80a368:	18ffff04 	addi	r3,r3,-4
  80a36c:	19400017 	ldw	r5,0(r3)
  80a370:	283ffc26 	beq	r5,zero,80a364 <__alt_mem_onchip_mem+0xff78a364>
  80a374:	00800044 	movi	r2,1
  80a378:	f800283a 	ret
  80a37c:	10c00a0e 	bge	r2,r3,80a3a8 <__any_on+0x70>
  80a380:	1085883a 	add	r2,r2,r2
  80a384:	1085883a 	add	r2,r2,r2
  80a388:	294007cc 	andi	r5,r5,31
  80a38c:	2087883a 	add	r3,r4,r2
  80a390:	283ff026 	beq	r5,zero,80a354 <__alt_mem_onchip_mem+0xff78a354>
  80a394:	19800017 	ldw	r6,0(r3)
  80a398:	3144d83a 	srl	r2,r6,r5
  80a39c:	114a983a 	sll	r5,r2,r5
  80a3a0:	317ff41e 	bne	r6,r5,80a374 <__alt_mem_onchip_mem+0xff78a374>
  80a3a4:	003feb06 	br	80a354 <__alt_mem_onchip_mem+0xff78a354>
  80a3a8:	1085883a 	add	r2,r2,r2
  80a3ac:	1085883a 	add	r2,r2,r2
  80a3b0:	2087883a 	add	r3,r4,r2
  80a3b4:	003fe706 	br	80a354 <__alt_mem_onchip_mem+0xff78a354>
  80a3b8:	f800283a 	ret
  80a3bc:	0005883a 	mov	r2,zero
  80a3c0:	f800283a 	ret

0080a3c4 <_read_r>:
  80a3c4:	defffd04 	addi	sp,sp,-12
  80a3c8:	2805883a 	mov	r2,r5
  80a3cc:	dc000015 	stw	r16,0(sp)
  80a3d0:	04002074 	movhi	r16,129
  80a3d4:	dc400115 	stw	r17,4(sp)
  80a3d8:	300b883a 	mov	r5,r6
  80a3dc:	841f1b04 	addi	r16,r16,31852
  80a3e0:	2023883a 	mov	r17,r4
  80a3e4:	380d883a 	mov	r6,r7
  80a3e8:	1009883a 	mov	r4,r2
  80a3ec:	dfc00215 	stw	ra,8(sp)
  80a3f0:	80000015 	stw	zero,0(r16)
  80a3f4:	08103780 	call	810378 <read>
  80a3f8:	00ffffc4 	movi	r3,-1
  80a3fc:	10c00526 	beq	r2,r3,80a414 <_read_r+0x50>
  80a400:	dfc00217 	ldw	ra,8(sp)
  80a404:	dc400117 	ldw	r17,4(sp)
  80a408:	dc000017 	ldw	r16,0(sp)
  80a40c:	dec00304 	addi	sp,sp,12
  80a410:	f800283a 	ret
  80a414:	80c00017 	ldw	r3,0(r16)
  80a418:	183ff926 	beq	r3,zero,80a400 <__alt_mem_onchip_mem+0xff78a400>
  80a41c:	88c00015 	stw	r3,0(r17)
  80a420:	003ff706 	br	80a400 <__alt_mem_onchip_mem+0xff78a400>

0080a424 <_realloc_r>:
  80a424:	defff604 	addi	sp,sp,-40
  80a428:	dc800215 	stw	r18,8(sp)
  80a42c:	dfc00915 	stw	ra,36(sp)
  80a430:	df000815 	stw	fp,32(sp)
  80a434:	ddc00715 	stw	r23,28(sp)
  80a438:	dd800615 	stw	r22,24(sp)
  80a43c:	dd400515 	stw	r21,20(sp)
  80a440:	dd000415 	stw	r20,16(sp)
  80a444:	dcc00315 	stw	r19,12(sp)
  80a448:	dc400115 	stw	r17,4(sp)
  80a44c:	dc000015 	stw	r16,0(sp)
  80a450:	3025883a 	mov	r18,r6
  80a454:	2800b726 	beq	r5,zero,80a734 <_realloc_r+0x310>
  80a458:	282b883a 	mov	r21,r5
  80a45c:	2029883a 	mov	r20,r4
  80a460:	08100a00 	call	8100a0 <__malloc_lock>
  80a464:	a8bfff17 	ldw	r2,-4(r21)
  80a468:	043fff04 	movi	r16,-4
  80a46c:	90c002c4 	addi	r3,r18,11
  80a470:	01000584 	movi	r4,22
  80a474:	acfffe04 	addi	r19,r21,-8
  80a478:	1420703a 	and	r16,r2,r16
  80a47c:	20c0332e 	bgeu	r4,r3,80a54c <_realloc_r+0x128>
  80a480:	047ffe04 	movi	r17,-8
  80a484:	1c62703a 	and	r17,r3,r17
  80a488:	8807883a 	mov	r3,r17
  80a48c:	88005816 	blt	r17,zero,80a5f0 <_realloc_r+0x1cc>
  80a490:	8c805736 	bltu	r17,r18,80a5f0 <_realloc_r+0x1cc>
  80a494:	80c0300e 	bge	r16,r3,80a558 <_realloc_r+0x134>
  80a498:	07002074 	movhi	fp,129
  80a49c:	e7117b04 	addi	fp,fp,17900
  80a4a0:	e1c00217 	ldw	r7,8(fp)
  80a4a4:	9c09883a 	add	r4,r19,r16
  80a4a8:	22000117 	ldw	r8,4(r4)
  80a4ac:	21c06326 	beq	r4,r7,80a63c <_realloc_r+0x218>
  80a4b0:	017fff84 	movi	r5,-2
  80a4b4:	414a703a 	and	r5,r8,r5
  80a4b8:	214b883a 	add	r5,r4,r5
  80a4bc:	29800117 	ldw	r6,4(r5)
  80a4c0:	3180004c 	andi	r6,r6,1
  80a4c4:	30003f26 	beq	r6,zero,80a5c4 <_realloc_r+0x1a0>
  80a4c8:	1080004c 	andi	r2,r2,1
  80a4cc:	10008326 	beq	r2,zero,80a6dc <_realloc_r+0x2b8>
  80a4d0:	900b883a 	mov	r5,r18
  80a4d4:	a009883a 	mov	r4,r20
  80a4d8:	0803bf80 	call	803bf8 <_malloc_r>
  80a4dc:	1025883a 	mov	r18,r2
  80a4e0:	10011e26 	beq	r2,zero,80a95c <_realloc_r+0x538>
  80a4e4:	a93fff17 	ldw	r4,-4(r21)
  80a4e8:	10fffe04 	addi	r3,r2,-8
  80a4ec:	00bfff84 	movi	r2,-2
  80a4f0:	2084703a 	and	r2,r4,r2
  80a4f4:	9885883a 	add	r2,r19,r2
  80a4f8:	1880ee26 	beq	r3,r2,80a8b4 <_realloc_r+0x490>
  80a4fc:	81bfff04 	addi	r6,r16,-4
  80a500:	00800904 	movi	r2,36
  80a504:	1180b836 	bltu	r2,r6,80a7e8 <_realloc_r+0x3c4>
  80a508:	00c004c4 	movi	r3,19
  80a50c:	19809636 	bltu	r3,r6,80a768 <_realloc_r+0x344>
  80a510:	9005883a 	mov	r2,r18
  80a514:	a807883a 	mov	r3,r21
  80a518:	19000017 	ldw	r4,0(r3)
  80a51c:	11000015 	stw	r4,0(r2)
  80a520:	19000117 	ldw	r4,4(r3)
  80a524:	11000115 	stw	r4,4(r2)
  80a528:	18c00217 	ldw	r3,8(r3)
  80a52c:	10c00215 	stw	r3,8(r2)
  80a530:	a80b883a 	mov	r5,r21
  80a534:	a009883a 	mov	r4,r20
  80a538:	0802fc80 	call	802fc8 <_free_r>
  80a53c:	a009883a 	mov	r4,r20
  80a540:	08100c40 	call	8100c4 <__malloc_unlock>
  80a544:	9005883a 	mov	r2,r18
  80a548:	00001206 	br	80a594 <_realloc_r+0x170>
  80a54c:	00c00404 	movi	r3,16
  80a550:	1823883a 	mov	r17,r3
  80a554:	003fce06 	br	80a490 <__alt_mem_onchip_mem+0xff78a490>
  80a558:	a825883a 	mov	r18,r21
  80a55c:	8445c83a 	sub	r2,r16,r17
  80a560:	00c003c4 	movi	r3,15
  80a564:	18802636 	bltu	r3,r2,80a600 <_realloc_r+0x1dc>
  80a568:	99800117 	ldw	r6,4(r19)
  80a56c:	9c07883a 	add	r3,r19,r16
  80a570:	3180004c 	andi	r6,r6,1
  80a574:	3420b03a 	or	r16,r6,r16
  80a578:	9c000115 	stw	r16,4(r19)
  80a57c:	18800117 	ldw	r2,4(r3)
  80a580:	10800054 	ori	r2,r2,1
  80a584:	18800115 	stw	r2,4(r3)
  80a588:	a009883a 	mov	r4,r20
  80a58c:	08100c40 	call	8100c4 <__malloc_unlock>
  80a590:	9005883a 	mov	r2,r18
  80a594:	dfc00917 	ldw	ra,36(sp)
  80a598:	df000817 	ldw	fp,32(sp)
  80a59c:	ddc00717 	ldw	r23,28(sp)
  80a5a0:	dd800617 	ldw	r22,24(sp)
  80a5a4:	dd400517 	ldw	r21,20(sp)
  80a5a8:	dd000417 	ldw	r20,16(sp)
  80a5ac:	dcc00317 	ldw	r19,12(sp)
  80a5b0:	dc800217 	ldw	r18,8(sp)
  80a5b4:	dc400117 	ldw	r17,4(sp)
  80a5b8:	dc000017 	ldw	r16,0(sp)
  80a5bc:	dec00a04 	addi	sp,sp,40
  80a5c0:	f800283a 	ret
  80a5c4:	017fff04 	movi	r5,-4
  80a5c8:	414a703a 	and	r5,r8,r5
  80a5cc:	814d883a 	add	r6,r16,r5
  80a5d0:	30c01f16 	blt	r6,r3,80a650 <_realloc_r+0x22c>
  80a5d4:	20800317 	ldw	r2,12(r4)
  80a5d8:	20c00217 	ldw	r3,8(r4)
  80a5dc:	a825883a 	mov	r18,r21
  80a5e0:	3021883a 	mov	r16,r6
  80a5e4:	18800315 	stw	r2,12(r3)
  80a5e8:	10c00215 	stw	r3,8(r2)
  80a5ec:	003fdb06 	br	80a55c <__alt_mem_onchip_mem+0xff78a55c>
  80a5f0:	00800304 	movi	r2,12
  80a5f4:	a0800015 	stw	r2,0(r20)
  80a5f8:	0005883a 	mov	r2,zero
  80a5fc:	003fe506 	br	80a594 <__alt_mem_onchip_mem+0xff78a594>
  80a600:	98c00117 	ldw	r3,4(r19)
  80a604:	9c4b883a 	add	r5,r19,r17
  80a608:	11000054 	ori	r4,r2,1
  80a60c:	18c0004c 	andi	r3,r3,1
  80a610:	1c62b03a 	or	r17,r3,r17
  80a614:	9c400115 	stw	r17,4(r19)
  80a618:	29000115 	stw	r4,4(r5)
  80a61c:	2885883a 	add	r2,r5,r2
  80a620:	10c00117 	ldw	r3,4(r2)
  80a624:	29400204 	addi	r5,r5,8
  80a628:	a009883a 	mov	r4,r20
  80a62c:	18c00054 	ori	r3,r3,1
  80a630:	10c00115 	stw	r3,4(r2)
  80a634:	0802fc80 	call	802fc8 <_free_r>
  80a638:	003fd306 	br	80a588 <__alt_mem_onchip_mem+0xff78a588>
  80a63c:	017fff04 	movi	r5,-4
  80a640:	414a703a 	and	r5,r8,r5
  80a644:	89800404 	addi	r6,r17,16
  80a648:	8151883a 	add	r8,r16,r5
  80a64c:	4180590e 	bge	r8,r6,80a7b4 <_realloc_r+0x390>
  80a650:	1080004c 	andi	r2,r2,1
  80a654:	103f9e1e 	bne	r2,zero,80a4d0 <__alt_mem_onchip_mem+0xff78a4d0>
  80a658:	adbffe17 	ldw	r22,-8(r21)
  80a65c:	00bfff04 	movi	r2,-4
  80a660:	9dadc83a 	sub	r22,r19,r22
  80a664:	b1800117 	ldw	r6,4(r22)
  80a668:	3084703a 	and	r2,r6,r2
  80a66c:	20002026 	beq	r4,zero,80a6f0 <_realloc_r+0x2cc>
  80a670:	80af883a 	add	r23,r16,r2
  80a674:	b96f883a 	add	r23,r23,r5
  80a678:	21c05f26 	beq	r4,r7,80a7f8 <_realloc_r+0x3d4>
  80a67c:	b8c01c16 	blt	r23,r3,80a6f0 <_realloc_r+0x2cc>
  80a680:	20800317 	ldw	r2,12(r4)
  80a684:	20c00217 	ldw	r3,8(r4)
  80a688:	81bfff04 	addi	r6,r16,-4
  80a68c:	01000904 	movi	r4,36
  80a690:	18800315 	stw	r2,12(r3)
  80a694:	10c00215 	stw	r3,8(r2)
  80a698:	b0c00217 	ldw	r3,8(r22)
  80a69c:	b0800317 	ldw	r2,12(r22)
  80a6a0:	b4800204 	addi	r18,r22,8
  80a6a4:	18800315 	stw	r2,12(r3)
  80a6a8:	10c00215 	stw	r3,8(r2)
  80a6ac:	21801b36 	bltu	r4,r6,80a71c <_realloc_r+0x2f8>
  80a6b0:	008004c4 	movi	r2,19
  80a6b4:	1180352e 	bgeu	r2,r6,80a78c <_realloc_r+0x368>
  80a6b8:	a8800017 	ldw	r2,0(r21)
  80a6bc:	b0800215 	stw	r2,8(r22)
  80a6c0:	a8800117 	ldw	r2,4(r21)
  80a6c4:	b0800315 	stw	r2,12(r22)
  80a6c8:	008006c4 	movi	r2,27
  80a6cc:	11807f36 	bltu	r2,r6,80a8cc <_realloc_r+0x4a8>
  80a6d0:	b0800404 	addi	r2,r22,16
  80a6d4:	ad400204 	addi	r21,r21,8
  80a6d8:	00002d06 	br	80a790 <_realloc_r+0x36c>
  80a6dc:	adbffe17 	ldw	r22,-8(r21)
  80a6e0:	00bfff04 	movi	r2,-4
  80a6e4:	9dadc83a 	sub	r22,r19,r22
  80a6e8:	b1000117 	ldw	r4,4(r22)
  80a6ec:	2084703a 	and	r2,r4,r2
  80a6f0:	b03f7726 	beq	r22,zero,80a4d0 <__alt_mem_onchip_mem+0xff78a4d0>
  80a6f4:	80af883a 	add	r23,r16,r2
  80a6f8:	b8ff7516 	blt	r23,r3,80a4d0 <__alt_mem_onchip_mem+0xff78a4d0>
  80a6fc:	b0800317 	ldw	r2,12(r22)
  80a700:	b0c00217 	ldw	r3,8(r22)
  80a704:	81bfff04 	addi	r6,r16,-4
  80a708:	01000904 	movi	r4,36
  80a70c:	18800315 	stw	r2,12(r3)
  80a710:	10c00215 	stw	r3,8(r2)
  80a714:	b4800204 	addi	r18,r22,8
  80a718:	21bfe52e 	bgeu	r4,r6,80a6b0 <__alt_mem_onchip_mem+0xff78a6b0>
  80a71c:	a80b883a 	mov	r5,r21
  80a720:	9009883a 	mov	r4,r18
  80a724:	080926c0 	call	80926c <memmove>
  80a728:	b821883a 	mov	r16,r23
  80a72c:	b027883a 	mov	r19,r22
  80a730:	003f8a06 	br	80a55c <__alt_mem_onchip_mem+0xff78a55c>
  80a734:	300b883a 	mov	r5,r6
  80a738:	dfc00917 	ldw	ra,36(sp)
  80a73c:	df000817 	ldw	fp,32(sp)
  80a740:	ddc00717 	ldw	r23,28(sp)
  80a744:	dd800617 	ldw	r22,24(sp)
  80a748:	dd400517 	ldw	r21,20(sp)
  80a74c:	dd000417 	ldw	r20,16(sp)
  80a750:	dcc00317 	ldw	r19,12(sp)
  80a754:	dc800217 	ldw	r18,8(sp)
  80a758:	dc400117 	ldw	r17,4(sp)
  80a75c:	dc000017 	ldw	r16,0(sp)
  80a760:	dec00a04 	addi	sp,sp,40
  80a764:	0803bf81 	jmpi	803bf8 <_malloc_r>
  80a768:	a8c00017 	ldw	r3,0(r21)
  80a76c:	90c00015 	stw	r3,0(r18)
  80a770:	a8c00117 	ldw	r3,4(r21)
  80a774:	90c00115 	stw	r3,4(r18)
  80a778:	00c006c4 	movi	r3,27
  80a77c:	19804536 	bltu	r3,r6,80a894 <_realloc_r+0x470>
  80a780:	90800204 	addi	r2,r18,8
  80a784:	a8c00204 	addi	r3,r21,8
  80a788:	003f6306 	br	80a518 <__alt_mem_onchip_mem+0xff78a518>
  80a78c:	9005883a 	mov	r2,r18
  80a790:	a8c00017 	ldw	r3,0(r21)
  80a794:	b821883a 	mov	r16,r23
  80a798:	b027883a 	mov	r19,r22
  80a79c:	10c00015 	stw	r3,0(r2)
  80a7a0:	a8c00117 	ldw	r3,4(r21)
  80a7a4:	10c00115 	stw	r3,4(r2)
  80a7a8:	a8c00217 	ldw	r3,8(r21)
  80a7ac:	10c00215 	stw	r3,8(r2)
  80a7b0:	003f6a06 	br	80a55c <__alt_mem_onchip_mem+0xff78a55c>
  80a7b4:	9c67883a 	add	r19,r19,r17
  80a7b8:	4445c83a 	sub	r2,r8,r17
  80a7bc:	e4c00215 	stw	r19,8(fp)
  80a7c0:	10800054 	ori	r2,r2,1
  80a7c4:	98800115 	stw	r2,4(r19)
  80a7c8:	a8bfff17 	ldw	r2,-4(r21)
  80a7cc:	a009883a 	mov	r4,r20
  80a7d0:	1080004c 	andi	r2,r2,1
  80a7d4:	1462b03a 	or	r17,r2,r17
  80a7d8:	ac7fff15 	stw	r17,-4(r21)
  80a7dc:	08100c40 	call	8100c4 <__malloc_unlock>
  80a7e0:	a805883a 	mov	r2,r21
  80a7e4:	003f6b06 	br	80a594 <__alt_mem_onchip_mem+0xff78a594>
  80a7e8:	a80b883a 	mov	r5,r21
  80a7ec:	9009883a 	mov	r4,r18
  80a7f0:	080926c0 	call	80926c <memmove>
  80a7f4:	003f4e06 	br	80a530 <__alt_mem_onchip_mem+0xff78a530>
  80a7f8:	89000404 	addi	r4,r17,16
  80a7fc:	b93fbc16 	blt	r23,r4,80a6f0 <__alt_mem_onchip_mem+0xff78a6f0>
  80a800:	b0800317 	ldw	r2,12(r22)
  80a804:	b0c00217 	ldw	r3,8(r22)
  80a808:	81bfff04 	addi	r6,r16,-4
  80a80c:	01000904 	movi	r4,36
  80a810:	18800315 	stw	r2,12(r3)
  80a814:	10c00215 	stw	r3,8(r2)
  80a818:	b4800204 	addi	r18,r22,8
  80a81c:	21804336 	bltu	r4,r6,80a92c <_realloc_r+0x508>
  80a820:	008004c4 	movi	r2,19
  80a824:	11803f2e 	bgeu	r2,r6,80a924 <_realloc_r+0x500>
  80a828:	a8800017 	ldw	r2,0(r21)
  80a82c:	b0800215 	stw	r2,8(r22)
  80a830:	a8800117 	ldw	r2,4(r21)
  80a834:	b0800315 	stw	r2,12(r22)
  80a838:	008006c4 	movi	r2,27
  80a83c:	11803f36 	bltu	r2,r6,80a93c <_realloc_r+0x518>
  80a840:	b0800404 	addi	r2,r22,16
  80a844:	ad400204 	addi	r21,r21,8
  80a848:	a8c00017 	ldw	r3,0(r21)
  80a84c:	10c00015 	stw	r3,0(r2)
  80a850:	a8c00117 	ldw	r3,4(r21)
  80a854:	10c00115 	stw	r3,4(r2)
  80a858:	a8c00217 	ldw	r3,8(r21)
  80a85c:	10c00215 	stw	r3,8(r2)
  80a860:	b447883a 	add	r3,r22,r17
  80a864:	bc45c83a 	sub	r2,r23,r17
  80a868:	e0c00215 	stw	r3,8(fp)
  80a86c:	10800054 	ori	r2,r2,1
  80a870:	18800115 	stw	r2,4(r3)
  80a874:	b0800117 	ldw	r2,4(r22)
  80a878:	a009883a 	mov	r4,r20
  80a87c:	1080004c 	andi	r2,r2,1
  80a880:	1462b03a 	or	r17,r2,r17
  80a884:	b4400115 	stw	r17,4(r22)
  80a888:	08100c40 	call	8100c4 <__malloc_unlock>
  80a88c:	9005883a 	mov	r2,r18
  80a890:	003f4006 	br	80a594 <__alt_mem_onchip_mem+0xff78a594>
  80a894:	a8c00217 	ldw	r3,8(r21)
  80a898:	90c00215 	stw	r3,8(r18)
  80a89c:	a8c00317 	ldw	r3,12(r21)
  80a8a0:	90c00315 	stw	r3,12(r18)
  80a8a4:	30801126 	beq	r6,r2,80a8ec <_realloc_r+0x4c8>
  80a8a8:	90800404 	addi	r2,r18,16
  80a8ac:	a8c00404 	addi	r3,r21,16
  80a8b0:	003f1906 	br	80a518 <__alt_mem_onchip_mem+0xff78a518>
  80a8b4:	90ffff17 	ldw	r3,-4(r18)
  80a8b8:	00bfff04 	movi	r2,-4
  80a8bc:	a825883a 	mov	r18,r21
  80a8c0:	1884703a 	and	r2,r3,r2
  80a8c4:	80a1883a 	add	r16,r16,r2
  80a8c8:	003f2406 	br	80a55c <__alt_mem_onchip_mem+0xff78a55c>
  80a8cc:	a8800217 	ldw	r2,8(r21)
  80a8d0:	b0800415 	stw	r2,16(r22)
  80a8d4:	a8800317 	ldw	r2,12(r21)
  80a8d8:	b0800515 	stw	r2,20(r22)
  80a8dc:	31000a26 	beq	r6,r4,80a908 <_realloc_r+0x4e4>
  80a8e0:	b0800604 	addi	r2,r22,24
  80a8e4:	ad400404 	addi	r21,r21,16
  80a8e8:	003fa906 	br	80a790 <__alt_mem_onchip_mem+0xff78a790>
  80a8ec:	a9000417 	ldw	r4,16(r21)
  80a8f0:	90800604 	addi	r2,r18,24
  80a8f4:	a8c00604 	addi	r3,r21,24
  80a8f8:	91000415 	stw	r4,16(r18)
  80a8fc:	a9000517 	ldw	r4,20(r21)
  80a900:	91000515 	stw	r4,20(r18)
  80a904:	003f0406 	br	80a518 <__alt_mem_onchip_mem+0xff78a518>
  80a908:	a8c00417 	ldw	r3,16(r21)
  80a90c:	ad400604 	addi	r21,r21,24
  80a910:	b0800804 	addi	r2,r22,32
  80a914:	b0c00615 	stw	r3,24(r22)
  80a918:	a8ffff17 	ldw	r3,-4(r21)
  80a91c:	b0c00715 	stw	r3,28(r22)
  80a920:	003f9b06 	br	80a790 <__alt_mem_onchip_mem+0xff78a790>
  80a924:	9005883a 	mov	r2,r18
  80a928:	003fc706 	br	80a848 <__alt_mem_onchip_mem+0xff78a848>
  80a92c:	a80b883a 	mov	r5,r21
  80a930:	9009883a 	mov	r4,r18
  80a934:	080926c0 	call	80926c <memmove>
  80a938:	003fc906 	br	80a860 <__alt_mem_onchip_mem+0xff78a860>
  80a93c:	a8800217 	ldw	r2,8(r21)
  80a940:	b0800415 	stw	r2,16(r22)
  80a944:	a8800317 	ldw	r2,12(r21)
  80a948:	b0800515 	stw	r2,20(r22)
  80a94c:	31000726 	beq	r6,r4,80a96c <_realloc_r+0x548>
  80a950:	b0800604 	addi	r2,r22,24
  80a954:	ad400404 	addi	r21,r21,16
  80a958:	003fbb06 	br	80a848 <__alt_mem_onchip_mem+0xff78a848>
  80a95c:	a009883a 	mov	r4,r20
  80a960:	08100c40 	call	8100c4 <__malloc_unlock>
  80a964:	0005883a 	mov	r2,zero
  80a968:	003f0a06 	br	80a594 <__alt_mem_onchip_mem+0xff78a594>
  80a96c:	a8c00417 	ldw	r3,16(r21)
  80a970:	ad400604 	addi	r21,r21,24
  80a974:	b0800804 	addi	r2,r22,32
  80a978:	b0c00615 	stw	r3,24(r22)
  80a97c:	a8ffff17 	ldw	r3,-4(r21)
  80a980:	b0c00715 	stw	r3,28(r22)
  80a984:	003fb006 	br	80a848 <__alt_mem_onchip_mem+0xff78a848>

0080a988 <__fpclassifyd>:
  80a988:	00a00034 	movhi	r2,32768
  80a98c:	10bfffc4 	addi	r2,r2,-1
  80a990:	2884703a 	and	r2,r5,r2
  80a994:	10000726 	beq	r2,zero,80a9b4 <__fpclassifyd+0x2c>
  80a998:	00fffc34 	movhi	r3,65520
  80a99c:	019ff834 	movhi	r6,32736
  80a9a0:	28c7883a 	add	r3,r5,r3
  80a9a4:	31bfffc4 	addi	r6,r6,-1
  80a9a8:	30c00536 	bltu	r6,r3,80a9c0 <__fpclassifyd+0x38>
  80a9ac:	00800104 	movi	r2,4
  80a9b0:	f800283a 	ret
  80a9b4:	2000021e 	bne	r4,zero,80a9c0 <__fpclassifyd+0x38>
  80a9b8:	00800084 	movi	r2,2
  80a9bc:	f800283a 	ret
  80a9c0:	00dffc34 	movhi	r3,32752
  80a9c4:	019ff834 	movhi	r6,32736
  80a9c8:	28cb883a 	add	r5,r5,r3
  80a9cc:	31bfffc4 	addi	r6,r6,-1
  80a9d0:	317ff62e 	bgeu	r6,r5,80a9ac <__alt_mem_onchip_mem+0xff78a9ac>
  80a9d4:	01400434 	movhi	r5,16
  80a9d8:	297fffc4 	addi	r5,r5,-1
  80a9dc:	28800236 	bltu	r5,r2,80a9e8 <__fpclassifyd+0x60>
  80a9e0:	008000c4 	movi	r2,3
  80a9e4:	f800283a 	ret
  80a9e8:	10c00226 	beq	r2,r3,80a9f4 <__fpclassifyd+0x6c>
  80a9ec:	0005883a 	mov	r2,zero
  80a9f0:	f800283a 	ret
  80a9f4:	2005003a 	cmpeq	r2,r4,zero
  80a9f8:	f800283a 	ret

0080a9fc <strcmp>:
  80a9fc:	2144b03a 	or	r2,r4,r5
  80aa00:	108000cc 	andi	r2,r2,3
  80aa04:	1000171e 	bne	r2,zero,80aa64 <strcmp+0x68>
  80aa08:	20800017 	ldw	r2,0(r4)
  80aa0c:	28c00017 	ldw	r3,0(r5)
  80aa10:	10c0141e 	bne	r2,r3,80aa64 <strcmp+0x68>
  80aa14:	027fbff4 	movhi	r9,65279
  80aa18:	4a7fbfc4 	addi	r9,r9,-257
  80aa1c:	0086303a 	nor	r3,zero,r2
  80aa20:	02202074 	movhi	r8,32897
  80aa24:	1245883a 	add	r2,r2,r9
  80aa28:	42202004 	addi	r8,r8,-32640
  80aa2c:	10c4703a 	and	r2,r2,r3
  80aa30:	1204703a 	and	r2,r2,r8
  80aa34:	10000226 	beq	r2,zero,80aa40 <strcmp+0x44>
  80aa38:	00002306 	br	80aac8 <strcmp+0xcc>
  80aa3c:	1000221e 	bne	r2,zero,80aac8 <strcmp+0xcc>
  80aa40:	21000104 	addi	r4,r4,4
  80aa44:	20c00017 	ldw	r3,0(r4)
  80aa48:	29400104 	addi	r5,r5,4
  80aa4c:	29800017 	ldw	r6,0(r5)
  80aa50:	1a4f883a 	add	r7,r3,r9
  80aa54:	00c4303a 	nor	r2,zero,r3
  80aa58:	3884703a 	and	r2,r7,r2
  80aa5c:	1204703a 	and	r2,r2,r8
  80aa60:	19bff626 	beq	r3,r6,80aa3c <__alt_mem_onchip_mem+0xff78aa3c>
  80aa64:	20800003 	ldbu	r2,0(r4)
  80aa68:	10c03fcc 	andi	r3,r2,255
  80aa6c:	18c0201c 	xori	r3,r3,128
  80aa70:	18ffe004 	addi	r3,r3,-128
  80aa74:	18000c26 	beq	r3,zero,80aaa8 <strcmp+0xac>
  80aa78:	29800007 	ldb	r6,0(r5)
  80aa7c:	19800326 	beq	r3,r6,80aa8c <strcmp+0x90>
  80aa80:	00001306 	br	80aad0 <strcmp+0xd4>
  80aa84:	29800007 	ldb	r6,0(r5)
  80aa88:	11800b1e 	bne	r2,r6,80aab8 <strcmp+0xbc>
  80aa8c:	21000044 	addi	r4,r4,1
  80aa90:	20c00003 	ldbu	r3,0(r4)
  80aa94:	29400044 	addi	r5,r5,1
  80aa98:	18803fcc 	andi	r2,r3,255
  80aa9c:	1080201c 	xori	r2,r2,128
  80aaa0:	10bfe004 	addi	r2,r2,-128
  80aaa4:	103ff71e 	bne	r2,zero,80aa84 <__alt_mem_onchip_mem+0xff78aa84>
  80aaa8:	0007883a 	mov	r3,zero
  80aaac:	28800003 	ldbu	r2,0(r5)
  80aab0:	1885c83a 	sub	r2,r3,r2
  80aab4:	f800283a 	ret
  80aab8:	28800003 	ldbu	r2,0(r5)
  80aabc:	18c03fcc 	andi	r3,r3,255
  80aac0:	1885c83a 	sub	r2,r3,r2
  80aac4:	f800283a 	ret
  80aac8:	0005883a 	mov	r2,zero
  80aacc:	f800283a 	ret
  80aad0:	10c03fcc 	andi	r3,r2,255
  80aad4:	003ff506 	br	80aaac <__alt_mem_onchip_mem+0xff78aaac>

0080aad8 <__sprint_r.part.0>:
  80aad8:	28801917 	ldw	r2,100(r5)
  80aadc:	defff604 	addi	sp,sp,-40
  80aae0:	dd400515 	stw	r21,20(sp)
  80aae4:	dfc00915 	stw	ra,36(sp)
  80aae8:	df000815 	stw	fp,32(sp)
  80aaec:	ddc00715 	stw	r23,28(sp)
  80aaf0:	dd800615 	stw	r22,24(sp)
  80aaf4:	dd000415 	stw	r20,16(sp)
  80aaf8:	dcc00315 	stw	r19,12(sp)
  80aafc:	dc800215 	stw	r18,8(sp)
  80ab00:	dc400115 	stw	r17,4(sp)
  80ab04:	dc000015 	stw	r16,0(sp)
  80ab08:	1088000c 	andi	r2,r2,8192
  80ab0c:	302b883a 	mov	r21,r6
  80ab10:	10002e26 	beq	r2,zero,80abcc <__sprint_r.part.0+0xf4>
  80ab14:	30800217 	ldw	r2,8(r6)
  80ab18:	35800017 	ldw	r22,0(r6)
  80ab1c:	10002926 	beq	r2,zero,80abc4 <__sprint_r.part.0+0xec>
  80ab20:	2827883a 	mov	r19,r5
  80ab24:	2029883a 	mov	r20,r4
  80ab28:	b5c00104 	addi	r23,r22,4
  80ab2c:	04bfffc4 	movi	r18,-1
  80ab30:	bc400017 	ldw	r17,0(r23)
  80ab34:	b4000017 	ldw	r16,0(r22)
  80ab38:	0039883a 	mov	fp,zero
  80ab3c:	8822d0ba 	srli	r17,r17,2
  80ab40:	8800031e 	bne	r17,zero,80ab50 <__sprint_r.part.0+0x78>
  80ab44:	00001806 	br	80aba8 <__sprint_r.part.0+0xd0>
  80ab48:	84000104 	addi	r16,r16,4
  80ab4c:	8f001526 	beq	r17,fp,80aba4 <__sprint_r.part.0+0xcc>
  80ab50:	81400017 	ldw	r5,0(r16)
  80ab54:	980d883a 	mov	r6,r19
  80ab58:	a009883a 	mov	r4,r20
  80ab5c:	080c3480 	call	80c348 <_fputwc_r>
  80ab60:	e7000044 	addi	fp,fp,1
  80ab64:	14bff81e 	bne	r2,r18,80ab48 <__alt_mem_onchip_mem+0xff78ab48>
  80ab68:	9005883a 	mov	r2,r18
  80ab6c:	a8000215 	stw	zero,8(r21)
  80ab70:	a8000115 	stw	zero,4(r21)
  80ab74:	dfc00917 	ldw	ra,36(sp)
  80ab78:	df000817 	ldw	fp,32(sp)
  80ab7c:	ddc00717 	ldw	r23,28(sp)
  80ab80:	dd800617 	ldw	r22,24(sp)
  80ab84:	dd400517 	ldw	r21,20(sp)
  80ab88:	dd000417 	ldw	r20,16(sp)
  80ab8c:	dcc00317 	ldw	r19,12(sp)
  80ab90:	dc800217 	ldw	r18,8(sp)
  80ab94:	dc400117 	ldw	r17,4(sp)
  80ab98:	dc000017 	ldw	r16,0(sp)
  80ab9c:	dec00a04 	addi	sp,sp,40
  80aba0:	f800283a 	ret
  80aba4:	a8800217 	ldw	r2,8(r21)
  80aba8:	8c63883a 	add	r17,r17,r17
  80abac:	8c63883a 	add	r17,r17,r17
  80abb0:	1445c83a 	sub	r2,r2,r17
  80abb4:	a8800215 	stw	r2,8(r21)
  80abb8:	b5800204 	addi	r22,r22,8
  80abbc:	bdc00204 	addi	r23,r23,8
  80abc0:	103fdb1e 	bne	r2,zero,80ab30 <__alt_mem_onchip_mem+0xff78ab30>
  80abc4:	0005883a 	mov	r2,zero
  80abc8:	003fe806 	br	80ab6c <__alt_mem_onchip_mem+0xff78ab6c>
  80abcc:	08089f40 	call	8089f4 <__sfvwrite_r>
  80abd0:	003fe606 	br	80ab6c <__alt_mem_onchip_mem+0xff78ab6c>

0080abd4 <__sprint_r>:
  80abd4:	30c00217 	ldw	r3,8(r6)
  80abd8:	18000126 	beq	r3,zero,80abe0 <__sprint_r+0xc>
  80abdc:	080aad81 	jmpi	80aad8 <__sprint_r.part.0>
  80abe0:	30000115 	stw	zero,4(r6)
  80abe4:	0005883a 	mov	r2,zero
  80abe8:	f800283a 	ret

0080abec <___vfiprintf_internal_r>:
  80abec:	deffc904 	addi	sp,sp,-220
  80abf0:	df003515 	stw	fp,212(sp)
  80abf4:	dd003115 	stw	r20,196(sp)
  80abf8:	dfc03615 	stw	ra,216(sp)
  80abfc:	ddc03415 	stw	r23,208(sp)
  80ac00:	dd803315 	stw	r22,204(sp)
  80ac04:	dd403215 	stw	r21,200(sp)
  80ac08:	dcc03015 	stw	r19,192(sp)
  80ac0c:	dc802f15 	stw	r18,188(sp)
  80ac10:	dc402e15 	stw	r17,184(sp)
  80ac14:	dc002d15 	stw	r16,180(sp)
  80ac18:	d9002015 	stw	r4,128(sp)
  80ac1c:	d9c02215 	stw	r7,136(sp)
  80ac20:	2829883a 	mov	r20,r5
  80ac24:	3039883a 	mov	fp,r6
  80ac28:	20000226 	beq	r4,zero,80ac34 <___vfiprintf_internal_r+0x48>
  80ac2c:	20800e17 	ldw	r2,56(r4)
  80ac30:	1000cf26 	beq	r2,zero,80af70 <___vfiprintf_internal_r+0x384>
  80ac34:	a080030b 	ldhu	r2,12(r20)
  80ac38:	10c8000c 	andi	r3,r2,8192
  80ac3c:	1800061e 	bne	r3,zero,80ac58 <___vfiprintf_internal_r+0x6c>
  80ac40:	a1001917 	ldw	r4,100(r20)
  80ac44:	00f7ffc4 	movi	r3,-8193
  80ac48:	10880014 	ori	r2,r2,8192
  80ac4c:	20c6703a 	and	r3,r4,r3
  80ac50:	a080030d 	sth	r2,12(r20)
  80ac54:	a0c01915 	stw	r3,100(r20)
  80ac58:	10c0020c 	andi	r3,r2,8
  80ac5c:	1800a926 	beq	r3,zero,80af04 <___vfiprintf_internal_r+0x318>
  80ac60:	a0c00417 	ldw	r3,16(r20)
  80ac64:	1800a726 	beq	r3,zero,80af04 <___vfiprintf_internal_r+0x318>
  80ac68:	1080068c 	andi	r2,r2,26
  80ac6c:	00c00284 	movi	r3,10
  80ac70:	10c0ac26 	beq	r2,r3,80af24 <___vfiprintf_internal_r+0x338>
  80ac74:	da801a04 	addi	r10,sp,104
  80ac78:	da801e15 	stw	r10,120(sp)
  80ac7c:	d8801e17 	ldw	r2,120(sp)
  80ac80:	da8019c4 	addi	r10,sp,103
  80ac84:	05802074 	movhi	r22,129
  80ac88:	05c02074 	movhi	r23,129
  80ac8c:	da801f15 	stw	r10,124(sp)
  80ac90:	1295c83a 	sub	r10,r2,r10
  80ac94:	b58f7d04 	addi	r22,r22,15860
  80ac98:	bdcf7904 	addi	r23,r23,15844
  80ac9c:	dec01a15 	stw	sp,104(sp)
  80aca0:	d8001c15 	stw	zero,112(sp)
  80aca4:	d8001b15 	stw	zero,108(sp)
  80aca8:	d8002615 	stw	zero,152(sp)
  80acac:	d8002315 	stw	zero,140(sp)
  80acb0:	da802715 	stw	r10,156(sp)
  80acb4:	d811883a 	mov	r8,sp
  80acb8:	dd002115 	stw	r20,132(sp)
  80acbc:	e021883a 	mov	r16,fp
  80acc0:	80800007 	ldb	r2,0(r16)
  80acc4:	1003ea26 	beq	r2,zero,80bc70 <___vfiprintf_internal_r+0x1084>
  80acc8:	00c00944 	movi	r3,37
  80accc:	8025883a 	mov	r18,r16
  80acd0:	10c0021e 	bne	r2,r3,80acdc <___vfiprintf_internal_r+0xf0>
  80acd4:	00001606 	br	80ad30 <___vfiprintf_internal_r+0x144>
  80acd8:	10c00326 	beq	r2,r3,80ace8 <___vfiprintf_internal_r+0xfc>
  80acdc:	94800044 	addi	r18,r18,1
  80ace0:	90800007 	ldb	r2,0(r18)
  80ace4:	103ffc1e 	bne	r2,zero,80acd8 <__alt_mem_onchip_mem+0xff78acd8>
  80ace8:	9423c83a 	sub	r17,r18,r16
  80acec:	88001026 	beq	r17,zero,80ad30 <___vfiprintf_internal_r+0x144>
  80acf0:	d8c01c17 	ldw	r3,112(sp)
  80acf4:	d8801b17 	ldw	r2,108(sp)
  80acf8:	44000015 	stw	r16,0(r8)
  80acfc:	88c7883a 	add	r3,r17,r3
  80ad00:	10800044 	addi	r2,r2,1
  80ad04:	44400115 	stw	r17,4(r8)
  80ad08:	d8c01c15 	stw	r3,112(sp)
  80ad0c:	d8801b15 	stw	r2,108(sp)
  80ad10:	010001c4 	movi	r4,7
  80ad14:	2080760e 	bge	r4,r2,80aef0 <___vfiprintf_internal_r+0x304>
  80ad18:	1803821e 	bne	r3,zero,80bb24 <___vfiprintf_internal_r+0xf38>
  80ad1c:	da802317 	ldw	r10,140(sp)
  80ad20:	d8001b15 	stw	zero,108(sp)
  80ad24:	d811883a 	mov	r8,sp
  80ad28:	5455883a 	add	r10,r10,r17
  80ad2c:	da802315 	stw	r10,140(sp)
  80ad30:	90800007 	ldb	r2,0(r18)
  80ad34:	10044626 	beq	r2,zero,80be50 <___vfiprintf_internal_r+0x1264>
  80ad38:	90c00047 	ldb	r3,1(r18)
  80ad3c:	94000044 	addi	r16,r18,1
  80ad40:	d8001d85 	stb	zero,118(sp)
  80ad44:	0009883a 	mov	r4,zero
  80ad48:	000f883a 	mov	r7,zero
  80ad4c:	027fffc4 	movi	r9,-1
  80ad50:	0023883a 	mov	r17,zero
  80ad54:	0029883a 	mov	r20,zero
  80ad58:	01401604 	movi	r5,88
  80ad5c:	01800244 	movi	r6,9
  80ad60:	03400a84 	movi	r13,42
  80ad64:	03001b04 	movi	r12,108
  80ad68:	84000044 	addi	r16,r16,1
  80ad6c:	18bff804 	addi	r2,r3,-32
  80ad70:	28827336 	bltu	r5,r2,80b740 <___vfiprintf_internal_r+0xb54>
  80ad74:	100490ba 	slli	r2,r2,2
  80ad78:	02802074 	movhi	r10,129
  80ad7c:	52ab6304 	addi	r10,r10,-21108
  80ad80:	1285883a 	add	r2,r2,r10
  80ad84:	10800017 	ldw	r2,0(r2)
  80ad88:	1000683a 	jmp	r2
  80ad8c:	0080b474 	movhi	r2,721
  80ad90:	0080b740 	call	80b74 <__alt_mem_sdram-0x77f48c>
  80ad94:	0080b740 	call	80b74 <__alt_mem_sdram-0x77f48c>
  80ad98:	0080b494 	movui	r2,722
  80ad9c:	0080b740 	call	80b74 <__alt_mem_sdram-0x77f48c>
  80ada0:	0080b740 	call	80b74 <__alt_mem_sdram-0x77f48c>
  80ada4:	0080b740 	call	80b74 <__alt_mem_sdram-0x77f48c>
  80ada8:	0080b740 	call	80b74 <__alt_mem_sdram-0x77f48c>
  80adac:	0080b740 	call	80b74 <__alt_mem_sdram-0x77f48c>
  80adb0:	0080b740 	call	80b74 <__alt_mem_sdram-0x77f48c>
  80adb4:	0080b67c 	xorhi	r2,zero,729
  80adb8:	0080b698 	cmpnei	r2,zero,730
  80adbc:	0080b740 	call	80b74 <__alt_mem_sdram-0x77f48c>
  80adc0:	0080af80 	call	80af8 <__alt_mem_sdram-0x77f508>
  80adc4:	0080b6a8 	cmpgeui	r2,zero,730
  80adc8:	0080b740 	call	80b74 <__alt_mem_sdram-0x77f48c>
  80adcc:	0080b4a0 	cmpeqi	r2,zero,722
  80add0:	0080b4ac 	andhi	r2,zero,722
  80add4:	0080b4ac 	andhi	r2,zero,722
  80add8:	0080b4ac 	andhi	r2,zero,722
  80addc:	0080b4ac 	andhi	r2,zero,722
  80ade0:	0080b4ac 	andhi	r2,zero,722
  80ade4:	0080b4ac 	andhi	r2,zero,722
  80ade8:	0080b4ac 	andhi	r2,zero,722
  80adec:	0080b4ac 	andhi	r2,zero,722
  80adf0:	0080b4ac 	andhi	r2,zero,722
  80adf4:	0080b740 	call	80b74 <__alt_mem_sdram-0x77f48c>
  80adf8:	0080b740 	call	80b74 <__alt_mem_sdram-0x77f48c>
  80adfc:	0080b740 	call	80b74 <__alt_mem_sdram-0x77f48c>
  80ae00:	0080b740 	call	80b74 <__alt_mem_sdram-0x77f48c>
  80ae04:	0080b740 	call	80b74 <__alt_mem_sdram-0x77f48c>
  80ae08:	0080b740 	call	80b74 <__alt_mem_sdram-0x77f48c>
  80ae0c:	0080b740 	call	80b74 <__alt_mem_sdram-0x77f48c>
  80ae10:	0080b740 	call	80b74 <__alt_mem_sdram-0x77f48c>
  80ae14:	0080b740 	call	80b74 <__alt_mem_sdram-0x77f48c>
  80ae18:	0080b740 	call	80b74 <__alt_mem_sdram-0x77f48c>
  80ae1c:	0080b4d8 	cmpnei	r2,zero,723
  80ae20:	0080b740 	call	80b74 <__alt_mem_sdram-0x77f48c>
  80ae24:	0080b740 	call	80b74 <__alt_mem_sdram-0x77f48c>
  80ae28:	0080b740 	call	80b74 <__alt_mem_sdram-0x77f48c>
  80ae2c:	0080b740 	call	80b74 <__alt_mem_sdram-0x77f48c>
  80ae30:	0080b740 	call	80b74 <__alt_mem_sdram-0x77f48c>
  80ae34:	0080b740 	call	80b74 <__alt_mem_sdram-0x77f48c>
  80ae38:	0080b740 	call	80b74 <__alt_mem_sdram-0x77f48c>
  80ae3c:	0080b740 	call	80b74 <__alt_mem_sdram-0x77f48c>
  80ae40:	0080b740 	call	80b74 <__alt_mem_sdram-0x77f48c>
  80ae44:	0080b740 	call	80b74 <__alt_mem_sdram-0x77f48c>
  80ae48:	0080b510 	cmplti	r2,zero,724
  80ae4c:	0080b740 	call	80b74 <__alt_mem_sdram-0x77f48c>
  80ae50:	0080b740 	call	80b74 <__alt_mem_sdram-0x77f48c>
  80ae54:	0080b740 	call	80b74 <__alt_mem_sdram-0x77f48c>
  80ae58:	0080b740 	call	80b74 <__alt_mem_sdram-0x77f48c>
  80ae5c:	0080b740 	call	80b74 <__alt_mem_sdram-0x77f48c>
  80ae60:	0080b568 	cmpgeui	r2,zero,725
  80ae64:	0080b740 	call	80b74 <__alt_mem_sdram-0x77f48c>
  80ae68:	0080b740 	call	80b74 <__alt_mem_sdram-0x77f48c>
  80ae6c:	0080b5d8 	cmpnei	r2,zero,727
  80ae70:	0080b740 	call	80b74 <__alt_mem_sdram-0x77f48c>
  80ae74:	0080b740 	call	80b74 <__alt_mem_sdram-0x77f48c>
  80ae78:	0080b740 	call	80b74 <__alt_mem_sdram-0x77f48c>
  80ae7c:	0080b740 	call	80b74 <__alt_mem_sdram-0x77f48c>
  80ae80:	0080b740 	call	80b74 <__alt_mem_sdram-0x77f48c>
  80ae84:	0080b740 	call	80b74 <__alt_mem_sdram-0x77f48c>
  80ae88:	0080b740 	call	80b74 <__alt_mem_sdram-0x77f48c>
  80ae8c:	0080b740 	call	80b74 <__alt_mem_sdram-0x77f48c>
  80ae90:	0080b740 	call	80b74 <__alt_mem_sdram-0x77f48c>
  80ae94:	0080b740 	call	80b74 <__alt_mem_sdram-0x77f48c>
  80ae98:	0080b384 	movi	r2,718
  80ae9c:	0080b3b0 	cmpltui	r2,zero,718
  80aea0:	0080b740 	call	80b74 <__alt_mem_sdram-0x77f48c>
  80aea4:	0080b740 	call	80b74 <__alt_mem_sdram-0x77f48c>
  80aea8:	0080b740 	call	80b74 <__alt_mem_sdram-0x77f48c>
  80aeac:	0080b6e8 	cmpgeui	r2,zero,731
  80aeb0:	0080b3b0 	cmpltui	r2,zero,718
  80aeb4:	0080b740 	call	80b74 <__alt_mem_sdram-0x77f48c>
  80aeb8:	0080b740 	call	80b74 <__alt_mem_sdram-0x77f48c>
  80aebc:	0080b244 	movi	r2,713
  80aec0:	0080b740 	call	80b74 <__alt_mem_sdram-0x77f48c>
  80aec4:	0080b254 	movui	r2,713
  80aec8:	0080b290 	cmplti	r2,zero,714
  80aecc:	0080af8c 	andi	r2,zero,702
  80aed0:	0080b238 	rdprs	r2,zero,712
  80aed4:	0080b740 	call	80b74 <__alt_mem_sdram-0x77f48c>
  80aed8:	0080b614 	movui	r2,728
  80aedc:	0080b740 	call	80b74 <__alt_mem_sdram-0x77f48c>
  80aee0:	0080b66c 	andhi	r2,zero,729
  80aee4:	0080b740 	call	80b74 <__alt_mem_sdram-0x77f48c>
  80aee8:	0080b740 	call	80b74 <__alt_mem_sdram-0x77f48c>
  80aeec:	0080b330 	cmpltui	r2,zero,716
  80aef0:	42000204 	addi	r8,r8,8
  80aef4:	da802317 	ldw	r10,140(sp)
  80aef8:	5455883a 	add	r10,r10,r17
  80aefc:	da802315 	stw	r10,140(sp)
  80af00:	003f8b06 	br	80ad30 <__alt_mem_onchip_mem+0xff78ad30>
  80af04:	d9002017 	ldw	r4,128(sp)
  80af08:	a00b883a 	mov	r5,r20
  80af0c:	0806e140 	call	806e14 <__swsetup_r>
  80af10:	1003b11e 	bne	r2,zero,80bdd8 <___vfiprintf_internal_r+0x11ec>
  80af14:	a080030b 	ldhu	r2,12(r20)
  80af18:	00c00284 	movi	r3,10
  80af1c:	1080068c 	andi	r2,r2,26
  80af20:	10ff541e 	bne	r2,r3,80ac74 <__alt_mem_onchip_mem+0xff78ac74>
  80af24:	a080038f 	ldh	r2,14(r20)
  80af28:	103f5216 	blt	r2,zero,80ac74 <__alt_mem_onchip_mem+0xff78ac74>
  80af2c:	d9c02217 	ldw	r7,136(sp)
  80af30:	d9002017 	ldw	r4,128(sp)
  80af34:	e00d883a 	mov	r6,fp
  80af38:	a00b883a 	mov	r5,r20
  80af3c:	080c0640 	call	80c064 <__sbprintf>
  80af40:	dfc03617 	ldw	ra,216(sp)
  80af44:	df003517 	ldw	fp,212(sp)
  80af48:	ddc03417 	ldw	r23,208(sp)
  80af4c:	dd803317 	ldw	r22,204(sp)
  80af50:	dd403217 	ldw	r21,200(sp)
  80af54:	dd003117 	ldw	r20,196(sp)
  80af58:	dcc03017 	ldw	r19,192(sp)
  80af5c:	dc802f17 	ldw	r18,188(sp)
  80af60:	dc402e17 	ldw	r17,184(sp)
  80af64:	dc002d17 	ldw	r16,180(sp)
  80af68:	dec03704 	addi	sp,sp,220
  80af6c:	f800283a 	ret
  80af70:	0802cfc0 	call	802cfc <__sinit>
  80af74:	003f2f06 	br	80ac34 <__alt_mem_onchip_mem+0xff78ac34>
  80af78:	0463c83a 	sub	r17,zero,r17
  80af7c:	d8802215 	stw	r2,136(sp)
  80af80:	a5000114 	ori	r20,r20,4
  80af84:	80c00007 	ldb	r3,0(r16)
  80af88:	003f7706 	br	80ad68 <__alt_mem_onchip_mem+0xff78ad68>
  80af8c:	00800c04 	movi	r2,48
  80af90:	da802217 	ldw	r10,136(sp)
  80af94:	d8801d05 	stb	r2,116(sp)
  80af98:	00801e04 	movi	r2,120
  80af9c:	d8801d45 	stb	r2,117(sp)
  80afa0:	d8001d85 	stb	zero,118(sp)
  80afa4:	50c00104 	addi	r3,r10,4
  80afa8:	54800017 	ldw	r18,0(r10)
  80afac:	0027883a 	mov	r19,zero
  80afb0:	a0800094 	ori	r2,r20,2
  80afb4:	48030b16 	blt	r9,zero,80bbe4 <___vfiprintf_internal_r+0xff8>
  80afb8:	00bfdfc4 	movi	r2,-129
  80afbc:	a096703a 	and	r11,r20,r2
  80afc0:	d8c02215 	stw	r3,136(sp)
  80afc4:	5d000094 	ori	r20,r11,2
  80afc8:	90032b1e 	bne	r18,zero,80bc78 <___vfiprintf_internal_r+0x108c>
  80afcc:	00802074 	movhi	r2,129
  80afd0:	108f1904 	addi	r2,r2,15460
  80afd4:	d8802615 	stw	r2,152(sp)
  80afd8:	0039883a 	mov	fp,zero
  80afdc:	48017b1e 	bne	r9,zero,80b5cc <___vfiprintf_internal_r+0x9e0>
  80afe0:	0013883a 	mov	r9,zero
  80afe4:	0027883a 	mov	r19,zero
  80afe8:	dd401a04 	addi	r21,sp,104
  80afec:	4825883a 	mov	r18,r9
  80aff0:	4cc0010e 	bge	r9,r19,80aff8 <___vfiprintf_internal_r+0x40c>
  80aff4:	9825883a 	mov	r18,r19
  80aff8:	e7003fcc 	andi	fp,fp,255
  80affc:	e700201c 	xori	fp,fp,128
  80b000:	e73fe004 	addi	fp,fp,-128
  80b004:	e0000126 	beq	fp,zero,80b00c <___vfiprintf_internal_r+0x420>
  80b008:	94800044 	addi	r18,r18,1
  80b00c:	a380008c 	andi	r14,r20,2
  80b010:	70000126 	beq	r14,zero,80b018 <___vfiprintf_internal_r+0x42c>
  80b014:	94800084 	addi	r18,r18,2
  80b018:	a700210c 	andi	fp,r20,132
  80b01c:	e001df1e 	bne	fp,zero,80b79c <___vfiprintf_internal_r+0xbb0>
  80b020:	8c87c83a 	sub	r3,r17,r18
  80b024:	00c1dd0e 	bge	zero,r3,80b79c <___vfiprintf_internal_r+0xbb0>
  80b028:	01c00404 	movi	r7,16
  80b02c:	d8801c17 	ldw	r2,112(sp)
  80b030:	38c3ad0e 	bge	r7,r3,80bee8 <___vfiprintf_internal_r+0x12fc>
  80b034:	02802074 	movhi	r10,129
  80b038:	528f7d04 	addi	r10,r10,15860
  80b03c:	dc002915 	stw	r16,164(sp)
  80b040:	d9801b17 	ldw	r6,108(sp)
  80b044:	da802415 	stw	r10,144(sp)
  80b048:	03c001c4 	movi	r15,7
  80b04c:	da402515 	stw	r9,148(sp)
  80b050:	db802815 	stw	r14,160(sp)
  80b054:	1821883a 	mov	r16,r3
  80b058:	00000506 	br	80b070 <___vfiprintf_internal_r+0x484>
  80b05c:	31400084 	addi	r5,r6,2
  80b060:	42000204 	addi	r8,r8,8
  80b064:	200d883a 	mov	r6,r4
  80b068:	843ffc04 	addi	r16,r16,-16
  80b06c:	3c000d0e 	bge	r7,r16,80b0a4 <___vfiprintf_internal_r+0x4b8>
  80b070:	10800404 	addi	r2,r2,16
  80b074:	31000044 	addi	r4,r6,1
  80b078:	45800015 	stw	r22,0(r8)
  80b07c:	41c00115 	stw	r7,4(r8)
  80b080:	d8801c15 	stw	r2,112(sp)
  80b084:	d9001b15 	stw	r4,108(sp)
  80b088:	793ff40e 	bge	r15,r4,80b05c <__alt_mem_onchip_mem+0xff78b05c>
  80b08c:	1001b51e 	bne	r2,zero,80b764 <___vfiprintf_internal_r+0xb78>
  80b090:	843ffc04 	addi	r16,r16,-16
  80b094:	000d883a 	mov	r6,zero
  80b098:	01400044 	movi	r5,1
  80b09c:	d811883a 	mov	r8,sp
  80b0a0:	3c3ff316 	blt	r7,r16,80b070 <__alt_mem_onchip_mem+0xff78b070>
  80b0a4:	8007883a 	mov	r3,r16
  80b0a8:	da402517 	ldw	r9,148(sp)
  80b0ac:	db802817 	ldw	r14,160(sp)
  80b0b0:	dc002917 	ldw	r16,164(sp)
  80b0b4:	da802417 	ldw	r10,144(sp)
  80b0b8:	1885883a 	add	r2,r3,r2
  80b0bc:	40c00115 	stw	r3,4(r8)
  80b0c0:	42800015 	stw	r10,0(r8)
  80b0c4:	d8801c15 	stw	r2,112(sp)
  80b0c8:	d9401b15 	stw	r5,108(sp)
  80b0cc:	00c001c4 	movi	r3,7
  80b0d0:	19426016 	blt	r3,r5,80ba54 <___vfiprintf_internal_r+0xe68>
  80b0d4:	d8c01d87 	ldb	r3,118(sp)
  80b0d8:	42000204 	addi	r8,r8,8
  80b0dc:	29000044 	addi	r4,r5,1
  80b0e0:	1801b31e 	bne	r3,zero,80b7b0 <___vfiprintf_internal_r+0xbc4>
  80b0e4:	7001c026 	beq	r14,zero,80b7e8 <___vfiprintf_internal_r+0xbfc>
  80b0e8:	d8c01d04 	addi	r3,sp,116
  80b0ec:	10800084 	addi	r2,r2,2
  80b0f0:	40c00015 	stw	r3,0(r8)
  80b0f4:	00c00084 	movi	r3,2
  80b0f8:	40c00115 	stw	r3,4(r8)
  80b0fc:	d8801c15 	stw	r2,112(sp)
  80b100:	d9001b15 	stw	r4,108(sp)
  80b104:	00c001c4 	movi	r3,7
  80b108:	1902650e 	bge	r3,r4,80baa0 <___vfiprintf_internal_r+0xeb4>
  80b10c:	10029a1e 	bne	r2,zero,80bb78 <___vfiprintf_internal_r+0xf8c>
  80b110:	00c02004 	movi	r3,128
  80b114:	01000044 	movi	r4,1
  80b118:	000b883a 	mov	r5,zero
  80b11c:	d811883a 	mov	r8,sp
  80b120:	e0c1b31e 	bne	fp,r3,80b7f0 <___vfiprintf_internal_r+0xc04>
  80b124:	8cb9c83a 	sub	fp,r17,r18
  80b128:	0701b10e 	bge	zero,fp,80b7f0 <___vfiprintf_internal_r+0xc04>
  80b12c:	01c00404 	movi	r7,16
  80b130:	3f03890e 	bge	r7,fp,80bf58 <___vfiprintf_internal_r+0x136c>
  80b134:	00c02074 	movhi	r3,129
  80b138:	18cf7904 	addi	r3,r3,15844
  80b13c:	d8c02415 	stw	r3,144(sp)
  80b140:	8007883a 	mov	r3,r16
  80b144:	034001c4 	movi	r13,7
  80b148:	e021883a 	mov	r16,fp
  80b14c:	da402515 	stw	r9,148(sp)
  80b150:	1839883a 	mov	fp,r3
  80b154:	00000506 	br	80b16c <___vfiprintf_internal_r+0x580>
  80b158:	29800084 	addi	r6,r5,2
  80b15c:	42000204 	addi	r8,r8,8
  80b160:	180b883a 	mov	r5,r3
  80b164:	843ffc04 	addi	r16,r16,-16
  80b168:	3c000d0e 	bge	r7,r16,80b1a0 <___vfiprintf_internal_r+0x5b4>
  80b16c:	10800404 	addi	r2,r2,16
  80b170:	28c00044 	addi	r3,r5,1
  80b174:	45c00015 	stw	r23,0(r8)
  80b178:	41c00115 	stw	r7,4(r8)
  80b17c:	d8801c15 	stw	r2,112(sp)
  80b180:	d8c01b15 	stw	r3,108(sp)
  80b184:	68fff40e 	bge	r13,r3,80b158 <__alt_mem_onchip_mem+0xff78b158>
  80b188:	1002241e 	bne	r2,zero,80ba1c <___vfiprintf_internal_r+0xe30>
  80b18c:	843ffc04 	addi	r16,r16,-16
  80b190:	01800044 	movi	r6,1
  80b194:	000b883a 	mov	r5,zero
  80b198:	d811883a 	mov	r8,sp
  80b19c:	3c3ff316 	blt	r7,r16,80b16c <__alt_mem_onchip_mem+0xff78b16c>
  80b1a0:	da402517 	ldw	r9,148(sp)
  80b1a4:	e007883a 	mov	r3,fp
  80b1a8:	8039883a 	mov	fp,r16
  80b1ac:	1821883a 	mov	r16,r3
  80b1b0:	d8c02417 	ldw	r3,144(sp)
  80b1b4:	1705883a 	add	r2,r2,fp
  80b1b8:	47000115 	stw	fp,4(r8)
  80b1bc:	40c00015 	stw	r3,0(r8)
  80b1c0:	d8801c15 	stw	r2,112(sp)
  80b1c4:	d9801b15 	stw	r6,108(sp)
  80b1c8:	00c001c4 	movi	r3,7
  80b1cc:	19827616 	blt	r3,r6,80bba8 <___vfiprintf_internal_r+0xfbc>
  80b1d0:	4cf9c83a 	sub	fp,r9,r19
  80b1d4:	42000204 	addi	r8,r8,8
  80b1d8:	31000044 	addi	r4,r6,1
  80b1dc:	300b883a 	mov	r5,r6
  80b1e0:	07018516 	blt	zero,fp,80b7f8 <___vfiprintf_internal_r+0xc0c>
  80b1e4:	9885883a 	add	r2,r19,r2
  80b1e8:	45400015 	stw	r21,0(r8)
  80b1ec:	44c00115 	stw	r19,4(r8)
  80b1f0:	d8801c15 	stw	r2,112(sp)
  80b1f4:	d9001b15 	stw	r4,108(sp)
  80b1f8:	00c001c4 	movi	r3,7
  80b1fc:	1901dd0e 	bge	r3,r4,80b974 <___vfiprintf_internal_r+0xd88>
  80b200:	1002401e 	bne	r2,zero,80bb04 <___vfiprintf_internal_r+0xf18>
  80b204:	d8001b15 	stw	zero,108(sp)
  80b208:	a2c0010c 	andi	r11,r20,4
  80b20c:	58000226 	beq	r11,zero,80b218 <___vfiprintf_internal_r+0x62c>
  80b210:	8ca7c83a 	sub	r19,r17,r18
  80b214:	04c2f216 	blt	zero,r19,80bde0 <___vfiprintf_internal_r+0x11f4>
  80b218:	8c80010e 	bge	r17,r18,80b220 <___vfiprintf_internal_r+0x634>
  80b21c:	9023883a 	mov	r17,r18
  80b220:	da802317 	ldw	r10,140(sp)
  80b224:	5455883a 	add	r10,r10,r17
  80b228:	da802315 	stw	r10,140(sp)
  80b22c:	d8001b15 	stw	zero,108(sp)
  80b230:	d811883a 	mov	r8,sp
  80b234:	003ea206 	br	80acc0 <__alt_mem_onchip_mem+0xff78acc0>
  80b238:	a5000814 	ori	r20,r20,32
  80b23c:	80c00007 	ldb	r3,0(r16)
  80b240:	003ec906 	br	80ad68 <__alt_mem_onchip_mem+0xff78ad68>
  80b244:	80c00007 	ldb	r3,0(r16)
  80b248:	1b030926 	beq	r3,r12,80be70 <___vfiprintf_internal_r+0x1284>
  80b24c:	a5000414 	ori	r20,r20,16
  80b250:	003ec506 	br	80ad68 <__alt_mem_onchip_mem+0xff78ad68>
  80b254:	21003fcc 	andi	r4,r4,255
  80b258:	20035e1e 	bne	r4,zero,80bfd4 <___vfiprintf_internal_r+0x13e8>
  80b25c:	a080080c 	andi	r2,r20,32
  80b260:	1002a526 	beq	r2,zero,80bcf8 <___vfiprintf_internal_r+0x110c>
  80b264:	da802217 	ldw	r10,136(sp)
  80b268:	50800017 	ldw	r2,0(r10)
  80b26c:	da802317 	ldw	r10,140(sp)
  80b270:	5007d7fa 	srai	r3,r10,31
  80b274:	da802217 	ldw	r10,136(sp)
  80b278:	10c00115 	stw	r3,4(r2)
  80b27c:	52800104 	addi	r10,r10,4
  80b280:	da802215 	stw	r10,136(sp)
  80b284:	da802317 	ldw	r10,140(sp)
  80b288:	12800015 	stw	r10,0(r2)
  80b28c:	003e8c06 	br	80acc0 <__alt_mem_onchip_mem+0xff78acc0>
  80b290:	21003fcc 	andi	r4,r4,255
  80b294:	2003511e 	bne	r4,zero,80bfdc <___vfiprintf_internal_r+0x13f0>
  80b298:	a080080c 	andi	r2,r20,32
  80b29c:	1000a126 	beq	r2,zero,80b524 <___vfiprintf_internal_r+0x938>
  80b2a0:	da802217 	ldw	r10,136(sp)
  80b2a4:	d8001d85 	stb	zero,118(sp)
  80b2a8:	50800204 	addi	r2,r10,8
  80b2ac:	54800017 	ldw	r18,0(r10)
  80b2b0:	54c00117 	ldw	r19,4(r10)
  80b2b4:	4802b416 	blt	r9,zero,80bd88 <___vfiprintf_internal_r+0x119c>
  80b2b8:	013fdfc4 	movi	r4,-129
  80b2bc:	94c6b03a 	or	r3,r18,r19
  80b2c0:	d8802215 	stw	r2,136(sp)
  80b2c4:	a128703a 	and	r20,r20,r4
  80b2c8:	1800a226 	beq	r3,zero,80b554 <___vfiprintf_internal_r+0x968>
  80b2cc:	0039883a 	mov	fp,zero
  80b2d0:	dd401a04 	addi	r21,sp,104
  80b2d4:	9006d0fa 	srli	r3,r18,3
  80b2d8:	9808977a 	slli	r4,r19,29
  80b2dc:	9826d0fa 	srli	r19,r19,3
  80b2e0:	948001cc 	andi	r18,r18,7
  80b2e4:	90800c04 	addi	r2,r18,48
  80b2e8:	ad7fffc4 	addi	r21,r21,-1
  80b2ec:	20e4b03a 	or	r18,r4,r3
  80b2f0:	a8800005 	stb	r2,0(r21)
  80b2f4:	94c6b03a 	or	r3,r18,r19
  80b2f8:	183ff61e 	bne	r3,zero,80b2d4 <__alt_mem_onchip_mem+0xff78b2d4>
  80b2fc:	a0c0004c 	andi	r3,r20,1
  80b300:	18005926 	beq	r3,zero,80b468 <___vfiprintf_internal_r+0x87c>
  80b304:	10803fcc 	andi	r2,r2,255
  80b308:	1080201c 	xori	r2,r2,128
  80b30c:	10bfe004 	addi	r2,r2,-128
  80b310:	00c00c04 	movi	r3,48
  80b314:	10c05426 	beq	r2,r3,80b468 <___vfiprintf_internal_r+0x87c>
  80b318:	da801e17 	ldw	r10,120(sp)
  80b31c:	a8bfffc4 	addi	r2,r21,-1
  80b320:	a8ffffc5 	stb	r3,-1(r21)
  80b324:	50a7c83a 	sub	r19,r10,r2
  80b328:	102b883a 	mov	r21,r2
  80b32c:	003f2f06 	br	80afec <__alt_mem_onchip_mem+0xff78afec>
  80b330:	21003fcc 	andi	r4,r4,255
  80b334:	2003421e 	bne	r4,zero,80c040 <___vfiprintf_internal_r+0x1454>
  80b338:	00802074 	movhi	r2,129
  80b33c:	108f1904 	addi	r2,r2,15460
  80b340:	d8802615 	stw	r2,152(sp)
  80b344:	a080080c 	andi	r2,r20,32
  80b348:	1000aa26 	beq	r2,zero,80b5f4 <___vfiprintf_internal_r+0xa08>
  80b34c:	da802217 	ldw	r10,136(sp)
  80b350:	54800017 	ldw	r18,0(r10)
  80b354:	54c00117 	ldw	r19,4(r10)
  80b358:	52800204 	addi	r10,r10,8
  80b35c:	da802215 	stw	r10,136(sp)
  80b360:	a080004c 	andi	r2,r20,1
  80b364:	1001d226 	beq	r2,zero,80bab0 <___vfiprintf_internal_r+0xec4>
  80b368:	94c4b03a 	or	r2,r18,r19
  80b36c:	1002351e 	bne	r2,zero,80bc44 <___vfiprintf_internal_r+0x1058>
  80b370:	d8001d85 	stb	zero,118(sp)
  80b374:	48022216 	blt	r9,zero,80bc00 <___vfiprintf_internal_r+0x1014>
  80b378:	00bfdfc4 	movi	r2,-129
  80b37c:	a0a8703a 	and	r20,r20,r2
  80b380:	003f1506 	br	80afd8 <__alt_mem_onchip_mem+0xff78afd8>
  80b384:	da802217 	ldw	r10,136(sp)
  80b388:	04800044 	movi	r18,1
  80b38c:	d8001d85 	stb	zero,118(sp)
  80b390:	50800017 	ldw	r2,0(r10)
  80b394:	52800104 	addi	r10,r10,4
  80b398:	da802215 	stw	r10,136(sp)
  80b39c:	d8801005 	stb	r2,64(sp)
  80b3a0:	9027883a 	mov	r19,r18
  80b3a4:	dd401004 	addi	r21,sp,64
  80b3a8:	0013883a 	mov	r9,zero
  80b3ac:	003f1706 	br	80b00c <__alt_mem_onchip_mem+0xff78b00c>
  80b3b0:	21003fcc 	andi	r4,r4,255
  80b3b4:	2003201e 	bne	r4,zero,80c038 <___vfiprintf_internal_r+0x144c>
  80b3b8:	a080080c 	andi	r2,r20,32
  80b3bc:	10004b26 	beq	r2,zero,80b4ec <___vfiprintf_internal_r+0x900>
  80b3c0:	da802217 	ldw	r10,136(sp)
  80b3c4:	50800117 	ldw	r2,4(r10)
  80b3c8:	54800017 	ldw	r18,0(r10)
  80b3cc:	52800204 	addi	r10,r10,8
  80b3d0:	da802215 	stw	r10,136(sp)
  80b3d4:	1027883a 	mov	r19,r2
  80b3d8:	10022c16 	blt	r2,zero,80bc8c <___vfiprintf_internal_r+0x10a0>
  80b3dc:	df001d83 	ldbu	fp,118(sp)
  80b3e0:	48007216 	blt	r9,zero,80b5ac <___vfiprintf_internal_r+0x9c0>
  80b3e4:	00ffdfc4 	movi	r3,-129
  80b3e8:	94c4b03a 	or	r2,r18,r19
  80b3ec:	a0e8703a 	and	r20,r20,r3
  80b3f0:	1000cc26 	beq	r2,zero,80b724 <___vfiprintf_internal_r+0xb38>
  80b3f4:	98021026 	beq	r19,zero,80bc38 <___vfiprintf_internal_r+0x104c>
  80b3f8:	dc402415 	stw	r17,144(sp)
  80b3fc:	dc002515 	stw	r16,148(sp)
  80b400:	9823883a 	mov	r17,r19
  80b404:	9021883a 	mov	r16,r18
  80b408:	dd401a04 	addi	r21,sp,104
  80b40c:	4825883a 	mov	r18,r9
  80b410:	4027883a 	mov	r19,r8
  80b414:	8009883a 	mov	r4,r16
  80b418:	880b883a 	mov	r5,r17
  80b41c:	01800284 	movi	r6,10
  80b420:	000f883a 	mov	r7,zero
  80b424:	080cca40 	call	80cca4 <__umoddi3>
  80b428:	10800c04 	addi	r2,r2,48
  80b42c:	ad7fffc4 	addi	r21,r21,-1
  80b430:	8009883a 	mov	r4,r16
  80b434:	880b883a 	mov	r5,r17
  80b438:	a8800005 	stb	r2,0(r21)
  80b43c:	01800284 	movi	r6,10
  80b440:	000f883a 	mov	r7,zero
  80b444:	080c72c0 	call	80c72c <__udivdi3>
  80b448:	1021883a 	mov	r16,r2
  80b44c:	10c4b03a 	or	r2,r2,r3
  80b450:	1823883a 	mov	r17,r3
  80b454:	103fef1e 	bne	r2,zero,80b414 <__alt_mem_onchip_mem+0xff78b414>
  80b458:	dc402417 	ldw	r17,144(sp)
  80b45c:	dc002517 	ldw	r16,148(sp)
  80b460:	9013883a 	mov	r9,r18
  80b464:	9811883a 	mov	r8,r19
  80b468:	da801e17 	ldw	r10,120(sp)
  80b46c:	5567c83a 	sub	r19,r10,r21
  80b470:	003ede06 	br	80afec <__alt_mem_onchip_mem+0xff78afec>
  80b474:	38803fcc 	andi	r2,r7,255
  80b478:	1080201c 	xori	r2,r2,128
  80b47c:	10bfe004 	addi	r2,r2,-128
  80b480:	1002371e 	bne	r2,zero,80bd60 <___vfiprintf_internal_r+0x1174>
  80b484:	01000044 	movi	r4,1
  80b488:	01c00804 	movi	r7,32
  80b48c:	80c00007 	ldb	r3,0(r16)
  80b490:	003e3506 	br	80ad68 <__alt_mem_onchip_mem+0xff78ad68>
  80b494:	a5000054 	ori	r20,r20,1
  80b498:	80c00007 	ldb	r3,0(r16)
  80b49c:	003e3206 	br	80ad68 <__alt_mem_onchip_mem+0xff78ad68>
  80b4a0:	a5002014 	ori	r20,r20,128
  80b4a4:	80c00007 	ldb	r3,0(r16)
  80b4a8:	003e2f06 	br	80ad68 <__alt_mem_onchip_mem+0xff78ad68>
  80b4ac:	8015883a 	mov	r10,r16
  80b4b0:	0023883a 	mov	r17,zero
  80b4b4:	18bff404 	addi	r2,r3,-48
  80b4b8:	50c00007 	ldb	r3,0(r10)
  80b4bc:	8c4002a4 	muli	r17,r17,10
  80b4c0:	84000044 	addi	r16,r16,1
  80b4c4:	8015883a 	mov	r10,r16
  80b4c8:	1463883a 	add	r17,r2,r17
  80b4cc:	18bff404 	addi	r2,r3,-48
  80b4d0:	30bff92e 	bgeu	r6,r2,80b4b8 <__alt_mem_onchip_mem+0xff78b4b8>
  80b4d4:	003e2506 	br	80ad6c <__alt_mem_onchip_mem+0xff78ad6c>
  80b4d8:	21003fcc 	andi	r4,r4,255
  80b4dc:	2002d41e 	bne	r4,zero,80c030 <___vfiprintf_internal_r+0x1444>
  80b4e0:	a5000414 	ori	r20,r20,16
  80b4e4:	a080080c 	andi	r2,r20,32
  80b4e8:	103fb51e 	bne	r2,zero,80b3c0 <__alt_mem_onchip_mem+0xff78b3c0>
  80b4ec:	a080040c 	andi	r2,r20,16
  80b4f0:	1001f826 	beq	r2,zero,80bcd4 <___vfiprintf_internal_r+0x10e8>
  80b4f4:	da802217 	ldw	r10,136(sp)
  80b4f8:	54800017 	ldw	r18,0(r10)
  80b4fc:	52800104 	addi	r10,r10,4
  80b500:	da802215 	stw	r10,136(sp)
  80b504:	9027d7fa 	srai	r19,r18,31
  80b508:	9805883a 	mov	r2,r19
  80b50c:	003fb206 	br	80b3d8 <__alt_mem_onchip_mem+0xff78b3d8>
  80b510:	21003fcc 	andi	r4,r4,255
  80b514:	2002c41e 	bne	r4,zero,80c028 <___vfiprintf_internal_r+0x143c>
  80b518:	a5000414 	ori	r20,r20,16
  80b51c:	a080080c 	andi	r2,r20,32
  80b520:	103f5f1e 	bne	r2,zero,80b2a0 <__alt_mem_onchip_mem+0xff78b2a0>
  80b524:	a080040c 	andi	r2,r20,16
  80b528:	10020f26 	beq	r2,zero,80bd68 <___vfiprintf_internal_r+0x117c>
  80b52c:	da802217 	ldw	r10,136(sp)
  80b530:	d8001d85 	stb	zero,118(sp)
  80b534:	0027883a 	mov	r19,zero
  80b538:	50800104 	addi	r2,r10,4
  80b53c:	54800017 	ldw	r18,0(r10)
  80b540:	48021116 	blt	r9,zero,80bd88 <___vfiprintf_internal_r+0x119c>
  80b544:	00ffdfc4 	movi	r3,-129
  80b548:	d8802215 	stw	r2,136(sp)
  80b54c:	a0e8703a 	and	r20,r20,r3
  80b550:	903f5e1e 	bne	r18,zero,80b2cc <__alt_mem_onchip_mem+0xff78b2cc>
  80b554:	0039883a 	mov	fp,zero
  80b558:	4802a626 	beq	r9,zero,80bff4 <___vfiprintf_internal_r+0x1408>
  80b55c:	0025883a 	mov	r18,zero
  80b560:	0027883a 	mov	r19,zero
  80b564:	003f5a06 	br	80b2d0 <__alt_mem_onchip_mem+0xff78b2d0>
  80b568:	21003fcc 	andi	r4,r4,255
  80b56c:	20029f1e 	bne	r4,zero,80bfec <___vfiprintf_internal_r+0x1400>
  80b570:	a5000414 	ori	r20,r20,16
  80b574:	a080080c 	andi	r2,r20,32
  80b578:	10005e1e 	bne	r2,zero,80b6f4 <___vfiprintf_internal_r+0xb08>
  80b57c:	a080040c 	andi	r2,r20,16
  80b580:	1001a21e 	bne	r2,zero,80bc0c <___vfiprintf_internal_r+0x1020>
  80b584:	a080100c 	andi	r2,r20,64
  80b588:	d8001d85 	stb	zero,118(sp)
  80b58c:	da802217 	ldw	r10,136(sp)
  80b590:	1002231e 	bne	r2,zero,80be20 <___vfiprintf_internal_r+0x1234>
  80b594:	50800104 	addi	r2,r10,4
  80b598:	54800017 	ldw	r18,0(r10)
  80b59c:	0027883a 	mov	r19,zero
  80b5a0:	4801a00e 	bge	r9,zero,80bc24 <___vfiprintf_internal_r+0x1038>
  80b5a4:	d8802215 	stw	r2,136(sp)
  80b5a8:	0039883a 	mov	fp,zero
  80b5ac:	94c4b03a 	or	r2,r18,r19
  80b5b0:	103f901e 	bne	r2,zero,80b3f4 <__alt_mem_onchip_mem+0xff78b3f4>
  80b5b4:	00800044 	movi	r2,1
  80b5b8:	10803fcc 	andi	r2,r2,255
  80b5bc:	00c00044 	movi	r3,1
  80b5c0:	10c05926 	beq	r2,r3,80b728 <___vfiprintf_internal_r+0xb3c>
  80b5c4:	00c00084 	movi	r3,2
  80b5c8:	10ffe41e 	bne	r2,r3,80b55c <__alt_mem_onchip_mem+0xff78b55c>
  80b5cc:	0025883a 	mov	r18,zero
  80b5d0:	0027883a 	mov	r19,zero
  80b5d4:	00013d06 	br	80bacc <___vfiprintf_internal_r+0xee0>
  80b5d8:	21003fcc 	andi	r4,r4,255
  80b5dc:	2002811e 	bne	r4,zero,80bfe4 <___vfiprintf_internal_r+0x13f8>
  80b5e0:	00802074 	movhi	r2,129
  80b5e4:	108f1404 	addi	r2,r2,15440
  80b5e8:	d8802615 	stw	r2,152(sp)
  80b5ec:	a080080c 	andi	r2,r20,32
  80b5f0:	103f561e 	bne	r2,zero,80b34c <__alt_mem_onchip_mem+0xff78b34c>
  80b5f4:	a080040c 	andi	r2,r20,16
  80b5f8:	1001d126 	beq	r2,zero,80bd40 <___vfiprintf_internal_r+0x1154>
  80b5fc:	da802217 	ldw	r10,136(sp)
  80b600:	0027883a 	mov	r19,zero
  80b604:	54800017 	ldw	r18,0(r10)
  80b608:	52800104 	addi	r10,r10,4
  80b60c:	da802215 	stw	r10,136(sp)
  80b610:	003f5306 	br	80b360 <__alt_mem_onchip_mem+0xff78b360>
  80b614:	da802217 	ldw	r10,136(sp)
  80b618:	d8001d85 	stb	zero,118(sp)
  80b61c:	55400017 	ldw	r21,0(r10)
  80b620:	50c00104 	addi	r3,r10,4
  80b624:	a8024226 	beq	r21,zero,80bf30 <___vfiprintf_internal_r+0x1344>
  80b628:	48021816 	blt	r9,zero,80be8c <___vfiprintf_internal_r+0x12a0>
  80b62c:	480d883a 	mov	r6,r9
  80b630:	000b883a 	mov	r5,zero
  80b634:	a809883a 	mov	r4,r21
  80b638:	d8c02a15 	stw	r3,168(sp)
  80b63c:	da002b15 	stw	r8,172(sp)
  80b640:	da402c15 	stw	r9,176(sp)
  80b644:	08090400 	call	809040 <memchr>
  80b648:	d8c02a17 	ldw	r3,168(sp)
  80b64c:	da002b17 	ldw	r8,172(sp)
  80b650:	da402c17 	ldw	r9,176(sp)
  80b654:	10024826 	beq	r2,zero,80bf78 <___vfiprintf_internal_r+0x138c>
  80b658:	1567c83a 	sub	r19,r2,r21
  80b65c:	df001d83 	ldbu	fp,118(sp)
  80b660:	d8c02215 	stw	r3,136(sp)
  80b664:	0013883a 	mov	r9,zero
  80b668:	003e6006 	br	80afec <__alt_mem_onchip_mem+0xff78afec>
  80b66c:	21003fcc 	andi	r4,r4,255
  80b670:	203fc026 	beq	r4,zero,80b574 <__alt_mem_onchip_mem+0xff78b574>
  80b674:	d9c01d85 	stb	r7,118(sp)
  80b678:	003fbe06 	br	80b574 <__alt_mem_onchip_mem+0xff78b574>
  80b67c:	da802217 	ldw	r10,136(sp)
  80b680:	54400017 	ldw	r17,0(r10)
  80b684:	50800104 	addi	r2,r10,4
  80b688:	883e3b16 	blt	r17,zero,80af78 <__alt_mem_onchip_mem+0xff78af78>
  80b68c:	d8802215 	stw	r2,136(sp)
  80b690:	80c00007 	ldb	r3,0(r16)
  80b694:	003db406 	br	80ad68 <__alt_mem_onchip_mem+0xff78ad68>
  80b698:	01000044 	movi	r4,1
  80b69c:	01c00ac4 	movi	r7,43
  80b6a0:	80c00007 	ldb	r3,0(r16)
  80b6a4:	003db006 	br	80ad68 <__alt_mem_onchip_mem+0xff78ad68>
  80b6a8:	80c00007 	ldb	r3,0(r16)
  80b6ac:	82800044 	addi	r10,r16,1
  80b6b0:	1b423c26 	beq	r3,r13,80bfa4 <___vfiprintf_internal_r+0x13b8>
  80b6b4:	18bff404 	addi	r2,r3,-48
  80b6b8:	0013883a 	mov	r9,zero
  80b6bc:	30822b36 	bltu	r6,r2,80bf6c <___vfiprintf_internal_r+0x1380>
  80b6c0:	50c00007 	ldb	r3,0(r10)
  80b6c4:	4a4002a4 	muli	r9,r9,10
  80b6c8:	54000044 	addi	r16,r10,1
  80b6cc:	8015883a 	mov	r10,r16
  80b6d0:	4893883a 	add	r9,r9,r2
  80b6d4:	18bff404 	addi	r2,r3,-48
  80b6d8:	30bff92e 	bgeu	r6,r2,80b6c0 <__alt_mem_onchip_mem+0xff78b6c0>
  80b6dc:	483da30e 	bge	r9,zero,80ad6c <__alt_mem_onchip_mem+0xff78ad6c>
  80b6e0:	027fffc4 	movi	r9,-1
  80b6e4:	003da106 	br	80ad6c <__alt_mem_onchip_mem+0xff78ad6c>
  80b6e8:	a5001014 	ori	r20,r20,64
  80b6ec:	80c00007 	ldb	r3,0(r16)
  80b6f0:	003d9d06 	br	80ad68 <__alt_mem_onchip_mem+0xff78ad68>
  80b6f4:	da802217 	ldw	r10,136(sp)
  80b6f8:	d8001d85 	stb	zero,118(sp)
  80b6fc:	50c00204 	addi	r3,r10,8
  80b700:	54800017 	ldw	r18,0(r10)
  80b704:	54c00117 	ldw	r19,4(r10)
  80b708:	4801ca16 	blt	r9,zero,80be34 <___vfiprintf_internal_r+0x1248>
  80b70c:	013fdfc4 	movi	r4,-129
  80b710:	94c4b03a 	or	r2,r18,r19
  80b714:	d8c02215 	stw	r3,136(sp)
  80b718:	a128703a 	and	r20,r20,r4
  80b71c:	0039883a 	mov	fp,zero
  80b720:	103f341e 	bne	r2,zero,80b3f4 <__alt_mem_onchip_mem+0xff78b3f4>
  80b724:	483e2e26 	beq	r9,zero,80afe0 <__alt_mem_onchip_mem+0xff78afe0>
  80b728:	0025883a 	mov	r18,zero
  80b72c:	94800c04 	addi	r18,r18,48
  80b730:	dc8019c5 	stb	r18,103(sp)
  80b734:	dcc02717 	ldw	r19,156(sp)
  80b738:	dd4019c4 	addi	r21,sp,103
  80b73c:	003e2b06 	br	80afec <__alt_mem_onchip_mem+0xff78afec>
  80b740:	21003fcc 	andi	r4,r4,255
  80b744:	2002361e 	bne	r4,zero,80c020 <___vfiprintf_internal_r+0x1434>
  80b748:	1801c126 	beq	r3,zero,80be50 <___vfiprintf_internal_r+0x1264>
  80b74c:	04800044 	movi	r18,1
  80b750:	d8c01005 	stb	r3,64(sp)
  80b754:	d8001d85 	stb	zero,118(sp)
  80b758:	9027883a 	mov	r19,r18
  80b75c:	dd401004 	addi	r21,sp,64
  80b760:	003f1106 	br	80b3a8 <__alt_mem_onchip_mem+0xff78b3a8>
  80b764:	d9402117 	ldw	r5,132(sp)
  80b768:	d9002017 	ldw	r4,128(sp)
  80b76c:	d9801a04 	addi	r6,sp,104
  80b770:	d9c02b15 	stw	r7,172(sp)
  80b774:	dbc02a15 	stw	r15,168(sp)
  80b778:	080aad80 	call	80aad8 <__sprint_r.part.0>
  80b77c:	d9c02b17 	ldw	r7,172(sp)
  80b780:	dbc02a17 	ldw	r15,168(sp)
  80b784:	10006d1e 	bne	r2,zero,80b93c <___vfiprintf_internal_r+0xd50>
  80b788:	d9801b17 	ldw	r6,108(sp)
  80b78c:	d8801c17 	ldw	r2,112(sp)
  80b790:	d811883a 	mov	r8,sp
  80b794:	31400044 	addi	r5,r6,1
  80b798:	003e3306 	br	80b068 <__alt_mem_onchip_mem+0xff78b068>
  80b79c:	d9401b17 	ldw	r5,108(sp)
  80b7a0:	d8801c17 	ldw	r2,112(sp)
  80b7a4:	29000044 	addi	r4,r5,1
  80b7a8:	d8c01d87 	ldb	r3,118(sp)
  80b7ac:	183e4d26 	beq	r3,zero,80b0e4 <__alt_mem_onchip_mem+0xff78b0e4>
  80b7b0:	00c00044 	movi	r3,1
  80b7b4:	d9401d84 	addi	r5,sp,118
  80b7b8:	10c5883a 	add	r2,r2,r3
  80b7bc:	41400015 	stw	r5,0(r8)
  80b7c0:	40c00115 	stw	r3,4(r8)
  80b7c4:	d8801c15 	stw	r2,112(sp)
  80b7c8:	d9001b15 	stw	r4,108(sp)
  80b7cc:	014001c4 	movi	r5,7
  80b7d0:	2900a90e 	bge	r5,r4,80ba78 <___vfiprintf_internal_r+0xe8c>
  80b7d4:	1000da1e 	bne	r2,zero,80bb40 <___vfiprintf_internal_r+0xf54>
  80b7d8:	7000ab1e 	bne	r14,zero,80ba88 <___vfiprintf_internal_r+0xe9c>
  80b7dc:	000b883a 	mov	r5,zero
  80b7e0:	1809883a 	mov	r4,r3
  80b7e4:	d811883a 	mov	r8,sp
  80b7e8:	00c02004 	movi	r3,128
  80b7ec:	e0fe4d26 	beq	fp,r3,80b124 <__alt_mem_onchip_mem+0xff78b124>
  80b7f0:	4cf9c83a 	sub	fp,r9,r19
  80b7f4:	073e7b0e 	bge	zero,fp,80b1e4 <__alt_mem_onchip_mem+0xff78b1e4>
  80b7f8:	01c00404 	movi	r7,16
  80b7fc:	3f01900e 	bge	r7,fp,80be40 <___vfiprintf_internal_r+0x1254>
  80b800:	00c02074 	movhi	r3,129
  80b804:	18cf7904 	addi	r3,r3,15844
  80b808:	d8c02415 	stw	r3,144(sp)
  80b80c:	034001c4 	movi	r13,7
  80b810:	00000506 	br	80b828 <___vfiprintf_internal_r+0xc3c>
  80b814:	29000084 	addi	r4,r5,2
  80b818:	42000204 	addi	r8,r8,8
  80b81c:	180b883a 	mov	r5,r3
  80b820:	e73ffc04 	addi	fp,fp,-16
  80b824:	3f000d0e 	bge	r7,fp,80b85c <___vfiprintf_internal_r+0xc70>
  80b828:	10800404 	addi	r2,r2,16
  80b82c:	28c00044 	addi	r3,r5,1
  80b830:	45c00015 	stw	r23,0(r8)
  80b834:	41c00115 	stw	r7,4(r8)
  80b838:	d8801c15 	stw	r2,112(sp)
  80b83c:	d8c01b15 	stw	r3,108(sp)
  80b840:	68fff40e 	bge	r13,r3,80b814 <__alt_mem_onchip_mem+0xff78b814>
  80b844:	1000101e 	bne	r2,zero,80b888 <___vfiprintf_internal_r+0xc9c>
  80b848:	e73ffc04 	addi	fp,fp,-16
  80b84c:	01000044 	movi	r4,1
  80b850:	000b883a 	mov	r5,zero
  80b854:	d811883a 	mov	r8,sp
  80b858:	3f3ff316 	blt	r7,fp,80b828 <__alt_mem_onchip_mem+0xff78b828>
  80b85c:	da802417 	ldw	r10,144(sp)
  80b860:	1705883a 	add	r2,r2,fp
  80b864:	47000115 	stw	fp,4(r8)
  80b868:	42800015 	stw	r10,0(r8)
  80b86c:	d8801c15 	stw	r2,112(sp)
  80b870:	d9001b15 	stw	r4,108(sp)
  80b874:	00c001c4 	movi	r3,7
  80b878:	19003616 	blt	r3,r4,80b954 <___vfiprintf_internal_r+0xd68>
  80b87c:	42000204 	addi	r8,r8,8
  80b880:	21000044 	addi	r4,r4,1
  80b884:	003e5706 	br	80b1e4 <__alt_mem_onchip_mem+0xff78b1e4>
  80b888:	d9402117 	ldw	r5,132(sp)
  80b88c:	d9002017 	ldw	r4,128(sp)
  80b890:	d9801a04 	addi	r6,sp,104
  80b894:	d9c02b15 	stw	r7,172(sp)
  80b898:	db402a15 	stw	r13,168(sp)
  80b89c:	080aad80 	call	80aad8 <__sprint_r.part.0>
  80b8a0:	d9c02b17 	ldw	r7,172(sp)
  80b8a4:	db402a17 	ldw	r13,168(sp)
  80b8a8:	1000241e 	bne	r2,zero,80b93c <___vfiprintf_internal_r+0xd50>
  80b8ac:	d9401b17 	ldw	r5,108(sp)
  80b8b0:	d8801c17 	ldw	r2,112(sp)
  80b8b4:	d811883a 	mov	r8,sp
  80b8b8:	29000044 	addi	r4,r5,1
  80b8bc:	003fd806 	br	80b820 <__alt_mem_onchip_mem+0xff78b820>
  80b8c0:	d9401b17 	ldw	r5,108(sp)
  80b8c4:	00c02074 	movhi	r3,129
  80b8c8:	18cf7d04 	addi	r3,r3,15860
  80b8cc:	d8c02415 	stw	r3,144(sp)
  80b8d0:	29400044 	addi	r5,r5,1
  80b8d4:	d8c02417 	ldw	r3,144(sp)
  80b8d8:	14c5883a 	add	r2,r2,r19
  80b8dc:	44c00115 	stw	r19,4(r8)
  80b8e0:	40c00015 	stw	r3,0(r8)
  80b8e4:	d8801c15 	stw	r2,112(sp)
  80b8e8:	d9401b15 	stw	r5,108(sp)
  80b8ec:	00c001c4 	movi	r3,7
  80b8f0:	1940070e 	bge	r3,r5,80b910 <___vfiprintf_internal_r+0xd24>
  80b8f4:	103e4826 	beq	r2,zero,80b218 <__alt_mem_onchip_mem+0xff78b218>
  80b8f8:	d9402117 	ldw	r5,132(sp)
  80b8fc:	d9002017 	ldw	r4,128(sp)
  80b900:	d9801a04 	addi	r6,sp,104
  80b904:	080aad80 	call	80aad8 <__sprint_r.part.0>
  80b908:	10000c1e 	bne	r2,zero,80b93c <___vfiprintf_internal_r+0xd50>
  80b90c:	d8801c17 	ldw	r2,112(sp)
  80b910:	8c80010e 	bge	r17,r18,80b918 <___vfiprintf_internal_r+0xd2c>
  80b914:	9023883a 	mov	r17,r18
  80b918:	da802317 	ldw	r10,140(sp)
  80b91c:	5455883a 	add	r10,r10,r17
  80b920:	da802315 	stw	r10,140(sp)
  80b924:	103e4126 	beq	r2,zero,80b22c <__alt_mem_onchip_mem+0xff78b22c>
  80b928:	d9402117 	ldw	r5,132(sp)
  80b92c:	d9002017 	ldw	r4,128(sp)
  80b930:	d9801a04 	addi	r6,sp,104
  80b934:	080aad80 	call	80aad8 <__sprint_r.part.0>
  80b938:	103e3c26 	beq	r2,zero,80b22c <__alt_mem_onchip_mem+0xff78b22c>
  80b93c:	dd002117 	ldw	r20,132(sp)
  80b940:	a080030b 	ldhu	r2,12(r20)
  80b944:	1080100c 	andi	r2,r2,64
  80b948:	1001231e 	bne	r2,zero,80bdd8 <___vfiprintf_internal_r+0x11ec>
  80b94c:	d8802317 	ldw	r2,140(sp)
  80b950:	003d7b06 	br	80af40 <__alt_mem_onchip_mem+0xff78af40>
  80b954:	1000991e 	bne	r2,zero,80bbbc <___vfiprintf_internal_r+0xfd0>
  80b958:	00c00044 	movi	r3,1
  80b95c:	9805883a 	mov	r2,r19
  80b960:	dd400015 	stw	r21,0(sp)
  80b964:	dcc00115 	stw	r19,4(sp)
  80b968:	dcc01c15 	stw	r19,112(sp)
  80b96c:	d8c01b15 	stw	r3,108(sp)
  80b970:	d811883a 	mov	r8,sp
  80b974:	42000204 	addi	r8,r8,8
  80b978:	a2c0010c 	andi	r11,r20,4
  80b97c:	583fe426 	beq	r11,zero,80b910 <__alt_mem_onchip_mem+0xff78b910>
  80b980:	8ca7c83a 	sub	r19,r17,r18
  80b984:	04ffe20e 	bge	zero,r19,80b910 <__alt_mem_onchip_mem+0xff78b910>
  80b988:	01c00404 	movi	r7,16
  80b98c:	3cffcc0e 	bge	r7,r19,80b8c0 <__alt_mem_onchip_mem+0xff78b8c0>
  80b990:	02802074 	movhi	r10,129
  80b994:	528f7d04 	addi	r10,r10,15860
  80b998:	d9001b17 	ldw	r4,108(sp)
  80b99c:	da802415 	stw	r10,144(sp)
  80b9a0:	382b883a 	mov	r21,r7
  80b9a4:	050001c4 	movi	r20,7
  80b9a8:	df002017 	ldw	fp,128(sp)
  80b9ac:	00000506 	br	80b9c4 <___vfiprintf_internal_r+0xdd8>
  80b9b0:	21400084 	addi	r5,r4,2
  80b9b4:	42000204 	addi	r8,r8,8
  80b9b8:	1809883a 	mov	r4,r3
  80b9bc:	9cfffc04 	addi	r19,r19,-16
  80b9c0:	acffc40e 	bge	r21,r19,80b8d4 <__alt_mem_onchip_mem+0xff78b8d4>
  80b9c4:	10800404 	addi	r2,r2,16
  80b9c8:	20c00044 	addi	r3,r4,1
  80b9cc:	45800015 	stw	r22,0(r8)
  80b9d0:	45400115 	stw	r21,4(r8)
  80b9d4:	d8801c15 	stw	r2,112(sp)
  80b9d8:	d8c01b15 	stw	r3,108(sp)
  80b9dc:	a0fff40e 	bge	r20,r3,80b9b0 <__alt_mem_onchip_mem+0xff78b9b0>
  80b9e0:	1000041e 	bne	r2,zero,80b9f4 <___vfiprintf_internal_r+0xe08>
  80b9e4:	01400044 	movi	r5,1
  80b9e8:	0009883a 	mov	r4,zero
  80b9ec:	d811883a 	mov	r8,sp
  80b9f0:	003ff206 	br	80b9bc <__alt_mem_onchip_mem+0xff78b9bc>
  80b9f4:	d9402117 	ldw	r5,132(sp)
  80b9f8:	d9801a04 	addi	r6,sp,104
  80b9fc:	e009883a 	mov	r4,fp
  80ba00:	080aad80 	call	80aad8 <__sprint_r.part.0>
  80ba04:	103fcd1e 	bne	r2,zero,80b93c <__alt_mem_onchip_mem+0xff78b93c>
  80ba08:	d9001b17 	ldw	r4,108(sp)
  80ba0c:	d8801c17 	ldw	r2,112(sp)
  80ba10:	d811883a 	mov	r8,sp
  80ba14:	21400044 	addi	r5,r4,1
  80ba18:	003fe806 	br	80b9bc <__alt_mem_onchip_mem+0xff78b9bc>
  80ba1c:	d9402117 	ldw	r5,132(sp)
  80ba20:	d9002017 	ldw	r4,128(sp)
  80ba24:	d9801a04 	addi	r6,sp,104
  80ba28:	d9c02b15 	stw	r7,172(sp)
  80ba2c:	db402a15 	stw	r13,168(sp)
  80ba30:	080aad80 	call	80aad8 <__sprint_r.part.0>
  80ba34:	d9c02b17 	ldw	r7,172(sp)
  80ba38:	db402a17 	ldw	r13,168(sp)
  80ba3c:	103fbf1e 	bne	r2,zero,80b93c <__alt_mem_onchip_mem+0xff78b93c>
  80ba40:	d9401b17 	ldw	r5,108(sp)
  80ba44:	d8801c17 	ldw	r2,112(sp)
  80ba48:	d811883a 	mov	r8,sp
  80ba4c:	29800044 	addi	r6,r5,1
  80ba50:	003dc406 	br	80b164 <__alt_mem_onchip_mem+0xff78b164>
  80ba54:	1000d21e 	bne	r2,zero,80bda0 <___vfiprintf_internal_r+0x11b4>
  80ba58:	d8c01d87 	ldb	r3,118(sp)
  80ba5c:	18009526 	beq	r3,zero,80bcb4 <___vfiprintf_internal_r+0x10c8>
  80ba60:	00800044 	movi	r2,1
  80ba64:	d8c01d84 	addi	r3,sp,118
  80ba68:	1009883a 	mov	r4,r2
  80ba6c:	d8c00015 	stw	r3,0(sp)
  80ba70:	d8800115 	stw	r2,4(sp)
  80ba74:	d811883a 	mov	r8,sp
  80ba78:	200b883a 	mov	r5,r4
  80ba7c:	42000204 	addi	r8,r8,8
  80ba80:	21000044 	addi	r4,r4,1
  80ba84:	003d9706 	br	80b0e4 <__alt_mem_onchip_mem+0xff78b0e4>
  80ba88:	d9001d04 	addi	r4,sp,116
  80ba8c:	00800084 	movi	r2,2
  80ba90:	d9000015 	stw	r4,0(sp)
  80ba94:	d8800115 	stw	r2,4(sp)
  80ba98:	1809883a 	mov	r4,r3
  80ba9c:	d811883a 	mov	r8,sp
  80baa0:	200b883a 	mov	r5,r4
  80baa4:	42000204 	addi	r8,r8,8
  80baa8:	21000044 	addi	r4,r4,1
  80baac:	003f4e06 	br	80b7e8 <__alt_mem_onchip_mem+0xff78b7e8>
  80bab0:	d8001d85 	stb	zero,118(sp)
  80bab4:	48005016 	blt	r9,zero,80bbf8 <___vfiprintf_internal_r+0x100c>
  80bab8:	00ffdfc4 	movi	r3,-129
  80babc:	94c4b03a 	or	r2,r18,r19
  80bac0:	a0e8703a 	and	r20,r20,r3
  80bac4:	103d4426 	beq	r2,zero,80afd8 <__alt_mem_onchip_mem+0xff78afd8>
  80bac8:	0039883a 	mov	fp,zero
  80bacc:	d9002617 	ldw	r4,152(sp)
  80bad0:	dd401a04 	addi	r21,sp,104
  80bad4:	908003cc 	andi	r2,r18,15
  80bad8:	9806973a 	slli	r3,r19,28
  80badc:	2085883a 	add	r2,r4,r2
  80bae0:	9024d13a 	srli	r18,r18,4
  80bae4:	10800003 	ldbu	r2,0(r2)
  80bae8:	9826d13a 	srli	r19,r19,4
  80baec:	ad7fffc4 	addi	r21,r21,-1
  80baf0:	1ca4b03a 	or	r18,r3,r18
  80baf4:	a8800005 	stb	r2,0(r21)
  80baf8:	94c4b03a 	or	r2,r18,r19
  80bafc:	103ff51e 	bne	r2,zero,80bad4 <__alt_mem_onchip_mem+0xff78bad4>
  80bb00:	003e5906 	br	80b468 <__alt_mem_onchip_mem+0xff78b468>
  80bb04:	d9402117 	ldw	r5,132(sp)
  80bb08:	d9002017 	ldw	r4,128(sp)
  80bb0c:	d9801a04 	addi	r6,sp,104
  80bb10:	080aad80 	call	80aad8 <__sprint_r.part.0>
  80bb14:	103f891e 	bne	r2,zero,80b93c <__alt_mem_onchip_mem+0xff78b93c>
  80bb18:	d8801c17 	ldw	r2,112(sp)
  80bb1c:	d811883a 	mov	r8,sp
  80bb20:	003f9506 	br	80b978 <__alt_mem_onchip_mem+0xff78b978>
  80bb24:	d9402117 	ldw	r5,132(sp)
  80bb28:	d9002017 	ldw	r4,128(sp)
  80bb2c:	d9801a04 	addi	r6,sp,104
  80bb30:	080aad80 	call	80aad8 <__sprint_r.part.0>
  80bb34:	103f811e 	bne	r2,zero,80b93c <__alt_mem_onchip_mem+0xff78b93c>
  80bb38:	d811883a 	mov	r8,sp
  80bb3c:	003ced06 	br	80aef4 <__alt_mem_onchip_mem+0xff78aef4>
  80bb40:	d9402117 	ldw	r5,132(sp)
  80bb44:	d9002017 	ldw	r4,128(sp)
  80bb48:	d9801a04 	addi	r6,sp,104
  80bb4c:	da402c15 	stw	r9,176(sp)
  80bb50:	db802a15 	stw	r14,168(sp)
  80bb54:	080aad80 	call	80aad8 <__sprint_r.part.0>
  80bb58:	da402c17 	ldw	r9,176(sp)
  80bb5c:	db802a17 	ldw	r14,168(sp)
  80bb60:	103f761e 	bne	r2,zero,80b93c <__alt_mem_onchip_mem+0xff78b93c>
  80bb64:	d9401b17 	ldw	r5,108(sp)
  80bb68:	d8801c17 	ldw	r2,112(sp)
  80bb6c:	d811883a 	mov	r8,sp
  80bb70:	29000044 	addi	r4,r5,1
  80bb74:	003d5b06 	br	80b0e4 <__alt_mem_onchip_mem+0xff78b0e4>
  80bb78:	d9402117 	ldw	r5,132(sp)
  80bb7c:	d9002017 	ldw	r4,128(sp)
  80bb80:	d9801a04 	addi	r6,sp,104
  80bb84:	da402c15 	stw	r9,176(sp)
  80bb88:	080aad80 	call	80aad8 <__sprint_r.part.0>
  80bb8c:	da402c17 	ldw	r9,176(sp)
  80bb90:	103f6a1e 	bne	r2,zero,80b93c <__alt_mem_onchip_mem+0xff78b93c>
  80bb94:	d9401b17 	ldw	r5,108(sp)
  80bb98:	d8801c17 	ldw	r2,112(sp)
  80bb9c:	d811883a 	mov	r8,sp
  80bba0:	29000044 	addi	r4,r5,1
  80bba4:	003f1006 	br	80b7e8 <__alt_mem_onchip_mem+0xff78b7e8>
  80bba8:	1000c31e 	bne	r2,zero,80beb8 <___vfiprintf_internal_r+0x12cc>
  80bbac:	01000044 	movi	r4,1
  80bbb0:	000b883a 	mov	r5,zero
  80bbb4:	d811883a 	mov	r8,sp
  80bbb8:	003f0d06 	br	80b7f0 <__alt_mem_onchip_mem+0xff78b7f0>
  80bbbc:	d9402117 	ldw	r5,132(sp)
  80bbc0:	d9002017 	ldw	r4,128(sp)
  80bbc4:	d9801a04 	addi	r6,sp,104
  80bbc8:	080aad80 	call	80aad8 <__sprint_r.part.0>
  80bbcc:	103f5b1e 	bne	r2,zero,80b93c <__alt_mem_onchip_mem+0xff78b93c>
  80bbd0:	d9001b17 	ldw	r4,108(sp)
  80bbd4:	d8801c17 	ldw	r2,112(sp)
  80bbd8:	d811883a 	mov	r8,sp
  80bbdc:	21000044 	addi	r4,r4,1
  80bbe0:	003d8006 	br	80b1e4 <__alt_mem_onchip_mem+0xff78b1e4>
  80bbe4:	01002074 	movhi	r4,129
  80bbe8:	210f1904 	addi	r4,r4,15460
  80bbec:	d9002615 	stw	r4,152(sp)
  80bbf0:	d8c02215 	stw	r3,136(sp)
  80bbf4:	1029883a 	mov	r20,r2
  80bbf8:	94c4b03a 	or	r2,r18,r19
  80bbfc:	103fb21e 	bne	r2,zero,80bac8 <__alt_mem_onchip_mem+0xff78bac8>
  80bc00:	0039883a 	mov	fp,zero
  80bc04:	00800084 	movi	r2,2
  80bc08:	003e6b06 	br	80b5b8 <__alt_mem_onchip_mem+0xff78b5b8>
  80bc0c:	da802217 	ldw	r10,136(sp)
  80bc10:	d8001d85 	stb	zero,118(sp)
  80bc14:	0027883a 	mov	r19,zero
  80bc18:	50800104 	addi	r2,r10,4
  80bc1c:	54800017 	ldw	r18,0(r10)
  80bc20:	483e6016 	blt	r9,zero,80b5a4 <__alt_mem_onchip_mem+0xff78b5a4>
  80bc24:	00ffdfc4 	movi	r3,-129
  80bc28:	d8802215 	stw	r2,136(sp)
  80bc2c:	a0e8703a 	and	r20,r20,r3
  80bc30:	0039883a 	mov	fp,zero
  80bc34:	903ebb26 	beq	r18,zero,80b724 <__alt_mem_onchip_mem+0xff78b724>
  80bc38:	00800244 	movi	r2,9
  80bc3c:	14bdee36 	bltu	r2,r18,80b3f8 <__alt_mem_onchip_mem+0xff78b3f8>
  80bc40:	003eba06 	br	80b72c <__alt_mem_onchip_mem+0xff78b72c>
  80bc44:	00800c04 	movi	r2,48
  80bc48:	d8c01d45 	stb	r3,117(sp)
  80bc4c:	d8801d05 	stb	r2,116(sp)
  80bc50:	d8001d85 	stb	zero,118(sp)
  80bc54:	a0c00094 	ori	r3,r20,2
  80bc58:	4800a916 	blt	r9,zero,80bf00 <___vfiprintf_internal_r+0x1314>
  80bc5c:	00bfdfc4 	movi	r2,-129
  80bc60:	a096703a 	and	r11,r20,r2
  80bc64:	5d000094 	ori	r20,r11,2
  80bc68:	0039883a 	mov	fp,zero
  80bc6c:	003f9706 	br	80bacc <__alt_mem_onchip_mem+0xff78bacc>
  80bc70:	8025883a 	mov	r18,r16
  80bc74:	003c2e06 	br	80ad30 <__alt_mem_onchip_mem+0xff78ad30>
  80bc78:	00802074 	movhi	r2,129
  80bc7c:	108f1904 	addi	r2,r2,15460
  80bc80:	0039883a 	mov	fp,zero
  80bc84:	d8802615 	stw	r2,152(sp)
  80bc88:	003f9006 	br	80bacc <__alt_mem_onchip_mem+0xff78bacc>
  80bc8c:	04a5c83a 	sub	r18,zero,r18
  80bc90:	07000b44 	movi	fp,45
  80bc94:	9004c03a 	cmpne	r2,r18,zero
  80bc98:	04e7c83a 	sub	r19,zero,r19
  80bc9c:	df001d85 	stb	fp,118(sp)
  80bca0:	98a7c83a 	sub	r19,r19,r2
  80bca4:	48009f16 	blt	r9,zero,80bf24 <___vfiprintf_internal_r+0x1338>
  80bca8:	00bfdfc4 	movi	r2,-129
  80bcac:	a0a8703a 	and	r20,r20,r2
  80bcb0:	003dd006 	br	80b3f4 <__alt_mem_onchip_mem+0xff78b3f4>
  80bcb4:	70004c26 	beq	r14,zero,80bde8 <___vfiprintf_internal_r+0x11fc>
  80bcb8:	00800084 	movi	r2,2
  80bcbc:	d8c01d04 	addi	r3,sp,116
  80bcc0:	d8c00015 	stw	r3,0(sp)
  80bcc4:	d8800115 	stw	r2,4(sp)
  80bcc8:	01000044 	movi	r4,1
  80bccc:	d811883a 	mov	r8,sp
  80bcd0:	003f7306 	br	80baa0 <__alt_mem_onchip_mem+0xff78baa0>
  80bcd4:	a080100c 	andi	r2,r20,64
  80bcd8:	da802217 	ldw	r10,136(sp)
  80bcdc:	103e0626 	beq	r2,zero,80b4f8 <__alt_mem_onchip_mem+0xff78b4f8>
  80bce0:	5480000f 	ldh	r18,0(r10)
  80bce4:	52800104 	addi	r10,r10,4
  80bce8:	da802215 	stw	r10,136(sp)
  80bcec:	9027d7fa 	srai	r19,r18,31
  80bcf0:	9805883a 	mov	r2,r19
  80bcf4:	003db806 	br	80b3d8 <__alt_mem_onchip_mem+0xff78b3d8>
  80bcf8:	a080040c 	andi	r2,r20,16
  80bcfc:	1000091e 	bne	r2,zero,80bd24 <___vfiprintf_internal_r+0x1138>
  80bd00:	a2c0100c 	andi	r11,r20,64
  80bd04:	58000726 	beq	r11,zero,80bd24 <___vfiprintf_internal_r+0x1138>
  80bd08:	da802217 	ldw	r10,136(sp)
  80bd0c:	50800017 	ldw	r2,0(r10)
  80bd10:	52800104 	addi	r10,r10,4
  80bd14:	da802215 	stw	r10,136(sp)
  80bd18:	da802317 	ldw	r10,140(sp)
  80bd1c:	1280000d 	sth	r10,0(r2)
  80bd20:	003be706 	br	80acc0 <__alt_mem_onchip_mem+0xff78acc0>
  80bd24:	da802217 	ldw	r10,136(sp)
  80bd28:	50800017 	ldw	r2,0(r10)
  80bd2c:	52800104 	addi	r10,r10,4
  80bd30:	da802215 	stw	r10,136(sp)
  80bd34:	da802317 	ldw	r10,140(sp)
  80bd38:	12800015 	stw	r10,0(r2)
  80bd3c:	003be006 	br	80acc0 <__alt_mem_onchip_mem+0xff78acc0>
  80bd40:	a080100c 	andi	r2,r20,64
  80bd44:	da802217 	ldw	r10,136(sp)
  80bd48:	10003026 	beq	r2,zero,80be0c <___vfiprintf_internal_r+0x1220>
  80bd4c:	5480000b 	ldhu	r18,0(r10)
  80bd50:	52800104 	addi	r10,r10,4
  80bd54:	0027883a 	mov	r19,zero
  80bd58:	da802215 	stw	r10,136(sp)
  80bd5c:	003d8006 	br	80b360 <__alt_mem_onchip_mem+0xff78b360>
  80bd60:	80c00007 	ldb	r3,0(r16)
  80bd64:	003c0006 	br	80ad68 <__alt_mem_onchip_mem+0xff78ad68>
  80bd68:	a080100c 	andi	r2,r20,64
  80bd6c:	d8001d85 	stb	zero,118(sp)
  80bd70:	da802217 	ldw	r10,136(sp)
  80bd74:	1000201e 	bne	r2,zero,80bdf8 <___vfiprintf_internal_r+0x120c>
  80bd78:	50800104 	addi	r2,r10,4
  80bd7c:	54800017 	ldw	r18,0(r10)
  80bd80:	0027883a 	mov	r19,zero
  80bd84:	483def0e 	bge	r9,zero,80b544 <__alt_mem_onchip_mem+0xff78b544>
  80bd88:	94c6b03a 	or	r3,r18,r19
  80bd8c:	d8802215 	stw	r2,136(sp)
  80bd90:	183d4e1e 	bne	r3,zero,80b2cc <__alt_mem_onchip_mem+0xff78b2cc>
  80bd94:	0039883a 	mov	fp,zero
  80bd98:	0005883a 	mov	r2,zero
  80bd9c:	003e0606 	br	80b5b8 <__alt_mem_onchip_mem+0xff78b5b8>
  80bda0:	d9402117 	ldw	r5,132(sp)
  80bda4:	d9002017 	ldw	r4,128(sp)
  80bda8:	d9801a04 	addi	r6,sp,104
  80bdac:	da402c15 	stw	r9,176(sp)
  80bdb0:	db802a15 	stw	r14,168(sp)
  80bdb4:	080aad80 	call	80aad8 <__sprint_r.part.0>
  80bdb8:	da402c17 	ldw	r9,176(sp)
  80bdbc:	db802a17 	ldw	r14,168(sp)
  80bdc0:	103ede1e 	bne	r2,zero,80b93c <__alt_mem_onchip_mem+0xff78b93c>
  80bdc4:	d9401b17 	ldw	r5,108(sp)
  80bdc8:	d8801c17 	ldw	r2,112(sp)
  80bdcc:	d811883a 	mov	r8,sp
  80bdd0:	29000044 	addi	r4,r5,1
  80bdd4:	003e7406 	br	80b7a8 <__alt_mem_onchip_mem+0xff78b7a8>
  80bdd8:	00bfffc4 	movi	r2,-1
  80bddc:	003c5806 	br	80af40 <__alt_mem_onchip_mem+0xff78af40>
  80bde0:	d811883a 	mov	r8,sp
  80bde4:	003ee806 	br	80b988 <__alt_mem_onchip_mem+0xff78b988>
  80bde8:	000b883a 	mov	r5,zero
  80bdec:	01000044 	movi	r4,1
  80bdf0:	d811883a 	mov	r8,sp
  80bdf4:	003e7c06 	br	80b7e8 <__alt_mem_onchip_mem+0xff78b7e8>
  80bdf8:	50800104 	addi	r2,r10,4
  80bdfc:	5480000b 	ldhu	r18,0(r10)
  80be00:	0027883a 	mov	r19,zero
  80be04:	483dcf0e 	bge	r9,zero,80b544 <__alt_mem_onchip_mem+0xff78b544>
  80be08:	003fdf06 	br	80bd88 <__alt_mem_onchip_mem+0xff78bd88>
  80be0c:	54800017 	ldw	r18,0(r10)
  80be10:	52800104 	addi	r10,r10,4
  80be14:	0027883a 	mov	r19,zero
  80be18:	da802215 	stw	r10,136(sp)
  80be1c:	003d5006 	br	80b360 <__alt_mem_onchip_mem+0xff78b360>
  80be20:	50800104 	addi	r2,r10,4
  80be24:	5480000b 	ldhu	r18,0(r10)
  80be28:	0027883a 	mov	r19,zero
  80be2c:	483f7d0e 	bge	r9,zero,80bc24 <__alt_mem_onchip_mem+0xff78bc24>
  80be30:	003ddc06 	br	80b5a4 <__alt_mem_onchip_mem+0xff78b5a4>
  80be34:	d8c02215 	stw	r3,136(sp)
  80be38:	0039883a 	mov	fp,zero
  80be3c:	003ddb06 	br	80b5ac <__alt_mem_onchip_mem+0xff78b5ac>
  80be40:	02802074 	movhi	r10,129
  80be44:	528f7904 	addi	r10,r10,15844
  80be48:	da802415 	stw	r10,144(sp)
  80be4c:	003e8306 	br	80b85c <__alt_mem_onchip_mem+0xff78b85c>
  80be50:	d8801c17 	ldw	r2,112(sp)
  80be54:	dd002117 	ldw	r20,132(sp)
  80be58:	103eb926 	beq	r2,zero,80b940 <__alt_mem_onchip_mem+0xff78b940>
  80be5c:	d9002017 	ldw	r4,128(sp)
  80be60:	d9801a04 	addi	r6,sp,104
  80be64:	a00b883a 	mov	r5,r20
  80be68:	080aad80 	call	80aad8 <__sprint_r.part.0>
  80be6c:	003eb406 	br	80b940 <__alt_mem_onchip_mem+0xff78b940>
  80be70:	80c00043 	ldbu	r3,1(r16)
  80be74:	a5000814 	ori	r20,r20,32
  80be78:	84000044 	addi	r16,r16,1
  80be7c:	18c03fcc 	andi	r3,r3,255
  80be80:	18c0201c 	xori	r3,r3,128
  80be84:	18ffe004 	addi	r3,r3,-128
  80be88:	003bb706 	br	80ad68 <__alt_mem_onchip_mem+0xff78ad68>
  80be8c:	a809883a 	mov	r4,r21
  80be90:	d8c02a15 	stw	r3,168(sp)
  80be94:	da002b15 	stw	r8,172(sp)
  80be98:	0804a4c0 	call	804a4c <strlen>
  80be9c:	d8c02a17 	ldw	r3,168(sp)
  80bea0:	1027883a 	mov	r19,r2
  80bea4:	df001d83 	ldbu	fp,118(sp)
  80bea8:	d8c02215 	stw	r3,136(sp)
  80beac:	0013883a 	mov	r9,zero
  80beb0:	da002b17 	ldw	r8,172(sp)
  80beb4:	003c4d06 	br	80afec <__alt_mem_onchip_mem+0xff78afec>
  80beb8:	d9402117 	ldw	r5,132(sp)
  80bebc:	d9002017 	ldw	r4,128(sp)
  80bec0:	d9801a04 	addi	r6,sp,104
  80bec4:	da402c15 	stw	r9,176(sp)
  80bec8:	080aad80 	call	80aad8 <__sprint_r.part.0>
  80becc:	da402c17 	ldw	r9,176(sp)
  80bed0:	103e9a1e 	bne	r2,zero,80b93c <__alt_mem_onchip_mem+0xff78b93c>
  80bed4:	d9401b17 	ldw	r5,108(sp)
  80bed8:	d8801c17 	ldw	r2,112(sp)
  80bedc:	d811883a 	mov	r8,sp
  80bee0:	29000044 	addi	r4,r5,1
  80bee4:	003e4206 	br	80b7f0 <__alt_mem_onchip_mem+0xff78b7f0>
  80bee8:	d9401b17 	ldw	r5,108(sp)
  80beec:	01002074 	movhi	r4,129
  80bef0:	210f7d04 	addi	r4,r4,15860
  80bef4:	d9002415 	stw	r4,144(sp)
  80bef8:	29400044 	addi	r5,r5,1
  80befc:	003c6d06 	br	80b0b4 <__alt_mem_onchip_mem+0xff78b0b4>
  80bf00:	0039883a 	mov	fp,zero
  80bf04:	00800084 	movi	r2,2
  80bf08:	10803fcc 	andi	r2,r2,255
  80bf0c:	01000044 	movi	r4,1
  80bf10:	11001e26 	beq	r2,r4,80bf8c <___vfiprintf_internal_r+0x13a0>
  80bf14:	01000084 	movi	r4,2
  80bf18:	11001e1e 	bne	r2,r4,80bf94 <___vfiprintf_internal_r+0x13a8>
  80bf1c:	1829883a 	mov	r20,r3
  80bf20:	003eea06 	br	80bacc <__alt_mem_onchip_mem+0xff78bacc>
  80bf24:	a007883a 	mov	r3,r20
  80bf28:	00800044 	movi	r2,1
  80bf2c:	003ff606 	br	80bf08 <__alt_mem_onchip_mem+0xff78bf08>
  80bf30:	00800184 	movi	r2,6
  80bf34:	1240012e 	bgeu	r2,r9,80bf3c <___vfiprintf_internal_r+0x1350>
  80bf38:	1013883a 	mov	r9,r2
  80bf3c:	4827883a 	mov	r19,r9
  80bf40:	4825883a 	mov	r18,r9
  80bf44:	48001516 	blt	r9,zero,80bf9c <___vfiprintf_internal_r+0x13b0>
  80bf48:	05402074 	movhi	r21,129
  80bf4c:	d8c02215 	stw	r3,136(sp)
  80bf50:	ad4f1e04 	addi	r21,r21,15480
  80bf54:	003d1406 	br	80b3a8 <__alt_mem_onchip_mem+0xff78b3a8>
  80bf58:	02802074 	movhi	r10,129
  80bf5c:	528f7904 	addi	r10,r10,15844
  80bf60:	da802415 	stw	r10,144(sp)
  80bf64:	200d883a 	mov	r6,r4
  80bf68:	003c9106 	br	80b1b0 <__alt_mem_onchip_mem+0xff78b1b0>
  80bf6c:	5021883a 	mov	r16,r10
  80bf70:	0013883a 	mov	r9,zero
  80bf74:	003b7d06 	br	80ad6c <__alt_mem_onchip_mem+0xff78ad6c>
  80bf78:	4827883a 	mov	r19,r9
  80bf7c:	df001d83 	ldbu	fp,118(sp)
  80bf80:	d8c02215 	stw	r3,136(sp)
  80bf84:	0013883a 	mov	r9,zero
  80bf88:	003c1806 	br	80afec <__alt_mem_onchip_mem+0xff78afec>
  80bf8c:	1829883a 	mov	r20,r3
  80bf90:	003d1806 	br	80b3f4 <__alt_mem_onchip_mem+0xff78b3f4>
  80bf94:	1829883a 	mov	r20,r3
  80bf98:	003ccd06 	br	80b2d0 <__alt_mem_onchip_mem+0xff78b2d0>
  80bf9c:	0025883a 	mov	r18,zero
  80bfa0:	003fe906 	br	80bf48 <__alt_mem_onchip_mem+0xff78bf48>
  80bfa4:	d8802217 	ldw	r2,136(sp)
  80bfa8:	80c00043 	ldbu	r3,1(r16)
  80bfac:	5021883a 	mov	r16,r10
  80bfb0:	12400017 	ldw	r9,0(r2)
  80bfb4:	10800104 	addi	r2,r2,4
  80bfb8:	d8802215 	stw	r2,136(sp)
  80bfbc:	483faf0e 	bge	r9,zero,80be7c <__alt_mem_onchip_mem+0xff78be7c>
  80bfc0:	18c03fcc 	andi	r3,r3,255
  80bfc4:	18c0201c 	xori	r3,r3,128
  80bfc8:	027fffc4 	movi	r9,-1
  80bfcc:	18ffe004 	addi	r3,r3,-128
  80bfd0:	003b6506 	br	80ad68 <__alt_mem_onchip_mem+0xff78ad68>
  80bfd4:	d9c01d85 	stb	r7,118(sp)
  80bfd8:	003ca006 	br	80b25c <__alt_mem_onchip_mem+0xff78b25c>
  80bfdc:	d9c01d85 	stb	r7,118(sp)
  80bfe0:	003cad06 	br	80b298 <__alt_mem_onchip_mem+0xff78b298>
  80bfe4:	d9c01d85 	stb	r7,118(sp)
  80bfe8:	003d7d06 	br	80b5e0 <__alt_mem_onchip_mem+0xff78b5e0>
  80bfec:	d9c01d85 	stb	r7,118(sp)
  80bff0:	003d5f06 	br	80b570 <__alt_mem_onchip_mem+0xff78b570>
  80bff4:	a080004c 	andi	r2,r20,1
  80bff8:	0039883a 	mov	fp,zero
  80bffc:	10000526 	beq	r2,zero,80c014 <___vfiprintf_internal_r+0x1428>
  80c000:	00800c04 	movi	r2,48
  80c004:	d88019c5 	stb	r2,103(sp)
  80c008:	dcc02717 	ldw	r19,156(sp)
  80c00c:	dd4019c4 	addi	r21,sp,103
  80c010:	003bf606 	br	80afec <__alt_mem_onchip_mem+0xff78afec>
  80c014:	0027883a 	mov	r19,zero
  80c018:	dd401a04 	addi	r21,sp,104
  80c01c:	003bf306 	br	80afec <__alt_mem_onchip_mem+0xff78afec>
  80c020:	d9c01d85 	stb	r7,118(sp)
  80c024:	003dc806 	br	80b748 <__alt_mem_onchip_mem+0xff78b748>
  80c028:	d9c01d85 	stb	r7,118(sp)
  80c02c:	003d3a06 	br	80b518 <__alt_mem_onchip_mem+0xff78b518>
  80c030:	d9c01d85 	stb	r7,118(sp)
  80c034:	003d2a06 	br	80b4e0 <__alt_mem_onchip_mem+0xff78b4e0>
  80c038:	d9c01d85 	stb	r7,118(sp)
  80c03c:	003cde06 	br	80b3b8 <__alt_mem_onchip_mem+0xff78b3b8>
  80c040:	d9c01d85 	stb	r7,118(sp)
  80c044:	003cbc06 	br	80b338 <__alt_mem_onchip_mem+0xff78b338>

0080c048 <__vfiprintf_internal>:
  80c048:	00802074 	movhi	r2,129
  80c04c:	10979804 	addi	r2,r2,24160
  80c050:	300f883a 	mov	r7,r6
  80c054:	280d883a 	mov	r6,r5
  80c058:	200b883a 	mov	r5,r4
  80c05c:	11000017 	ldw	r4,0(r2)
  80c060:	080abec1 	jmpi	80abec <___vfiprintf_internal_r>

0080c064 <__sbprintf>:
  80c064:	2880030b 	ldhu	r2,12(r5)
  80c068:	2ac01917 	ldw	r11,100(r5)
  80c06c:	2a80038b 	ldhu	r10,14(r5)
  80c070:	2a400717 	ldw	r9,28(r5)
  80c074:	2a000917 	ldw	r8,36(r5)
  80c078:	defee204 	addi	sp,sp,-1144
  80c07c:	00c10004 	movi	r3,1024
  80c080:	dc011a15 	stw	r16,1128(sp)
  80c084:	10bfff4c 	andi	r2,r2,65533
  80c088:	2821883a 	mov	r16,r5
  80c08c:	d8cb883a 	add	r5,sp,r3
  80c090:	dc811c15 	stw	r18,1136(sp)
  80c094:	dc411b15 	stw	r17,1132(sp)
  80c098:	dfc11d15 	stw	ra,1140(sp)
  80c09c:	2025883a 	mov	r18,r4
  80c0a0:	d881030d 	sth	r2,1036(sp)
  80c0a4:	dac11915 	stw	r11,1124(sp)
  80c0a8:	da81038d 	sth	r10,1038(sp)
  80c0ac:	da410715 	stw	r9,1052(sp)
  80c0b0:	da010915 	stw	r8,1060(sp)
  80c0b4:	dec10015 	stw	sp,1024(sp)
  80c0b8:	dec10415 	stw	sp,1040(sp)
  80c0bc:	d8c10215 	stw	r3,1032(sp)
  80c0c0:	d8c10515 	stw	r3,1044(sp)
  80c0c4:	d8010615 	stw	zero,1048(sp)
  80c0c8:	080abec0 	call	80abec <___vfiprintf_internal_r>
  80c0cc:	1023883a 	mov	r17,r2
  80c0d0:	10000416 	blt	r2,zero,80c0e4 <__sbprintf+0x80>
  80c0d4:	d9410004 	addi	r5,sp,1024
  80c0d8:	9009883a 	mov	r4,r18
  80c0dc:	08029200 	call	802920 <_fflush_r>
  80c0e0:	10000d1e 	bne	r2,zero,80c118 <__sbprintf+0xb4>
  80c0e4:	d881030b 	ldhu	r2,1036(sp)
  80c0e8:	1080100c 	andi	r2,r2,64
  80c0ec:	10000326 	beq	r2,zero,80c0fc <__sbprintf+0x98>
  80c0f0:	8080030b 	ldhu	r2,12(r16)
  80c0f4:	10801014 	ori	r2,r2,64
  80c0f8:	8080030d 	sth	r2,12(r16)
  80c0fc:	8805883a 	mov	r2,r17
  80c100:	dfc11d17 	ldw	ra,1140(sp)
  80c104:	dc811c17 	ldw	r18,1136(sp)
  80c108:	dc411b17 	ldw	r17,1132(sp)
  80c10c:	dc011a17 	ldw	r16,1128(sp)
  80c110:	dec11e04 	addi	sp,sp,1144
  80c114:	f800283a 	ret
  80c118:	047fffc4 	movi	r17,-1
  80c11c:	003ff106 	br	80c0e4 <__alt_mem_onchip_mem+0xff78c0e4>

0080c120 <_calloc_r>:
  80c120:	298b383a 	mul	r5,r5,r6
  80c124:	defffe04 	addi	sp,sp,-8
  80c128:	dfc00115 	stw	ra,4(sp)
  80c12c:	dc000015 	stw	r16,0(sp)
  80c130:	0803bf80 	call	803bf8 <_malloc_r>
  80c134:	10002926 	beq	r2,zero,80c1dc <_calloc_r+0xbc>
  80c138:	11bfff17 	ldw	r6,-4(r2)
  80c13c:	1021883a 	mov	r16,r2
  80c140:	00bfff04 	movi	r2,-4
  80c144:	308c703a 	and	r6,r6,r2
  80c148:	00c00904 	movi	r3,36
  80c14c:	308d883a 	add	r6,r6,r2
  80c150:	19801636 	bltu	r3,r6,80c1ac <_calloc_r+0x8c>
  80c154:	008004c4 	movi	r2,19
  80c158:	11800b2e 	bgeu	r2,r6,80c188 <_calloc_r+0x68>
  80c15c:	80000015 	stw	zero,0(r16)
  80c160:	80000115 	stw	zero,4(r16)
  80c164:	008006c4 	movi	r2,27
  80c168:	11801a2e 	bgeu	r2,r6,80c1d4 <_calloc_r+0xb4>
  80c16c:	80000215 	stw	zero,8(r16)
  80c170:	80000315 	stw	zero,12(r16)
  80c174:	30c0151e 	bne	r6,r3,80c1cc <_calloc_r+0xac>
  80c178:	80000415 	stw	zero,16(r16)
  80c17c:	80800604 	addi	r2,r16,24
  80c180:	80000515 	stw	zero,20(r16)
  80c184:	00000106 	br	80c18c <_calloc_r+0x6c>
  80c188:	8005883a 	mov	r2,r16
  80c18c:	10000015 	stw	zero,0(r2)
  80c190:	10000115 	stw	zero,4(r2)
  80c194:	10000215 	stw	zero,8(r2)
  80c198:	8005883a 	mov	r2,r16
  80c19c:	dfc00117 	ldw	ra,4(sp)
  80c1a0:	dc000017 	ldw	r16,0(sp)
  80c1a4:	dec00204 	addi	sp,sp,8
  80c1a8:	f800283a 	ret
  80c1ac:	000b883a 	mov	r5,zero
  80c1b0:	8009883a 	mov	r4,r16
  80c1b4:	08044040 	call	804404 <memset>
  80c1b8:	8005883a 	mov	r2,r16
  80c1bc:	dfc00117 	ldw	ra,4(sp)
  80c1c0:	dc000017 	ldw	r16,0(sp)
  80c1c4:	dec00204 	addi	sp,sp,8
  80c1c8:	f800283a 	ret
  80c1cc:	80800404 	addi	r2,r16,16
  80c1d0:	003fee06 	br	80c18c <__alt_mem_onchip_mem+0xff78c18c>
  80c1d4:	80800204 	addi	r2,r16,8
  80c1d8:	003fec06 	br	80c18c <__alt_mem_onchip_mem+0xff78c18c>
  80c1dc:	0005883a 	mov	r2,zero
  80c1e0:	003fee06 	br	80c19c <__alt_mem_onchip_mem+0xff78c19c>

0080c1e4 <__fputwc>:
  80c1e4:	defff804 	addi	sp,sp,-32
  80c1e8:	dcc00415 	stw	r19,16(sp)
  80c1ec:	dc800315 	stw	r18,12(sp)
  80c1f0:	dc000115 	stw	r16,4(sp)
  80c1f4:	dfc00715 	stw	ra,28(sp)
  80c1f8:	dd400615 	stw	r21,24(sp)
  80c1fc:	dd000515 	stw	r20,20(sp)
  80c200:	dc400215 	stw	r17,8(sp)
  80c204:	2027883a 	mov	r19,r4
  80c208:	2825883a 	mov	r18,r5
  80c20c:	3021883a 	mov	r16,r6
  80c210:	0808f8c0 	call	808f8c <__locale_mb_cur_max>
  80c214:	00c00044 	movi	r3,1
  80c218:	10c03e26 	beq	r2,r3,80c314 <__fputwc+0x130>
  80c21c:	81c01704 	addi	r7,r16,92
  80c220:	900d883a 	mov	r6,r18
  80c224:	d80b883a 	mov	r5,sp
  80c228:	9809883a 	mov	r4,r19
  80c22c:	080c5440 	call	80c544 <_wcrtomb_r>
  80c230:	1029883a 	mov	r20,r2
  80c234:	00bfffc4 	movi	r2,-1
  80c238:	a0802026 	beq	r20,r2,80c2bc <__fputwc+0xd8>
  80c23c:	d9400003 	ldbu	r5,0(sp)
  80c240:	a0001c26 	beq	r20,zero,80c2b4 <__fputwc+0xd0>
  80c244:	0023883a 	mov	r17,zero
  80c248:	05400284 	movi	r21,10
  80c24c:	00000906 	br	80c274 <__fputwc+0x90>
  80c250:	80800017 	ldw	r2,0(r16)
  80c254:	11400005 	stb	r5,0(r2)
  80c258:	80c00017 	ldw	r3,0(r16)
  80c25c:	18c00044 	addi	r3,r3,1
  80c260:	80c00015 	stw	r3,0(r16)
  80c264:	8c400044 	addi	r17,r17,1
  80c268:	dc45883a 	add	r2,sp,r17
  80c26c:	8d00112e 	bgeu	r17,r20,80c2b4 <__fputwc+0xd0>
  80c270:	11400003 	ldbu	r5,0(r2)
  80c274:	80c00217 	ldw	r3,8(r16)
  80c278:	18ffffc4 	addi	r3,r3,-1
  80c27c:	80c00215 	stw	r3,8(r16)
  80c280:	183ff30e 	bge	r3,zero,80c250 <__alt_mem_onchip_mem+0xff78c250>
  80c284:	80800617 	ldw	r2,24(r16)
  80c288:	18801916 	blt	r3,r2,80c2f0 <__fputwc+0x10c>
  80c28c:	80800017 	ldw	r2,0(r16)
  80c290:	11400005 	stb	r5,0(r2)
  80c294:	80800017 	ldw	r2,0(r16)
  80c298:	10c00003 	ldbu	r3,0(r2)
  80c29c:	10800044 	addi	r2,r2,1
  80c2a0:	1d402326 	beq	r3,r21,80c330 <__fputwc+0x14c>
  80c2a4:	80800015 	stw	r2,0(r16)
  80c2a8:	8c400044 	addi	r17,r17,1
  80c2ac:	dc45883a 	add	r2,sp,r17
  80c2b0:	8d3fef36 	bltu	r17,r20,80c270 <__alt_mem_onchip_mem+0xff78c270>
  80c2b4:	9005883a 	mov	r2,r18
  80c2b8:	00000406 	br	80c2cc <__fputwc+0xe8>
  80c2bc:	80c0030b 	ldhu	r3,12(r16)
  80c2c0:	a005883a 	mov	r2,r20
  80c2c4:	18c01014 	ori	r3,r3,64
  80c2c8:	80c0030d 	sth	r3,12(r16)
  80c2cc:	dfc00717 	ldw	ra,28(sp)
  80c2d0:	dd400617 	ldw	r21,24(sp)
  80c2d4:	dd000517 	ldw	r20,20(sp)
  80c2d8:	dcc00417 	ldw	r19,16(sp)
  80c2dc:	dc800317 	ldw	r18,12(sp)
  80c2e0:	dc400217 	ldw	r17,8(sp)
  80c2e4:	dc000117 	ldw	r16,4(sp)
  80c2e8:	dec00804 	addi	sp,sp,32
  80c2ec:	f800283a 	ret
  80c2f0:	800d883a 	mov	r6,r16
  80c2f4:	29403fcc 	andi	r5,r5,255
  80c2f8:	9809883a 	mov	r4,r19
  80c2fc:	080c3ec0 	call	80c3ec <__swbuf_r>
  80c300:	10bfffe0 	cmpeqi	r2,r2,-1
  80c304:	10803fcc 	andi	r2,r2,255
  80c308:	103fd626 	beq	r2,zero,80c264 <__alt_mem_onchip_mem+0xff78c264>
  80c30c:	00bfffc4 	movi	r2,-1
  80c310:	003fee06 	br	80c2cc <__alt_mem_onchip_mem+0xff78c2cc>
  80c314:	90ffffc4 	addi	r3,r18,-1
  80c318:	01003f84 	movi	r4,254
  80c31c:	20ffbf36 	bltu	r4,r3,80c21c <__alt_mem_onchip_mem+0xff78c21c>
  80c320:	900b883a 	mov	r5,r18
  80c324:	dc800005 	stb	r18,0(sp)
  80c328:	1029883a 	mov	r20,r2
  80c32c:	003fc506 	br	80c244 <__alt_mem_onchip_mem+0xff78c244>
  80c330:	800d883a 	mov	r6,r16
  80c334:	a80b883a 	mov	r5,r21
  80c338:	9809883a 	mov	r4,r19
  80c33c:	080c3ec0 	call	80c3ec <__swbuf_r>
  80c340:	10bfffe0 	cmpeqi	r2,r2,-1
  80c344:	003fef06 	br	80c304 <__alt_mem_onchip_mem+0xff78c304>

0080c348 <_fputwc_r>:
  80c348:	3080030b 	ldhu	r2,12(r6)
  80c34c:	10c8000c 	andi	r3,r2,8192
  80c350:	1800051e 	bne	r3,zero,80c368 <_fputwc_r+0x20>
  80c354:	30c01917 	ldw	r3,100(r6)
  80c358:	10880014 	ori	r2,r2,8192
  80c35c:	3080030d 	sth	r2,12(r6)
  80c360:	18880014 	ori	r2,r3,8192
  80c364:	30801915 	stw	r2,100(r6)
  80c368:	080c1e41 	jmpi	80c1e4 <__fputwc>

0080c36c <fputwc>:
  80c36c:	00802074 	movhi	r2,129
  80c370:	defffc04 	addi	sp,sp,-16
  80c374:	10979804 	addi	r2,r2,24160
  80c378:	dc000115 	stw	r16,4(sp)
  80c37c:	14000017 	ldw	r16,0(r2)
  80c380:	dc400215 	stw	r17,8(sp)
  80c384:	dfc00315 	stw	ra,12(sp)
  80c388:	2023883a 	mov	r17,r4
  80c38c:	80000226 	beq	r16,zero,80c398 <fputwc+0x2c>
  80c390:	80800e17 	ldw	r2,56(r16)
  80c394:	10001026 	beq	r2,zero,80c3d8 <fputwc+0x6c>
  80c398:	2880030b 	ldhu	r2,12(r5)
  80c39c:	10c8000c 	andi	r3,r2,8192
  80c3a0:	1800051e 	bne	r3,zero,80c3b8 <fputwc+0x4c>
  80c3a4:	28c01917 	ldw	r3,100(r5)
  80c3a8:	10880014 	ori	r2,r2,8192
  80c3ac:	2880030d 	sth	r2,12(r5)
  80c3b0:	18880014 	ori	r2,r3,8192
  80c3b4:	28801915 	stw	r2,100(r5)
  80c3b8:	280d883a 	mov	r6,r5
  80c3bc:	8009883a 	mov	r4,r16
  80c3c0:	880b883a 	mov	r5,r17
  80c3c4:	dfc00317 	ldw	ra,12(sp)
  80c3c8:	dc400217 	ldw	r17,8(sp)
  80c3cc:	dc000117 	ldw	r16,4(sp)
  80c3d0:	dec00404 	addi	sp,sp,16
  80c3d4:	080c1e41 	jmpi	80c1e4 <__fputwc>
  80c3d8:	8009883a 	mov	r4,r16
  80c3dc:	d9400015 	stw	r5,0(sp)
  80c3e0:	0802cfc0 	call	802cfc <__sinit>
  80c3e4:	d9400017 	ldw	r5,0(sp)
  80c3e8:	003feb06 	br	80c398 <__alt_mem_onchip_mem+0xff78c398>

0080c3ec <__swbuf_r>:
  80c3ec:	defffb04 	addi	sp,sp,-20
  80c3f0:	dcc00315 	stw	r19,12(sp)
  80c3f4:	dc800215 	stw	r18,8(sp)
  80c3f8:	dc000015 	stw	r16,0(sp)
  80c3fc:	dfc00415 	stw	ra,16(sp)
  80c400:	dc400115 	stw	r17,4(sp)
  80c404:	2025883a 	mov	r18,r4
  80c408:	2827883a 	mov	r19,r5
  80c40c:	3021883a 	mov	r16,r6
  80c410:	20000226 	beq	r4,zero,80c41c <__swbuf_r+0x30>
  80c414:	20800e17 	ldw	r2,56(r4)
  80c418:	10004226 	beq	r2,zero,80c524 <__swbuf_r+0x138>
  80c41c:	80800617 	ldw	r2,24(r16)
  80c420:	8100030b 	ldhu	r4,12(r16)
  80c424:	80800215 	stw	r2,8(r16)
  80c428:	2080020c 	andi	r2,r4,8
  80c42c:	10003626 	beq	r2,zero,80c508 <__swbuf_r+0x11c>
  80c430:	80c00417 	ldw	r3,16(r16)
  80c434:	18003426 	beq	r3,zero,80c508 <__swbuf_r+0x11c>
  80c438:	2088000c 	andi	r2,r4,8192
  80c43c:	9c403fcc 	andi	r17,r19,255
  80c440:	10001a26 	beq	r2,zero,80c4ac <__swbuf_r+0xc0>
  80c444:	80800017 	ldw	r2,0(r16)
  80c448:	81000517 	ldw	r4,20(r16)
  80c44c:	10c7c83a 	sub	r3,r2,r3
  80c450:	1900200e 	bge	r3,r4,80c4d4 <__swbuf_r+0xe8>
  80c454:	18c00044 	addi	r3,r3,1
  80c458:	81000217 	ldw	r4,8(r16)
  80c45c:	11400044 	addi	r5,r2,1
  80c460:	81400015 	stw	r5,0(r16)
  80c464:	213fffc4 	addi	r4,r4,-1
  80c468:	81000215 	stw	r4,8(r16)
  80c46c:	14c00005 	stb	r19,0(r2)
  80c470:	80800517 	ldw	r2,20(r16)
  80c474:	10c01e26 	beq	r2,r3,80c4f0 <__swbuf_r+0x104>
  80c478:	8080030b 	ldhu	r2,12(r16)
  80c47c:	1080004c 	andi	r2,r2,1
  80c480:	10000226 	beq	r2,zero,80c48c <__swbuf_r+0xa0>
  80c484:	00800284 	movi	r2,10
  80c488:	88801926 	beq	r17,r2,80c4f0 <__swbuf_r+0x104>
  80c48c:	8805883a 	mov	r2,r17
  80c490:	dfc00417 	ldw	ra,16(sp)
  80c494:	dcc00317 	ldw	r19,12(sp)
  80c498:	dc800217 	ldw	r18,8(sp)
  80c49c:	dc400117 	ldw	r17,4(sp)
  80c4a0:	dc000017 	ldw	r16,0(sp)
  80c4a4:	dec00504 	addi	sp,sp,20
  80c4a8:	f800283a 	ret
  80c4ac:	81401917 	ldw	r5,100(r16)
  80c4b0:	00b7ffc4 	movi	r2,-8193
  80c4b4:	21080014 	ori	r4,r4,8192
  80c4b8:	2884703a 	and	r2,r5,r2
  80c4bc:	80801915 	stw	r2,100(r16)
  80c4c0:	80800017 	ldw	r2,0(r16)
  80c4c4:	8100030d 	sth	r4,12(r16)
  80c4c8:	81000517 	ldw	r4,20(r16)
  80c4cc:	10c7c83a 	sub	r3,r2,r3
  80c4d0:	193fe016 	blt	r3,r4,80c454 <__alt_mem_onchip_mem+0xff78c454>
  80c4d4:	800b883a 	mov	r5,r16
  80c4d8:	9009883a 	mov	r4,r18
  80c4dc:	08029200 	call	802920 <_fflush_r>
  80c4e0:	1000071e 	bne	r2,zero,80c500 <__swbuf_r+0x114>
  80c4e4:	80800017 	ldw	r2,0(r16)
  80c4e8:	00c00044 	movi	r3,1
  80c4ec:	003fda06 	br	80c458 <__alt_mem_onchip_mem+0xff78c458>
  80c4f0:	800b883a 	mov	r5,r16
  80c4f4:	9009883a 	mov	r4,r18
  80c4f8:	08029200 	call	802920 <_fflush_r>
  80c4fc:	103fe326 	beq	r2,zero,80c48c <__alt_mem_onchip_mem+0xff78c48c>
  80c500:	00bfffc4 	movi	r2,-1
  80c504:	003fe206 	br	80c490 <__alt_mem_onchip_mem+0xff78c490>
  80c508:	800b883a 	mov	r5,r16
  80c50c:	9009883a 	mov	r4,r18
  80c510:	0806e140 	call	806e14 <__swsetup_r>
  80c514:	103ffa1e 	bne	r2,zero,80c500 <__alt_mem_onchip_mem+0xff78c500>
  80c518:	8100030b 	ldhu	r4,12(r16)
  80c51c:	80c00417 	ldw	r3,16(r16)
  80c520:	003fc506 	br	80c438 <__alt_mem_onchip_mem+0xff78c438>
  80c524:	0802cfc0 	call	802cfc <__sinit>
  80c528:	003fbc06 	br	80c41c <__alt_mem_onchip_mem+0xff78c41c>

0080c52c <__swbuf>:
  80c52c:	00802074 	movhi	r2,129
  80c530:	10979804 	addi	r2,r2,24160
  80c534:	280d883a 	mov	r6,r5
  80c538:	200b883a 	mov	r5,r4
  80c53c:	11000017 	ldw	r4,0(r2)
  80c540:	080c3ec1 	jmpi	80c3ec <__swbuf_r>

0080c544 <_wcrtomb_r>:
  80c544:	defff604 	addi	sp,sp,-40
  80c548:	00802074 	movhi	r2,129
  80c54c:	dc800815 	stw	r18,32(sp)
  80c550:	dc400715 	stw	r17,28(sp)
  80c554:	dc000615 	stw	r16,24(sp)
  80c558:	10979c04 	addi	r2,r2,24176
  80c55c:	dfc00915 	stw	ra,36(sp)
  80c560:	2021883a 	mov	r16,r4
  80c564:	3823883a 	mov	r17,r7
  80c568:	14800017 	ldw	r18,0(r2)
  80c56c:	28001426 	beq	r5,zero,80c5c0 <_wcrtomb_r+0x7c>
  80c570:	d9400415 	stw	r5,16(sp)
  80c574:	d9800515 	stw	r6,20(sp)
  80c578:	0808f800 	call	808f80 <__locale_charset>
  80c57c:	d9800517 	ldw	r6,20(sp)
  80c580:	d9400417 	ldw	r5,16(sp)
  80c584:	100f883a 	mov	r7,r2
  80c588:	dc400015 	stw	r17,0(sp)
  80c58c:	8009883a 	mov	r4,r16
  80c590:	903ee83a 	callr	r18
  80c594:	00ffffc4 	movi	r3,-1
  80c598:	10c0031e 	bne	r2,r3,80c5a8 <_wcrtomb_r+0x64>
  80c59c:	88000015 	stw	zero,0(r17)
  80c5a0:	00c02284 	movi	r3,138
  80c5a4:	80c00015 	stw	r3,0(r16)
  80c5a8:	dfc00917 	ldw	ra,36(sp)
  80c5ac:	dc800817 	ldw	r18,32(sp)
  80c5b0:	dc400717 	ldw	r17,28(sp)
  80c5b4:	dc000617 	ldw	r16,24(sp)
  80c5b8:	dec00a04 	addi	sp,sp,40
  80c5bc:	f800283a 	ret
  80c5c0:	0808f800 	call	808f80 <__locale_charset>
  80c5c4:	100f883a 	mov	r7,r2
  80c5c8:	dc400015 	stw	r17,0(sp)
  80c5cc:	000d883a 	mov	r6,zero
  80c5d0:	d9400104 	addi	r5,sp,4
  80c5d4:	8009883a 	mov	r4,r16
  80c5d8:	903ee83a 	callr	r18
  80c5dc:	003fed06 	br	80c594 <__alt_mem_onchip_mem+0xff78c594>

0080c5e0 <wcrtomb>:
  80c5e0:	defff604 	addi	sp,sp,-40
  80c5e4:	00802074 	movhi	r2,129
  80c5e8:	dc800615 	stw	r18,24(sp)
  80c5ec:	dc400515 	stw	r17,20(sp)
  80c5f0:	10979804 	addi	r2,r2,24160
  80c5f4:	dfc00915 	stw	ra,36(sp)
  80c5f8:	dd000815 	stw	r20,32(sp)
  80c5fc:	dcc00715 	stw	r19,28(sp)
  80c600:	dc000415 	stw	r16,16(sp)
  80c604:	3025883a 	mov	r18,r6
  80c608:	14400017 	ldw	r17,0(r2)
  80c60c:	20001926 	beq	r4,zero,80c674 <wcrtomb+0x94>
  80c610:	00802074 	movhi	r2,129
  80c614:	10979c04 	addi	r2,r2,24176
  80c618:	15000017 	ldw	r20,0(r2)
  80c61c:	2021883a 	mov	r16,r4
  80c620:	2827883a 	mov	r19,r5
  80c624:	0808f800 	call	808f80 <__locale_charset>
  80c628:	100f883a 	mov	r7,r2
  80c62c:	dc800015 	stw	r18,0(sp)
  80c630:	980d883a 	mov	r6,r19
  80c634:	800b883a 	mov	r5,r16
  80c638:	8809883a 	mov	r4,r17
  80c63c:	a03ee83a 	callr	r20
  80c640:	00ffffc4 	movi	r3,-1
  80c644:	10c0031e 	bne	r2,r3,80c654 <wcrtomb+0x74>
  80c648:	90000015 	stw	zero,0(r18)
  80c64c:	00c02284 	movi	r3,138
  80c650:	88c00015 	stw	r3,0(r17)
  80c654:	dfc00917 	ldw	ra,36(sp)
  80c658:	dd000817 	ldw	r20,32(sp)
  80c65c:	dcc00717 	ldw	r19,28(sp)
  80c660:	dc800617 	ldw	r18,24(sp)
  80c664:	dc400517 	ldw	r17,20(sp)
  80c668:	dc000417 	ldw	r16,16(sp)
  80c66c:	dec00a04 	addi	sp,sp,40
  80c670:	f800283a 	ret
  80c674:	00802074 	movhi	r2,129
  80c678:	10979c04 	addi	r2,r2,24176
  80c67c:	14000017 	ldw	r16,0(r2)
  80c680:	0808f800 	call	808f80 <__locale_charset>
  80c684:	100f883a 	mov	r7,r2
  80c688:	dc800015 	stw	r18,0(sp)
  80c68c:	000d883a 	mov	r6,zero
  80c690:	d9400104 	addi	r5,sp,4
  80c694:	8809883a 	mov	r4,r17
  80c698:	803ee83a 	callr	r16
  80c69c:	003fe806 	br	80c640 <__alt_mem_onchip_mem+0xff78c640>

0080c6a0 <__ascii_wctomb>:
  80c6a0:	28000526 	beq	r5,zero,80c6b8 <__ascii_wctomb+0x18>
  80c6a4:	00803fc4 	movi	r2,255
  80c6a8:	11800536 	bltu	r2,r6,80c6c0 <__ascii_wctomb+0x20>
  80c6ac:	29800005 	stb	r6,0(r5)
  80c6b0:	00800044 	movi	r2,1
  80c6b4:	f800283a 	ret
  80c6b8:	0005883a 	mov	r2,zero
  80c6bc:	f800283a 	ret
  80c6c0:	00802284 	movi	r2,138
  80c6c4:	20800015 	stw	r2,0(r4)
  80c6c8:	00bfffc4 	movi	r2,-1
  80c6cc:	f800283a 	ret

0080c6d0 <_wctomb_r>:
  80c6d0:	00802074 	movhi	r2,129
  80c6d4:	defff904 	addi	sp,sp,-28
  80c6d8:	10979c04 	addi	r2,r2,24176
  80c6dc:	dfc00615 	stw	ra,24(sp)
  80c6e0:	dc400515 	stw	r17,20(sp)
  80c6e4:	dc000415 	stw	r16,16(sp)
  80c6e8:	3823883a 	mov	r17,r7
  80c6ec:	14000017 	ldw	r16,0(r2)
  80c6f0:	d9000115 	stw	r4,4(sp)
  80c6f4:	d9400215 	stw	r5,8(sp)
  80c6f8:	d9800315 	stw	r6,12(sp)
  80c6fc:	0808f800 	call	808f80 <__locale_charset>
  80c700:	d9800317 	ldw	r6,12(sp)
  80c704:	d9400217 	ldw	r5,8(sp)
  80c708:	d9000117 	ldw	r4,4(sp)
  80c70c:	100f883a 	mov	r7,r2
  80c710:	dc400015 	stw	r17,0(sp)
  80c714:	803ee83a 	callr	r16
  80c718:	dfc00617 	ldw	ra,24(sp)
  80c71c:	dc400517 	ldw	r17,20(sp)
  80c720:	dc000417 	ldw	r16,16(sp)
  80c724:	dec00704 	addi	sp,sp,28
  80c728:	f800283a 	ret

0080c72c <__udivdi3>:
  80c72c:	defff504 	addi	sp,sp,-44
  80c730:	dcc00415 	stw	r19,16(sp)
  80c734:	dc000115 	stw	r16,4(sp)
  80c738:	dfc00a15 	stw	ra,40(sp)
  80c73c:	df000915 	stw	fp,36(sp)
  80c740:	ddc00815 	stw	r23,32(sp)
  80c744:	dd800715 	stw	r22,28(sp)
  80c748:	dd400615 	stw	r21,24(sp)
  80c74c:	dd000515 	stw	r20,20(sp)
  80c750:	dc800315 	stw	r18,12(sp)
  80c754:	dc400215 	stw	r17,8(sp)
  80c758:	2027883a 	mov	r19,r4
  80c75c:	2821883a 	mov	r16,r5
  80c760:	3800411e 	bne	r7,zero,80c868 <__udivdi3+0x13c>
  80c764:	3023883a 	mov	r17,r6
  80c768:	2025883a 	mov	r18,r4
  80c76c:	2980522e 	bgeu	r5,r6,80c8b8 <__udivdi3+0x18c>
  80c770:	00bfffd4 	movui	r2,65535
  80c774:	282d883a 	mov	r22,r5
  80c778:	1180a836 	bltu	r2,r6,80ca1c <__udivdi3+0x2f0>
  80c77c:	00803fc4 	movi	r2,255
  80c780:	1185803a 	cmpltu	r2,r2,r6
  80c784:	100490fa 	slli	r2,r2,3
  80c788:	3086d83a 	srl	r3,r6,r2
  80c78c:	01002074 	movhi	r4,129
  80c790:	210f8104 	addi	r4,r4,15876
  80c794:	20c7883a 	add	r3,r4,r3
  80c798:	18c00003 	ldbu	r3,0(r3)
  80c79c:	1885883a 	add	r2,r3,r2
  80c7a0:	00c00804 	movi	r3,32
  80c7a4:	1887c83a 	sub	r3,r3,r2
  80c7a8:	18000526 	beq	r3,zero,80c7c0 <__udivdi3+0x94>
  80c7ac:	80e0983a 	sll	r16,r16,r3
  80c7b0:	9884d83a 	srl	r2,r19,r2
  80c7b4:	30e2983a 	sll	r17,r6,r3
  80c7b8:	98e4983a 	sll	r18,r19,r3
  80c7bc:	142cb03a 	or	r22,r2,r16
  80c7c0:	882ad43a 	srli	r21,r17,16
  80c7c4:	b009883a 	mov	r4,r22
  80c7c8:	8d3fffcc 	andi	r20,r17,65535
  80c7cc:	a80b883a 	mov	r5,r21
  80c7d0:	080d3380 	call	80d338 <__umodsi3>
  80c7d4:	b009883a 	mov	r4,r22
  80c7d8:	a80b883a 	mov	r5,r21
  80c7dc:	1027883a 	mov	r19,r2
  80c7e0:	080d2d40 	call	80d2d4 <__udivsi3>
  80c7e4:	102d883a 	mov	r22,r2
  80c7e8:	9826943a 	slli	r19,r19,16
  80c7ec:	9004d43a 	srli	r2,r18,16
  80c7f0:	a5a1383a 	mul	r16,r20,r22
  80c7f4:	14c4b03a 	or	r2,r2,r19
  80c7f8:	1400052e 	bgeu	r2,r16,80c810 <__udivdi3+0xe4>
  80c7fc:	1445883a 	add	r2,r2,r17
  80c800:	b0ffffc4 	addi	r3,r22,-1
  80c804:	14400136 	bltu	r2,r17,80c80c <__udivdi3+0xe0>
  80c808:	14012336 	bltu	r2,r16,80cc98 <__udivdi3+0x56c>
  80c80c:	182d883a 	mov	r22,r3
  80c810:	1421c83a 	sub	r16,r2,r16
  80c814:	a80b883a 	mov	r5,r21
  80c818:	8009883a 	mov	r4,r16
  80c81c:	080d3380 	call	80d338 <__umodsi3>
  80c820:	1027883a 	mov	r19,r2
  80c824:	a80b883a 	mov	r5,r21
  80c828:	8009883a 	mov	r4,r16
  80c82c:	080d2d40 	call	80d2d4 <__udivsi3>
  80c830:	9826943a 	slli	r19,r19,16
  80c834:	a0a9383a 	mul	r20,r20,r2
  80c838:	94bfffcc 	andi	r18,r18,65535
  80c83c:	94e4b03a 	or	r18,r18,r19
  80c840:	9500052e 	bgeu	r18,r20,80c858 <__udivdi3+0x12c>
  80c844:	8ca5883a 	add	r18,r17,r18
  80c848:	10ffffc4 	addi	r3,r2,-1
  80c84c:	9440f136 	bltu	r18,r17,80cc14 <__udivdi3+0x4e8>
  80c850:	9500f02e 	bgeu	r18,r20,80cc14 <__udivdi3+0x4e8>
  80c854:	10bfff84 	addi	r2,r2,-2
  80c858:	b00c943a 	slli	r6,r22,16
  80c85c:	0007883a 	mov	r3,zero
  80c860:	3084b03a 	or	r2,r6,r2
  80c864:	00005906 	br	80c9cc <__udivdi3+0x2a0>
  80c868:	29c05636 	bltu	r5,r7,80c9c4 <__udivdi3+0x298>
  80c86c:	00bfffd4 	movui	r2,65535
  80c870:	11c0622e 	bgeu	r2,r7,80c9fc <__udivdi3+0x2d0>
  80c874:	00804034 	movhi	r2,256
  80c878:	10bfffc4 	addi	r2,r2,-1
  80c87c:	11c0ee36 	bltu	r2,r7,80cc38 <__udivdi3+0x50c>
  80c880:	00800404 	movi	r2,16
  80c884:	3886d83a 	srl	r3,r7,r2
  80c888:	01002074 	movhi	r4,129
  80c88c:	210f8104 	addi	r4,r4,15876
  80c890:	20c7883a 	add	r3,r4,r3
  80c894:	18c00003 	ldbu	r3,0(r3)
  80c898:	05400804 	movi	r21,32
  80c89c:	1885883a 	add	r2,r3,r2
  80c8a0:	a8abc83a 	sub	r21,r21,r2
  80c8a4:	a800621e 	bne	r21,zero,80ca30 <__udivdi3+0x304>
  80c8a8:	3c00e936 	bltu	r7,r16,80cc50 <__udivdi3+0x524>
  80c8ac:	9985403a 	cmpgeu	r2,r19,r6
  80c8b0:	0007883a 	mov	r3,zero
  80c8b4:	00004506 	br	80c9cc <__udivdi3+0x2a0>
  80c8b8:	3000041e 	bne	r6,zero,80c8cc <__udivdi3+0x1a0>
  80c8bc:	000b883a 	mov	r5,zero
  80c8c0:	01000044 	movi	r4,1
  80c8c4:	080d2d40 	call	80d2d4 <__udivsi3>
  80c8c8:	1023883a 	mov	r17,r2
  80c8cc:	00bfffd4 	movui	r2,65535
  80c8d0:	14404e2e 	bgeu	r2,r17,80ca0c <__udivdi3+0x2e0>
  80c8d4:	00804034 	movhi	r2,256
  80c8d8:	10bfffc4 	addi	r2,r2,-1
  80c8dc:	1440d836 	bltu	r2,r17,80cc40 <__udivdi3+0x514>
  80c8e0:	00800404 	movi	r2,16
  80c8e4:	8886d83a 	srl	r3,r17,r2
  80c8e8:	01002074 	movhi	r4,129
  80c8ec:	210f8104 	addi	r4,r4,15876
  80c8f0:	20c7883a 	add	r3,r4,r3
  80c8f4:	18c00003 	ldbu	r3,0(r3)
  80c8f8:	1885883a 	add	r2,r3,r2
  80c8fc:	00c00804 	movi	r3,32
  80c900:	1887c83a 	sub	r3,r3,r2
  80c904:	18008f1e 	bne	r3,zero,80cb44 <__udivdi3+0x418>
  80c908:	882ad43a 	srli	r21,r17,16
  80c90c:	8461c83a 	sub	r16,r16,r17
  80c910:	8d3fffcc 	andi	r20,r17,65535
  80c914:	00c00044 	movi	r3,1
  80c918:	8009883a 	mov	r4,r16
  80c91c:	a80b883a 	mov	r5,r21
  80c920:	d8c00015 	stw	r3,0(sp)
  80c924:	080d3380 	call	80d338 <__umodsi3>
  80c928:	8009883a 	mov	r4,r16
  80c92c:	a80b883a 	mov	r5,r21
  80c930:	1027883a 	mov	r19,r2
  80c934:	080d2d40 	call	80d2d4 <__udivsi3>
  80c938:	9826943a 	slli	r19,r19,16
  80c93c:	9008d43a 	srli	r4,r18,16
  80c940:	1521383a 	mul	r16,r2,r20
  80c944:	102d883a 	mov	r22,r2
  80c948:	24c8b03a 	or	r4,r4,r19
  80c94c:	d8c00017 	ldw	r3,0(sp)
  80c950:	2400052e 	bgeu	r4,r16,80c968 <__udivdi3+0x23c>
  80c954:	2449883a 	add	r4,r4,r17
  80c958:	b0bfffc4 	addi	r2,r22,-1
  80c95c:	24400136 	bltu	r4,r17,80c964 <__udivdi3+0x238>
  80c960:	2400ca36 	bltu	r4,r16,80cc8c <__udivdi3+0x560>
  80c964:	102d883a 	mov	r22,r2
  80c968:	2421c83a 	sub	r16,r4,r16
  80c96c:	a80b883a 	mov	r5,r21
  80c970:	8009883a 	mov	r4,r16
  80c974:	d8c00015 	stw	r3,0(sp)
  80c978:	080d3380 	call	80d338 <__umodsi3>
  80c97c:	1027883a 	mov	r19,r2
  80c980:	a80b883a 	mov	r5,r21
  80c984:	8009883a 	mov	r4,r16
  80c988:	080d2d40 	call	80d2d4 <__udivsi3>
  80c98c:	9826943a 	slli	r19,r19,16
  80c990:	1529383a 	mul	r20,r2,r20
  80c994:	94bfffcc 	andi	r18,r18,65535
  80c998:	94e4b03a 	or	r18,r18,r19
  80c99c:	d8c00017 	ldw	r3,0(sp)
  80c9a0:	9500052e 	bgeu	r18,r20,80c9b8 <__udivdi3+0x28c>
  80c9a4:	8ca5883a 	add	r18,r17,r18
  80c9a8:	113fffc4 	addi	r4,r2,-1
  80c9ac:	94409736 	bltu	r18,r17,80cc0c <__udivdi3+0x4e0>
  80c9b0:	9500962e 	bgeu	r18,r20,80cc0c <__udivdi3+0x4e0>
  80c9b4:	10bfff84 	addi	r2,r2,-2
  80c9b8:	b00c943a 	slli	r6,r22,16
  80c9bc:	3084b03a 	or	r2,r6,r2
  80c9c0:	00000206 	br	80c9cc <__udivdi3+0x2a0>
  80c9c4:	0007883a 	mov	r3,zero
  80c9c8:	0005883a 	mov	r2,zero
  80c9cc:	dfc00a17 	ldw	ra,40(sp)
  80c9d0:	df000917 	ldw	fp,36(sp)
  80c9d4:	ddc00817 	ldw	r23,32(sp)
  80c9d8:	dd800717 	ldw	r22,28(sp)
  80c9dc:	dd400617 	ldw	r21,24(sp)
  80c9e0:	dd000517 	ldw	r20,20(sp)
  80c9e4:	dcc00417 	ldw	r19,16(sp)
  80c9e8:	dc800317 	ldw	r18,12(sp)
  80c9ec:	dc400217 	ldw	r17,8(sp)
  80c9f0:	dc000117 	ldw	r16,4(sp)
  80c9f4:	dec00b04 	addi	sp,sp,44
  80c9f8:	f800283a 	ret
  80c9fc:	00803fc4 	movi	r2,255
  80ca00:	11c5803a 	cmpltu	r2,r2,r7
  80ca04:	100490fa 	slli	r2,r2,3
  80ca08:	003f9e06 	br	80c884 <__alt_mem_onchip_mem+0xff78c884>
  80ca0c:	00803fc4 	movi	r2,255
  80ca10:	1445803a 	cmpltu	r2,r2,r17
  80ca14:	100490fa 	slli	r2,r2,3
  80ca18:	003fb206 	br	80c8e4 <__alt_mem_onchip_mem+0xff78c8e4>
  80ca1c:	00804034 	movhi	r2,256
  80ca20:	10bfffc4 	addi	r2,r2,-1
  80ca24:	11808836 	bltu	r2,r6,80cc48 <__udivdi3+0x51c>
  80ca28:	00800404 	movi	r2,16
  80ca2c:	003f5606 	br	80c788 <__alt_mem_onchip_mem+0xff78c788>
  80ca30:	30aed83a 	srl	r23,r6,r2
  80ca34:	3d4e983a 	sll	r7,r7,r21
  80ca38:	80acd83a 	srl	r22,r16,r2
  80ca3c:	9884d83a 	srl	r2,r19,r2
  80ca40:	3deeb03a 	or	r23,r7,r23
  80ca44:	b824d43a 	srli	r18,r23,16
  80ca48:	8560983a 	sll	r16,r16,r21
  80ca4c:	b009883a 	mov	r4,r22
  80ca50:	900b883a 	mov	r5,r18
  80ca54:	3568983a 	sll	r20,r6,r21
  80ca58:	1420b03a 	or	r16,r2,r16
  80ca5c:	080d3380 	call	80d338 <__umodsi3>
  80ca60:	b009883a 	mov	r4,r22
  80ca64:	900b883a 	mov	r5,r18
  80ca68:	1023883a 	mov	r17,r2
  80ca6c:	080d2d40 	call	80d2d4 <__udivsi3>
  80ca70:	8808943a 	slli	r4,r17,16
  80ca74:	bf3fffcc 	andi	fp,r23,65535
  80ca78:	8006d43a 	srli	r3,r16,16
  80ca7c:	e0a3383a 	mul	r17,fp,r2
  80ca80:	100d883a 	mov	r6,r2
  80ca84:	1906b03a 	or	r3,r3,r4
  80ca88:	1c40042e 	bgeu	r3,r17,80ca9c <__udivdi3+0x370>
  80ca8c:	1dc7883a 	add	r3,r3,r23
  80ca90:	10bfffc4 	addi	r2,r2,-1
  80ca94:	1dc0752e 	bgeu	r3,r23,80cc6c <__udivdi3+0x540>
  80ca98:	100d883a 	mov	r6,r2
  80ca9c:	1c63c83a 	sub	r17,r3,r17
  80caa0:	900b883a 	mov	r5,r18
  80caa4:	8809883a 	mov	r4,r17
  80caa8:	d9800015 	stw	r6,0(sp)
  80caac:	080d3380 	call	80d338 <__umodsi3>
  80cab0:	102d883a 	mov	r22,r2
  80cab4:	8809883a 	mov	r4,r17
  80cab8:	900b883a 	mov	r5,r18
  80cabc:	080d2d40 	call	80d2d4 <__udivsi3>
  80cac0:	b02c943a 	slli	r22,r22,16
  80cac4:	e089383a 	mul	r4,fp,r2
  80cac8:	843fffcc 	andi	r16,r16,65535
  80cacc:	85a0b03a 	or	r16,r16,r22
  80cad0:	d9800017 	ldw	r6,0(sp)
  80cad4:	8100042e 	bgeu	r16,r4,80cae8 <__udivdi3+0x3bc>
  80cad8:	85e1883a 	add	r16,r16,r23
  80cadc:	10ffffc4 	addi	r3,r2,-1
  80cae0:	85c05e2e 	bgeu	r16,r23,80cc5c <__udivdi3+0x530>
  80cae4:	1805883a 	mov	r2,r3
  80cae8:	300c943a 	slli	r6,r6,16
  80caec:	a17fffcc 	andi	r5,r20,65535
  80caf0:	a028d43a 	srli	r20,r20,16
  80caf4:	3084b03a 	or	r2,r6,r2
  80caf8:	10ffffcc 	andi	r3,r2,65535
  80cafc:	100cd43a 	srli	r6,r2,16
  80cb00:	194f383a 	mul	r7,r3,r5
  80cb04:	1d07383a 	mul	r3,r3,r20
  80cb08:	314b383a 	mul	r5,r6,r5
  80cb0c:	3810d43a 	srli	r8,r7,16
  80cb10:	8121c83a 	sub	r16,r16,r4
  80cb14:	1947883a 	add	r3,r3,r5
  80cb18:	40c7883a 	add	r3,r8,r3
  80cb1c:	350d383a 	mul	r6,r6,r20
  80cb20:	1940022e 	bgeu	r3,r5,80cb2c <__udivdi3+0x400>
  80cb24:	01000074 	movhi	r4,1
  80cb28:	310d883a 	add	r6,r6,r4
  80cb2c:	1828d43a 	srli	r20,r3,16
  80cb30:	a18d883a 	add	r6,r20,r6
  80cb34:	81803e36 	bltu	r16,r6,80cc30 <__udivdi3+0x504>
  80cb38:	81803826 	beq	r16,r6,80cc1c <__udivdi3+0x4f0>
  80cb3c:	0007883a 	mov	r3,zero
  80cb40:	003fa206 	br	80c9cc <__alt_mem_onchip_mem+0xff78c9cc>
  80cb44:	88e2983a 	sll	r17,r17,r3
  80cb48:	80a8d83a 	srl	r20,r16,r2
  80cb4c:	80e0983a 	sll	r16,r16,r3
  80cb50:	882ad43a 	srli	r21,r17,16
  80cb54:	9884d83a 	srl	r2,r19,r2
  80cb58:	a009883a 	mov	r4,r20
  80cb5c:	a80b883a 	mov	r5,r21
  80cb60:	142eb03a 	or	r23,r2,r16
  80cb64:	98e4983a 	sll	r18,r19,r3
  80cb68:	080d3380 	call	80d338 <__umodsi3>
  80cb6c:	a009883a 	mov	r4,r20
  80cb70:	a80b883a 	mov	r5,r21
  80cb74:	1021883a 	mov	r16,r2
  80cb78:	080d2d40 	call	80d2d4 <__udivsi3>
  80cb7c:	1039883a 	mov	fp,r2
  80cb80:	8d3fffcc 	andi	r20,r17,65535
  80cb84:	8020943a 	slli	r16,r16,16
  80cb88:	b804d43a 	srli	r2,r23,16
  80cb8c:	a72d383a 	mul	r22,r20,fp
  80cb90:	1404b03a 	or	r2,r2,r16
  80cb94:	1580062e 	bgeu	r2,r22,80cbb0 <__udivdi3+0x484>
  80cb98:	1445883a 	add	r2,r2,r17
  80cb9c:	e0ffffc4 	addi	r3,fp,-1
  80cba0:	14403836 	bltu	r2,r17,80cc84 <__udivdi3+0x558>
  80cba4:	1580372e 	bgeu	r2,r22,80cc84 <__udivdi3+0x558>
  80cba8:	e73fff84 	addi	fp,fp,-2
  80cbac:	1445883a 	add	r2,r2,r17
  80cbb0:	15adc83a 	sub	r22,r2,r22
  80cbb4:	a80b883a 	mov	r5,r21
  80cbb8:	b009883a 	mov	r4,r22
  80cbbc:	080d3380 	call	80d338 <__umodsi3>
  80cbc0:	1027883a 	mov	r19,r2
  80cbc4:	b009883a 	mov	r4,r22
  80cbc8:	a80b883a 	mov	r5,r21
  80cbcc:	080d2d40 	call	80d2d4 <__udivsi3>
  80cbd0:	9826943a 	slli	r19,r19,16
  80cbd4:	a0a1383a 	mul	r16,r20,r2
  80cbd8:	b93fffcc 	andi	r4,r23,65535
  80cbdc:	24c8b03a 	or	r4,r4,r19
  80cbe0:	2400062e 	bgeu	r4,r16,80cbfc <__udivdi3+0x4d0>
  80cbe4:	2449883a 	add	r4,r4,r17
  80cbe8:	10ffffc4 	addi	r3,r2,-1
  80cbec:	24402336 	bltu	r4,r17,80cc7c <__udivdi3+0x550>
  80cbf0:	2400222e 	bgeu	r4,r16,80cc7c <__udivdi3+0x550>
  80cbf4:	10bfff84 	addi	r2,r2,-2
  80cbf8:	2449883a 	add	r4,r4,r17
  80cbfc:	e038943a 	slli	fp,fp,16
  80cc00:	2421c83a 	sub	r16,r4,r16
  80cc04:	e086b03a 	or	r3,fp,r2
  80cc08:	003f4306 	br	80c918 <__alt_mem_onchip_mem+0xff78c918>
  80cc0c:	2005883a 	mov	r2,r4
  80cc10:	003f6906 	br	80c9b8 <__alt_mem_onchip_mem+0xff78c9b8>
  80cc14:	1805883a 	mov	r2,r3
  80cc18:	003f0f06 	br	80c858 <__alt_mem_onchip_mem+0xff78c858>
  80cc1c:	1806943a 	slli	r3,r3,16
  80cc20:	9d66983a 	sll	r19,r19,r21
  80cc24:	39ffffcc 	andi	r7,r7,65535
  80cc28:	19c7883a 	add	r3,r3,r7
  80cc2c:	98ffc32e 	bgeu	r19,r3,80cb3c <__alt_mem_onchip_mem+0xff78cb3c>
  80cc30:	10bfffc4 	addi	r2,r2,-1
  80cc34:	003fc106 	br	80cb3c <__alt_mem_onchip_mem+0xff78cb3c>
  80cc38:	00800604 	movi	r2,24
  80cc3c:	003f1106 	br	80c884 <__alt_mem_onchip_mem+0xff78c884>
  80cc40:	00800604 	movi	r2,24
  80cc44:	003f2706 	br	80c8e4 <__alt_mem_onchip_mem+0xff78c8e4>
  80cc48:	00800604 	movi	r2,24
  80cc4c:	003ece06 	br	80c788 <__alt_mem_onchip_mem+0xff78c788>
  80cc50:	0007883a 	mov	r3,zero
  80cc54:	00800044 	movi	r2,1
  80cc58:	003f5c06 	br	80c9cc <__alt_mem_onchip_mem+0xff78c9cc>
  80cc5c:	813fa12e 	bgeu	r16,r4,80cae4 <__alt_mem_onchip_mem+0xff78cae4>
  80cc60:	10bfff84 	addi	r2,r2,-2
  80cc64:	85e1883a 	add	r16,r16,r23
  80cc68:	003f9f06 	br	80cae8 <__alt_mem_onchip_mem+0xff78cae8>
  80cc6c:	1c7f8a2e 	bgeu	r3,r17,80ca98 <__alt_mem_onchip_mem+0xff78ca98>
  80cc70:	31bfff84 	addi	r6,r6,-2
  80cc74:	1dc7883a 	add	r3,r3,r23
  80cc78:	003f8806 	br	80ca9c <__alt_mem_onchip_mem+0xff78ca9c>
  80cc7c:	1805883a 	mov	r2,r3
  80cc80:	003fde06 	br	80cbfc <__alt_mem_onchip_mem+0xff78cbfc>
  80cc84:	1839883a 	mov	fp,r3
  80cc88:	003fc906 	br	80cbb0 <__alt_mem_onchip_mem+0xff78cbb0>
  80cc8c:	b5bfff84 	addi	r22,r22,-2
  80cc90:	2449883a 	add	r4,r4,r17
  80cc94:	003f3406 	br	80c968 <__alt_mem_onchip_mem+0xff78c968>
  80cc98:	b5bfff84 	addi	r22,r22,-2
  80cc9c:	1445883a 	add	r2,r2,r17
  80cca0:	003edb06 	br	80c810 <__alt_mem_onchip_mem+0xff78c810>

0080cca4 <__umoddi3>:
  80cca4:	defff404 	addi	sp,sp,-48
  80cca8:	df000a15 	stw	fp,40(sp)
  80ccac:	dc400315 	stw	r17,12(sp)
  80ccb0:	dc000215 	stw	r16,8(sp)
  80ccb4:	dfc00b15 	stw	ra,44(sp)
  80ccb8:	ddc00915 	stw	r23,36(sp)
  80ccbc:	dd800815 	stw	r22,32(sp)
  80ccc0:	dd400715 	stw	r21,28(sp)
  80ccc4:	dd000615 	stw	r20,24(sp)
  80ccc8:	dcc00515 	stw	r19,20(sp)
  80cccc:	dc800415 	stw	r18,16(sp)
  80ccd0:	2021883a 	mov	r16,r4
  80ccd4:	2823883a 	mov	r17,r5
  80ccd8:	2839883a 	mov	fp,r5
  80ccdc:	38003c1e 	bne	r7,zero,80cdd0 <__umoddi3+0x12c>
  80cce0:	3027883a 	mov	r19,r6
  80cce4:	2029883a 	mov	r20,r4
  80cce8:	2980512e 	bgeu	r5,r6,80ce30 <__umoddi3+0x18c>
  80ccec:	00bfffd4 	movui	r2,65535
  80ccf0:	11809a36 	bltu	r2,r6,80cf5c <__umoddi3+0x2b8>
  80ccf4:	01003fc4 	movi	r4,255
  80ccf8:	2189803a 	cmpltu	r4,r4,r6
  80ccfc:	200890fa 	slli	r4,r4,3
  80cd00:	3104d83a 	srl	r2,r6,r4
  80cd04:	00c02074 	movhi	r3,129
  80cd08:	18cf8104 	addi	r3,r3,15876
  80cd0c:	1885883a 	add	r2,r3,r2
  80cd10:	10c00003 	ldbu	r3,0(r2)
  80cd14:	00800804 	movi	r2,32
  80cd18:	1909883a 	add	r4,r3,r4
  80cd1c:	1125c83a 	sub	r18,r2,r4
  80cd20:	90000526 	beq	r18,zero,80cd38 <__umoddi3+0x94>
  80cd24:	8ca2983a 	sll	r17,r17,r18
  80cd28:	8108d83a 	srl	r4,r16,r4
  80cd2c:	34a6983a 	sll	r19,r6,r18
  80cd30:	84a8983a 	sll	r20,r16,r18
  80cd34:	2478b03a 	or	fp,r4,r17
  80cd38:	982ed43a 	srli	r23,r19,16
  80cd3c:	e009883a 	mov	r4,fp
  80cd40:	9dbfffcc 	andi	r22,r19,65535
  80cd44:	b80b883a 	mov	r5,r23
  80cd48:	080d3380 	call	80d338 <__umodsi3>
  80cd4c:	e009883a 	mov	r4,fp
  80cd50:	b80b883a 	mov	r5,r23
  80cd54:	102b883a 	mov	r21,r2
  80cd58:	080d2d40 	call	80d2d4 <__udivsi3>
  80cd5c:	a806943a 	slli	r3,r21,16
  80cd60:	a008d43a 	srli	r4,r20,16
  80cd64:	b085383a 	mul	r2,r22,r2
  80cd68:	20c8b03a 	or	r4,r4,r3
  80cd6c:	2080032e 	bgeu	r4,r2,80cd7c <__umoddi3+0xd8>
  80cd70:	24c9883a 	add	r4,r4,r19
  80cd74:	24c00136 	bltu	r4,r19,80cd7c <__umoddi3+0xd8>
  80cd78:	20811036 	bltu	r4,r2,80d1bc <__umoddi3+0x518>
  80cd7c:	20abc83a 	sub	r21,r4,r2
  80cd80:	b80b883a 	mov	r5,r23
  80cd84:	a809883a 	mov	r4,r21
  80cd88:	080d3380 	call	80d338 <__umodsi3>
  80cd8c:	1023883a 	mov	r17,r2
  80cd90:	b80b883a 	mov	r5,r23
  80cd94:	a809883a 	mov	r4,r21
  80cd98:	080d2d40 	call	80d2d4 <__udivsi3>
  80cd9c:	8822943a 	slli	r17,r17,16
  80cda0:	b085383a 	mul	r2,r22,r2
  80cda4:	a0ffffcc 	andi	r3,r20,65535
  80cda8:	1c46b03a 	or	r3,r3,r17
  80cdac:	1880042e 	bgeu	r3,r2,80cdc0 <__umoddi3+0x11c>
  80cdb0:	1cc7883a 	add	r3,r3,r19
  80cdb4:	1cc00236 	bltu	r3,r19,80cdc0 <__umoddi3+0x11c>
  80cdb8:	1880012e 	bgeu	r3,r2,80cdc0 <__umoddi3+0x11c>
  80cdbc:	1cc7883a 	add	r3,r3,r19
  80cdc0:	1885c83a 	sub	r2,r3,r2
  80cdc4:	1484d83a 	srl	r2,r2,r18
  80cdc8:	0007883a 	mov	r3,zero
  80cdcc:	00004f06 	br	80cf0c <__umoddi3+0x268>
  80cdd0:	29c04c36 	bltu	r5,r7,80cf04 <__umoddi3+0x260>
  80cdd4:	00bfffd4 	movui	r2,65535
  80cdd8:	11c0582e 	bgeu	r2,r7,80cf3c <__umoddi3+0x298>
  80cddc:	00804034 	movhi	r2,256
  80cde0:	10bfffc4 	addi	r2,r2,-1
  80cde4:	11c0e736 	bltu	r2,r7,80d184 <__umoddi3+0x4e0>
  80cde8:	01000404 	movi	r4,16
  80cdec:	3904d83a 	srl	r2,r7,r4
  80cdf0:	00c02074 	movhi	r3,129
  80cdf4:	18cf8104 	addi	r3,r3,15876
  80cdf8:	1885883a 	add	r2,r3,r2
  80cdfc:	14c00003 	ldbu	r19,0(r2)
  80ce00:	00c00804 	movi	r3,32
  80ce04:	9927883a 	add	r19,r19,r4
  80ce08:	1ce9c83a 	sub	r20,r3,r19
  80ce0c:	a000581e 	bne	r20,zero,80cf70 <__umoddi3+0x2cc>
  80ce10:	3c400136 	bltu	r7,r17,80ce18 <__umoddi3+0x174>
  80ce14:	8180eb36 	bltu	r16,r6,80d1c4 <__umoddi3+0x520>
  80ce18:	8185c83a 	sub	r2,r16,r6
  80ce1c:	89e3c83a 	sub	r17,r17,r7
  80ce20:	8089803a 	cmpltu	r4,r16,r2
  80ce24:	8939c83a 	sub	fp,r17,r4
  80ce28:	e007883a 	mov	r3,fp
  80ce2c:	00003706 	br	80cf0c <__umoddi3+0x268>
  80ce30:	3000041e 	bne	r6,zero,80ce44 <__umoddi3+0x1a0>
  80ce34:	000b883a 	mov	r5,zero
  80ce38:	01000044 	movi	r4,1
  80ce3c:	080d2d40 	call	80d2d4 <__udivsi3>
  80ce40:	1027883a 	mov	r19,r2
  80ce44:	00bfffd4 	movui	r2,65535
  80ce48:	14c0402e 	bgeu	r2,r19,80cf4c <__umoddi3+0x2a8>
  80ce4c:	00804034 	movhi	r2,256
  80ce50:	10bfffc4 	addi	r2,r2,-1
  80ce54:	14c0cd36 	bltu	r2,r19,80d18c <__umoddi3+0x4e8>
  80ce58:	00800404 	movi	r2,16
  80ce5c:	9886d83a 	srl	r3,r19,r2
  80ce60:	01002074 	movhi	r4,129
  80ce64:	210f8104 	addi	r4,r4,15876
  80ce68:	20c7883a 	add	r3,r4,r3
  80ce6c:	18c00003 	ldbu	r3,0(r3)
  80ce70:	1887883a 	add	r3,r3,r2
  80ce74:	00800804 	movi	r2,32
  80ce78:	10e5c83a 	sub	r18,r2,r3
  80ce7c:	9000901e 	bne	r18,zero,80d0c0 <__umoddi3+0x41c>
  80ce80:	982cd43a 	srli	r22,r19,16
  80ce84:	8ce3c83a 	sub	r17,r17,r19
  80ce88:	9d7fffcc 	andi	r21,r19,65535
  80ce8c:	b00b883a 	mov	r5,r22
  80ce90:	8809883a 	mov	r4,r17
  80ce94:	080d3380 	call	80d338 <__umodsi3>
  80ce98:	8809883a 	mov	r4,r17
  80ce9c:	b00b883a 	mov	r5,r22
  80cea0:	1021883a 	mov	r16,r2
  80cea4:	080d2d40 	call	80d2d4 <__udivsi3>
  80cea8:	8006943a 	slli	r3,r16,16
  80ceac:	a008d43a 	srli	r4,r20,16
  80ceb0:	1545383a 	mul	r2,r2,r21
  80ceb4:	20c8b03a 	or	r4,r4,r3
  80ceb8:	2080042e 	bgeu	r4,r2,80cecc <__umoddi3+0x228>
  80cebc:	24c9883a 	add	r4,r4,r19
  80cec0:	24c00236 	bltu	r4,r19,80cecc <__umoddi3+0x228>
  80cec4:	2080012e 	bgeu	r4,r2,80cecc <__umoddi3+0x228>
  80cec8:	24c9883a 	add	r4,r4,r19
  80cecc:	20a1c83a 	sub	r16,r4,r2
  80ced0:	b00b883a 	mov	r5,r22
  80ced4:	8009883a 	mov	r4,r16
  80ced8:	080d3380 	call	80d338 <__umodsi3>
  80cedc:	1023883a 	mov	r17,r2
  80cee0:	b00b883a 	mov	r5,r22
  80cee4:	8009883a 	mov	r4,r16
  80cee8:	080d2d40 	call	80d2d4 <__udivsi3>
  80ceec:	8822943a 	slli	r17,r17,16
  80cef0:	1545383a 	mul	r2,r2,r21
  80cef4:	a53fffcc 	andi	r20,r20,65535
  80cef8:	a446b03a 	or	r3,r20,r17
  80cefc:	18bfb02e 	bgeu	r3,r2,80cdc0 <__alt_mem_onchip_mem+0xff78cdc0>
  80cf00:	003fab06 	br	80cdb0 <__alt_mem_onchip_mem+0xff78cdb0>
  80cf04:	2005883a 	mov	r2,r4
  80cf08:	2807883a 	mov	r3,r5
  80cf0c:	dfc00b17 	ldw	ra,44(sp)
  80cf10:	df000a17 	ldw	fp,40(sp)
  80cf14:	ddc00917 	ldw	r23,36(sp)
  80cf18:	dd800817 	ldw	r22,32(sp)
  80cf1c:	dd400717 	ldw	r21,28(sp)
  80cf20:	dd000617 	ldw	r20,24(sp)
  80cf24:	dcc00517 	ldw	r19,20(sp)
  80cf28:	dc800417 	ldw	r18,16(sp)
  80cf2c:	dc400317 	ldw	r17,12(sp)
  80cf30:	dc000217 	ldw	r16,8(sp)
  80cf34:	dec00c04 	addi	sp,sp,48
  80cf38:	f800283a 	ret
  80cf3c:	04c03fc4 	movi	r19,255
  80cf40:	99c9803a 	cmpltu	r4,r19,r7
  80cf44:	200890fa 	slli	r4,r4,3
  80cf48:	003fa806 	br	80cdec <__alt_mem_onchip_mem+0xff78cdec>
  80cf4c:	00803fc4 	movi	r2,255
  80cf50:	14c5803a 	cmpltu	r2,r2,r19
  80cf54:	100490fa 	slli	r2,r2,3
  80cf58:	003fc006 	br	80ce5c <__alt_mem_onchip_mem+0xff78ce5c>
  80cf5c:	00804034 	movhi	r2,256
  80cf60:	10bfffc4 	addi	r2,r2,-1
  80cf64:	11808b36 	bltu	r2,r6,80d194 <__umoddi3+0x4f0>
  80cf68:	01000404 	movi	r4,16
  80cf6c:	003f6406 	br	80cd00 <__alt_mem_onchip_mem+0xff78cd00>
  80cf70:	34c4d83a 	srl	r2,r6,r19
  80cf74:	3d0e983a 	sll	r7,r7,r20
  80cf78:	8cf8d83a 	srl	fp,r17,r19
  80cf7c:	8d10983a 	sll	r8,r17,r20
  80cf80:	38aab03a 	or	r21,r7,r2
  80cf84:	a82cd43a 	srli	r22,r21,16
  80cf88:	84e2d83a 	srl	r17,r16,r19
  80cf8c:	e009883a 	mov	r4,fp
  80cf90:	b00b883a 	mov	r5,r22
  80cf94:	8a22b03a 	or	r17,r17,r8
  80cf98:	3524983a 	sll	r18,r6,r20
  80cf9c:	080d3380 	call	80d338 <__umodsi3>
  80cfa0:	e009883a 	mov	r4,fp
  80cfa4:	b00b883a 	mov	r5,r22
  80cfa8:	102f883a 	mov	r23,r2
  80cfac:	080d2d40 	call	80d2d4 <__udivsi3>
  80cfb0:	100d883a 	mov	r6,r2
  80cfb4:	b808943a 	slli	r4,r23,16
  80cfb8:	aa3fffcc 	andi	r8,r21,65535
  80cfbc:	8804d43a 	srli	r2,r17,16
  80cfc0:	41af383a 	mul	r23,r8,r6
  80cfc4:	8520983a 	sll	r16,r16,r20
  80cfc8:	1104b03a 	or	r2,r2,r4
  80cfcc:	15c0042e 	bgeu	r2,r23,80cfe0 <__umoddi3+0x33c>
  80cfd0:	1545883a 	add	r2,r2,r21
  80cfd4:	30ffffc4 	addi	r3,r6,-1
  80cfd8:	1540742e 	bgeu	r2,r21,80d1ac <__umoddi3+0x508>
  80cfdc:	180d883a 	mov	r6,r3
  80cfe0:	15efc83a 	sub	r23,r2,r23
  80cfe4:	b00b883a 	mov	r5,r22
  80cfe8:	b809883a 	mov	r4,r23
  80cfec:	d9800115 	stw	r6,4(sp)
  80cff0:	da000015 	stw	r8,0(sp)
  80cff4:	080d3380 	call	80d338 <__umodsi3>
  80cff8:	b00b883a 	mov	r5,r22
  80cffc:	b809883a 	mov	r4,r23
  80d000:	1039883a 	mov	fp,r2
  80d004:	080d2d40 	call	80d2d4 <__udivsi3>
  80d008:	da000017 	ldw	r8,0(sp)
  80d00c:	e038943a 	slli	fp,fp,16
  80d010:	100b883a 	mov	r5,r2
  80d014:	4089383a 	mul	r4,r8,r2
  80d018:	8a3fffcc 	andi	r8,r17,65535
  80d01c:	4710b03a 	or	r8,r8,fp
  80d020:	d9800117 	ldw	r6,4(sp)
  80d024:	4100042e 	bgeu	r8,r4,80d038 <__umoddi3+0x394>
  80d028:	4551883a 	add	r8,r8,r21
  80d02c:	10bfffc4 	addi	r2,r2,-1
  80d030:	45405a2e 	bgeu	r8,r21,80d19c <__umoddi3+0x4f8>
  80d034:	100b883a 	mov	r5,r2
  80d038:	300c943a 	slli	r6,r6,16
  80d03c:	91ffffcc 	andi	r7,r18,65535
  80d040:	9004d43a 	srli	r2,r18,16
  80d044:	314cb03a 	or	r6,r6,r5
  80d048:	317fffcc 	andi	r5,r6,65535
  80d04c:	300cd43a 	srli	r6,r6,16
  80d050:	29d3383a 	mul	r9,r5,r7
  80d054:	288b383a 	mul	r5,r5,r2
  80d058:	31cf383a 	mul	r7,r6,r7
  80d05c:	4806d43a 	srli	r3,r9,16
  80d060:	4111c83a 	sub	r8,r8,r4
  80d064:	29cb883a 	add	r5,r5,r7
  80d068:	194b883a 	add	r5,r3,r5
  80d06c:	3085383a 	mul	r2,r6,r2
  80d070:	29c0022e 	bgeu	r5,r7,80d07c <__umoddi3+0x3d8>
  80d074:	00c00074 	movhi	r3,1
  80d078:	10c5883a 	add	r2,r2,r3
  80d07c:	2808d43a 	srli	r4,r5,16
  80d080:	280a943a 	slli	r5,r5,16
  80d084:	4a7fffcc 	andi	r9,r9,65535
  80d088:	2085883a 	add	r2,r4,r2
  80d08c:	2a4b883a 	add	r5,r5,r9
  80d090:	40803636 	bltu	r8,r2,80d16c <__umoddi3+0x4c8>
  80d094:	40804d26 	beq	r8,r2,80d1cc <__umoddi3+0x528>
  80d098:	4089c83a 	sub	r4,r8,r2
  80d09c:	280f883a 	mov	r7,r5
  80d0a0:	81cfc83a 	sub	r7,r16,r7
  80d0a4:	81c7803a 	cmpltu	r3,r16,r7
  80d0a8:	20c7c83a 	sub	r3,r4,r3
  80d0ac:	1cc4983a 	sll	r2,r3,r19
  80d0b0:	3d0ed83a 	srl	r7,r7,r20
  80d0b4:	1d06d83a 	srl	r3,r3,r20
  80d0b8:	11c4b03a 	or	r2,r2,r7
  80d0bc:	003f9306 	br	80cf0c <__alt_mem_onchip_mem+0xff78cf0c>
  80d0c0:	9ca6983a 	sll	r19,r19,r18
  80d0c4:	88e8d83a 	srl	r20,r17,r3
  80d0c8:	80c4d83a 	srl	r2,r16,r3
  80d0cc:	982cd43a 	srli	r22,r19,16
  80d0d0:	8ca2983a 	sll	r17,r17,r18
  80d0d4:	a009883a 	mov	r4,r20
  80d0d8:	b00b883a 	mov	r5,r22
  80d0dc:	1478b03a 	or	fp,r2,r17
  80d0e0:	080d3380 	call	80d338 <__umodsi3>
  80d0e4:	a009883a 	mov	r4,r20
  80d0e8:	b00b883a 	mov	r5,r22
  80d0ec:	1023883a 	mov	r17,r2
  80d0f0:	080d2d40 	call	80d2d4 <__udivsi3>
  80d0f4:	9d7fffcc 	andi	r21,r19,65535
  80d0f8:	880a943a 	slli	r5,r17,16
  80d0fc:	e008d43a 	srli	r4,fp,16
  80d100:	a885383a 	mul	r2,r21,r2
  80d104:	84a8983a 	sll	r20,r16,r18
  80d108:	2148b03a 	or	r4,r4,r5
  80d10c:	2080042e 	bgeu	r4,r2,80d120 <__umoddi3+0x47c>
  80d110:	24c9883a 	add	r4,r4,r19
  80d114:	24c00236 	bltu	r4,r19,80d120 <__umoddi3+0x47c>
  80d118:	2080012e 	bgeu	r4,r2,80d120 <__umoddi3+0x47c>
  80d11c:	24c9883a 	add	r4,r4,r19
  80d120:	20a3c83a 	sub	r17,r4,r2
  80d124:	b00b883a 	mov	r5,r22
  80d128:	8809883a 	mov	r4,r17
  80d12c:	080d3380 	call	80d338 <__umodsi3>
  80d130:	102f883a 	mov	r23,r2
  80d134:	8809883a 	mov	r4,r17
  80d138:	b00b883a 	mov	r5,r22
  80d13c:	080d2d40 	call	80d2d4 <__udivsi3>
  80d140:	b82e943a 	slli	r23,r23,16
  80d144:	a885383a 	mul	r2,r21,r2
  80d148:	e13fffcc 	andi	r4,fp,65535
  80d14c:	25c8b03a 	or	r4,r4,r23
  80d150:	2080042e 	bgeu	r4,r2,80d164 <__umoddi3+0x4c0>
  80d154:	24c9883a 	add	r4,r4,r19
  80d158:	24c00236 	bltu	r4,r19,80d164 <__umoddi3+0x4c0>
  80d15c:	2080012e 	bgeu	r4,r2,80d164 <__umoddi3+0x4c0>
  80d160:	24c9883a 	add	r4,r4,r19
  80d164:	20a3c83a 	sub	r17,r4,r2
  80d168:	003f4806 	br	80ce8c <__alt_mem_onchip_mem+0xff78ce8c>
  80d16c:	2c8fc83a 	sub	r7,r5,r18
  80d170:	1545c83a 	sub	r2,r2,r21
  80d174:	29cb803a 	cmpltu	r5,r5,r7
  80d178:	1145c83a 	sub	r2,r2,r5
  80d17c:	4089c83a 	sub	r4,r8,r2
  80d180:	003fc706 	br	80d0a0 <__alt_mem_onchip_mem+0xff78d0a0>
  80d184:	01000604 	movi	r4,24
  80d188:	003f1806 	br	80cdec <__alt_mem_onchip_mem+0xff78cdec>
  80d18c:	00800604 	movi	r2,24
  80d190:	003f3206 	br	80ce5c <__alt_mem_onchip_mem+0xff78ce5c>
  80d194:	01000604 	movi	r4,24
  80d198:	003ed906 	br	80cd00 <__alt_mem_onchip_mem+0xff78cd00>
  80d19c:	413fa52e 	bgeu	r8,r4,80d034 <__alt_mem_onchip_mem+0xff78d034>
  80d1a0:	297fff84 	addi	r5,r5,-2
  80d1a4:	4551883a 	add	r8,r8,r21
  80d1a8:	003fa306 	br	80d038 <__alt_mem_onchip_mem+0xff78d038>
  80d1ac:	15ff8b2e 	bgeu	r2,r23,80cfdc <__alt_mem_onchip_mem+0xff78cfdc>
  80d1b0:	31bfff84 	addi	r6,r6,-2
  80d1b4:	1545883a 	add	r2,r2,r21
  80d1b8:	003f8906 	br	80cfe0 <__alt_mem_onchip_mem+0xff78cfe0>
  80d1bc:	24c9883a 	add	r4,r4,r19
  80d1c0:	003eee06 	br	80cd7c <__alt_mem_onchip_mem+0xff78cd7c>
  80d1c4:	8005883a 	mov	r2,r16
  80d1c8:	003f1706 	br	80ce28 <__alt_mem_onchip_mem+0xff78ce28>
  80d1cc:	817fe736 	bltu	r16,r5,80d16c <__alt_mem_onchip_mem+0xff78d16c>
  80d1d0:	280f883a 	mov	r7,r5
  80d1d4:	0009883a 	mov	r4,zero
  80d1d8:	003fb106 	br	80d0a0 <__alt_mem_onchip_mem+0xff78d0a0>

0080d1dc <__divsi3>:
  80d1dc:	20001b16 	blt	r4,zero,80d24c <__divsi3+0x70>
  80d1e0:	000f883a 	mov	r7,zero
  80d1e4:	28001616 	blt	r5,zero,80d240 <__divsi3+0x64>
  80d1e8:	200d883a 	mov	r6,r4
  80d1ec:	29001a2e 	bgeu	r5,r4,80d258 <__divsi3+0x7c>
  80d1f0:	00800804 	movi	r2,32
  80d1f4:	00c00044 	movi	r3,1
  80d1f8:	00000106 	br	80d200 <__divsi3+0x24>
  80d1fc:	10000d26 	beq	r2,zero,80d234 <__divsi3+0x58>
  80d200:	294b883a 	add	r5,r5,r5
  80d204:	10bfffc4 	addi	r2,r2,-1
  80d208:	18c7883a 	add	r3,r3,r3
  80d20c:	293ffb36 	bltu	r5,r4,80d1fc <__alt_mem_onchip_mem+0xff78d1fc>
  80d210:	0005883a 	mov	r2,zero
  80d214:	18000726 	beq	r3,zero,80d234 <__divsi3+0x58>
  80d218:	0005883a 	mov	r2,zero
  80d21c:	31400236 	bltu	r6,r5,80d228 <__divsi3+0x4c>
  80d220:	314dc83a 	sub	r6,r6,r5
  80d224:	10c4b03a 	or	r2,r2,r3
  80d228:	1806d07a 	srli	r3,r3,1
  80d22c:	280ad07a 	srli	r5,r5,1
  80d230:	183ffa1e 	bne	r3,zero,80d21c <__alt_mem_onchip_mem+0xff78d21c>
  80d234:	38000126 	beq	r7,zero,80d23c <__divsi3+0x60>
  80d238:	0085c83a 	sub	r2,zero,r2
  80d23c:	f800283a 	ret
  80d240:	014bc83a 	sub	r5,zero,r5
  80d244:	39c0005c 	xori	r7,r7,1
  80d248:	003fe706 	br	80d1e8 <__alt_mem_onchip_mem+0xff78d1e8>
  80d24c:	0109c83a 	sub	r4,zero,r4
  80d250:	01c00044 	movi	r7,1
  80d254:	003fe306 	br	80d1e4 <__alt_mem_onchip_mem+0xff78d1e4>
  80d258:	00c00044 	movi	r3,1
  80d25c:	003fee06 	br	80d218 <__alt_mem_onchip_mem+0xff78d218>

0080d260 <__modsi3>:
  80d260:	20001716 	blt	r4,zero,80d2c0 <__modsi3+0x60>
  80d264:	000f883a 	mov	r7,zero
  80d268:	2005883a 	mov	r2,r4
  80d26c:	28001216 	blt	r5,zero,80d2b8 <__modsi3+0x58>
  80d270:	2900162e 	bgeu	r5,r4,80d2cc <__modsi3+0x6c>
  80d274:	01800804 	movi	r6,32
  80d278:	00c00044 	movi	r3,1
  80d27c:	00000106 	br	80d284 <__modsi3+0x24>
  80d280:	30000a26 	beq	r6,zero,80d2ac <__modsi3+0x4c>
  80d284:	294b883a 	add	r5,r5,r5
  80d288:	31bfffc4 	addi	r6,r6,-1
  80d28c:	18c7883a 	add	r3,r3,r3
  80d290:	293ffb36 	bltu	r5,r4,80d280 <__alt_mem_onchip_mem+0xff78d280>
  80d294:	18000526 	beq	r3,zero,80d2ac <__modsi3+0x4c>
  80d298:	1806d07a 	srli	r3,r3,1
  80d29c:	11400136 	bltu	r2,r5,80d2a4 <__modsi3+0x44>
  80d2a0:	1145c83a 	sub	r2,r2,r5
  80d2a4:	280ad07a 	srli	r5,r5,1
  80d2a8:	183ffb1e 	bne	r3,zero,80d298 <__alt_mem_onchip_mem+0xff78d298>
  80d2ac:	38000126 	beq	r7,zero,80d2b4 <__modsi3+0x54>
  80d2b0:	0085c83a 	sub	r2,zero,r2
  80d2b4:	f800283a 	ret
  80d2b8:	014bc83a 	sub	r5,zero,r5
  80d2bc:	003fec06 	br	80d270 <__alt_mem_onchip_mem+0xff78d270>
  80d2c0:	0109c83a 	sub	r4,zero,r4
  80d2c4:	01c00044 	movi	r7,1
  80d2c8:	003fe706 	br	80d268 <__alt_mem_onchip_mem+0xff78d268>
  80d2cc:	00c00044 	movi	r3,1
  80d2d0:	003ff106 	br	80d298 <__alt_mem_onchip_mem+0xff78d298>

0080d2d4 <__udivsi3>:
  80d2d4:	200d883a 	mov	r6,r4
  80d2d8:	2900152e 	bgeu	r5,r4,80d330 <__udivsi3+0x5c>
  80d2dc:	28001416 	blt	r5,zero,80d330 <__udivsi3+0x5c>
  80d2e0:	00800804 	movi	r2,32
  80d2e4:	00c00044 	movi	r3,1
  80d2e8:	00000206 	br	80d2f4 <__udivsi3+0x20>
  80d2ec:	10000e26 	beq	r2,zero,80d328 <__udivsi3+0x54>
  80d2f0:	28000516 	blt	r5,zero,80d308 <__udivsi3+0x34>
  80d2f4:	294b883a 	add	r5,r5,r5
  80d2f8:	10bfffc4 	addi	r2,r2,-1
  80d2fc:	18c7883a 	add	r3,r3,r3
  80d300:	293ffa36 	bltu	r5,r4,80d2ec <__alt_mem_onchip_mem+0xff78d2ec>
  80d304:	18000826 	beq	r3,zero,80d328 <__udivsi3+0x54>
  80d308:	0005883a 	mov	r2,zero
  80d30c:	31400236 	bltu	r6,r5,80d318 <__udivsi3+0x44>
  80d310:	314dc83a 	sub	r6,r6,r5
  80d314:	10c4b03a 	or	r2,r2,r3
  80d318:	1806d07a 	srli	r3,r3,1
  80d31c:	280ad07a 	srli	r5,r5,1
  80d320:	183ffa1e 	bne	r3,zero,80d30c <__alt_mem_onchip_mem+0xff78d30c>
  80d324:	f800283a 	ret
  80d328:	0005883a 	mov	r2,zero
  80d32c:	f800283a 	ret
  80d330:	00c00044 	movi	r3,1
  80d334:	003ff406 	br	80d308 <__alt_mem_onchip_mem+0xff78d308>

0080d338 <__umodsi3>:
  80d338:	2005883a 	mov	r2,r4
  80d33c:	2900122e 	bgeu	r5,r4,80d388 <__umodsi3+0x50>
  80d340:	28001116 	blt	r5,zero,80d388 <__umodsi3+0x50>
  80d344:	01800804 	movi	r6,32
  80d348:	00c00044 	movi	r3,1
  80d34c:	00000206 	br	80d358 <__umodsi3+0x20>
  80d350:	30000c26 	beq	r6,zero,80d384 <__umodsi3+0x4c>
  80d354:	28000516 	blt	r5,zero,80d36c <__umodsi3+0x34>
  80d358:	294b883a 	add	r5,r5,r5
  80d35c:	31bfffc4 	addi	r6,r6,-1
  80d360:	18c7883a 	add	r3,r3,r3
  80d364:	293ffa36 	bltu	r5,r4,80d350 <__alt_mem_onchip_mem+0xff78d350>
  80d368:	18000626 	beq	r3,zero,80d384 <__umodsi3+0x4c>
  80d36c:	1806d07a 	srli	r3,r3,1
  80d370:	11400136 	bltu	r2,r5,80d378 <__umodsi3+0x40>
  80d374:	1145c83a 	sub	r2,r2,r5
  80d378:	280ad07a 	srli	r5,r5,1
  80d37c:	183ffb1e 	bne	r3,zero,80d36c <__alt_mem_onchip_mem+0xff78d36c>
  80d380:	f800283a 	ret
  80d384:	f800283a 	ret
  80d388:	00c00044 	movi	r3,1
  80d38c:	003ff706 	br	80d36c <__alt_mem_onchip_mem+0xff78d36c>

0080d390 <__adddf3>:
  80d390:	02c00434 	movhi	r11,16
  80d394:	5affffc4 	addi	r11,r11,-1
  80d398:	2806d7fa 	srli	r3,r5,31
  80d39c:	2ad4703a 	and	r10,r5,r11
  80d3a0:	3ad2703a 	and	r9,r7,r11
  80d3a4:	3804d53a 	srli	r2,r7,20
  80d3a8:	3018d77a 	srli	r12,r6,29
  80d3ac:	280ad53a 	srli	r5,r5,20
  80d3b0:	501490fa 	slli	r10,r10,3
  80d3b4:	2010d77a 	srli	r8,r4,29
  80d3b8:	481290fa 	slli	r9,r9,3
  80d3bc:	380ed7fa 	srli	r7,r7,31
  80d3c0:	defffb04 	addi	sp,sp,-20
  80d3c4:	dc800215 	stw	r18,8(sp)
  80d3c8:	dc400115 	stw	r17,4(sp)
  80d3cc:	dc000015 	stw	r16,0(sp)
  80d3d0:	dfc00415 	stw	ra,16(sp)
  80d3d4:	dcc00315 	stw	r19,12(sp)
  80d3d8:	1c803fcc 	andi	r18,r3,255
  80d3dc:	2c01ffcc 	andi	r16,r5,2047
  80d3e0:	5210b03a 	or	r8,r10,r8
  80d3e4:	202290fa 	slli	r17,r4,3
  80d3e8:	1081ffcc 	andi	r2,r2,2047
  80d3ec:	4b12b03a 	or	r9,r9,r12
  80d3f0:	300c90fa 	slli	r6,r6,3
  80d3f4:	91c07526 	beq	r18,r7,80d5cc <__adddf3+0x23c>
  80d3f8:	8087c83a 	sub	r3,r16,r2
  80d3fc:	00c0ab0e 	bge	zero,r3,80d6ac <__adddf3+0x31c>
  80d400:	10002a1e 	bne	r2,zero,80d4ac <__adddf3+0x11c>
  80d404:	4984b03a 	or	r2,r9,r6
  80d408:	1000961e 	bne	r2,zero,80d664 <__adddf3+0x2d4>
  80d40c:	888001cc 	andi	r2,r17,7
  80d410:	10000726 	beq	r2,zero,80d430 <__adddf3+0xa0>
  80d414:	888003cc 	andi	r2,r17,15
  80d418:	00c00104 	movi	r3,4
  80d41c:	10c00426 	beq	r2,r3,80d430 <__adddf3+0xa0>
  80d420:	88c7883a 	add	r3,r17,r3
  80d424:	1c63803a 	cmpltu	r17,r3,r17
  80d428:	4451883a 	add	r8,r8,r17
  80d42c:	1823883a 	mov	r17,r3
  80d430:	4080202c 	andhi	r2,r8,128
  80d434:	10005926 	beq	r2,zero,80d59c <__adddf3+0x20c>
  80d438:	84000044 	addi	r16,r16,1
  80d43c:	0081ffc4 	movi	r2,2047
  80d440:	8080ba26 	beq	r16,r2,80d72c <__adddf3+0x39c>
  80d444:	00bfe034 	movhi	r2,65408
  80d448:	10bfffc4 	addi	r2,r2,-1
  80d44c:	4090703a 	and	r8,r8,r2
  80d450:	4004977a 	slli	r2,r8,29
  80d454:	4010927a 	slli	r8,r8,9
  80d458:	8822d0fa 	srli	r17,r17,3
  80d45c:	8401ffcc 	andi	r16,r16,2047
  80d460:	4010d33a 	srli	r8,r8,12
  80d464:	9007883a 	mov	r3,r18
  80d468:	1444b03a 	or	r2,r2,r17
  80d46c:	8401ffcc 	andi	r16,r16,2047
  80d470:	8020953a 	slli	r16,r16,20
  80d474:	18c03fcc 	andi	r3,r3,255
  80d478:	01000434 	movhi	r4,16
  80d47c:	213fffc4 	addi	r4,r4,-1
  80d480:	180697fa 	slli	r3,r3,31
  80d484:	4110703a 	and	r8,r8,r4
  80d488:	4410b03a 	or	r8,r8,r16
  80d48c:	40c6b03a 	or	r3,r8,r3
  80d490:	dfc00417 	ldw	ra,16(sp)
  80d494:	dcc00317 	ldw	r19,12(sp)
  80d498:	dc800217 	ldw	r18,8(sp)
  80d49c:	dc400117 	ldw	r17,4(sp)
  80d4a0:	dc000017 	ldw	r16,0(sp)
  80d4a4:	dec00504 	addi	sp,sp,20
  80d4a8:	f800283a 	ret
  80d4ac:	0081ffc4 	movi	r2,2047
  80d4b0:	80bfd626 	beq	r16,r2,80d40c <__alt_mem_onchip_mem+0xff78d40c>
  80d4b4:	4a402034 	orhi	r9,r9,128
  80d4b8:	00800e04 	movi	r2,56
  80d4bc:	10c09f16 	blt	r2,r3,80d73c <__adddf3+0x3ac>
  80d4c0:	008007c4 	movi	r2,31
  80d4c4:	10c0c216 	blt	r2,r3,80d7d0 <__adddf3+0x440>
  80d4c8:	00800804 	movi	r2,32
  80d4cc:	10c5c83a 	sub	r2,r2,r3
  80d4d0:	488a983a 	sll	r5,r9,r2
  80d4d4:	30c8d83a 	srl	r4,r6,r3
  80d4d8:	3084983a 	sll	r2,r6,r2
  80d4dc:	48c6d83a 	srl	r3,r9,r3
  80d4e0:	290cb03a 	or	r6,r5,r4
  80d4e4:	1004c03a 	cmpne	r2,r2,zero
  80d4e8:	308cb03a 	or	r6,r6,r2
  80d4ec:	898dc83a 	sub	r6,r17,r6
  80d4f0:	89a3803a 	cmpltu	r17,r17,r6
  80d4f4:	40d1c83a 	sub	r8,r8,r3
  80d4f8:	4451c83a 	sub	r8,r8,r17
  80d4fc:	3023883a 	mov	r17,r6
  80d500:	4080202c 	andhi	r2,r8,128
  80d504:	10002326 	beq	r2,zero,80d594 <__adddf3+0x204>
  80d508:	04c02034 	movhi	r19,128
  80d50c:	9cffffc4 	addi	r19,r19,-1
  80d510:	44e6703a 	and	r19,r8,r19
  80d514:	98007626 	beq	r19,zero,80d6f0 <__adddf3+0x360>
  80d518:	9809883a 	mov	r4,r19
  80d51c:	080f9940 	call	80f994 <__clzsi2>
  80d520:	10fffe04 	addi	r3,r2,-8
  80d524:	010007c4 	movi	r4,31
  80d528:	20c07716 	blt	r4,r3,80d708 <__adddf3+0x378>
  80d52c:	00800804 	movi	r2,32
  80d530:	10c5c83a 	sub	r2,r2,r3
  80d534:	8884d83a 	srl	r2,r17,r2
  80d538:	98d0983a 	sll	r8,r19,r3
  80d53c:	88e2983a 	sll	r17,r17,r3
  80d540:	1204b03a 	or	r2,r2,r8
  80d544:	1c007416 	blt	r3,r16,80d718 <__adddf3+0x388>
  80d548:	1c21c83a 	sub	r16,r3,r16
  80d54c:	82000044 	addi	r8,r16,1
  80d550:	00c007c4 	movi	r3,31
  80d554:	1a009116 	blt	r3,r8,80d79c <__adddf3+0x40c>
  80d558:	00c00804 	movi	r3,32
  80d55c:	1a07c83a 	sub	r3,r3,r8
  80d560:	8a08d83a 	srl	r4,r17,r8
  80d564:	88e2983a 	sll	r17,r17,r3
  80d568:	10c6983a 	sll	r3,r2,r3
  80d56c:	1210d83a 	srl	r8,r2,r8
  80d570:	8804c03a 	cmpne	r2,r17,zero
  80d574:	1906b03a 	or	r3,r3,r4
  80d578:	18a2b03a 	or	r17,r3,r2
  80d57c:	0021883a 	mov	r16,zero
  80d580:	003fa206 	br	80d40c <__alt_mem_onchip_mem+0xff78d40c>
  80d584:	1890b03a 	or	r8,r3,r2
  80d588:	40017d26 	beq	r8,zero,80db80 <__adddf3+0x7f0>
  80d58c:	1011883a 	mov	r8,r2
  80d590:	1823883a 	mov	r17,r3
  80d594:	888001cc 	andi	r2,r17,7
  80d598:	103f9e1e 	bne	r2,zero,80d414 <__alt_mem_onchip_mem+0xff78d414>
  80d59c:	4004977a 	slli	r2,r8,29
  80d5a0:	8822d0fa 	srli	r17,r17,3
  80d5a4:	4010d0fa 	srli	r8,r8,3
  80d5a8:	9007883a 	mov	r3,r18
  80d5ac:	1444b03a 	or	r2,r2,r17
  80d5b0:	0101ffc4 	movi	r4,2047
  80d5b4:	81002426 	beq	r16,r4,80d648 <__adddf3+0x2b8>
  80d5b8:	8120703a 	and	r16,r16,r4
  80d5bc:	01000434 	movhi	r4,16
  80d5c0:	213fffc4 	addi	r4,r4,-1
  80d5c4:	4110703a 	and	r8,r8,r4
  80d5c8:	003fa806 	br	80d46c <__alt_mem_onchip_mem+0xff78d46c>
  80d5cc:	8089c83a 	sub	r4,r16,r2
  80d5d0:	01005e0e 	bge	zero,r4,80d74c <__adddf3+0x3bc>
  80d5d4:	10002b26 	beq	r2,zero,80d684 <__adddf3+0x2f4>
  80d5d8:	0081ffc4 	movi	r2,2047
  80d5dc:	80bf8b26 	beq	r16,r2,80d40c <__alt_mem_onchip_mem+0xff78d40c>
  80d5e0:	4a402034 	orhi	r9,r9,128
  80d5e4:	00800e04 	movi	r2,56
  80d5e8:	1100a40e 	bge	r2,r4,80d87c <__adddf3+0x4ec>
  80d5ec:	498cb03a 	or	r6,r9,r6
  80d5f0:	300ac03a 	cmpne	r5,r6,zero
  80d5f4:	0013883a 	mov	r9,zero
  80d5f8:	2c4b883a 	add	r5,r5,r17
  80d5fc:	2c63803a 	cmpltu	r17,r5,r17
  80d600:	4a11883a 	add	r8,r9,r8
  80d604:	8a11883a 	add	r8,r17,r8
  80d608:	2823883a 	mov	r17,r5
  80d60c:	4080202c 	andhi	r2,r8,128
  80d610:	103fe026 	beq	r2,zero,80d594 <__alt_mem_onchip_mem+0xff78d594>
  80d614:	84000044 	addi	r16,r16,1
  80d618:	0081ffc4 	movi	r2,2047
  80d61c:	8080d226 	beq	r16,r2,80d968 <__adddf3+0x5d8>
  80d620:	00bfe034 	movhi	r2,65408
  80d624:	10bfffc4 	addi	r2,r2,-1
  80d628:	4090703a 	and	r8,r8,r2
  80d62c:	880ad07a 	srli	r5,r17,1
  80d630:	400897fa 	slli	r4,r8,31
  80d634:	88c0004c 	andi	r3,r17,1
  80d638:	28e2b03a 	or	r17,r5,r3
  80d63c:	4010d07a 	srli	r8,r8,1
  80d640:	2462b03a 	or	r17,r4,r17
  80d644:	003f7106 	br	80d40c <__alt_mem_onchip_mem+0xff78d40c>
  80d648:	4088b03a 	or	r4,r8,r2
  80d64c:	20014526 	beq	r4,zero,80db64 <__adddf3+0x7d4>
  80d650:	01000434 	movhi	r4,16
  80d654:	42000234 	orhi	r8,r8,8
  80d658:	213fffc4 	addi	r4,r4,-1
  80d65c:	4110703a 	and	r8,r8,r4
  80d660:	003f8206 	br	80d46c <__alt_mem_onchip_mem+0xff78d46c>
  80d664:	18ffffc4 	addi	r3,r3,-1
  80d668:	1800491e 	bne	r3,zero,80d790 <__adddf3+0x400>
  80d66c:	898bc83a 	sub	r5,r17,r6
  80d670:	8963803a 	cmpltu	r17,r17,r5
  80d674:	4251c83a 	sub	r8,r8,r9
  80d678:	4451c83a 	sub	r8,r8,r17
  80d67c:	2823883a 	mov	r17,r5
  80d680:	003f9f06 	br	80d500 <__alt_mem_onchip_mem+0xff78d500>
  80d684:	4984b03a 	or	r2,r9,r6
  80d688:	103f6026 	beq	r2,zero,80d40c <__alt_mem_onchip_mem+0xff78d40c>
  80d68c:	213fffc4 	addi	r4,r4,-1
  80d690:	2000931e 	bne	r4,zero,80d8e0 <__adddf3+0x550>
  80d694:	898d883a 	add	r6,r17,r6
  80d698:	3463803a 	cmpltu	r17,r6,r17
  80d69c:	4251883a 	add	r8,r8,r9
  80d6a0:	8a11883a 	add	r8,r17,r8
  80d6a4:	3023883a 	mov	r17,r6
  80d6a8:	003fd806 	br	80d60c <__alt_mem_onchip_mem+0xff78d60c>
  80d6ac:	1800541e 	bne	r3,zero,80d800 <__adddf3+0x470>
  80d6b0:	80800044 	addi	r2,r16,1
  80d6b4:	1081ffcc 	andi	r2,r2,2047
  80d6b8:	00c00044 	movi	r3,1
  80d6bc:	1880a00e 	bge	r3,r2,80d940 <__adddf3+0x5b0>
  80d6c0:	8989c83a 	sub	r4,r17,r6
  80d6c4:	8905803a 	cmpltu	r2,r17,r4
  80d6c8:	4267c83a 	sub	r19,r8,r9
  80d6cc:	98a7c83a 	sub	r19,r19,r2
  80d6d0:	9880202c 	andhi	r2,r19,128
  80d6d4:	10006326 	beq	r2,zero,80d864 <__adddf3+0x4d4>
  80d6d8:	3463c83a 	sub	r17,r6,r17
  80d6dc:	4a07c83a 	sub	r3,r9,r8
  80d6e0:	344d803a 	cmpltu	r6,r6,r17
  80d6e4:	19a7c83a 	sub	r19,r3,r6
  80d6e8:	3825883a 	mov	r18,r7
  80d6ec:	983f8a1e 	bne	r19,zero,80d518 <__alt_mem_onchip_mem+0xff78d518>
  80d6f0:	8809883a 	mov	r4,r17
  80d6f4:	080f9940 	call	80f994 <__clzsi2>
  80d6f8:	10800804 	addi	r2,r2,32
  80d6fc:	10fffe04 	addi	r3,r2,-8
  80d700:	010007c4 	movi	r4,31
  80d704:	20ff890e 	bge	r4,r3,80d52c <__alt_mem_onchip_mem+0xff78d52c>
  80d708:	10bff604 	addi	r2,r2,-40
  80d70c:	8884983a 	sll	r2,r17,r2
  80d710:	0023883a 	mov	r17,zero
  80d714:	1c3f8c0e 	bge	r3,r16,80d548 <__alt_mem_onchip_mem+0xff78d548>
  80d718:	023fe034 	movhi	r8,65408
  80d71c:	423fffc4 	addi	r8,r8,-1
  80d720:	80e1c83a 	sub	r16,r16,r3
  80d724:	1210703a 	and	r8,r2,r8
  80d728:	003f3806 	br	80d40c <__alt_mem_onchip_mem+0xff78d40c>
  80d72c:	9007883a 	mov	r3,r18
  80d730:	0011883a 	mov	r8,zero
  80d734:	0005883a 	mov	r2,zero
  80d738:	003f4c06 	br	80d46c <__alt_mem_onchip_mem+0xff78d46c>
  80d73c:	498cb03a 	or	r6,r9,r6
  80d740:	300cc03a 	cmpne	r6,r6,zero
  80d744:	0007883a 	mov	r3,zero
  80d748:	003f6806 	br	80d4ec <__alt_mem_onchip_mem+0xff78d4ec>
  80d74c:	20009c1e 	bne	r4,zero,80d9c0 <__adddf3+0x630>
  80d750:	80800044 	addi	r2,r16,1
  80d754:	1141ffcc 	andi	r5,r2,2047
  80d758:	01000044 	movi	r4,1
  80d75c:	2140670e 	bge	r4,r5,80d8fc <__adddf3+0x56c>
  80d760:	0101ffc4 	movi	r4,2047
  80d764:	11007f26 	beq	r2,r4,80d964 <__adddf3+0x5d4>
  80d768:	898d883a 	add	r6,r17,r6
  80d76c:	4247883a 	add	r3,r8,r9
  80d770:	3451803a 	cmpltu	r8,r6,r17
  80d774:	40d1883a 	add	r8,r8,r3
  80d778:	402297fa 	slli	r17,r8,31
  80d77c:	300cd07a 	srli	r6,r6,1
  80d780:	4010d07a 	srli	r8,r8,1
  80d784:	1021883a 	mov	r16,r2
  80d788:	89a2b03a 	or	r17,r17,r6
  80d78c:	003f1f06 	br	80d40c <__alt_mem_onchip_mem+0xff78d40c>
  80d790:	0081ffc4 	movi	r2,2047
  80d794:	80bf481e 	bne	r16,r2,80d4b8 <__alt_mem_onchip_mem+0xff78d4b8>
  80d798:	003f1c06 	br	80d40c <__alt_mem_onchip_mem+0xff78d40c>
  80d79c:	843ff844 	addi	r16,r16,-31
  80d7a0:	01000804 	movi	r4,32
  80d7a4:	1406d83a 	srl	r3,r2,r16
  80d7a8:	41005026 	beq	r8,r4,80d8ec <__adddf3+0x55c>
  80d7ac:	01001004 	movi	r4,64
  80d7b0:	2211c83a 	sub	r8,r4,r8
  80d7b4:	1204983a 	sll	r2,r2,r8
  80d7b8:	88a2b03a 	or	r17,r17,r2
  80d7bc:	8822c03a 	cmpne	r17,r17,zero
  80d7c0:	1c62b03a 	or	r17,r3,r17
  80d7c4:	0011883a 	mov	r8,zero
  80d7c8:	0021883a 	mov	r16,zero
  80d7cc:	003f7106 	br	80d594 <__alt_mem_onchip_mem+0xff78d594>
  80d7d0:	193ff804 	addi	r4,r3,-32
  80d7d4:	00800804 	movi	r2,32
  80d7d8:	4908d83a 	srl	r4,r9,r4
  80d7dc:	18804526 	beq	r3,r2,80d8f4 <__adddf3+0x564>
  80d7e0:	00801004 	movi	r2,64
  80d7e4:	10c5c83a 	sub	r2,r2,r3
  80d7e8:	4886983a 	sll	r3,r9,r2
  80d7ec:	198cb03a 	or	r6,r3,r6
  80d7f0:	300cc03a 	cmpne	r6,r6,zero
  80d7f4:	218cb03a 	or	r6,r4,r6
  80d7f8:	0007883a 	mov	r3,zero
  80d7fc:	003f3b06 	br	80d4ec <__alt_mem_onchip_mem+0xff78d4ec>
  80d800:	80002a26 	beq	r16,zero,80d8ac <__adddf3+0x51c>
  80d804:	0101ffc4 	movi	r4,2047
  80d808:	11006826 	beq	r2,r4,80d9ac <__adddf3+0x61c>
  80d80c:	00c7c83a 	sub	r3,zero,r3
  80d810:	42002034 	orhi	r8,r8,128
  80d814:	01000e04 	movi	r4,56
  80d818:	20c07c16 	blt	r4,r3,80da0c <__adddf3+0x67c>
  80d81c:	010007c4 	movi	r4,31
  80d820:	20c0da16 	blt	r4,r3,80db8c <__adddf3+0x7fc>
  80d824:	01000804 	movi	r4,32
  80d828:	20c9c83a 	sub	r4,r4,r3
  80d82c:	4114983a 	sll	r10,r8,r4
  80d830:	88cad83a 	srl	r5,r17,r3
  80d834:	8908983a 	sll	r4,r17,r4
  80d838:	40c6d83a 	srl	r3,r8,r3
  80d83c:	5162b03a 	or	r17,r10,r5
  80d840:	2008c03a 	cmpne	r4,r4,zero
  80d844:	8922b03a 	or	r17,r17,r4
  80d848:	3463c83a 	sub	r17,r6,r17
  80d84c:	48c7c83a 	sub	r3,r9,r3
  80d850:	344d803a 	cmpltu	r6,r6,r17
  80d854:	1991c83a 	sub	r8,r3,r6
  80d858:	1021883a 	mov	r16,r2
  80d85c:	3825883a 	mov	r18,r7
  80d860:	003f2706 	br	80d500 <__alt_mem_onchip_mem+0xff78d500>
  80d864:	24d0b03a 	or	r8,r4,r19
  80d868:	40001b1e 	bne	r8,zero,80d8d8 <__adddf3+0x548>
  80d86c:	0005883a 	mov	r2,zero
  80d870:	0007883a 	mov	r3,zero
  80d874:	0021883a 	mov	r16,zero
  80d878:	003f4d06 	br	80d5b0 <__alt_mem_onchip_mem+0xff78d5b0>
  80d87c:	008007c4 	movi	r2,31
  80d880:	11003c16 	blt	r2,r4,80d974 <__adddf3+0x5e4>
  80d884:	00800804 	movi	r2,32
  80d888:	1105c83a 	sub	r2,r2,r4
  80d88c:	488e983a 	sll	r7,r9,r2
  80d890:	310ad83a 	srl	r5,r6,r4
  80d894:	3084983a 	sll	r2,r6,r2
  80d898:	4912d83a 	srl	r9,r9,r4
  80d89c:	394ab03a 	or	r5,r7,r5
  80d8a0:	1004c03a 	cmpne	r2,r2,zero
  80d8a4:	288ab03a 	or	r5,r5,r2
  80d8a8:	003f5306 	br	80d5f8 <__alt_mem_onchip_mem+0xff78d5f8>
  80d8ac:	4448b03a 	or	r4,r8,r17
  80d8b0:	20003e26 	beq	r4,zero,80d9ac <__adddf3+0x61c>
  80d8b4:	00c6303a 	nor	r3,zero,r3
  80d8b8:	18003a1e 	bne	r3,zero,80d9a4 <__adddf3+0x614>
  80d8bc:	3463c83a 	sub	r17,r6,r17
  80d8c0:	4a07c83a 	sub	r3,r9,r8
  80d8c4:	344d803a 	cmpltu	r6,r6,r17
  80d8c8:	1991c83a 	sub	r8,r3,r6
  80d8cc:	1021883a 	mov	r16,r2
  80d8d0:	3825883a 	mov	r18,r7
  80d8d4:	003f0a06 	br	80d500 <__alt_mem_onchip_mem+0xff78d500>
  80d8d8:	2023883a 	mov	r17,r4
  80d8dc:	003f0d06 	br	80d514 <__alt_mem_onchip_mem+0xff78d514>
  80d8e0:	0081ffc4 	movi	r2,2047
  80d8e4:	80bf3f1e 	bne	r16,r2,80d5e4 <__alt_mem_onchip_mem+0xff78d5e4>
  80d8e8:	003ec806 	br	80d40c <__alt_mem_onchip_mem+0xff78d40c>
  80d8ec:	0005883a 	mov	r2,zero
  80d8f0:	003fb106 	br	80d7b8 <__alt_mem_onchip_mem+0xff78d7b8>
  80d8f4:	0007883a 	mov	r3,zero
  80d8f8:	003fbc06 	br	80d7ec <__alt_mem_onchip_mem+0xff78d7ec>
  80d8fc:	4444b03a 	or	r2,r8,r17
  80d900:	8000871e 	bne	r16,zero,80db20 <__adddf3+0x790>
  80d904:	1000ba26 	beq	r2,zero,80dbf0 <__adddf3+0x860>
  80d908:	4984b03a 	or	r2,r9,r6
  80d90c:	103ebf26 	beq	r2,zero,80d40c <__alt_mem_onchip_mem+0xff78d40c>
  80d910:	8985883a 	add	r2,r17,r6
  80d914:	4247883a 	add	r3,r8,r9
  80d918:	1451803a 	cmpltu	r8,r2,r17
  80d91c:	40d1883a 	add	r8,r8,r3
  80d920:	40c0202c 	andhi	r3,r8,128
  80d924:	1023883a 	mov	r17,r2
  80d928:	183f1a26 	beq	r3,zero,80d594 <__alt_mem_onchip_mem+0xff78d594>
  80d92c:	00bfe034 	movhi	r2,65408
  80d930:	10bfffc4 	addi	r2,r2,-1
  80d934:	2021883a 	mov	r16,r4
  80d938:	4090703a 	and	r8,r8,r2
  80d93c:	003eb306 	br	80d40c <__alt_mem_onchip_mem+0xff78d40c>
  80d940:	4444b03a 	or	r2,r8,r17
  80d944:	8000291e 	bne	r16,zero,80d9ec <__adddf3+0x65c>
  80d948:	10004b1e 	bne	r2,zero,80da78 <__adddf3+0x6e8>
  80d94c:	4990b03a 	or	r8,r9,r6
  80d950:	40008b26 	beq	r8,zero,80db80 <__adddf3+0x7f0>
  80d954:	4811883a 	mov	r8,r9
  80d958:	3023883a 	mov	r17,r6
  80d95c:	3825883a 	mov	r18,r7
  80d960:	003eaa06 	br	80d40c <__alt_mem_onchip_mem+0xff78d40c>
  80d964:	1021883a 	mov	r16,r2
  80d968:	0011883a 	mov	r8,zero
  80d96c:	0005883a 	mov	r2,zero
  80d970:	003f0f06 	br	80d5b0 <__alt_mem_onchip_mem+0xff78d5b0>
  80d974:	217ff804 	addi	r5,r4,-32
  80d978:	00800804 	movi	r2,32
  80d97c:	494ad83a 	srl	r5,r9,r5
  80d980:	20807d26 	beq	r4,r2,80db78 <__adddf3+0x7e8>
  80d984:	00801004 	movi	r2,64
  80d988:	1109c83a 	sub	r4,r2,r4
  80d98c:	4912983a 	sll	r9,r9,r4
  80d990:	498cb03a 	or	r6,r9,r6
  80d994:	300cc03a 	cmpne	r6,r6,zero
  80d998:	298ab03a 	or	r5,r5,r6
  80d99c:	0013883a 	mov	r9,zero
  80d9a0:	003f1506 	br	80d5f8 <__alt_mem_onchip_mem+0xff78d5f8>
  80d9a4:	0101ffc4 	movi	r4,2047
  80d9a8:	113f9a1e 	bne	r2,r4,80d814 <__alt_mem_onchip_mem+0xff78d814>
  80d9ac:	4811883a 	mov	r8,r9
  80d9b0:	3023883a 	mov	r17,r6
  80d9b4:	1021883a 	mov	r16,r2
  80d9b8:	3825883a 	mov	r18,r7
  80d9bc:	003e9306 	br	80d40c <__alt_mem_onchip_mem+0xff78d40c>
  80d9c0:	8000161e 	bne	r16,zero,80da1c <__adddf3+0x68c>
  80d9c4:	444ab03a 	or	r5,r8,r17
  80d9c8:	28005126 	beq	r5,zero,80db10 <__adddf3+0x780>
  80d9cc:	0108303a 	nor	r4,zero,r4
  80d9d0:	20004d1e 	bne	r4,zero,80db08 <__adddf3+0x778>
  80d9d4:	89a3883a 	add	r17,r17,r6
  80d9d8:	4253883a 	add	r9,r8,r9
  80d9dc:	898d803a 	cmpltu	r6,r17,r6
  80d9e0:	3251883a 	add	r8,r6,r9
  80d9e4:	1021883a 	mov	r16,r2
  80d9e8:	003f0806 	br	80d60c <__alt_mem_onchip_mem+0xff78d60c>
  80d9ec:	1000301e 	bne	r2,zero,80dab0 <__adddf3+0x720>
  80d9f0:	4984b03a 	or	r2,r9,r6
  80d9f4:	10007126 	beq	r2,zero,80dbbc <__adddf3+0x82c>
  80d9f8:	4811883a 	mov	r8,r9
  80d9fc:	3023883a 	mov	r17,r6
  80da00:	3825883a 	mov	r18,r7
  80da04:	0401ffc4 	movi	r16,2047
  80da08:	003e8006 	br	80d40c <__alt_mem_onchip_mem+0xff78d40c>
  80da0c:	4462b03a 	or	r17,r8,r17
  80da10:	8822c03a 	cmpne	r17,r17,zero
  80da14:	0007883a 	mov	r3,zero
  80da18:	003f8b06 	br	80d848 <__alt_mem_onchip_mem+0xff78d848>
  80da1c:	0141ffc4 	movi	r5,2047
  80da20:	11403b26 	beq	r2,r5,80db10 <__adddf3+0x780>
  80da24:	0109c83a 	sub	r4,zero,r4
  80da28:	42002034 	orhi	r8,r8,128
  80da2c:	01400e04 	movi	r5,56
  80da30:	29006716 	blt	r5,r4,80dbd0 <__adddf3+0x840>
  80da34:	014007c4 	movi	r5,31
  80da38:	29007016 	blt	r5,r4,80dbfc <__adddf3+0x86c>
  80da3c:	01400804 	movi	r5,32
  80da40:	290bc83a 	sub	r5,r5,r4
  80da44:	4154983a 	sll	r10,r8,r5
  80da48:	890ed83a 	srl	r7,r17,r4
  80da4c:	894a983a 	sll	r5,r17,r5
  80da50:	4108d83a 	srl	r4,r8,r4
  80da54:	51e2b03a 	or	r17,r10,r7
  80da58:	280ac03a 	cmpne	r5,r5,zero
  80da5c:	8962b03a 	or	r17,r17,r5
  80da60:	89a3883a 	add	r17,r17,r6
  80da64:	2253883a 	add	r9,r4,r9
  80da68:	898d803a 	cmpltu	r6,r17,r6
  80da6c:	3251883a 	add	r8,r6,r9
  80da70:	1021883a 	mov	r16,r2
  80da74:	003ee506 	br	80d60c <__alt_mem_onchip_mem+0xff78d60c>
  80da78:	4984b03a 	or	r2,r9,r6
  80da7c:	103e6326 	beq	r2,zero,80d40c <__alt_mem_onchip_mem+0xff78d40c>
  80da80:	8987c83a 	sub	r3,r17,r6
  80da84:	88c9803a 	cmpltu	r4,r17,r3
  80da88:	4245c83a 	sub	r2,r8,r9
  80da8c:	1105c83a 	sub	r2,r2,r4
  80da90:	1100202c 	andhi	r4,r2,128
  80da94:	203ebb26 	beq	r4,zero,80d584 <__alt_mem_onchip_mem+0xff78d584>
  80da98:	3463c83a 	sub	r17,r6,r17
  80da9c:	4a07c83a 	sub	r3,r9,r8
  80daa0:	344d803a 	cmpltu	r6,r6,r17
  80daa4:	1991c83a 	sub	r8,r3,r6
  80daa8:	3825883a 	mov	r18,r7
  80daac:	003e5706 	br	80d40c <__alt_mem_onchip_mem+0xff78d40c>
  80dab0:	4984b03a 	or	r2,r9,r6
  80dab4:	10002e26 	beq	r2,zero,80db70 <__adddf3+0x7e0>
  80dab8:	4004d0fa 	srli	r2,r8,3
  80dabc:	8822d0fa 	srli	r17,r17,3
  80dac0:	4010977a 	slli	r8,r8,29
  80dac4:	10c0022c 	andhi	r3,r2,8
  80dac8:	4462b03a 	or	r17,r8,r17
  80dacc:	18000826 	beq	r3,zero,80daf0 <__adddf3+0x760>
  80dad0:	4808d0fa 	srli	r4,r9,3
  80dad4:	20c0022c 	andhi	r3,r4,8
  80dad8:	1800051e 	bne	r3,zero,80daf0 <__adddf3+0x760>
  80dadc:	300cd0fa 	srli	r6,r6,3
  80dae0:	4806977a 	slli	r3,r9,29
  80dae4:	2005883a 	mov	r2,r4
  80dae8:	3825883a 	mov	r18,r7
  80daec:	19a2b03a 	or	r17,r3,r6
  80daf0:	8810d77a 	srli	r8,r17,29
  80daf4:	100490fa 	slli	r2,r2,3
  80daf8:	882290fa 	slli	r17,r17,3
  80dafc:	0401ffc4 	movi	r16,2047
  80db00:	4090b03a 	or	r8,r8,r2
  80db04:	003e4106 	br	80d40c <__alt_mem_onchip_mem+0xff78d40c>
  80db08:	0141ffc4 	movi	r5,2047
  80db0c:	117fc71e 	bne	r2,r5,80da2c <__alt_mem_onchip_mem+0xff78da2c>
  80db10:	4811883a 	mov	r8,r9
  80db14:	3023883a 	mov	r17,r6
  80db18:	1021883a 	mov	r16,r2
  80db1c:	003e3b06 	br	80d40c <__alt_mem_onchip_mem+0xff78d40c>
  80db20:	10002f26 	beq	r2,zero,80dbe0 <__adddf3+0x850>
  80db24:	4984b03a 	or	r2,r9,r6
  80db28:	10001126 	beq	r2,zero,80db70 <__adddf3+0x7e0>
  80db2c:	4004d0fa 	srli	r2,r8,3
  80db30:	8822d0fa 	srli	r17,r17,3
  80db34:	4010977a 	slli	r8,r8,29
  80db38:	10c0022c 	andhi	r3,r2,8
  80db3c:	4462b03a 	or	r17,r8,r17
  80db40:	183feb26 	beq	r3,zero,80daf0 <__alt_mem_onchip_mem+0xff78daf0>
  80db44:	4808d0fa 	srli	r4,r9,3
  80db48:	20c0022c 	andhi	r3,r4,8
  80db4c:	183fe81e 	bne	r3,zero,80daf0 <__alt_mem_onchip_mem+0xff78daf0>
  80db50:	300cd0fa 	srli	r6,r6,3
  80db54:	4806977a 	slli	r3,r9,29
  80db58:	2005883a 	mov	r2,r4
  80db5c:	19a2b03a 	or	r17,r3,r6
  80db60:	003fe306 	br	80daf0 <__alt_mem_onchip_mem+0xff78daf0>
  80db64:	0011883a 	mov	r8,zero
  80db68:	0005883a 	mov	r2,zero
  80db6c:	003e3f06 	br	80d46c <__alt_mem_onchip_mem+0xff78d46c>
  80db70:	0401ffc4 	movi	r16,2047
  80db74:	003e2506 	br	80d40c <__alt_mem_onchip_mem+0xff78d40c>
  80db78:	0013883a 	mov	r9,zero
  80db7c:	003f8406 	br	80d990 <__alt_mem_onchip_mem+0xff78d990>
  80db80:	0005883a 	mov	r2,zero
  80db84:	0007883a 	mov	r3,zero
  80db88:	003e8906 	br	80d5b0 <__alt_mem_onchip_mem+0xff78d5b0>
  80db8c:	197ff804 	addi	r5,r3,-32
  80db90:	01000804 	movi	r4,32
  80db94:	414ad83a 	srl	r5,r8,r5
  80db98:	19002426 	beq	r3,r4,80dc2c <__adddf3+0x89c>
  80db9c:	01001004 	movi	r4,64
  80dba0:	20c7c83a 	sub	r3,r4,r3
  80dba4:	40c6983a 	sll	r3,r8,r3
  80dba8:	1c46b03a 	or	r3,r3,r17
  80dbac:	1806c03a 	cmpne	r3,r3,zero
  80dbb0:	28e2b03a 	or	r17,r5,r3
  80dbb4:	0007883a 	mov	r3,zero
  80dbb8:	003f2306 	br	80d848 <__alt_mem_onchip_mem+0xff78d848>
  80dbbc:	0007883a 	mov	r3,zero
  80dbc0:	5811883a 	mov	r8,r11
  80dbc4:	00bfffc4 	movi	r2,-1
  80dbc8:	0401ffc4 	movi	r16,2047
  80dbcc:	003e7806 	br	80d5b0 <__alt_mem_onchip_mem+0xff78d5b0>
  80dbd0:	4462b03a 	or	r17,r8,r17
  80dbd4:	8822c03a 	cmpne	r17,r17,zero
  80dbd8:	0009883a 	mov	r4,zero
  80dbdc:	003fa006 	br	80da60 <__alt_mem_onchip_mem+0xff78da60>
  80dbe0:	4811883a 	mov	r8,r9
  80dbe4:	3023883a 	mov	r17,r6
  80dbe8:	0401ffc4 	movi	r16,2047
  80dbec:	003e0706 	br	80d40c <__alt_mem_onchip_mem+0xff78d40c>
  80dbf0:	4811883a 	mov	r8,r9
  80dbf4:	3023883a 	mov	r17,r6
  80dbf8:	003e0406 	br	80d40c <__alt_mem_onchip_mem+0xff78d40c>
  80dbfc:	21fff804 	addi	r7,r4,-32
  80dc00:	01400804 	movi	r5,32
  80dc04:	41ced83a 	srl	r7,r8,r7
  80dc08:	21400a26 	beq	r4,r5,80dc34 <__adddf3+0x8a4>
  80dc0c:	01401004 	movi	r5,64
  80dc10:	2909c83a 	sub	r4,r5,r4
  80dc14:	4108983a 	sll	r4,r8,r4
  80dc18:	2448b03a 	or	r4,r4,r17
  80dc1c:	2008c03a 	cmpne	r4,r4,zero
  80dc20:	3922b03a 	or	r17,r7,r4
  80dc24:	0009883a 	mov	r4,zero
  80dc28:	003f8d06 	br	80da60 <__alt_mem_onchip_mem+0xff78da60>
  80dc2c:	0007883a 	mov	r3,zero
  80dc30:	003fdd06 	br	80dba8 <__alt_mem_onchip_mem+0xff78dba8>
  80dc34:	0009883a 	mov	r4,zero
  80dc38:	003ff706 	br	80dc18 <__alt_mem_onchip_mem+0xff78dc18>

0080dc3c <__divdf3>:
  80dc3c:	defff204 	addi	sp,sp,-56
  80dc40:	dd400915 	stw	r21,36(sp)
  80dc44:	282ad53a 	srli	r21,r5,20
  80dc48:	dd000815 	stw	r20,32(sp)
  80dc4c:	2828d7fa 	srli	r20,r5,31
  80dc50:	dc000415 	stw	r16,16(sp)
  80dc54:	04000434 	movhi	r16,16
  80dc58:	df000c15 	stw	fp,48(sp)
  80dc5c:	843fffc4 	addi	r16,r16,-1
  80dc60:	dfc00d15 	stw	ra,52(sp)
  80dc64:	ddc00b15 	stw	r23,44(sp)
  80dc68:	dd800a15 	stw	r22,40(sp)
  80dc6c:	dcc00715 	stw	r19,28(sp)
  80dc70:	dc800615 	stw	r18,24(sp)
  80dc74:	dc400515 	stw	r17,20(sp)
  80dc78:	ad41ffcc 	andi	r21,r21,2047
  80dc7c:	2c20703a 	and	r16,r5,r16
  80dc80:	a7003fcc 	andi	fp,r20,255
  80dc84:	a8006126 	beq	r21,zero,80de0c <__divdf3+0x1d0>
  80dc88:	0081ffc4 	movi	r2,2047
  80dc8c:	2025883a 	mov	r18,r4
  80dc90:	a8803726 	beq	r21,r2,80dd70 <__divdf3+0x134>
  80dc94:	80800434 	orhi	r2,r16,16
  80dc98:	100490fa 	slli	r2,r2,3
  80dc9c:	2020d77a 	srli	r16,r4,29
  80dca0:	202490fa 	slli	r18,r4,3
  80dca4:	ad7f0044 	addi	r21,r21,-1023
  80dca8:	80a0b03a 	or	r16,r16,r2
  80dcac:	0027883a 	mov	r19,zero
  80dcb0:	0013883a 	mov	r9,zero
  80dcb4:	3804d53a 	srli	r2,r7,20
  80dcb8:	382cd7fa 	srli	r22,r7,31
  80dcbc:	04400434 	movhi	r17,16
  80dcc0:	8c7fffc4 	addi	r17,r17,-1
  80dcc4:	1081ffcc 	andi	r2,r2,2047
  80dcc8:	3011883a 	mov	r8,r6
  80dccc:	3c62703a 	and	r17,r7,r17
  80dcd0:	b5c03fcc 	andi	r23,r22,255
  80dcd4:	10006c26 	beq	r2,zero,80de88 <__divdf3+0x24c>
  80dcd8:	00c1ffc4 	movi	r3,2047
  80dcdc:	10c06426 	beq	r2,r3,80de70 <__divdf3+0x234>
  80dce0:	88c00434 	orhi	r3,r17,16
  80dce4:	180690fa 	slli	r3,r3,3
  80dce8:	3022d77a 	srli	r17,r6,29
  80dcec:	301090fa 	slli	r8,r6,3
  80dcf0:	10bf0044 	addi	r2,r2,-1023
  80dcf4:	88e2b03a 	or	r17,r17,r3
  80dcf8:	000f883a 	mov	r7,zero
  80dcfc:	a58cf03a 	xor	r6,r20,r22
  80dd00:	3cc8b03a 	or	r4,r7,r19
  80dd04:	a8abc83a 	sub	r21,r21,r2
  80dd08:	008003c4 	movi	r2,15
  80dd0c:	3007883a 	mov	r3,r6
  80dd10:	34c03fcc 	andi	r19,r6,255
  80dd14:	11009036 	bltu	r2,r4,80df58 <__divdf3+0x31c>
  80dd18:	200890ba 	slli	r4,r4,2
  80dd1c:	00802074 	movhi	r2,129
  80dd20:	10b74c04 	addi	r2,r2,-8912
  80dd24:	2089883a 	add	r4,r4,r2
  80dd28:	20800017 	ldw	r2,0(r4)
  80dd2c:	1000683a 	jmp	r2
  80dd30:	0080df58 	cmpnei	r2,zero,893
  80dd34:	0080dda8 	cmpgeui	r2,zero,886
  80dd38:	0080df48 	cmpgei	r2,zero,893
  80dd3c:	0080dd9c 	xori	r2,zero,886
  80dd40:	0080df48 	cmpgei	r2,zero,893
  80dd44:	0080df1c 	xori	r2,zero,892
  80dd48:	0080df48 	cmpgei	r2,zero,893
  80dd4c:	0080dd9c 	xori	r2,zero,886
  80dd50:	0080dda8 	cmpgeui	r2,zero,886
  80dd54:	0080dda8 	cmpgeui	r2,zero,886
  80dd58:	0080df1c 	xori	r2,zero,892
  80dd5c:	0080dd9c 	xori	r2,zero,886
  80dd60:	0080dd8c 	andi	r2,zero,886
  80dd64:	0080dd8c 	andi	r2,zero,886
  80dd68:	0080dd8c 	andi	r2,zero,886
  80dd6c:	0080e23c 	xorhi	r2,zero,904
  80dd70:	2404b03a 	or	r2,r4,r16
  80dd74:	1000661e 	bne	r2,zero,80df10 <__divdf3+0x2d4>
  80dd78:	04c00204 	movi	r19,8
  80dd7c:	0021883a 	mov	r16,zero
  80dd80:	0025883a 	mov	r18,zero
  80dd84:	02400084 	movi	r9,2
  80dd88:	003fca06 	br	80dcb4 <__alt_mem_onchip_mem+0xff78dcb4>
  80dd8c:	8023883a 	mov	r17,r16
  80dd90:	9011883a 	mov	r8,r18
  80dd94:	e02f883a 	mov	r23,fp
  80dd98:	480f883a 	mov	r7,r9
  80dd9c:	00800084 	movi	r2,2
  80dda0:	3881311e 	bne	r7,r2,80e268 <__divdf3+0x62c>
  80dda4:	b827883a 	mov	r19,r23
  80dda8:	98c0004c 	andi	r3,r19,1
  80ddac:	0081ffc4 	movi	r2,2047
  80ddb0:	000b883a 	mov	r5,zero
  80ddb4:	0025883a 	mov	r18,zero
  80ddb8:	1004953a 	slli	r2,r2,20
  80ddbc:	18c03fcc 	andi	r3,r3,255
  80ddc0:	04400434 	movhi	r17,16
  80ddc4:	8c7fffc4 	addi	r17,r17,-1
  80ddc8:	180697fa 	slli	r3,r3,31
  80ddcc:	2c4a703a 	and	r5,r5,r17
  80ddd0:	288ab03a 	or	r5,r5,r2
  80ddd4:	28c6b03a 	or	r3,r5,r3
  80ddd8:	9005883a 	mov	r2,r18
  80dddc:	dfc00d17 	ldw	ra,52(sp)
  80dde0:	df000c17 	ldw	fp,48(sp)
  80dde4:	ddc00b17 	ldw	r23,44(sp)
  80dde8:	dd800a17 	ldw	r22,40(sp)
  80ddec:	dd400917 	ldw	r21,36(sp)
  80ddf0:	dd000817 	ldw	r20,32(sp)
  80ddf4:	dcc00717 	ldw	r19,28(sp)
  80ddf8:	dc800617 	ldw	r18,24(sp)
  80ddfc:	dc400517 	ldw	r17,20(sp)
  80de00:	dc000417 	ldw	r16,16(sp)
  80de04:	dec00e04 	addi	sp,sp,56
  80de08:	f800283a 	ret
  80de0c:	2404b03a 	or	r2,r4,r16
  80de10:	2027883a 	mov	r19,r4
  80de14:	10003926 	beq	r2,zero,80defc <__divdf3+0x2c0>
  80de18:	80012e26 	beq	r16,zero,80e2d4 <__divdf3+0x698>
  80de1c:	8009883a 	mov	r4,r16
  80de20:	d9800315 	stw	r6,12(sp)
  80de24:	d9c00215 	stw	r7,8(sp)
  80de28:	080f9940 	call	80f994 <__clzsi2>
  80de2c:	d9800317 	ldw	r6,12(sp)
  80de30:	d9c00217 	ldw	r7,8(sp)
  80de34:	113ffd44 	addi	r4,r2,-11
  80de38:	00c00704 	movi	r3,28
  80de3c:	19012116 	blt	r3,r4,80e2c4 <__divdf3+0x688>
  80de40:	00c00744 	movi	r3,29
  80de44:	147ffe04 	addi	r17,r2,-8
  80de48:	1907c83a 	sub	r3,r3,r4
  80de4c:	8460983a 	sll	r16,r16,r17
  80de50:	98c6d83a 	srl	r3,r19,r3
  80de54:	9c64983a 	sll	r18,r19,r17
  80de58:	1c20b03a 	or	r16,r3,r16
  80de5c:	1080fcc4 	addi	r2,r2,1011
  80de60:	00abc83a 	sub	r21,zero,r2
  80de64:	0027883a 	mov	r19,zero
  80de68:	0013883a 	mov	r9,zero
  80de6c:	003f9106 	br	80dcb4 <__alt_mem_onchip_mem+0xff78dcb4>
  80de70:	3446b03a 	or	r3,r6,r17
  80de74:	18001f1e 	bne	r3,zero,80def4 <__divdf3+0x2b8>
  80de78:	0023883a 	mov	r17,zero
  80de7c:	0011883a 	mov	r8,zero
  80de80:	01c00084 	movi	r7,2
  80de84:	003f9d06 	br	80dcfc <__alt_mem_onchip_mem+0xff78dcfc>
  80de88:	3446b03a 	or	r3,r6,r17
  80de8c:	18001526 	beq	r3,zero,80dee4 <__divdf3+0x2a8>
  80de90:	88011b26 	beq	r17,zero,80e300 <__divdf3+0x6c4>
  80de94:	8809883a 	mov	r4,r17
  80de98:	d9800315 	stw	r6,12(sp)
  80de9c:	da400115 	stw	r9,4(sp)
  80dea0:	080f9940 	call	80f994 <__clzsi2>
  80dea4:	d9800317 	ldw	r6,12(sp)
  80dea8:	da400117 	ldw	r9,4(sp)
  80deac:	113ffd44 	addi	r4,r2,-11
  80deb0:	00c00704 	movi	r3,28
  80deb4:	19010e16 	blt	r3,r4,80e2f0 <__divdf3+0x6b4>
  80deb8:	00c00744 	movi	r3,29
  80debc:	123ffe04 	addi	r8,r2,-8
  80dec0:	1907c83a 	sub	r3,r3,r4
  80dec4:	8a22983a 	sll	r17,r17,r8
  80dec8:	30c6d83a 	srl	r3,r6,r3
  80decc:	3210983a 	sll	r8,r6,r8
  80ded0:	1c62b03a 	or	r17,r3,r17
  80ded4:	1080fcc4 	addi	r2,r2,1011
  80ded8:	0085c83a 	sub	r2,zero,r2
  80dedc:	000f883a 	mov	r7,zero
  80dee0:	003f8606 	br	80dcfc <__alt_mem_onchip_mem+0xff78dcfc>
  80dee4:	0023883a 	mov	r17,zero
  80dee8:	0011883a 	mov	r8,zero
  80deec:	01c00044 	movi	r7,1
  80def0:	003f8206 	br	80dcfc <__alt_mem_onchip_mem+0xff78dcfc>
  80def4:	01c000c4 	movi	r7,3
  80def8:	003f8006 	br	80dcfc <__alt_mem_onchip_mem+0xff78dcfc>
  80defc:	04c00104 	movi	r19,4
  80df00:	0021883a 	mov	r16,zero
  80df04:	0025883a 	mov	r18,zero
  80df08:	02400044 	movi	r9,1
  80df0c:	003f6906 	br	80dcb4 <__alt_mem_onchip_mem+0xff78dcb4>
  80df10:	04c00304 	movi	r19,12
  80df14:	024000c4 	movi	r9,3
  80df18:	003f6606 	br	80dcb4 <__alt_mem_onchip_mem+0xff78dcb4>
  80df1c:	01400434 	movhi	r5,16
  80df20:	0007883a 	mov	r3,zero
  80df24:	297fffc4 	addi	r5,r5,-1
  80df28:	04bfffc4 	movi	r18,-1
  80df2c:	0081ffc4 	movi	r2,2047
  80df30:	003fa106 	br	80ddb8 <__alt_mem_onchip_mem+0xff78ddb8>
  80df34:	00c00044 	movi	r3,1
  80df38:	1887c83a 	sub	r3,r3,r2
  80df3c:	01000e04 	movi	r4,56
  80df40:	20c1210e 	bge	r4,r3,80e3c8 <__divdf3+0x78c>
  80df44:	98c0004c 	andi	r3,r19,1
  80df48:	0005883a 	mov	r2,zero
  80df4c:	000b883a 	mov	r5,zero
  80df50:	0025883a 	mov	r18,zero
  80df54:	003f9806 	br	80ddb8 <__alt_mem_onchip_mem+0xff78ddb8>
  80df58:	8c00fd36 	bltu	r17,r16,80e350 <__divdf3+0x714>
  80df5c:	8440fb26 	beq	r16,r17,80e34c <__divdf3+0x710>
  80df60:	8007883a 	mov	r3,r16
  80df64:	ad7fffc4 	addi	r21,r21,-1
  80df68:	0021883a 	mov	r16,zero
  80df6c:	4004d63a 	srli	r2,r8,24
  80df70:	8822923a 	slli	r17,r17,8
  80df74:	1809883a 	mov	r4,r3
  80df78:	402c923a 	slli	r22,r8,8
  80df7c:	88b8b03a 	or	fp,r17,r2
  80df80:	e028d43a 	srli	r20,fp,16
  80df84:	d8c00015 	stw	r3,0(sp)
  80df88:	e5ffffcc 	andi	r23,fp,65535
  80df8c:	a00b883a 	mov	r5,r20
  80df90:	080d2d40 	call	80d2d4 <__udivsi3>
  80df94:	d8c00017 	ldw	r3,0(sp)
  80df98:	a00b883a 	mov	r5,r20
  80df9c:	d8800315 	stw	r2,12(sp)
  80dfa0:	1809883a 	mov	r4,r3
  80dfa4:	080d3380 	call	80d338 <__umodsi3>
  80dfa8:	d9800317 	ldw	r6,12(sp)
  80dfac:	1006943a 	slli	r3,r2,16
  80dfb0:	9004d43a 	srli	r2,r18,16
  80dfb4:	b9a3383a 	mul	r17,r23,r6
  80dfb8:	10c4b03a 	or	r2,r2,r3
  80dfbc:	1440062e 	bgeu	r2,r17,80dfd8 <__divdf3+0x39c>
  80dfc0:	1705883a 	add	r2,r2,fp
  80dfc4:	30ffffc4 	addi	r3,r6,-1
  80dfc8:	1700ee36 	bltu	r2,fp,80e384 <__divdf3+0x748>
  80dfcc:	1440ed2e 	bgeu	r2,r17,80e384 <__divdf3+0x748>
  80dfd0:	31bfff84 	addi	r6,r6,-2
  80dfd4:	1705883a 	add	r2,r2,fp
  80dfd8:	1463c83a 	sub	r17,r2,r17
  80dfdc:	a00b883a 	mov	r5,r20
  80dfe0:	8809883a 	mov	r4,r17
  80dfe4:	d9800315 	stw	r6,12(sp)
  80dfe8:	080d2d40 	call	80d2d4 <__udivsi3>
  80dfec:	a00b883a 	mov	r5,r20
  80dff0:	8809883a 	mov	r4,r17
  80dff4:	d8800215 	stw	r2,8(sp)
  80dff8:	080d3380 	call	80d338 <__umodsi3>
  80dffc:	d9c00217 	ldw	r7,8(sp)
  80e000:	1004943a 	slli	r2,r2,16
  80e004:	94bfffcc 	andi	r18,r18,65535
  80e008:	b9d1383a 	mul	r8,r23,r7
  80e00c:	90a4b03a 	or	r18,r18,r2
  80e010:	d9800317 	ldw	r6,12(sp)
  80e014:	9200062e 	bgeu	r18,r8,80e030 <__divdf3+0x3f4>
  80e018:	9725883a 	add	r18,r18,fp
  80e01c:	38bfffc4 	addi	r2,r7,-1
  80e020:	9700d636 	bltu	r18,fp,80e37c <__divdf3+0x740>
  80e024:	9200d52e 	bgeu	r18,r8,80e37c <__divdf3+0x740>
  80e028:	39ffff84 	addi	r7,r7,-2
  80e02c:	9725883a 	add	r18,r18,fp
  80e030:	3004943a 	slli	r2,r6,16
  80e034:	b012d43a 	srli	r9,r22,16
  80e038:	b1bfffcc 	andi	r6,r22,65535
  80e03c:	11e2b03a 	or	r17,r2,r7
  80e040:	8806d43a 	srli	r3,r17,16
  80e044:	893fffcc 	andi	r4,r17,65535
  80e048:	218b383a 	mul	r5,r4,r6
  80e04c:	30c5383a 	mul	r2,r6,r3
  80e050:	2249383a 	mul	r4,r4,r9
  80e054:	280ed43a 	srli	r7,r5,16
  80e058:	9225c83a 	sub	r18,r18,r8
  80e05c:	2089883a 	add	r4,r4,r2
  80e060:	3909883a 	add	r4,r7,r4
  80e064:	1a47383a 	mul	r3,r3,r9
  80e068:	2080022e 	bgeu	r4,r2,80e074 <__divdf3+0x438>
  80e06c:	00800074 	movhi	r2,1
  80e070:	1887883a 	add	r3,r3,r2
  80e074:	2004d43a 	srli	r2,r4,16
  80e078:	2008943a 	slli	r4,r4,16
  80e07c:	297fffcc 	andi	r5,r5,65535
  80e080:	10c7883a 	add	r3,r2,r3
  80e084:	2149883a 	add	r4,r4,r5
  80e088:	90c0a536 	bltu	r18,r3,80e320 <__divdf3+0x6e4>
  80e08c:	90c0bf26 	beq	r18,r3,80e38c <__divdf3+0x750>
  80e090:	90c7c83a 	sub	r3,r18,r3
  80e094:	810fc83a 	sub	r7,r16,r4
  80e098:	81e5803a 	cmpltu	r18,r16,r7
  80e09c:	1ca5c83a 	sub	r18,r3,r18
  80e0a0:	e480c126 	beq	fp,r18,80e3a8 <__divdf3+0x76c>
  80e0a4:	a00b883a 	mov	r5,r20
  80e0a8:	9009883a 	mov	r4,r18
  80e0ac:	d9800315 	stw	r6,12(sp)
  80e0b0:	d9c00215 	stw	r7,8(sp)
  80e0b4:	da400115 	stw	r9,4(sp)
  80e0b8:	080d2d40 	call	80d2d4 <__udivsi3>
  80e0bc:	a00b883a 	mov	r5,r20
  80e0c0:	9009883a 	mov	r4,r18
  80e0c4:	d8800015 	stw	r2,0(sp)
  80e0c8:	080d3380 	call	80d338 <__umodsi3>
  80e0cc:	d9c00217 	ldw	r7,8(sp)
  80e0d0:	da000017 	ldw	r8,0(sp)
  80e0d4:	1006943a 	slli	r3,r2,16
  80e0d8:	3804d43a 	srli	r2,r7,16
  80e0dc:	ba21383a 	mul	r16,r23,r8
  80e0e0:	d9800317 	ldw	r6,12(sp)
  80e0e4:	10c4b03a 	or	r2,r2,r3
  80e0e8:	da400117 	ldw	r9,4(sp)
  80e0ec:	1400062e 	bgeu	r2,r16,80e108 <__divdf3+0x4cc>
  80e0f0:	1705883a 	add	r2,r2,fp
  80e0f4:	40ffffc4 	addi	r3,r8,-1
  80e0f8:	1700ad36 	bltu	r2,fp,80e3b0 <__divdf3+0x774>
  80e0fc:	1400ac2e 	bgeu	r2,r16,80e3b0 <__divdf3+0x774>
  80e100:	423fff84 	addi	r8,r8,-2
  80e104:	1705883a 	add	r2,r2,fp
  80e108:	1421c83a 	sub	r16,r2,r16
  80e10c:	a00b883a 	mov	r5,r20
  80e110:	8009883a 	mov	r4,r16
  80e114:	d9800315 	stw	r6,12(sp)
  80e118:	d9c00215 	stw	r7,8(sp)
  80e11c:	da000015 	stw	r8,0(sp)
  80e120:	da400115 	stw	r9,4(sp)
  80e124:	080d2d40 	call	80d2d4 <__udivsi3>
  80e128:	8009883a 	mov	r4,r16
  80e12c:	a00b883a 	mov	r5,r20
  80e130:	1025883a 	mov	r18,r2
  80e134:	080d3380 	call	80d338 <__umodsi3>
  80e138:	d9c00217 	ldw	r7,8(sp)
  80e13c:	1004943a 	slli	r2,r2,16
  80e140:	bcaf383a 	mul	r23,r23,r18
  80e144:	393fffcc 	andi	r4,r7,65535
  80e148:	2088b03a 	or	r4,r4,r2
  80e14c:	d9800317 	ldw	r6,12(sp)
  80e150:	da000017 	ldw	r8,0(sp)
  80e154:	da400117 	ldw	r9,4(sp)
  80e158:	25c0062e 	bgeu	r4,r23,80e174 <__divdf3+0x538>
  80e15c:	2709883a 	add	r4,r4,fp
  80e160:	90bfffc4 	addi	r2,r18,-1
  80e164:	27009436 	bltu	r4,fp,80e3b8 <__divdf3+0x77c>
  80e168:	25c0932e 	bgeu	r4,r23,80e3b8 <__divdf3+0x77c>
  80e16c:	94bfff84 	addi	r18,r18,-2
  80e170:	2709883a 	add	r4,r4,fp
  80e174:	4004943a 	slli	r2,r8,16
  80e178:	25efc83a 	sub	r23,r4,r23
  80e17c:	1490b03a 	or	r8,r2,r18
  80e180:	4008d43a 	srli	r4,r8,16
  80e184:	40ffffcc 	andi	r3,r8,65535
  80e188:	30c5383a 	mul	r2,r6,r3
  80e18c:	1a47383a 	mul	r3,r3,r9
  80e190:	310d383a 	mul	r6,r6,r4
  80e194:	100ad43a 	srli	r5,r2,16
  80e198:	4913383a 	mul	r9,r9,r4
  80e19c:	1987883a 	add	r3,r3,r6
  80e1a0:	28c7883a 	add	r3,r5,r3
  80e1a4:	1980022e 	bgeu	r3,r6,80e1b0 <__divdf3+0x574>
  80e1a8:	01000074 	movhi	r4,1
  80e1ac:	4913883a 	add	r9,r9,r4
  80e1b0:	1808d43a 	srli	r4,r3,16
  80e1b4:	1806943a 	slli	r3,r3,16
  80e1b8:	10bfffcc 	andi	r2,r2,65535
  80e1bc:	2253883a 	add	r9,r4,r9
  80e1c0:	1887883a 	add	r3,r3,r2
  80e1c4:	ba403836 	bltu	r23,r9,80e2a8 <__divdf3+0x66c>
  80e1c8:	ba403626 	beq	r23,r9,80e2a4 <__divdf3+0x668>
  80e1cc:	42000054 	ori	r8,r8,1
  80e1d0:	a880ffc4 	addi	r2,r21,1023
  80e1d4:	00bf570e 	bge	zero,r2,80df34 <__alt_mem_onchip_mem+0xff78df34>
  80e1d8:	40c001cc 	andi	r3,r8,7
  80e1dc:	18000726 	beq	r3,zero,80e1fc <__divdf3+0x5c0>
  80e1e0:	40c003cc 	andi	r3,r8,15
  80e1e4:	01000104 	movi	r4,4
  80e1e8:	19000426 	beq	r3,r4,80e1fc <__divdf3+0x5c0>
  80e1ec:	4107883a 	add	r3,r8,r4
  80e1f0:	1a11803a 	cmpltu	r8,r3,r8
  80e1f4:	8a23883a 	add	r17,r17,r8
  80e1f8:	1811883a 	mov	r8,r3
  80e1fc:	88c0402c 	andhi	r3,r17,256
  80e200:	18000426 	beq	r3,zero,80e214 <__divdf3+0x5d8>
  80e204:	00ffc034 	movhi	r3,65280
  80e208:	18ffffc4 	addi	r3,r3,-1
  80e20c:	a8810004 	addi	r2,r21,1024
  80e210:	88e2703a 	and	r17,r17,r3
  80e214:	00c1ff84 	movi	r3,2046
  80e218:	18bee316 	blt	r3,r2,80dda8 <__alt_mem_onchip_mem+0xff78dda8>
  80e21c:	8824977a 	slli	r18,r17,29
  80e220:	4010d0fa 	srli	r8,r8,3
  80e224:	8822927a 	slli	r17,r17,9
  80e228:	1081ffcc 	andi	r2,r2,2047
  80e22c:	9224b03a 	or	r18,r18,r8
  80e230:	880ad33a 	srli	r5,r17,12
  80e234:	98c0004c 	andi	r3,r19,1
  80e238:	003edf06 	br	80ddb8 <__alt_mem_onchip_mem+0xff78ddb8>
  80e23c:	8080022c 	andhi	r2,r16,8
  80e240:	10001226 	beq	r2,zero,80e28c <__divdf3+0x650>
  80e244:	8880022c 	andhi	r2,r17,8
  80e248:	1000101e 	bne	r2,zero,80e28c <__divdf3+0x650>
  80e24c:	00800434 	movhi	r2,16
  80e250:	89400234 	orhi	r5,r17,8
  80e254:	10bfffc4 	addi	r2,r2,-1
  80e258:	b007883a 	mov	r3,r22
  80e25c:	288a703a 	and	r5,r5,r2
  80e260:	4025883a 	mov	r18,r8
  80e264:	003f3106 	br	80df2c <__alt_mem_onchip_mem+0xff78df2c>
  80e268:	008000c4 	movi	r2,3
  80e26c:	3880a626 	beq	r7,r2,80e508 <__divdf3+0x8cc>
  80e270:	00800044 	movi	r2,1
  80e274:	3880521e 	bne	r7,r2,80e3c0 <__divdf3+0x784>
  80e278:	b807883a 	mov	r3,r23
  80e27c:	0005883a 	mov	r2,zero
  80e280:	000b883a 	mov	r5,zero
  80e284:	0025883a 	mov	r18,zero
  80e288:	003ecb06 	br	80ddb8 <__alt_mem_onchip_mem+0xff78ddb8>
  80e28c:	00800434 	movhi	r2,16
  80e290:	81400234 	orhi	r5,r16,8
  80e294:	10bfffc4 	addi	r2,r2,-1
  80e298:	a007883a 	mov	r3,r20
  80e29c:	288a703a 	and	r5,r5,r2
  80e2a0:	003f2206 	br	80df2c <__alt_mem_onchip_mem+0xff78df2c>
  80e2a4:	183fca26 	beq	r3,zero,80e1d0 <__alt_mem_onchip_mem+0xff78e1d0>
  80e2a8:	e5ef883a 	add	r23,fp,r23
  80e2ac:	40bfffc4 	addi	r2,r8,-1
  80e2b0:	bf00392e 	bgeu	r23,fp,80e398 <__divdf3+0x75c>
  80e2b4:	1011883a 	mov	r8,r2
  80e2b8:	ba7fc41e 	bne	r23,r9,80e1cc <__alt_mem_onchip_mem+0xff78e1cc>
  80e2bc:	b0ffc31e 	bne	r22,r3,80e1cc <__alt_mem_onchip_mem+0xff78e1cc>
  80e2c0:	003fc306 	br	80e1d0 <__alt_mem_onchip_mem+0xff78e1d0>
  80e2c4:	143ff604 	addi	r16,r2,-40
  80e2c8:	9c20983a 	sll	r16,r19,r16
  80e2cc:	0025883a 	mov	r18,zero
  80e2d0:	003ee206 	br	80de5c <__alt_mem_onchip_mem+0xff78de5c>
  80e2d4:	d9800315 	stw	r6,12(sp)
  80e2d8:	d9c00215 	stw	r7,8(sp)
  80e2dc:	080f9940 	call	80f994 <__clzsi2>
  80e2e0:	10800804 	addi	r2,r2,32
  80e2e4:	d9c00217 	ldw	r7,8(sp)
  80e2e8:	d9800317 	ldw	r6,12(sp)
  80e2ec:	003ed106 	br	80de34 <__alt_mem_onchip_mem+0xff78de34>
  80e2f0:	147ff604 	addi	r17,r2,-40
  80e2f4:	3462983a 	sll	r17,r6,r17
  80e2f8:	0011883a 	mov	r8,zero
  80e2fc:	003ef506 	br	80ded4 <__alt_mem_onchip_mem+0xff78ded4>
  80e300:	3009883a 	mov	r4,r6
  80e304:	d9800315 	stw	r6,12(sp)
  80e308:	da400115 	stw	r9,4(sp)
  80e30c:	080f9940 	call	80f994 <__clzsi2>
  80e310:	10800804 	addi	r2,r2,32
  80e314:	da400117 	ldw	r9,4(sp)
  80e318:	d9800317 	ldw	r6,12(sp)
  80e31c:	003ee306 	br	80deac <__alt_mem_onchip_mem+0xff78deac>
  80e320:	85a1883a 	add	r16,r16,r22
  80e324:	8585803a 	cmpltu	r2,r16,r22
  80e328:	1705883a 	add	r2,r2,fp
  80e32c:	14a5883a 	add	r18,r2,r18
  80e330:	88bfffc4 	addi	r2,r17,-1
  80e334:	e4800c2e 	bgeu	fp,r18,80e368 <__divdf3+0x72c>
  80e338:	90c03e36 	bltu	r18,r3,80e434 <__divdf3+0x7f8>
  80e33c:	1c806926 	beq	r3,r18,80e4e4 <__divdf3+0x8a8>
  80e340:	90c7c83a 	sub	r3,r18,r3
  80e344:	1023883a 	mov	r17,r2
  80e348:	003f5206 	br	80e094 <__alt_mem_onchip_mem+0xff78e094>
  80e34c:	923f0436 	bltu	r18,r8,80df60 <__alt_mem_onchip_mem+0xff78df60>
  80e350:	800897fa 	slli	r4,r16,31
  80e354:	9004d07a 	srli	r2,r18,1
  80e358:	8006d07a 	srli	r3,r16,1
  80e35c:	902097fa 	slli	r16,r18,31
  80e360:	20a4b03a 	or	r18,r4,r2
  80e364:	003f0106 	br	80df6c <__alt_mem_onchip_mem+0xff78df6c>
  80e368:	e4bff51e 	bne	fp,r18,80e340 <__alt_mem_onchip_mem+0xff78e340>
  80e36c:	85bff22e 	bgeu	r16,r22,80e338 <__alt_mem_onchip_mem+0xff78e338>
  80e370:	e0c7c83a 	sub	r3,fp,r3
  80e374:	1023883a 	mov	r17,r2
  80e378:	003f4606 	br	80e094 <__alt_mem_onchip_mem+0xff78e094>
  80e37c:	100f883a 	mov	r7,r2
  80e380:	003f2b06 	br	80e030 <__alt_mem_onchip_mem+0xff78e030>
  80e384:	180d883a 	mov	r6,r3
  80e388:	003f1306 	br	80dfd8 <__alt_mem_onchip_mem+0xff78dfd8>
  80e38c:	813fe436 	bltu	r16,r4,80e320 <__alt_mem_onchip_mem+0xff78e320>
  80e390:	0007883a 	mov	r3,zero
  80e394:	003f3f06 	br	80e094 <__alt_mem_onchip_mem+0xff78e094>
  80e398:	ba402c36 	bltu	r23,r9,80e44c <__divdf3+0x810>
  80e39c:	4dc05426 	beq	r9,r23,80e4f0 <__divdf3+0x8b4>
  80e3a0:	1011883a 	mov	r8,r2
  80e3a4:	003f8906 	br	80e1cc <__alt_mem_onchip_mem+0xff78e1cc>
  80e3a8:	023fffc4 	movi	r8,-1
  80e3ac:	003f8806 	br	80e1d0 <__alt_mem_onchip_mem+0xff78e1d0>
  80e3b0:	1811883a 	mov	r8,r3
  80e3b4:	003f5406 	br	80e108 <__alt_mem_onchip_mem+0xff78e108>
  80e3b8:	1025883a 	mov	r18,r2
  80e3bc:	003f6d06 	br	80e174 <__alt_mem_onchip_mem+0xff78e174>
  80e3c0:	b827883a 	mov	r19,r23
  80e3c4:	003f8206 	br	80e1d0 <__alt_mem_onchip_mem+0xff78e1d0>
  80e3c8:	010007c4 	movi	r4,31
  80e3cc:	20c02616 	blt	r4,r3,80e468 <__divdf3+0x82c>
  80e3d0:	00800804 	movi	r2,32
  80e3d4:	10c5c83a 	sub	r2,r2,r3
  80e3d8:	888a983a 	sll	r5,r17,r2
  80e3dc:	40c8d83a 	srl	r4,r8,r3
  80e3e0:	4084983a 	sll	r2,r8,r2
  80e3e4:	88e2d83a 	srl	r17,r17,r3
  80e3e8:	2906b03a 	or	r3,r5,r4
  80e3ec:	1004c03a 	cmpne	r2,r2,zero
  80e3f0:	1886b03a 	or	r3,r3,r2
  80e3f4:	188001cc 	andi	r2,r3,7
  80e3f8:	10000726 	beq	r2,zero,80e418 <__divdf3+0x7dc>
  80e3fc:	188003cc 	andi	r2,r3,15
  80e400:	01000104 	movi	r4,4
  80e404:	11000426 	beq	r2,r4,80e418 <__divdf3+0x7dc>
  80e408:	1805883a 	mov	r2,r3
  80e40c:	10c00104 	addi	r3,r2,4
  80e410:	1885803a 	cmpltu	r2,r3,r2
  80e414:	88a3883a 	add	r17,r17,r2
  80e418:	8880202c 	andhi	r2,r17,128
  80e41c:	10002726 	beq	r2,zero,80e4bc <__divdf3+0x880>
  80e420:	98c0004c 	andi	r3,r19,1
  80e424:	00800044 	movi	r2,1
  80e428:	000b883a 	mov	r5,zero
  80e42c:	0025883a 	mov	r18,zero
  80e430:	003e6106 	br	80ddb8 <__alt_mem_onchip_mem+0xff78ddb8>
  80e434:	85a1883a 	add	r16,r16,r22
  80e438:	8585803a 	cmpltu	r2,r16,r22
  80e43c:	1705883a 	add	r2,r2,fp
  80e440:	14a5883a 	add	r18,r2,r18
  80e444:	8c7fff84 	addi	r17,r17,-2
  80e448:	003f1106 	br	80e090 <__alt_mem_onchip_mem+0xff78e090>
  80e44c:	b589883a 	add	r4,r22,r22
  80e450:	25ad803a 	cmpltu	r22,r4,r22
  80e454:	b739883a 	add	fp,r22,fp
  80e458:	40bfff84 	addi	r2,r8,-2
  80e45c:	bf2f883a 	add	r23,r23,fp
  80e460:	202d883a 	mov	r22,r4
  80e464:	003f9306 	br	80e2b4 <__alt_mem_onchip_mem+0xff78e2b4>
  80e468:	013ff844 	movi	r4,-31
  80e46c:	2085c83a 	sub	r2,r4,r2
  80e470:	8888d83a 	srl	r4,r17,r2
  80e474:	00800804 	movi	r2,32
  80e478:	18802126 	beq	r3,r2,80e500 <__divdf3+0x8c4>
  80e47c:	00801004 	movi	r2,64
  80e480:	10c5c83a 	sub	r2,r2,r3
  80e484:	8884983a 	sll	r2,r17,r2
  80e488:	1204b03a 	or	r2,r2,r8
  80e48c:	1004c03a 	cmpne	r2,r2,zero
  80e490:	2084b03a 	or	r2,r4,r2
  80e494:	144001cc 	andi	r17,r2,7
  80e498:	88000d1e 	bne	r17,zero,80e4d0 <__divdf3+0x894>
  80e49c:	000b883a 	mov	r5,zero
  80e4a0:	1024d0fa 	srli	r18,r2,3
  80e4a4:	98c0004c 	andi	r3,r19,1
  80e4a8:	0005883a 	mov	r2,zero
  80e4ac:	9464b03a 	or	r18,r18,r17
  80e4b0:	003e4106 	br	80ddb8 <__alt_mem_onchip_mem+0xff78ddb8>
  80e4b4:	1007883a 	mov	r3,r2
  80e4b8:	0023883a 	mov	r17,zero
  80e4bc:	880a927a 	slli	r5,r17,9
  80e4c0:	1805883a 	mov	r2,r3
  80e4c4:	8822977a 	slli	r17,r17,29
  80e4c8:	280ad33a 	srli	r5,r5,12
  80e4cc:	003ff406 	br	80e4a0 <__alt_mem_onchip_mem+0xff78e4a0>
  80e4d0:	10c003cc 	andi	r3,r2,15
  80e4d4:	01000104 	movi	r4,4
  80e4d8:	193ff626 	beq	r3,r4,80e4b4 <__alt_mem_onchip_mem+0xff78e4b4>
  80e4dc:	0023883a 	mov	r17,zero
  80e4e0:	003fca06 	br	80e40c <__alt_mem_onchip_mem+0xff78e40c>
  80e4e4:	813fd336 	bltu	r16,r4,80e434 <__alt_mem_onchip_mem+0xff78e434>
  80e4e8:	1023883a 	mov	r17,r2
  80e4ec:	003fa806 	br	80e390 <__alt_mem_onchip_mem+0xff78e390>
  80e4f0:	b0ffd636 	bltu	r22,r3,80e44c <__alt_mem_onchip_mem+0xff78e44c>
  80e4f4:	1011883a 	mov	r8,r2
  80e4f8:	b0ff341e 	bne	r22,r3,80e1cc <__alt_mem_onchip_mem+0xff78e1cc>
  80e4fc:	003f3406 	br	80e1d0 <__alt_mem_onchip_mem+0xff78e1d0>
  80e500:	0005883a 	mov	r2,zero
  80e504:	003fe006 	br	80e488 <__alt_mem_onchip_mem+0xff78e488>
  80e508:	00800434 	movhi	r2,16
  80e50c:	89400234 	orhi	r5,r17,8
  80e510:	10bfffc4 	addi	r2,r2,-1
  80e514:	b807883a 	mov	r3,r23
  80e518:	288a703a 	and	r5,r5,r2
  80e51c:	4025883a 	mov	r18,r8
  80e520:	003e8206 	br	80df2c <__alt_mem_onchip_mem+0xff78df2c>

0080e524 <__eqdf2>:
  80e524:	2804d53a 	srli	r2,r5,20
  80e528:	3806d53a 	srli	r3,r7,20
  80e52c:	02000434 	movhi	r8,16
  80e530:	423fffc4 	addi	r8,r8,-1
  80e534:	1081ffcc 	andi	r2,r2,2047
  80e538:	0281ffc4 	movi	r10,2047
  80e53c:	2a12703a 	and	r9,r5,r8
  80e540:	18c1ffcc 	andi	r3,r3,2047
  80e544:	3a10703a 	and	r8,r7,r8
  80e548:	280ad7fa 	srli	r5,r5,31
  80e54c:	380ed7fa 	srli	r7,r7,31
  80e550:	12801026 	beq	r2,r10,80e594 <__eqdf2+0x70>
  80e554:	0281ffc4 	movi	r10,2047
  80e558:	1a800a26 	beq	r3,r10,80e584 <__eqdf2+0x60>
  80e55c:	10c00226 	beq	r2,r3,80e568 <__eqdf2+0x44>
  80e560:	00800044 	movi	r2,1
  80e564:	f800283a 	ret
  80e568:	4a3ffd1e 	bne	r9,r8,80e560 <__alt_mem_onchip_mem+0xff78e560>
  80e56c:	21bffc1e 	bne	r4,r6,80e560 <__alt_mem_onchip_mem+0xff78e560>
  80e570:	29c00c26 	beq	r5,r7,80e5a4 <__eqdf2+0x80>
  80e574:	103ffa1e 	bne	r2,zero,80e560 <__alt_mem_onchip_mem+0xff78e560>
  80e578:	2244b03a 	or	r2,r4,r9
  80e57c:	1004c03a 	cmpne	r2,r2,zero
  80e580:	f800283a 	ret
  80e584:	3214b03a 	or	r10,r6,r8
  80e588:	503ff426 	beq	r10,zero,80e55c <__alt_mem_onchip_mem+0xff78e55c>
  80e58c:	00800044 	movi	r2,1
  80e590:	f800283a 	ret
  80e594:	2254b03a 	or	r10,r4,r9
  80e598:	503fee26 	beq	r10,zero,80e554 <__alt_mem_onchip_mem+0xff78e554>
  80e59c:	00800044 	movi	r2,1
  80e5a0:	f800283a 	ret
  80e5a4:	0005883a 	mov	r2,zero
  80e5a8:	f800283a 	ret

0080e5ac <__gedf2>:
  80e5ac:	2804d53a 	srli	r2,r5,20
  80e5b0:	3806d53a 	srli	r3,r7,20
  80e5b4:	02000434 	movhi	r8,16
  80e5b8:	423fffc4 	addi	r8,r8,-1
  80e5bc:	1081ffcc 	andi	r2,r2,2047
  80e5c0:	0241ffc4 	movi	r9,2047
  80e5c4:	2a14703a 	and	r10,r5,r8
  80e5c8:	18c1ffcc 	andi	r3,r3,2047
  80e5cc:	3a10703a 	and	r8,r7,r8
  80e5d0:	280ad7fa 	srli	r5,r5,31
  80e5d4:	380ed7fa 	srli	r7,r7,31
  80e5d8:	12401d26 	beq	r2,r9,80e650 <__gedf2+0xa4>
  80e5dc:	0241ffc4 	movi	r9,2047
  80e5e0:	1a401226 	beq	r3,r9,80e62c <__gedf2+0x80>
  80e5e4:	1000081e 	bne	r2,zero,80e608 <__gedf2+0x5c>
  80e5e8:	2296b03a 	or	r11,r4,r10
  80e5ec:	5813003a 	cmpeq	r9,r11,zero
  80e5f0:	1800091e 	bne	r3,zero,80e618 <__gedf2+0x6c>
  80e5f4:	3218b03a 	or	r12,r6,r8
  80e5f8:	6000071e 	bne	r12,zero,80e618 <__gedf2+0x6c>
  80e5fc:	0005883a 	mov	r2,zero
  80e600:	5800101e 	bne	r11,zero,80e644 <__gedf2+0x98>
  80e604:	f800283a 	ret
  80e608:	18000c1e 	bne	r3,zero,80e63c <__gedf2+0x90>
  80e60c:	3212b03a 	or	r9,r6,r8
  80e610:	48000c26 	beq	r9,zero,80e644 <__gedf2+0x98>
  80e614:	0013883a 	mov	r9,zero
  80e618:	39c03fcc 	andi	r7,r7,255
  80e61c:	48000826 	beq	r9,zero,80e640 <__gedf2+0x94>
  80e620:	38000926 	beq	r7,zero,80e648 <__gedf2+0x9c>
  80e624:	00800044 	movi	r2,1
  80e628:	f800283a 	ret
  80e62c:	3212b03a 	or	r9,r6,r8
  80e630:	483fec26 	beq	r9,zero,80e5e4 <__alt_mem_onchip_mem+0xff78e5e4>
  80e634:	00bfff84 	movi	r2,-2
  80e638:	f800283a 	ret
  80e63c:	39c03fcc 	andi	r7,r7,255
  80e640:	29c00626 	beq	r5,r7,80e65c <__gedf2+0xb0>
  80e644:	283ff726 	beq	r5,zero,80e624 <__alt_mem_onchip_mem+0xff78e624>
  80e648:	00bfffc4 	movi	r2,-1
  80e64c:	f800283a 	ret
  80e650:	2292b03a 	or	r9,r4,r10
  80e654:	483fe126 	beq	r9,zero,80e5dc <__alt_mem_onchip_mem+0xff78e5dc>
  80e658:	003ff606 	br	80e634 <__alt_mem_onchip_mem+0xff78e634>
  80e65c:	18bff916 	blt	r3,r2,80e644 <__alt_mem_onchip_mem+0xff78e644>
  80e660:	10c00316 	blt	r2,r3,80e670 <__gedf2+0xc4>
  80e664:	42bff736 	bltu	r8,r10,80e644 <__alt_mem_onchip_mem+0xff78e644>
  80e668:	52000326 	beq	r10,r8,80e678 <__gedf2+0xcc>
  80e66c:	5200042e 	bgeu	r10,r8,80e680 <__gedf2+0xd4>
  80e670:	283fec1e 	bne	r5,zero,80e624 <__alt_mem_onchip_mem+0xff78e624>
  80e674:	003ff406 	br	80e648 <__alt_mem_onchip_mem+0xff78e648>
  80e678:	313ff236 	bltu	r6,r4,80e644 <__alt_mem_onchip_mem+0xff78e644>
  80e67c:	21bffc36 	bltu	r4,r6,80e670 <__alt_mem_onchip_mem+0xff78e670>
  80e680:	0005883a 	mov	r2,zero
  80e684:	f800283a 	ret

0080e688 <__ledf2>:
  80e688:	2804d53a 	srli	r2,r5,20
  80e68c:	3810d53a 	srli	r8,r7,20
  80e690:	00c00434 	movhi	r3,16
  80e694:	18ffffc4 	addi	r3,r3,-1
  80e698:	1081ffcc 	andi	r2,r2,2047
  80e69c:	0241ffc4 	movi	r9,2047
  80e6a0:	28d4703a 	and	r10,r5,r3
  80e6a4:	4201ffcc 	andi	r8,r8,2047
  80e6a8:	38c6703a 	and	r3,r7,r3
  80e6ac:	280ad7fa 	srli	r5,r5,31
  80e6b0:	380ed7fa 	srli	r7,r7,31
  80e6b4:	12401f26 	beq	r2,r9,80e734 <__ledf2+0xac>
  80e6b8:	0241ffc4 	movi	r9,2047
  80e6bc:	42401426 	beq	r8,r9,80e710 <__ledf2+0x88>
  80e6c0:	1000091e 	bne	r2,zero,80e6e8 <__ledf2+0x60>
  80e6c4:	2296b03a 	or	r11,r4,r10
  80e6c8:	5813003a 	cmpeq	r9,r11,zero
  80e6cc:	29403fcc 	andi	r5,r5,255
  80e6d0:	40000a1e 	bne	r8,zero,80e6fc <__ledf2+0x74>
  80e6d4:	30d8b03a 	or	r12,r6,r3
  80e6d8:	6000081e 	bne	r12,zero,80e6fc <__ledf2+0x74>
  80e6dc:	0005883a 	mov	r2,zero
  80e6e0:	5800111e 	bne	r11,zero,80e728 <__ledf2+0xa0>
  80e6e4:	f800283a 	ret
  80e6e8:	29403fcc 	andi	r5,r5,255
  80e6ec:	40000c1e 	bne	r8,zero,80e720 <__ledf2+0x98>
  80e6f0:	30d2b03a 	or	r9,r6,r3
  80e6f4:	48000c26 	beq	r9,zero,80e728 <__ledf2+0xa0>
  80e6f8:	0013883a 	mov	r9,zero
  80e6fc:	39c03fcc 	andi	r7,r7,255
  80e700:	48000826 	beq	r9,zero,80e724 <__ledf2+0x9c>
  80e704:	38001126 	beq	r7,zero,80e74c <__ledf2+0xc4>
  80e708:	00800044 	movi	r2,1
  80e70c:	f800283a 	ret
  80e710:	30d2b03a 	or	r9,r6,r3
  80e714:	483fea26 	beq	r9,zero,80e6c0 <__alt_mem_onchip_mem+0xff78e6c0>
  80e718:	00800084 	movi	r2,2
  80e71c:	f800283a 	ret
  80e720:	39c03fcc 	andi	r7,r7,255
  80e724:	39400726 	beq	r7,r5,80e744 <__ledf2+0xbc>
  80e728:	2800081e 	bne	r5,zero,80e74c <__ledf2+0xc4>
  80e72c:	00800044 	movi	r2,1
  80e730:	f800283a 	ret
  80e734:	2292b03a 	or	r9,r4,r10
  80e738:	483fdf26 	beq	r9,zero,80e6b8 <__alt_mem_onchip_mem+0xff78e6b8>
  80e73c:	00800084 	movi	r2,2
  80e740:	f800283a 	ret
  80e744:	4080030e 	bge	r8,r2,80e754 <__ledf2+0xcc>
  80e748:	383fef26 	beq	r7,zero,80e708 <__alt_mem_onchip_mem+0xff78e708>
  80e74c:	00bfffc4 	movi	r2,-1
  80e750:	f800283a 	ret
  80e754:	123feb16 	blt	r2,r8,80e704 <__alt_mem_onchip_mem+0xff78e704>
  80e758:	1abff336 	bltu	r3,r10,80e728 <__alt_mem_onchip_mem+0xff78e728>
  80e75c:	50c00326 	beq	r10,r3,80e76c <__ledf2+0xe4>
  80e760:	50c0042e 	bgeu	r10,r3,80e774 <__ledf2+0xec>
  80e764:	283fe81e 	bne	r5,zero,80e708 <__alt_mem_onchip_mem+0xff78e708>
  80e768:	003ff806 	br	80e74c <__alt_mem_onchip_mem+0xff78e74c>
  80e76c:	313fee36 	bltu	r6,r4,80e728 <__alt_mem_onchip_mem+0xff78e728>
  80e770:	21bffc36 	bltu	r4,r6,80e764 <__alt_mem_onchip_mem+0xff78e764>
  80e774:	0005883a 	mov	r2,zero
  80e778:	f800283a 	ret

0080e77c <__muldf3>:
  80e77c:	defff304 	addi	sp,sp,-52
  80e780:	2804d53a 	srli	r2,r5,20
  80e784:	dd800915 	stw	r22,36(sp)
  80e788:	282cd7fa 	srli	r22,r5,31
  80e78c:	dc000315 	stw	r16,12(sp)
  80e790:	04000434 	movhi	r16,16
  80e794:	dd400815 	stw	r21,32(sp)
  80e798:	dc800515 	stw	r18,20(sp)
  80e79c:	843fffc4 	addi	r16,r16,-1
  80e7a0:	dfc00c15 	stw	ra,48(sp)
  80e7a4:	df000b15 	stw	fp,44(sp)
  80e7a8:	ddc00a15 	stw	r23,40(sp)
  80e7ac:	dd000715 	stw	r20,28(sp)
  80e7b0:	dcc00615 	stw	r19,24(sp)
  80e7b4:	dc400415 	stw	r17,16(sp)
  80e7b8:	1481ffcc 	andi	r18,r2,2047
  80e7bc:	2c20703a 	and	r16,r5,r16
  80e7c0:	b02b883a 	mov	r21,r22
  80e7c4:	b2403fcc 	andi	r9,r22,255
  80e7c8:	90006026 	beq	r18,zero,80e94c <__muldf3+0x1d0>
  80e7cc:	0081ffc4 	movi	r2,2047
  80e7d0:	2029883a 	mov	r20,r4
  80e7d4:	90803626 	beq	r18,r2,80e8b0 <__muldf3+0x134>
  80e7d8:	80800434 	orhi	r2,r16,16
  80e7dc:	100490fa 	slli	r2,r2,3
  80e7e0:	2020d77a 	srli	r16,r4,29
  80e7e4:	202890fa 	slli	r20,r4,3
  80e7e8:	94bf0044 	addi	r18,r18,-1023
  80e7ec:	80a0b03a 	or	r16,r16,r2
  80e7f0:	0027883a 	mov	r19,zero
  80e7f4:	0039883a 	mov	fp,zero
  80e7f8:	3804d53a 	srli	r2,r7,20
  80e7fc:	382ed7fa 	srli	r23,r7,31
  80e800:	04400434 	movhi	r17,16
  80e804:	8c7fffc4 	addi	r17,r17,-1
  80e808:	1081ffcc 	andi	r2,r2,2047
  80e80c:	3011883a 	mov	r8,r6
  80e810:	3c62703a 	and	r17,r7,r17
  80e814:	ba803fcc 	andi	r10,r23,255
  80e818:	10006d26 	beq	r2,zero,80e9d0 <__muldf3+0x254>
  80e81c:	00c1ffc4 	movi	r3,2047
  80e820:	10c06526 	beq	r2,r3,80e9b8 <__muldf3+0x23c>
  80e824:	88c00434 	orhi	r3,r17,16
  80e828:	180690fa 	slli	r3,r3,3
  80e82c:	3022d77a 	srli	r17,r6,29
  80e830:	301090fa 	slli	r8,r6,3
  80e834:	10bf0044 	addi	r2,r2,-1023
  80e838:	88e2b03a 	or	r17,r17,r3
  80e83c:	000b883a 	mov	r5,zero
  80e840:	9085883a 	add	r2,r18,r2
  80e844:	2cc8b03a 	or	r4,r5,r19
  80e848:	00c003c4 	movi	r3,15
  80e84c:	bdacf03a 	xor	r22,r23,r22
  80e850:	12c00044 	addi	r11,r2,1
  80e854:	19009936 	bltu	r3,r4,80eabc <__muldf3+0x340>
  80e858:	200890ba 	slli	r4,r4,2
  80e85c:	00c02074 	movhi	r3,129
  80e860:	18fa1c04 	addi	r3,r3,-6032
  80e864:	20c9883a 	add	r4,r4,r3
  80e868:	20c00017 	ldw	r3,0(r4)
  80e86c:	1800683a 	jmp	r3
  80e870:	0080eabc 	xorhi	r2,zero,938
  80e874:	0080e8d0 	cmplti	r2,zero,931
  80e878:	0080e8d0 	cmplti	r2,zero,931
  80e87c:	0080e8cc 	andi	r2,zero,931
  80e880:	0080ea98 	cmpnei	r2,zero,938
  80e884:	0080ea98 	cmpnei	r2,zero,938
  80e888:	0080ea80 	call	80ea8 <__alt_mem_sdram-0x77f158>
  80e88c:	0080e8cc 	andi	r2,zero,931
  80e890:	0080ea98 	cmpnei	r2,zero,938
  80e894:	0080ea80 	call	80ea8 <__alt_mem_sdram-0x77f158>
  80e898:	0080ea98 	cmpnei	r2,zero,938
  80e89c:	0080e8cc 	andi	r2,zero,931
  80e8a0:	0080eaa8 	cmpgeui	r2,zero,938
  80e8a4:	0080eaa8 	cmpgeui	r2,zero,938
  80e8a8:	0080eaa8 	cmpgeui	r2,zero,938
  80e8ac:	0080ecc4 	movi	r2,947
  80e8b0:	2404b03a 	or	r2,r4,r16
  80e8b4:	10006f1e 	bne	r2,zero,80ea74 <__muldf3+0x2f8>
  80e8b8:	04c00204 	movi	r19,8
  80e8bc:	0021883a 	mov	r16,zero
  80e8c0:	0029883a 	mov	r20,zero
  80e8c4:	07000084 	movi	fp,2
  80e8c8:	003fcb06 	br	80e7f8 <__alt_mem_onchip_mem+0xff78e7f8>
  80e8cc:	502d883a 	mov	r22,r10
  80e8d0:	00800084 	movi	r2,2
  80e8d4:	28805726 	beq	r5,r2,80ea34 <__muldf3+0x2b8>
  80e8d8:	008000c4 	movi	r2,3
  80e8dc:	28816626 	beq	r5,r2,80ee78 <__muldf3+0x6fc>
  80e8e0:	00800044 	movi	r2,1
  80e8e4:	2881411e 	bne	r5,r2,80edec <__muldf3+0x670>
  80e8e8:	b02b883a 	mov	r21,r22
  80e8ec:	0005883a 	mov	r2,zero
  80e8f0:	000b883a 	mov	r5,zero
  80e8f4:	0029883a 	mov	r20,zero
  80e8f8:	1004953a 	slli	r2,r2,20
  80e8fc:	a8c03fcc 	andi	r3,r21,255
  80e900:	04400434 	movhi	r17,16
  80e904:	8c7fffc4 	addi	r17,r17,-1
  80e908:	180697fa 	slli	r3,r3,31
  80e90c:	2c4a703a 	and	r5,r5,r17
  80e910:	288ab03a 	or	r5,r5,r2
  80e914:	28c6b03a 	or	r3,r5,r3
  80e918:	a005883a 	mov	r2,r20
  80e91c:	dfc00c17 	ldw	ra,48(sp)
  80e920:	df000b17 	ldw	fp,44(sp)
  80e924:	ddc00a17 	ldw	r23,40(sp)
  80e928:	dd800917 	ldw	r22,36(sp)
  80e92c:	dd400817 	ldw	r21,32(sp)
  80e930:	dd000717 	ldw	r20,28(sp)
  80e934:	dcc00617 	ldw	r19,24(sp)
  80e938:	dc800517 	ldw	r18,20(sp)
  80e93c:	dc400417 	ldw	r17,16(sp)
  80e940:	dc000317 	ldw	r16,12(sp)
  80e944:	dec00d04 	addi	sp,sp,52
  80e948:	f800283a 	ret
  80e94c:	2404b03a 	or	r2,r4,r16
  80e950:	2027883a 	mov	r19,r4
  80e954:	10004226 	beq	r2,zero,80ea60 <__muldf3+0x2e4>
  80e958:	8000fc26 	beq	r16,zero,80ed4c <__muldf3+0x5d0>
  80e95c:	8009883a 	mov	r4,r16
  80e960:	d9800215 	stw	r6,8(sp)
  80e964:	d9c00015 	stw	r7,0(sp)
  80e968:	da400115 	stw	r9,4(sp)
  80e96c:	080f9940 	call	80f994 <__clzsi2>
  80e970:	d9800217 	ldw	r6,8(sp)
  80e974:	d9c00017 	ldw	r7,0(sp)
  80e978:	da400117 	ldw	r9,4(sp)
  80e97c:	113ffd44 	addi	r4,r2,-11
  80e980:	00c00704 	movi	r3,28
  80e984:	1900ed16 	blt	r3,r4,80ed3c <__muldf3+0x5c0>
  80e988:	00c00744 	movi	r3,29
  80e98c:	147ffe04 	addi	r17,r2,-8
  80e990:	1907c83a 	sub	r3,r3,r4
  80e994:	8460983a 	sll	r16,r16,r17
  80e998:	98c6d83a 	srl	r3,r19,r3
  80e99c:	9c68983a 	sll	r20,r19,r17
  80e9a0:	1c20b03a 	or	r16,r3,r16
  80e9a4:	1080fcc4 	addi	r2,r2,1011
  80e9a8:	00a5c83a 	sub	r18,zero,r2
  80e9ac:	0027883a 	mov	r19,zero
  80e9b0:	0039883a 	mov	fp,zero
  80e9b4:	003f9006 	br	80e7f8 <__alt_mem_onchip_mem+0xff78e7f8>
  80e9b8:	3446b03a 	or	r3,r6,r17
  80e9bc:	1800261e 	bne	r3,zero,80ea58 <__muldf3+0x2dc>
  80e9c0:	0023883a 	mov	r17,zero
  80e9c4:	0011883a 	mov	r8,zero
  80e9c8:	01400084 	movi	r5,2
  80e9cc:	003f9c06 	br	80e840 <__alt_mem_onchip_mem+0xff78e840>
  80e9d0:	3446b03a 	or	r3,r6,r17
  80e9d4:	18001c26 	beq	r3,zero,80ea48 <__muldf3+0x2cc>
  80e9d8:	8800ce26 	beq	r17,zero,80ed14 <__muldf3+0x598>
  80e9dc:	8809883a 	mov	r4,r17
  80e9e0:	d9800215 	stw	r6,8(sp)
  80e9e4:	da400115 	stw	r9,4(sp)
  80e9e8:	da800015 	stw	r10,0(sp)
  80e9ec:	080f9940 	call	80f994 <__clzsi2>
  80e9f0:	d9800217 	ldw	r6,8(sp)
  80e9f4:	da400117 	ldw	r9,4(sp)
  80e9f8:	da800017 	ldw	r10,0(sp)
  80e9fc:	113ffd44 	addi	r4,r2,-11
  80ea00:	00c00704 	movi	r3,28
  80ea04:	1900bf16 	blt	r3,r4,80ed04 <__muldf3+0x588>
  80ea08:	00c00744 	movi	r3,29
  80ea0c:	123ffe04 	addi	r8,r2,-8
  80ea10:	1907c83a 	sub	r3,r3,r4
  80ea14:	8a22983a 	sll	r17,r17,r8
  80ea18:	30c6d83a 	srl	r3,r6,r3
  80ea1c:	3210983a 	sll	r8,r6,r8
  80ea20:	1c62b03a 	or	r17,r3,r17
  80ea24:	1080fcc4 	addi	r2,r2,1011
  80ea28:	0085c83a 	sub	r2,zero,r2
  80ea2c:	000b883a 	mov	r5,zero
  80ea30:	003f8306 	br	80e840 <__alt_mem_onchip_mem+0xff78e840>
  80ea34:	b02b883a 	mov	r21,r22
  80ea38:	0081ffc4 	movi	r2,2047
  80ea3c:	000b883a 	mov	r5,zero
  80ea40:	0029883a 	mov	r20,zero
  80ea44:	003fac06 	br	80e8f8 <__alt_mem_onchip_mem+0xff78e8f8>
  80ea48:	0023883a 	mov	r17,zero
  80ea4c:	0011883a 	mov	r8,zero
  80ea50:	01400044 	movi	r5,1
  80ea54:	003f7a06 	br	80e840 <__alt_mem_onchip_mem+0xff78e840>
  80ea58:	014000c4 	movi	r5,3
  80ea5c:	003f7806 	br	80e840 <__alt_mem_onchip_mem+0xff78e840>
  80ea60:	04c00104 	movi	r19,4
  80ea64:	0021883a 	mov	r16,zero
  80ea68:	0029883a 	mov	r20,zero
  80ea6c:	07000044 	movi	fp,1
  80ea70:	003f6106 	br	80e7f8 <__alt_mem_onchip_mem+0xff78e7f8>
  80ea74:	04c00304 	movi	r19,12
  80ea78:	070000c4 	movi	fp,3
  80ea7c:	003f5e06 	br	80e7f8 <__alt_mem_onchip_mem+0xff78e7f8>
  80ea80:	01400434 	movhi	r5,16
  80ea84:	002b883a 	mov	r21,zero
  80ea88:	297fffc4 	addi	r5,r5,-1
  80ea8c:	053fffc4 	movi	r20,-1
  80ea90:	0081ffc4 	movi	r2,2047
  80ea94:	003f9806 	br	80e8f8 <__alt_mem_onchip_mem+0xff78e8f8>
  80ea98:	8023883a 	mov	r17,r16
  80ea9c:	a011883a 	mov	r8,r20
  80eaa0:	e00b883a 	mov	r5,fp
  80eaa4:	003f8a06 	br	80e8d0 <__alt_mem_onchip_mem+0xff78e8d0>
  80eaa8:	8023883a 	mov	r17,r16
  80eaac:	a011883a 	mov	r8,r20
  80eab0:	482d883a 	mov	r22,r9
  80eab4:	e00b883a 	mov	r5,fp
  80eab8:	003f8506 	br	80e8d0 <__alt_mem_onchip_mem+0xff78e8d0>
  80eabc:	a00ad43a 	srli	r5,r20,16
  80eac0:	401ad43a 	srli	r13,r8,16
  80eac4:	a53fffcc 	andi	r20,r20,65535
  80eac8:	423fffcc 	andi	r8,r8,65535
  80eacc:	4519383a 	mul	r12,r8,r20
  80ead0:	4147383a 	mul	r3,r8,r5
  80ead4:	6d09383a 	mul	r4,r13,r20
  80ead8:	600cd43a 	srli	r6,r12,16
  80eadc:	2b5d383a 	mul	r14,r5,r13
  80eae0:	20c9883a 	add	r4,r4,r3
  80eae4:	310d883a 	add	r6,r6,r4
  80eae8:	30c0022e 	bgeu	r6,r3,80eaf4 <__muldf3+0x378>
  80eaec:	00c00074 	movhi	r3,1
  80eaf0:	70dd883a 	add	r14,r14,r3
  80eaf4:	8826d43a 	srli	r19,r17,16
  80eaf8:	8bffffcc 	andi	r15,r17,65535
  80eafc:	7d23383a 	mul	r17,r15,r20
  80eb00:	7949383a 	mul	r4,r15,r5
  80eb04:	9d29383a 	mul	r20,r19,r20
  80eb08:	8814d43a 	srli	r10,r17,16
  80eb0c:	3012943a 	slli	r9,r6,16
  80eb10:	a129883a 	add	r20,r20,r4
  80eb14:	633fffcc 	andi	r12,r12,65535
  80eb18:	5515883a 	add	r10,r10,r20
  80eb1c:	3006d43a 	srli	r3,r6,16
  80eb20:	4b13883a 	add	r9,r9,r12
  80eb24:	2ccb383a 	mul	r5,r5,r19
  80eb28:	5100022e 	bgeu	r10,r4,80eb34 <__muldf3+0x3b8>
  80eb2c:	01000074 	movhi	r4,1
  80eb30:	290b883a 	add	r5,r5,r4
  80eb34:	802ad43a 	srli	r21,r16,16
  80eb38:	843fffcc 	andi	r16,r16,65535
  80eb3c:	440d383a 	mul	r6,r8,r16
  80eb40:	4565383a 	mul	r18,r8,r21
  80eb44:	8349383a 	mul	r4,r16,r13
  80eb48:	500e943a 	slli	r7,r10,16
  80eb4c:	3010d43a 	srli	r8,r6,16
  80eb50:	5028d43a 	srli	r20,r10,16
  80eb54:	2489883a 	add	r4,r4,r18
  80eb58:	8abfffcc 	andi	r10,r17,65535
  80eb5c:	3a95883a 	add	r10,r7,r10
  80eb60:	4119883a 	add	r12,r8,r4
  80eb64:	a169883a 	add	r20,r20,r5
  80eb68:	1a87883a 	add	r3,r3,r10
  80eb6c:	6d5b383a 	mul	r13,r13,r21
  80eb70:	6480022e 	bgeu	r12,r18,80eb7c <__muldf3+0x400>
  80eb74:	01000074 	movhi	r4,1
  80eb78:	691b883a 	add	r13,r13,r4
  80eb7c:	7c25383a 	mul	r18,r15,r16
  80eb80:	7d4b383a 	mul	r5,r15,r21
  80eb84:	84cf383a 	mul	r7,r16,r19
  80eb88:	901ed43a 	srli	r15,r18,16
  80eb8c:	6008d43a 	srli	r4,r12,16
  80eb90:	6010943a 	slli	r8,r12,16
  80eb94:	394f883a 	add	r7,r7,r5
  80eb98:	333fffcc 	andi	r12,r6,65535
  80eb9c:	79df883a 	add	r15,r15,r7
  80eba0:	235b883a 	add	r13,r4,r13
  80eba4:	9d63383a 	mul	r17,r19,r21
  80eba8:	4309883a 	add	r4,r8,r12
  80ebac:	7940022e 	bgeu	r15,r5,80ebb8 <__muldf3+0x43c>
  80ebb0:	01400074 	movhi	r5,1
  80ebb4:	8963883a 	add	r17,r17,r5
  80ebb8:	780a943a 	slli	r5,r15,16
  80ebbc:	91bfffcc 	andi	r6,r18,65535
  80ebc0:	70c7883a 	add	r3,r14,r3
  80ebc4:	298d883a 	add	r6,r5,r6
  80ebc8:	1a8f803a 	cmpltu	r7,r3,r10
  80ebcc:	350b883a 	add	r5,r6,r20
  80ebd0:	20c7883a 	add	r3,r4,r3
  80ebd4:	3955883a 	add	r10,r7,r5
  80ebd8:	1909803a 	cmpltu	r4,r3,r4
  80ebdc:	6a91883a 	add	r8,r13,r10
  80ebe0:	780cd43a 	srli	r6,r15,16
  80ebe4:	2219883a 	add	r12,r4,r8
  80ebe8:	2d0b803a 	cmpltu	r5,r5,r20
  80ebec:	51cf803a 	cmpltu	r7,r10,r7
  80ebf0:	29ceb03a 	or	r7,r5,r7
  80ebf4:	4351803a 	cmpltu	r8,r8,r13
  80ebf8:	610b803a 	cmpltu	r5,r12,r4
  80ebfc:	4148b03a 	or	r4,r8,r5
  80ec00:	398f883a 	add	r7,r7,r6
  80ec04:	3909883a 	add	r4,r7,r4
  80ec08:	1810927a 	slli	r8,r3,9
  80ec0c:	2449883a 	add	r4,r4,r17
  80ec10:	2008927a 	slli	r4,r4,9
  80ec14:	6022d5fa 	srli	r17,r12,23
  80ec18:	1806d5fa 	srli	r3,r3,23
  80ec1c:	4252b03a 	or	r9,r8,r9
  80ec20:	600a927a 	slli	r5,r12,9
  80ec24:	4810c03a 	cmpne	r8,r9,zero
  80ec28:	2462b03a 	or	r17,r4,r17
  80ec2c:	40c6b03a 	or	r3,r8,r3
  80ec30:	8900402c 	andhi	r4,r17,256
  80ec34:	1950b03a 	or	r8,r3,r5
  80ec38:	20000726 	beq	r4,zero,80ec58 <__muldf3+0x4dc>
  80ec3c:	4006d07a 	srli	r3,r8,1
  80ec40:	880497fa 	slli	r2,r17,31
  80ec44:	4200004c 	andi	r8,r8,1
  80ec48:	8822d07a 	srli	r17,r17,1
  80ec4c:	1a10b03a 	or	r8,r3,r8
  80ec50:	1210b03a 	or	r8,r2,r8
  80ec54:	5805883a 	mov	r2,r11
  80ec58:	1140ffc4 	addi	r5,r2,1023
  80ec5c:	0140440e 	bge	zero,r5,80ed70 <__muldf3+0x5f4>
  80ec60:	40c001cc 	andi	r3,r8,7
  80ec64:	18000726 	beq	r3,zero,80ec84 <__muldf3+0x508>
  80ec68:	40c003cc 	andi	r3,r8,15
  80ec6c:	01000104 	movi	r4,4
  80ec70:	19000426 	beq	r3,r4,80ec84 <__muldf3+0x508>
  80ec74:	4107883a 	add	r3,r8,r4
  80ec78:	1a11803a 	cmpltu	r8,r3,r8
  80ec7c:	8a23883a 	add	r17,r17,r8
  80ec80:	1811883a 	mov	r8,r3
  80ec84:	88c0402c 	andhi	r3,r17,256
  80ec88:	18000426 	beq	r3,zero,80ec9c <__muldf3+0x520>
  80ec8c:	11410004 	addi	r5,r2,1024
  80ec90:	00bfc034 	movhi	r2,65280
  80ec94:	10bfffc4 	addi	r2,r2,-1
  80ec98:	88a2703a 	and	r17,r17,r2
  80ec9c:	0081ff84 	movi	r2,2046
  80eca0:	117f6416 	blt	r2,r5,80ea34 <__alt_mem_onchip_mem+0xff78ea34>
  80eca4:	8828977a 	slli	r20,r17,29
  80eca8:	4010d0fa 	srli	r8,r8,3
  80ecac:	8822927a 	slli	r17,r17,9
  80ecb0:	2881ffcc 	andi	r2,r5,2047
  80ecb4:	a228b03a 	or	r20,r20,r8
  80ecb8:	880ad33a 	srli	r5,r17,12
  80ecbc:	b02b883a 	mov	r21,r22
  80ecc0:	003f0d06 	br	80e8f8 <__alt_mem_onchip_mem+0xff78e8f8>
  80ecc4:	8080022c 	andhi	r2,r16,8
  80ecc8:	10000926 	beq	r2,zero,80ecf0 <__muldf3+0x574>
  80eccc:	8880022c 	andhi	r2,r17,8
  80ecd0:	1000071e 	bne	r2,zero,80ecf0 <__muldf3+0x574>
  80ecd4:	00800434 	movhi	r2,16
  80ecd8:	89400234 	orhi	r5,r17,8
  80ecdc:	10bfffc4 	addi	r2,r2,-1
  80ece0:	b82b883a 	mov	r21,r23
  80ece4:	288a703a 	and	r5,r5,r2
  80ece8:	4029883a 	mov	r20,r8
  80ecec:	003f6806 	br	80ea90 <__alt_mem_onchip_mem+0xff78ea90>
  80ecf0:	00800434 	movhi	r2,16
  80ecf4:	81400234 	orhi	r5,r16,8
  80ecf8:	10bfffc4 	addi	r2,r2,-1
  80ecfc:	288a703a 	and	r5,r5,r2
  80ed00:	003f6306 	br	80ea90 <__alt_mem_onchip_mem+0xff78ea90>
  80ed04:	147ff604 	addi	r17,r2,-40
  80ed08:	3462983a 	sll	r17,r6,r17
  80ed0c:	0011883a 	mov	r8,zero
  80ed10:	003f4406 	br	80ea24 <__alt_mem_onchip_mem+0xff78ea24>
  80ed14:	3009883a 	mov	r4,r6
  80ed18:	d9800215 	stw	r6,8(sp)
  80ed1c:	da400115 	stw	r9,4(sp)
  80ed20:	da800015 	stw	r10,0(sp)
  80ed24:	080f9940 	call	80f994 <__clzsi2>
  80ed28:	10800804 	addi	r2,r2,32
  80ed2c:	da800017 	ldw	r10,0(sp)
  80ed30:	da400117 	ldw	r9,4(sp)
  80ed34:	d9800217 	ldw	r6,8(sp)
  80ed38:	003f3006 	br	80e9fc <__alt_mem_onchip_mem+0xff78e9fc>
  80ed3c:	143ff604 	addi	r16,r2,-40
  80ed40:	9c20983a 	sll	r16,r19,r16
  80ed44:	0029883a 	mov	r20,zero
  80ed48:	003f1606 	br	80e9a4 <__alt_mem_onchip_mem+0xff78e9a4>
  80ed4c:	d9800215 	stw	r6,8(sp)
  80ed50:	d9c00015 	stw	r7,0(sp)
  80ed54:	da400115 	stw	r9,4(sp)
  80ed58:	080f9940 	call	80f994 <__clzsi2>
  80ed5c:	10800804 	addi	r2,r2,32
  80ed60:	da400117 	ldw	r9,4(sp)
  80ed64:	d9c00017 	ldw	r7,0(sp)
  80ed68:	d9800217 	ldw	r6,8(sp)
  80ed6c:	003f0306 	br	80e97c <__alt_mem_onchip_mem+0xff78e97c>
  80ed70:	00c00044 	movi	r3,1
  80ed74:	1947c83a 	sub	r3,r3,r5
  80ed78:	00800e04 	movi	r2,56
  80ed7c:	10feda16 	blt	r2,r3,80e8e8 <__alt_mem_onchip_mem+0xff78e8e8>
  80ed80:	008007c4 	movi	r2,31
  80ed84:	10c01b16 	blt	r2,r3,80edf4 <__muldf3+0x678>
  80ed88:	00800804 	movi	r2,32
  80ed8c:	10c5c83a 	sub	r2,r2,r3
  80ed90:	888a983a 	sll	r5,r17,r2
  80ed94:	40c8d83a 	srl	r4,r8,r3
  80ed98:	4084983a 	sll	r2,r8,r2
  80ed9c:	88e2d83a 	srl	r17,r17,r3
  80eda0:	2906b03a 	or	r3,r5,r4
  80eda4:	1004c03a 	cmpne	r2,r2,zero
  80eda8:	1886b03a 	or	r3,r3,r2
  80edac:	188001cc 	andi	r2,r3,7
  80edb0:	10000726 	beq	r2,zero,80edd0 <__muldf3+0x654>
  80edb4:	188003cc 	andi	r2,r3,15
  80edb8:	01000104 	movi	r4,4
  80edbc:	11000426 	beq	r2,r4,80edd0 <__muldf3+0x654>
  80edc0:	1805883a 	mov	r2,r3
  80edc4:	10c00104 	addi	r3,r2,4
  80edc8:	1885803a 	cmpltu	r2,r3,r2
  80edcc:	88a3883a 	add	r17,r17,r2
  80edd0:	8880202c 	andhi	r2,r17,128
  80edd4:	10001c26 	beq	r2,zero,80ee48 <__muldf3+0x6cc>
  80edd8:	b02b883a 	mov	r21,r22
  80eddc:	00800044 	movi	r2,1
  80ede0:	000b883a 	mov	r5,zero
  80ede4:	0029883a 	mov	r20,zero
  80ede8:	003ec306 	br	80e8f8 <__alt_mem_onchip_mem+0xff78e8f8>
  80edec:	5805883a 	mov	r2,r11
  80edf0:	003f9906 	br	80ec58 <__alt_mem_onchip_mem+0xff78ec58>
  80edf4:	00bff844 	movi	r2,-31
  80edf8:	1145c83a 	sub	r2,r2,r5
  80edfc:	8888d83a 	srl	r4,r17,r2
  80ee00:	00800804 	movi	r2,32
  80ee04:	18801a26 	beq	r3,r2,80ee70 <__muldf3+0x6f4>
  80ee08:	00801004 	movi	r2,64
  80ee0c:	10c5c83a 	sub	r2,r2,r3
  80ee10:	8884983a 	sll	r2,r17,r2
  80ee14:	1204b03a 	or	r2,r2,r8
  80ee18:	1004c03a 	cmpne	r2,r2,zero
  80ee1c:	2084b03a 	or	r2,r4,r2
  80ee20:	144001cc 	andi	r17,r2,7
  80ee24:	88000d1e 	bne	r17,zero,80ee5c <__muldf3+0x6e0>
  80ee28:	000b883a 	mov	r5,zero
  80ee2c:	1028d0fa 	srli	r20,r2,3
  80ee30:	b02b883a 	mov	r21,r22
  80ee34:	0005883a 	mov	r2,zero
  80ee38:	a468b03a 	or	r20,r20,r17
  80ee3c:	003eae06 	br	80e8f8 <__alt_mem_onchip_mem+0xff78e8f8>
  80ee40:	1007883a 	mov	r3,r2
  80ee44:	0023883a 	mov	r17,zero
  80ee48:	880a927a 	slli	r5,r17,9
  80ee4c:	1805883a 	mov	r2,r3
  80ee50:	8822977a 	slli	r17,r17,29
  80ee54:	280ad33a 	srli	r5,r5,12
  80ee58:	003ff406 	br	80ee2c <__alt_mem_onchip_mem+0xff78ee2c>
  80ee5c:	10c003cc 	andi	r3,r2,15
  80ee60:	01000104 	movi	r4,4
  80ee64:	193ff626 	beq	r3,r4,80ee40 <__alt_mem_onchip_mem+0xff78ee40>
  80ee68:	0023883a 	mov	r17,zero
  80ee6c:	003fd506 	br	80edc4 <__alt_mem_onchip_mem+0xff78edc4>
  80ee70:	0005883a 	mov	r2,zero
  80ee74:	003fe706 	br	80ee14 <__alt_mem_onchip_mem+0xff78ee14>
  80ee78:	00800434 	movhi	r2,16
  80ee7c:	89400234 	orhi	r5,r17,8
  80ee80:	10bfffc4 	addi	r2,r2,-1
  80ee84:	b02b883a 	mov	r21,r22
  80ee88:	288a703a 	and	r5,r5,r2
  80ee8c:	4029883a 	mov	r20,r8
  80ee90:	003eff06 	br	80ea90 <__alt_mem_onchip_mem+0xff78ea90>

0080ee94 <__subdf3>:
  80ee94:	02000434 	movhi	r8,16
  80ee98:	423fffc4 	addi	r8,r8,-1
  80ee9c:	defffb04 	addi	sp,sp,-20
  80eea0:	2a14703a 	and	r10,r5,r8
  80eea4:	3812d53a 	srli	r9,r7,20
  80eea8:	3a10703a 	and	r8,r7,r8
  80eeac:	2006d77a 	srli	r3,r4,29
  80eeb0:	3004d77a 	srli	r2,r6,29
  80eeb4:	dc000015 	stw	r16,0(sp)
  80eeb8:	501490fa 	slli	r10,r10,3
  80eebc:	2820d53a 	srli	r16,r5,20
  80eec0:	401090fa 	slli	r8,r8,3
  80eec4:	dc800215 	stw	r18,8(sp)
  80eec8:	dc400115 	stw	r17,4(sp)
  80eecc:	dfc00415 	stw	ra,16(sp)
  80eed0:	202290fa 	slli	r17,r4,3
  80eed4:	dcc00315 	stw	r19,12(sp)
  80eed8:	4a41ffcc 	andi	r9,r9,2047
  80eedc:	0101ffc4 	movi	r4,2047
  80eee0:	2824d7fa 	srli	r18,r5,31
  80eee4:	8401ffcc 	andi	r16,r16,2047
  80eee8:	50c6b03a 	or	r3,r10,r3
  80eeec:	380ed7fa 	srli	r7,r7,31
  80eef0:	408ab03a 	or	r5,r8,r2
  80eef4:	300c90fa 	slli	r6,r6,3
  80eef8:	49009626 	beq	r9,r4,80f154 <__subdf3+0x2c0>
  80eefc:	39c0005c 	xori	r7,r7,1
  80ef00:	8245c83a 	sub	r2,r16,r9
  80ef04:	3c807426 	beq	r7,r18,80f0d8 <__subdf3+0x244>
  80ef08:	0080af0e 	bge	zero,r2,80f1c8 <__subdf3+0x334>
  80ef0c:	48002a1e 	bne	r9,zero,80efb8 <__subdf3+0x124>
  80ef10:	2988b03a 	or	r4,r5,r6
  80ef14:	20009a1e 	bne	r4,zero,80f180 <__subdf3+0x2ec>
  80ef18:	888001cc 	andi	r2,r17,7
  80ef1c:	10000726 	beq	r2,zero,80ef3c <__subdf3+0xa8>
  80ef20:	888003cc 	andi	r2,r17,15
  80ef24:	01000104 	movi	r4,4
  80ef28:	11000426 	beq	r2,r4,80ef3c <__subdf3+0xa8>
  80ef2c:	890b883a 	add	r5,r17,r4
  80ef30:	2c63803a 	cmpltu	r17,r5,r17
  80ef34:	1c47883a 	add	r3,r3,r17
  80ef38:	2823883a 	mov	r17,r5
  80ef3c:	1880202c 	andhi	r2,r3,128
  80ef40:	10005926 	beq	r2,zero,80f0a8 <__subdf3+0x214>
  80ef44:	84000044 	addi	r16,r16,1
  80ef48:	0081ffc4 	movi	r2,2047
  80ef4c:	8080be26 	beq	r16,r2,80f248 <__subdf3+0x3b4>
  80ef50:	017fe034 	movhi	r5,65408
  80ef54:	297fffc4 	addi	r5,r5,-1
  80ef58:	1946703a 	and	r3,r3,r5
  80ef5c:	1804977a 	slli	r2,r3,29
  80ef60:	1806927a 	slli	r3,r3,9
  80ef64:	8822d0fa 	srli	r17,r17,3
  80ef68:	8401ffcc 	andi	r16,r16,2047
  80ef6c:	180ad33a 	srli	r5,r3,12
  80ef70:	9100004c 	andi	r4,r18,1
  80ef74:	1444b03a 	or	r2,r2,r17
  80ef78:	80c1ffcc 	andi	r3,r16,2047
  80ef7c:	1820953a 	slli	r16,r3,20
  80ef80:	20c03fcc 	andi	r3,r4,255
  80ef84:	180897fa 	slli	r4,r3,31
  80ef88:	00c00434 	movhi	r3,16
  80ef8c:	18ffffc4 	addi	r3,r3,-1
  80ef90:	28c6703a 	and	r3,r5,r3
  80ef94:	1c06b03a 	or	r3,r3,r16
  80ef98:	1906b03a 	or	r3,r3,r4
  80ef9c:	dfc00417 	ldw	ra,16(sp)
  80efa0:	dcc00317 	ldw	r19,12(sp)
  80efa4:	dc800217 	ldw	r18,8(sp)
  80efa8:	dc400117 	ldw	r17,4(sp)
  80efac:	dc000017 	ldw	r16,0(sp)
  80efb0:	dec00504 	addi	sp,sp,20
  80efb4:	f800283a 	ret
  80efb8:	0101ffc4 	movi	r4,2047
  80efbc:	813fd626 	beq	r16,r4,80ef18 <__alt_mem_onchip_mem+0xff78ef18>
  80efc0:	29402034 	orhi	r5,r5,128
  80efc4:	01000e04 	movi	r4,56
  80efc8:	2080a316 	blt	r4,r2,80f258 <__subdf3+0x3c4>
  80efcc:	010007c4 	movi	r4,31
  80efd0:	2080c616 	blt	r4,r2,80f2ec <__subdf3+0x458>
  80efd4:	01000804 	movi	r4,32
  80efd8:	2089c83a 	sub	r4,r4,r2
  80efdc:	2910983a 	sll	r8,r5,r4
  80efe0:	308ed83a 	srl	r7,r6,r2
  80efe4:	3108983a 	sll	r4,r6,r4
  80efe8:	2884d83a 	srl	r2,r5,r2
  80efec:	41ccb03a 	or	r6,r8,r7
  80eff0:	2008c03a 	cmpne	r4,r4,zero
  80eff4:	310cb03a 	or	r6,r6,r4
  80eff8:	898dc83a 	sub	r6,r17,r6
  80effc:	89a3803a 	cmpltu	r17,r17,r6
  80f000:	1887c83a 	sub	r3,r3,r2
  80f004:	1c47c83a 	sub	r3,r3,r17
  80f008:	3023883a 	mov	r17,r6
  80f00c:	1880202c 	andhi	r2,r3,128
  80f010:	10002326 	beq	r2,zero,80f0a0 <__subdf3+0x20c>
  80f014:	04c02034 	movhi	r19,128
  80f018:	9cffffc4 	addi	r19,r19,-1
  80f01c:	1ce6703a 	and	r19,r3,r19
  80f020:	98007a26 	beq	r19,zero,80f20c <__subdf3+0x378>
  80f024:	9809883a 	mov	r4,r19
  80f028:	080f9940 	call	80f994 <__clzsi2>
  80f02c:	113ffe04 	addi	r4,r2,-8
  80f030:	00c007c4 	movi	r3,31
  80f034:	19007b16 	blt	r3,r4,80f224 <__subdf3+0x390>
  80f038:	00800804 	movi	r2,32
  80f03c:	1105c83a 	sub	r2,r2,r4
  80f040:	8884d83a 	srl	r2,r17,r2
  80f044:	9906983a 	sll	r3,r19,r4
  80f048:	8922983a 	sll	r17,r17,r4
  80f04c:	10c4b03a 	or	r2,r2,r3
  80f050:	24007816 	blt	r4,r16,80f234 <__subdf3+0x3a0>
  80f054:	2421c83a 	sub	r16,r4,r16
  80f058:	80c00044 	addi	r3,r16,1
  80f05c:	010007c4 	movi	r4,31
  80f060:	20c09516 	blt	r4,r3,80f2b8 <__subdf3+0x424>
  80f064:	01400804 	movi	r5,32
  80f068:	28cbc83a 	sub	r5,r5,r3
  80f06c:	88c8d83a 	srl	r4,r17,r3
  80f070:	8962983a 	sll	r17,r17,r5
  80f074:	114a983a 	sll	r5,r2,r5
  80f078:	10c6d83a 	srl	r3,r2,r3
  80f07c:	8804c03a 	cmpne	r2,r17,zero
  80f080:	290ab03a 	or	r5,r5,r4
  80f084:	28a2b03a 	or	r17,r5,r2
  80f088:	0021883a 	mov	r16,zero
  80f08c:	003fa206 	br	80ef18 <__alt_mem_onchip_mem+0xff78ef18>
  80f090:	2090b03a 	or	r8,r4,r2
  80f094:	40018e26 	beq	r8,zero,80f6d0 <__subdf3+0x83c>
  80f098:	1007883a 	mov	r3,r2
  80f09c:	2023883a 	mov	r17,r4
  80f0a0:	888001cc 	andi	r2,r17,7
  80f0a4:	103f9e1e 	bne	r2,zero,80ef20 <__alt_mem_onchip_mem+0xff78ef20>
  80f0a8:	1804977a 	slli	r2,r3,29
  80f0ac:	8822d0fa 	srli	r17,r17,3
  80f0b0:	1810d0fa 	srli	r8,r3,3
  80f0b4:	9100004c 	andi	r4,r18,1
  80f0b8:	1444b03a 	or	r2,r2,r17
  80f0bc:	00c1ffc4 	movi	r3,2047
  80f0c0:	80c02826 	beq	r16,r3,80f164 <__subdf3+0x2d0>
  80f0c4:	01400434 	movhi	r5,16
  80f0c8:	297fffc4 	addi	r5,r5,-1
  80f0cc:	80e0703a 	and	r16,r16,r3
  80f0d0:	414a703a 	and	r5,r8,r5
  80f0d4:	003fa806 	br	80ef78 <__alt_mem_onchip_mem+0xff78ef78>
  80f0d8:	0080630e 	bge	zero,r2,80f268 <__subdf3+0x3d4>
  80f0dc:	48003026 	beq	r9,zero,80f1a0 <__subdf3+0x30c>
  80f0e0:	0101ffc4 	movi	r4,2047
  80f0e4:	813f8c26 	beq	r16,r4,80ef18 <__alt_mem_onchip_mem+0xff78ef18>
  80f0e8:	29402034 	orhi	r5,r5,128
  80f0ec:	01000e04 	movi	r4,56
  80f0f0:	2080a90e 	bge	r4,r2,80f398 <__subdf3+0x504>
  80f0f4:	298cb03a 	or	r6,r5,r6
  80f0f8:	3012c03a 	cmpne	r9,r6,zero
  80f0fc:	0005883a 	mov	r2,zero
  80f100:	4c53883a 	add	r9,r9,r17
  80f104:	4c63803a 	cmpltu	r17,r9,r17
  80f108:	10c7883a 	add	r3,r2,r3
  80f10c:	88c7883a 	add	r3,r17,r3
  80f110:	4823883a 	mov	r17,r9
  80f114:	1880202c 	andhi	r2,r3,128
  80f118:	1000d026 	beq	r2,zero,80f45c <__subdf3+0x5c8>
  80f11c:	84000044 	addi	r16,r16,1
  80f120:	0081ffc4 	movi	r2,2047
  80f124:	8080fe26 	beq	r16,r2,80f520 <__subdf3+0x68c>
  80f128:	00bfe034 	movhi	r2,65408
  80f12c:	10bfffc4 	addi	r2,r2,-1
  80f130:	1886703a 	and	r3,r3,r2
  80f134:	880ad07a 	srli	r5,r17,1
  80f138:	180497fa 	slli	r2,r3,31
  80f13c:	8900004c 	andi	r4,r17,1
  80f140:	2922b03a 	or	r17,r5,r4
  80f144:	1806d07a 	srli	r3,r3,1
  80f148:	1462b03a 	or	r17,r2,r17
  80f14c:	3825883a 	mov	r18,r7
  80f150:	003f7106 	br	80ef18 <__alt_mem_onchip_mem+0xff78ef18>
  80f154:	2984b03a 	or	r2,r5,r6
  80f158:	103f6826 	beq	r2,zero,80eefc <__alt_mem_onchip_mem+0xff78eefc>
  80f15c:	39c03fcc 	andi	r7,r7,255
  80f160:	003f6706 	br	80ef00 <__alt_mem_onchip_mem+0xff78ef00>
  80f164:	4086b03a 	or	r3,r8,r2
  80f168:	18015226 	beq	r3,zero,80f6b4 <__subdf3+0x820>
  80f16c:	00c00434 	movhi	r3,16
  80f170:	41400234 	orhi	r5,r8,8
  80f174:	18ffffc4 	addi	r3,r3,-1
  80f178:	28ca703a 	and	r5,r5,r3
  80f17c:	003f7e06 	br	80ef78 <__alt_mem_onchip_mem+0xff78ef78>
  80f180:	10bfffc4 	addi	r2,r2,-1
  80f184:	1000491e 	bne	r2,zero,80f2ac <__subdf3+0x418>
  80f188:	898fc83a 	sub	r7,r17,r6
  80f18c:	89e3803a 	cmpltu	r17,r17,r7
  80f190:	1947c83a 	sub	r3,r3,r5
  80f194:	1c47c83a 	sub	r3,r3,r17
  80f198:	3823883a 	mov	r17,r7
  80f19c:	003f9b06 	br	80f00c <__alt_mem_onchip_mem+0xff78f00c>
  80f1a0:	2988b03a 	or	r4,r5,r6
  80f1a4:	203f5c26 	beq	r4,zero,80ef18 <__alt_mem_onchip_mem+0xff78ef18>
  80f1a8:	10bfffc4 	addi	r2,r2,-1
  80f1ac:	1000931e 	bne	r2,zero,80f3fc <__subdf3+0x568>
  80f1b0:	898d883a 	add	r6,r17,r6
  80f1b4:	3463803a 	cmpltu	r17,r6,r17
  80f1b8:	1947883a 	add	r3,r3,r5
  80f1bc:	88c7883a 	add	r3,r17,r3
  80f1c0:	3023883a 	mov	r17,r6
  80f1c4:	003fd306 	br	80f114 <__alt_mem_onchip_mem+0xff78f114>
  80f1c8:	1000541e 	bne	r2,zero,80f31c <__subdf3+0x488>
  80f1cc:	80800044 	addi	r2,r16,1
  80f1d0:	1081ffcc 	andi	r2,r2,2047
  80f1d4:	01000044 	movi	r4,1
  80f1d8:	2080a20e 	bge	r4,r2,80f464 <__subdf3+0x5d0>
  80f1dc:	8989c83a 	sub	r4,r17,r6
  80f1e0:	8905803a 	cmpltu	r2,r17,r4
  80f1e4:	1967c83a 	sub	r19,r3,r5
  80f1e8:	98a7c83a 	sub	r19,r19,r2
  80f1ec:	9880202c 	andhi	r2,r19,128
  80f1f0:	10006326 	beq	r2,zero,80f380 <__subdf3+0x4ec>
  80f1f4:	3463c83a 	sub	r17,r6,r17
  80f1f8:	28c7c83a 	sub	r3,r5,r3
  80f1fc:	344d803a 	cmpltu	r6,r6,r17
  80f200:	19a7c83a 	sub	r19,r3,r6
  80f204:	3825883a 	mov	r18,r7
  80f208:	983f861e 	bne	r19,zero,80f024 <__alt_mem_onchip_mem+0xff78f024>
  80f20c:	8809883a 	mov	r4,r17
  80f210:	080f9940 	call	80f994 <__clzsi2>
  80f214:	10800804 	addi	r2,r2,32
  80f218:	113ffe04 	addi	r4,r2,-8
  80f21c:	00c007c4 	movi	r3,31
  80f220:	193f850e 	bge	r3,r4,80f038 <__alt_mem_onchip_mem+0xff78f038>
  80f224:	10bff604 	addi	r2,r2,-40
  80f228:	8884983a 	sll	r2,r17,r2
  80f22c:	0023883a 	mov	r17,zero
  80f230:	243f880e 	bge	r4,r16,80f054 <__alt_mem_onchip_mem+0xff78f054>
  80f234:	00ffe034 	movhi	r3,65408
  80f238:	18ffffc4 	addi	r3,r3,-1
  80f23c:	8121c83a 	sub	r16,r16,r4
  80f240:	10c6703a 	and	r3,r2,r3
  80f244:	003f3406 	br	80ef18 <__alt_mem_onchip_mem+0xff78ef18>
  80f248:	9100004c 	andi	r4,r18,1
  80f24c:	000b883a 	mov	r5,zero
  80f250:	0005883a 	mov	r2,zero
  80f254:	003f4806 	br	80ef78 <__alt_mem_onchip_mem+0xff78ef78>
  80f258:	298cb03a 	or	r6,r5,r6
  80f25c:	300cc03a 	cmpne	r6,r6,zero
  80f260:	0005883a 	mov	r2,zero
  80f264:	003f6406 	br	80eff8 <__alt_mem_onchip_mem+0xff78eff8>
  80f268:	10009a1e 	bne	r2,zero,80f4d4 <__subdf3+0x640>
  80f26c:	82400044 	addi	r9,r16,1
  80f270:	4881ffcc 	andi	r2,r9,2047
  80f274:	02800044 	movi	r10,1
  80f278:	5080670e 	bge	r10,r2,80f418 <__subdf3+0x584>
  80f27c:	0081ffc4 	movi	r2,2047
  80f280:	4880af26 	beq	r9,r2,80f540 <__subdf3+0x6ac>
  80f284:	898d883a 	add	r6,r17,r6
  80f288:	1945883a 	add	r2,r3,r5
  80f28c:	3447803a 	cmpltu	r3,r6,r17
  80f290:	1887883a 	add	r3,r3,r2
  80f294:	182297fa 	slli	r17,r3,31
  80f298:	300cd07a 	srli	r6,r6,1
  80f29c:	1806d07a 	srli	r3,r3,1
  80f2a0:	4821883a 	mov	r16,r9
  80f2a4:	89a2b03a 	or	r17,r17,r6
  80f2a8:	003f1b06 	br	80ef18 <__alt_mem_onchip_mem+0xff78ef18>
  80f2ac:	0101ffc4 	movi	r4,2047
  80f2b0:	813f441e 	bne	r16,r4,80efc4 <__alt_mem_onchip_mem+0xff78efc4>
  80f2b4:	003f1806 	br	80ef18 <__alt_mem_onchip_mem+0xff78ef18>
  80f2b8:	843ff844 	addi	r16,r16,-31
  80f2bc:	01400804 	movi	r5,32
  80f2c0:	1408d83a 	srl	r4,r2,r16
  80f2c4:	19405026 	beq	r3,r5,80f408 <__subdf3+0x574>
  80f2c8:	01401004 	movi	r5,64
  80f2cc:	28c7c83a 	sub	r3,r5,r3
  80f2d0:	10c4983a 	sll	r2,r2,r3
  80f2d4:	88a2b03a 	or	r17,r17,r2
  80f2d8:	8822c03a 	cmpne	r17,r17,zero
  80f2dc:	2462b03a 	or	r17,r4,r17
  80f2e0:	0007883a 	mov	r3,zero
  80f2e4:	0021883a 	mov	r16,zero
  80f2e8:	003f6d06 	br	80f0a0 <__alt_mem_onchip_mem+0xff78f0a0>
  80f2ec:	11fff804 	addi	r7,r2,-32
  80f2f0:	01000804 	movi	r4,32
  80f2f4:	29ced83a 	srl	r7,r5,r7
  80f2f8:	11004526 	beq	r2,r4,80f410 <__subdf3+0x57c>
  80f2fc:	01001004 	movi	r4,64
  80f300:	2089c83a 	sub	r4,r4,r2
  80f304:	2904983a 	sll	r2,r5,r4
  80f308:	118cb03a 	or	r6,r2,r6
  80f30c:	300cc03a 	cmpne	r6,r6,zero
  80f310:	398cb03a 	or	r6,r7,r6
  80f314:	0005883a 	mov	r2,zero
  80f318:	003f3706 	br	80eff8 <__alt_mem_onchip_mem+0xff78eff8>
  80f31c:	80002a26 	beq	r16,zero,80f3c8 <__subdf3+0x534>
  80f320:	0101ffc4 	movi	r4,2047
  80f324:	49006626 	beq	r9,r4,80f4c0 <__subdf3+0x62c>
  80f328:	0085c83a 	sub	r2,zero,r2
  80f32c:	18c02034 	orhi	r3,r3,128
  80f330:	01000e04 	movi	r4,56
  80f334:	20807e16 	blt	r4,r2,80f530 <__subdf3+0x69c>
  80f338:	010007c4 	movi	r4,31
  80f33c:	2080e716 	blt	r4,r2,80f6dc <__subdf3+0x848>
  80f340:	01000804 	movi	r4,32
  80f344:	2089c83a 	sub	r4,r4,r2
  80f348:	1914983a 	sll	r10,r3,r4
  80f34c:	8890d83a 	srl	r8,r17,r2
  80f350:	8908983a 	sll	r4,r17,r4
  80f354:	1884d83a 	srl	r2,r3,r2
  80f358:	5222b03a 	or	r17,r10,r8
  80f35c:	2006c03a 	cmpne	r3,r4,zero
  80f360:	88e2b03a 	or	r17,r17,r3
  80f364:	3463c83a 	sub	r17,r6,r17
  80f368:	2885c83a 	sub	r2,r5,r2
  80f36c:	344d803a 	cmpltu	r6,r6,r17
  80f370:	1187c83a 	sub	r3,r2,r6
  80f374:	4821883a 	mov	r16,r9
  80f378:	3825883a 	mov	r18,r7
  80f37c:	003f2306 	br	80f00c <__alt_mem_onchip_mem+0xff78f00c>
  80f380:	24d0b03a 	or	r8,r4,r19
  80f384:	40001b1e 	bne	r8,zero,80f3f4 <__subdf3+0x560>
  80f388:	0005883a 	mov	r2,zero
  80f38c:	0009883a 	mov	r4,zero
  80f390:	0021883a 	mov	r16,zero
  80f394:	003f4906 	br	80f0bc <__alt_mem_onchip_mem+0xff78f0bc>
  80f398:	010007c4 	movi	r4,31
  80f39c:	20803a16 	blt	r4,r2,80f488 <__subdf3+0x5f4>
  80f3a0:	01000804 	movi	r4,32
  80f3a4:	2089c83a 	sub	r4,r4,r2
  80f3a8:	2912983a 	sll	r9,r5,r4
  80f3ac:	3090d83a 	srl	r8,r6,r2
  80f3b0:	3108983a 	sll	r4,r6,r4
  80f3b4:	2884d83a 	srl	r2,r5,r2
  80f3b8:	4a12b03a 	or	r9,r9,r8
  80f3bc:	2008c03a 	cmpne	r4,r4,zero
  80f3c0:	4912b03a 	or	r9,r9,r4
  80f3c4:	003f4e06 	br	80f100 <__alt_mem_onchip_mem+0xff78f100>
  80f3c8:	1c48b03a 	or	r4,r3,r17
  80f3cc:	20003c26 	beq	r4,zero,80f4c0 <__subdf3+0x62c>
  80f3d0:	0084303a 	nor	r2,zero,r2
  80f3d4:	1000381e 	bne	r2,zero,80f4b8 <__subdf3+0x624>
  80f3d8:	3463c83a 	sub	r17,r6,r17
  80f3dc:	28c5c83a 	sub	r2,r5,r3
  80f3e0:	344d803a 	cmpltu	r6,r6,r17
  80f3e4:	1187c83a 	sub	r3,r2,r6
  80f3e8:	4821883a 	mov	r16,r9
  80f3ec:	3825883a 	mov	r18,r7
  80f3f0:	003f0606 	br	80f00c <__alt_mem_onchip_mem+0xff78f00c>
  80f3f4:	2023883a 	mov	r17,r4
  80f3f8:	003f0906 	br	80f020 <__alt_mem_onchip_mem+0xff78f020>
  80f3fc:	0101ffc4 	movi	r4,2047
  80f400:	813f3a1e 	bne	r16,r4,80f0ec <__alt_mem_onchip_mem+0xff78f0ec>
  80f404:	003ec406 	br	80ef18 <__alt_mem_onchip_mem+0xff78ef18>
  80f408:	0005883a 	mov	r2,zero
  80f40c:	003fb106 	br	80f2d4 <__alt_mem_onchip_mem+0xff78f2d4>
  80f410:	0005883a 	mov	r2,zero
  80f414:	003fbc06 	br	80f308 <__alt_mem_onchip_mem+0xff78f308>
  80f418:	1c44b03a 	or	r2,r3,r17
  80f41c:	80008e1e 	bne	r16,zero,80f658 <__subdf3+0x7c4>
  80f420:	1000c826 	beq	r2,zero,80f744 <__subdf3+0x8b0>
  80f424:	2984b03a 	or	r2,r5,r6
  80f428:	103ebb26 	beq	r2,zero,80ef18 <__alt_mem_onchip_mem+0xff78ef18>
  80f42c:	8989883a 	add	r4,r17,r6
  80f430:	1945883a 	add	r2,r3,r5
  80f434:	2447803a 	cmpltu	r3,r4,r17
  80f438:	1887883a 	add	r3,r3,r2
  80f43c:	1880202c 	andhi	r2,r3,128
  80f440:	2023883a 	mov	r17,r4
  80f444:	103f1626 	beq	r2,zero,80f0a0 <__alt_mem_onchip_mem+0xff78f0a0>
  80f448:	00bfe034 	movhi	r2,65408
  80f44c:	10bfffc4 	addi	r2,r2,-1
  80f450:	5021883a 	mov	r16,r10
  80f454:	1886703a 	and	r3,r3,r2
  80f458:	003eaf06 	br	80ef18 <__alt_mem_onchip_mem+0xff78ef18>
  80f45c:	3825883a 	mov	r18,r7
  80f460:	003f0f06 	br	80f0a0 <__alt_mem_onchip_mem+0xff78f0a0>
  80f464:	1c44b03a 	or	r2,r3,r17
  80f468:	8000251e 	bne	r16,zero,80f500 <__subdf3+0x66c>
  80f46c:	1000661e 	bne	r2,zero,80f608 <__subdf3+0x774>
  80f470:	2990b03a 	or	r8,r5,r6
  80f474:	40009626 	beq	r8,zero,80f6d0 <__subdf3+0x83c>
  80f478:	2807883a 	mov	r3,r5
  80f47c:	3023883a 	mov	r17,r6
  80f480:	3825883a 	mov	r18,r7
  80f484:	003ea406 	br	80ef18 <__alt_mem_onchip_mem+0xff78ef18>
  80f488:	127ff804 	addi	r9,r2,-32
  80f48c:	01000804 	movi	r4,32
  80f490:	2a52d83a 	srl	r9,r5,r9
  80f494:	11008c26 	beq	r2,r4,80f6c8 <__subdf3+0x834>
  80f498:	01001004 	movi	r4,64
  80f49c:	2085c83a 	sub	r2,r4,r2
  80f4a0:	2884983a 	sll	r2,r5,r2
  80f4a4:	118cb03a 	or	r6,r2,r6
  80f4a8:	300cc03a 	cmpne	r6,r6,zero
  80f4ac:	4992b03a 	or	r9,r9,r6
  80f4b0:	0005883a 	mov	r2,zero
  80f4b4:	003f1206 	br	80f100 <__alt_mem_onchip_mem+0xff78f100>
  80f4b8:	0101ffc4 	movi	r4,2047
  80f4bc:	493f9c1e 	bne	r9,r4,80f330 <__alt_mem_onchip_mem+0xff78f330>
  80f4c0:	2807883a 	mov	r3,r5
  80f4c4:	3023883a 	mov	r17,r6
  80f4c8:	4821883a 	mov	r16,r9
  80f4cc:	3825883a 	mov	r18,r7
  80f4d0:	003e9106 	br	80ef18 <__alt_mem_onchip_mem+0xff78ef18>
  80f4d4:	80001f1e 	bne	r16,zero,80f554 <__subdf3+0x6c0>
  80f4d8:	1c48b03a 	or	r4,r3,r17
  80f4dc:	20005a26 	beq	r4,zero,80f648 <__subdf3+0x7b4>
  80f4e0:	0084303a 	nor	r2,zero,r2
  80f4e4:	1000561e 	bne	r2,zero,80f640 <__subdf3+0x7ac>
  80f4e8:	89a3883a 	add	r17,r17,r6
  80f4ec:	1945883a 	add	r2,r3,r5
  80f4f0:	898d803a 	cmpltu	r6,r17,r6
  80f4f4:	3087883a 	add	r3,r6,r2
  80f4f8:	4821883a 	mov	r16,r9
  80f4fc:	003f0506 	br	80f114 <__alt_mem_onchip_mem+0xff78f114>
  80f500:	10002b1e 	bne	r2,zero,80f5b0 <__subdf3+0x71c>
  80f504:	2984b03a 	or	r2,r5,r6
  80f508:	10008026 	beq	r2,zero,80f70c <__subdf3+0x878>
  80f50c:	2807883a 	mov	r3,r5
  80f510:	3023883a 	mov	r17,r6
  80f514:	3825883a 	mov	r18,r7
  80f518:	0401ffc4 	movi	r16,2047
  80f51c:	003e7e06 	br	80ef18 <__alt_mem_onchip_mem+0xff78ef18>
  80f520:	3809883a 	mov	r4,r7
  80f524:	0011883a 	mov	r8,zero
  80f528:	0005883a 	mov	r2,zero
  80f52c:	003ee306 	br	80f0bc <__alt_mem_onchip_mem+0xff78f0bc>
  80f530:	1c62b03a 	or	r17,r3,r17
  80f534:	8822c03a 	cmpne	r17,r17,zero
  80f538:	0005883a 	mov	r2,zero
  80f53c:	003f8906 	br	80f364 <__alt_mem_onchip_mem+0xff78f364>
  80f540:	3809883a 	mov	r4,r7
  80f544:	4821883a 	mov	r16,r9
  80f548:	0011883a 	mov	r8,zero
  80f54c:	0005883a 	mov	r2,zero
  80f550:	003eda06 	br	80f0bc <__alt_mem_onchip_mem+0xff78f0bc>
  80f554:	0101ffc4 	movi	r4,2047
  80f558:	49003b26 	beq	r9,r4,80f648 <__subdf3+0x7b4>
  80f55c:	0085c83a 	sub	r2,zero,r2
  80f560:	18c02034 	orhi	r3,r3,128
  80f564:	01000e04 	movi	r4,56
  80f568:	20806e16 	blt	r4,r2,80f724 <__subdf3+0x890>
  80f56c:	010007c4 	movi	r4,31
  80f570:	20807716 	blt	r4,r2,80f750 <__subdf3+0x8bc>
  80f574:	01000804 	movi	r4,32
  80f578:	2089c83a 	sub	r4,r4,r2
  80f57c:	1914983a 	sll	r10,r3,r4
  80f580:	8890d83a 	srl	r8,r17,r2
  80f584:	8908983a 	sll	r4,r17,r4
  80f588:	1884d83a 	srl	r2,r3,r2
  80f58c:	5222b03a 	or	r17,r10,r8
  80f590:	2006c03a 	cmpne	r3,r4,zero
  80f594:	88e2b03a 	or	r17,r17,r3
  80f598:	89a3883a 	add	r17,r17,r6
  80f59c:	1145883a 	add	r2,r2,r5
  80f5a0:	898d803a 	cmpltu	r6,r17,r6
  80f5a4:	3087883a 	add	r3,r6,r2
  80f5a8:	4821883a 	mov	r16,r9
  80f5ac:	003ed906 	br	80f114 <__alt_mem_onchip_mem+0xff78f114>
  80f5b0:	2984b03a 	or	r2,r5,r6
  80f5b4:	10004226 	beq	r2,zero,80f6c0 <__subdf3+0x82c>
  80f5b8:	1808d0fa 	srli	r4,r3,3
  80f5bc:	8822d0fa 	srli	r17,r17,3
  80f5c0:	1806977a 	slli	r3,r3,29
  80f5c4:	2080022c 	andhi	r2,r4,8
  80f5c8:	1c62b03a 	or	r17,r3,r17
  80f5cc:	10000826 	beq	r2,zero,80f5f0 <__subdf3+0x75c>
  80f5d0:	2812d0fa 	srli	r9,r5,3
  80f5d4:	4880022c 	andhi	r2,r9,8
  80f5d8:	1000051e 	bne	r2,zero,80f5f0 <__subdf3+0x75c>
  80f5dc:	300cd0fa 	srli	r6,r6,3
  80f5e0:	2804977a 	slli	r2,r5,29
  80f5e4:	4809883a 	mov	r4,r9
  80f5e8:	3825883a 	mov	r18,r7
  80f5ec:	11a2b03a 	or	r17,r2,r6
  80f5f0:	8806d77a 	srli	r3,r17,29
  80f5f4:	200890fa 	slli	r4,r4,3
  80f5f8:	882290fa 	slli	r17,r17,3
  80f5fc:	0401ffc4 	movi	r16,2047
  80f600:	1906b03a 	or	r3,r3,r4
  80f604:	003e4406 	br	80ef18 <__alt_mem_onchip_mem+0xff78ef18>
  80f608:	2984b03a 	or	r2,r5,r6
  80f60c:	103e4226 	beq	r2,zero,80ef18 <__alt_mem_onchip_mem+0xff78ef18>
  80f610:	8989c83a 	sub	r4,r17,r6
  80f614:	8911803a 	cmpltu	r8,r17,r4
  80f618:	1945c83a 	sub	r2,r3,r5
  80f61c:	1205c83a 	sub	r2,r2,r8
  80f620:	1200202c 	andhi	r8,r2,128
  80f624:	403e9a26 	beq	r8,zero,80f090 <__alt_mem_onchip_mem+0xff78f090>
  80f628:	3463c83a 	sub	r17,r6,r17
  80f62c:	28c5c83a 	sub	r2,r5,r3
  80f630:	344d803a 	cmpltu	r6,r6,r17
  80f634:	1187c83a 	sub	r3,r2,r6
  80f638:	3825883a 	mov	r18,r7
  80f63c:	003e3606 	br	80ef18 <__alt_mem_onchip_mem+0xff78ef18>
  80f640:	0101ffc4 	movi	r4,2047
  80f644:	493fc71e 	bne	r9,r4,80f564 <__alt_mem_onchip_mem+0xff78f564>
  80f648:	2807883a 	mov	r3,r5
  80f64c:	3023883a 	mov	r17,r6
  80f650:	4821883a 	mov	r16,r9
  80f654:	003e3006 	br	80ef18 <__alt_mem_onchip_mem+0xff78ef18>
  80f658:	10003626 	beq	r2,zero,80f734 <__subdf3+0x8a0>
  80f65c:	2984b03a 	or	r2,r5,r6
  80f660:	10001726 	beq	r2,zero,80f6c0 <__subdf3+0x82c>
  80f664:	1808d0fa 	srli	r4,r3,3
  80f668:	8822d0fa 	srli	r17,r17,3
  80f66c:	1806977a 	slli	r3,r3,29
  80f670:	2080022c 	andhi	r2,r4,8
  80f674:	1c62b03a 	or	r17,r3,r17
  80f678:	10000726 	beq	r2,zero,80f698 <__subdf3+0x804>
  80f67c:	2812d0fa 	srli	r9,r5,3
  80f680:	4880022c 	andhi	r2,r9,8
  80f684:	1000041e 	bne	r2,zero,80f698 <__subdf3+0x804>
  80f688:	300cd0fa 	srli	r6,r6,3
  80f68c:	2804977a 	slli	r2,r5,29
  80f690:	4809883a 	mov	r4,r9
  80f694:	11a2b03a 	or	r17,r2,r6
  80f698:	8806d77a 	srli	r3,r17,29
  80f69c:	200890fa 	slli	r4,r4,3
  80f6a0:	882290fa 	slli	r17,r17,3
  80f6a4:	3825883a 	mov	r18,r7
  80f6a8:	1906b03a 	or	r3,r3,r4
  80f6ac:	0401ffc4 	movi	r16,2047
  80f6b0:	003e1906 	br	80ef18 <__alt_mem_onchip_mem+0xff78ef18>
  80f6b4:	000b883a 	mov	r5,zero
  80f6b8:	0005883a 	mov	r2,zero
  80f6bc:	003e2e06 	br	80ef78 <__alt_mem_onchip_mem+0xff78ef78>
  80f6c0:	0401ffc4 	movi	r16,2047
  80f6c4:	003e1406 	br	80ef18 <__alt_mem_onchip_mem+0xff78ef18>
  80f6c8:	0005883a 	mov	r2,zero
  80f6cc:	003f7506 	br	80f4a4 <__alt_mem_onchip_mem+0xff78f4a4>
  80f6d0:	0005883a 	mov	r2,zero
  80f6d4:	0009883a 	mov	r4,zero
  80f6d8:	003e7806 	br	80f0bc <__alt_mem_onchip_mem+0xff78f0bc>
  80f6dc:	123ff804 	addi	r8,r2,-32
  80f6e0:	01000804 	movi	r4,32
  80f6e4:	1a10d83a 	srl	r8,r3,r8
  80f6e8:	11002526 	beq	r2,r4,80f780 <__subdf3+0x8ec>
  80f6ec:	01001004 	movi	r4,64
  80f6f0:	2085c83a 	sub	r2,r4,r2
  80f6f4:	1884983a 	sll	r2,r3,r2
  80f6f8:	1444b03a 	or	r2,r2,r17
  80f6fc:	1004c03a 	cmpne	r2,r2,zero
  80f700:	40a2b03a 	or	r17,r8,r2
  80f704:	0005883a 	mov	r2,zero
  80f708:	003f1606 	br	80f364 <__alt_mem_onchip_mem+0xff78f364>
  80f70c:	02000434 	movhi	r8,16
  80f710:	0009883a 	mov	r4,zero
  80f714:	423fffc4 	addi	r8,r8,-1
  80f718:	00bfffc4 	movi	r2,-1
  80f71c:	0401ffc4 	movi	r16,2047
  80f720:	003e6606 	br	80f0bc <__alt_mem_onchip_mem+0xff78f0bc>
  80f724:	1c62b03a 	or	r17,r3,r17
  80f728:	8822c03a 	cmpne	r17,r17,zero
  80f72c:	0005883a 	mov	r2,zero
  80f730:	003f9906 	br	80f598 <__alt_mem_onchip_mem+0xff78f598>
  80f734:	2807883a 	mov	r3,r5
  80f738:	3023883a 	mov	r17,r6
  80f73c:	0401ffc4 	movi	r16,2047
  80f740:	003df506 	br	80ef18 <__alt_mem_onchip_mem+0xff78ef18>
  80f744:	2807883a 	mov	r3,r5
  80f748:	3023883a 	mov	r17,r6
  80f74c:	003df206 	br	80ef18 <__alt_mem_onchip_mem+0xff78ef18>
  80f750:	123ff804 	addi	r8,r2,-32
  80f754:	01000804 	movi	r4,32
  80f758:	1a10d83a 	srl	r8,r3,r8
  80f75c:	11000a26 	beq	r2,r4,80f788 <__subdf3+0x8f4>
  80f760:	01001004 	movi	r4,64
  80f764:	2085c83a 	sub	r2,r4,r2
  80f768:	1884983a 	sll	r2,r3,r2
  80f76c:	1444b03a 	or	r2,r2,r17
  80f770:	1004c03a 	cmpne	r2,r2,zero
  80f774:	40a2b03a 	or	r17,r8,r2
  80f778:	0005883a 	mov	r2,zero
  80f77c:	003f8606 	br	80f598 <__alt_mem_onchip_mem+0xff78f598>
  80f780:	0005883a 	mov	r2,zero
  80f784:	003fdc06 	br	80f6f8 <__alt_mem_onchip_mem+0xff78f6f8>
  80f788:	0005883a 	mov	r2,zero
  80f78c:	003ff706 	br	80f76c <__alt_mem_onchip_mem+0xff78f76c>

0080f790 <__fixdfsi>:
  80f790:	280cd53a 	srli	r6,r5,20
  80f794:	00c00434 	movhi	r3,16
  80f798:	18ffffc4 	addi	r3,r3,-1
  80f79c:	3181ffcc 	andi	r6,r6,2047
  80f7a0:	01c0ff84 	movi	r7,1022
  80f7a4:	28c6703a 	and	r3,r5,r3
  80f7a8:	280ad7fa 	srli	r5,r5,31
  80f7ac:	3980120e 	bge	r7,r6,80f7f8 <__fixdfsi+0x68>
  80f7b0:	00810744 	movi	r2,1053
  80f7b4:	11800c16 	blt	r2,r6,80f7e8 <__fixdfsi+0x58>
  80f7b8:	00810cc4 	movi	r2,1075
  80f7bc:	1185c83a 	sub	r2,r2,r6
  80f7c0:	01c007c4 	movi	r7,31
  80f7c4:	18c00434 	orhi	r3,r3,16
  80f7c8:	38800d16 	blt	r7,r2,80f800 <__fixdfsi+0x70>
  80f7cc:	31befb44 	addi	r6,r6,-1043
  80f7d0:	2084d83a 	srl	r2,r4,r2
  80f7d4:	1986983a 	sll	r3,r3,r6
  80f7d8:	1884b03a 	or	r2,r3,r2
  80f7dc:	28000726 	beq	r5,zero,80f7fc <__fixdfsi+0x6c>
  80f7e0:	0085c83a 	sub	r2,zero,r2
  80f7e4:	f800283a 	ret
  80f7e8:	00a00034 	movhi	r2,32768
  80f7ec:	10bfffc4 	addi	r2,r2,-1
  80f7f0:	2885883a 	add	r2,r5,r2
  80f7f4:	f800283a 	ret
  80f7f8:	0005883a 	mov	r2,zero
  80f7fc:	f800283a 	ret
  80f800:	008104c4 	movi	r2,1043
  80f804:	1185c83a 	sub	r2,r2,r6
  80f808:	1884d83a 	srl	r2,r3,r2
  80f80c:	003ff306 	br	80f7dc <__alt_mem_onchip_mem+0xff78f7dc>

0080f810 <__floatsidf>:
  80f810:	defffd04 	addi	sp,sp,-12
  80f814:	dfc00215 	stw	ra,8(sp)
  80f818:	dc400115 	stw	r17,4(sp)
  80f81c:	dc000015 	stw	r16,0(sp)
  80f820:	20002b26 	beq	r4,zero,80f8d0 <__floatsidf+0xc0>
  80f824:	2023883a 	mov	r17,r4
  80f828:	2020d7fa 	srli	r16,r4,31
  80f82c:	20002d16 	blt	r4,zero,80f8e4 <__floatsidf+0xd4>
  80f830:	8809883a 	mov	r4,r17
  80f834:	080f9940 	call	80f994 <__clzsi2>
  80f838:	01410784 	movi	r5,1054
  80f83c:	288bc83a 	sub	r5,r5,r2
  80f840:	01010cc4 	movi	r4,1075
  80f844:	2149c83a 	sub	r4,r4,r5
  80f848:	00c007c4 	movi	r3,31
  80f84c:	1900160e 	bge	r3,r4,80f8a8 <__floatsidf+0x98>
  80f850:	00c104c4 	movi	r3,1043
  80f854:	1947c83a 	sub	r3,r3,r5
  80f858:	88c6983a 	sll	r3,r17,r3
  80f85c:	00800434 	movhi	r2,16
  80f860:	10bfffc4 	addi	r2,r2,-1
  80f864:	1886703a 	and	r3,r3,r2
  80f868:	2941ffcc 	andi	r5,r5,2047
  80f86c:	800d883a 	mov	r6,r16
  80f870:	0005883a 	mov	r2,zero
  80f874:	280a953a 	slli	r5,r5,20
  80f878:	31803fcc 	andi	r6,r6,255
  80f87c:	01000434 	movhi	r4,16
  80f880:	300c97fa 	slli	r6,r6,31
  80f884:	213fffc4 	addi	r4,r4,-1
  80f888:	1906703a 	and	r3,r3,r4
  80f88c:	1946b03a 	or	r3,r3,r5
  80f890:	1986b03a 	or	r3,r3,r6
  80f894:	dfc00217 	ldw	ra,8(sp)
  80f898:	dc400117 	ldw	r17,4(sp)
  80f89c:	dc000017 	ldw	r16,0(sp)
  80f8a0:	dec00304 	addi	sp,sp,12
  80f8a4:	f800283a 	ret
  80f8a8:	00c002c4 	movi	r3,11
  80f8ac:	1887c83a 	sub	r3,r3,r2
  80f8b0:	88c6d83a 	srl	r3,r17,r3
  80f8b4:	8904983a 	sll	r2,r17,r4
  80f8b8:	01000434 	movhi	r4,16
  80f8bc:	213fffc4 	addi	r4,r4,-1
  80f8c0:	2941ffcc 	andi	r5,r5,2047
  80f8c4:	1906703a 	and	r3,r3,r4
  80f8c8:	800d883a 	mov	r6,r16
  80f8cc:	003fe906 	br	80f874 <__alt_mem_onchip_mem+0xff78f874>
  80f8d0:	000d883a 	mov	r6,zero
  80f8d4:	000b883a 	mov	r5,zero
  80f8d8:	0007883a 	mov	r3,zero
  80f8dc:	0005883a 	mov	r2,zero
  80f8e0:	003fe406 	br	80f874 <__alt_mem_onchip_mem+0xff78f874>
  80f8e4:	0123c83a 	sub	r17,zero,r4
  80f8e8:	003fd106 	br	80f830 <__alt_mem_onchip_mem+0xff78f830>

0080f8ec <__floatunsidf>:
  80f8ec:	defffe04 	addi	sp,sp,-8
  80f8f0:	dc000015 	stw	r16,0(sp)
  80f8f4:	dfc00115 	stw	ra,4(sp)
  80f8f8:	2021883a 	mov	r16,r4
  80f8fc:	20002226 	beq	r4,zero,80f988 <__floatunsidf+0x9c>
  80f900:	080f9940 	call	80f994 <__clzsi2>
  80f904:	01010784 	movi	r4,1054
  80f908:	2089c83a 	sub	r4,r4,r2
  80f90c:	01810cc4 	movi	r6,1075
  80f910:	310dc83a 	sub	r6,r6,r4
  80f914:	00c007c4 	movi	r3,31
  80f918:	1980120e 	bge	r3,r6,80f964 <__floatunsidf+0x78>
  80f91c:	00c104c4 	movi	r3,1043
  80f920:	1907c83a 	sub	r3,r3,r4
  80f924:	80ca983a 	sll	r5,r16,r3
  80f928:	00800434 	movhi	r2,16
  80f92c:	10bfffc4 	addi	r2,r2,-1
  80f930:	2101ffcc 	andi	r4,r4,2047
  80f934:	0021883a 	mov	r16,zero
  80f938:	288a703a 	and	r5,r5,r2
  80f93c:	2008953a 	slli	r4,r4,20
  80f940:	00c00434 	movhi	r3,16
  80f944:	18ffffc4 	addi	r3,r3,-1
  80f948:	28c6703a 	and	r3,r5,r3
  80f94c:	8005883a 	mov	r2,r16
  80f950:	1906b03a 	or	r3,r3,r4
  80f954:	dfc00117 	ldw	ra,4(sp)
  80f958:	dc000017 	ldw	r16,0(sp)
  80f95c:	dec00204 	addi	sp,sp,8
  80f960:	f800283a 	ret
  80f964:	00c002c4 	movi	r3,11
  80f968:	188bc83a 	sub	r5,r3,r2
  80f96c:	814ad83a 	srl	r5,r16,r5
  80f970:	00c00434 	movhi	r3,16
  80f974:	18ffffc4 	addi	r3,r3,-1
  80f978:	81a0983a 	sll	r16,r16,r6
  80f97c:	2101ffcc 	andi	r4,r4,2047
  80f980:	28ca703a 	and	r5,r5,r3
  80f984:	003fed06 	br	80f93c <__alt_mem_onchip_mem+0xff78f93c>
  80f988:	0009883a 	mov	r4,zero
  80f98c:	000b883a 	mov	r5,zero
  80f990:	003fea06 	br	80f93c <__alt_mem_onchip_mem+0xff78f93c>

0080f994 <__clzsi2>:
  80f994:	00bfffd4 	movui	r2,65535
  80f998:	11000536 	bltu	r2,r4,80f9b0 <__clzsi2+0x1c>
  80f99c:	00803fc4 	movi	r2,255
  80f9a0:	11000f36 	bltu	r2,r4,80f9e0 <__clzsi2+0x4c>
  80f9a4:	00800804 	movi	r2,32
  80f9a8:	0007883a 	mov	r3,zero
  80f9ac:	00000506 	br	80f9c4 <__clzsi2+0x30>
  80f9b0:	00804034 	movhi	r2,256
  80f9b4:	10bfffc4 	addi	r2,r2,-1
  80f9b8:	11000c2e 	bgeu	r2,r4,80f9ec <__clzsi2+0x58>
  80f9bc:	00800204 	movi	r2,8
  80f9c0:	00c00604 	movi	r3,24
  80f9c4:	20c8d83a 	srl	r4,r4,r3
  80f9c8:	00c02074 	movhi	r3,129
  80f9cc:	18cf8104 	addi	r3,r3,15876
  80f9d0:	1909883a 	add	r4,r3,r4
  80f9d4:	20c00003 	ldbu	r3,0(r4)
  80f9d8:	10c5c83a 	sub	r2,r2,r3
  80f9dc:	f800283a 	ret
  80f9e0:	00800604 	movi	r2,24
  80f9e4:	00c00204 	movi	r3,8
  80f9e8:	003ff606 	br	80f9c4 <__alt_mem_onchip_mem+0xff78f9c4>
  80f9ec:	00800404 	movi	r2,16
  80f9f0:	1007883a 	mov	r3,r2
  80f9f4:	003ff306 	br	80f9c4 <__alt_mem_onchip_mem+0xff78f9c4>

0080f9f8 <alt_alarm_start>:
 */ 

int alt_alarm_start (alt_alarm* alarm, alt_u32 nticks,
                     alt_u32 (*callback) (void* context),
                     void* context)
{
  80f9f8:	defff504 	addi	sp,sp,-44
  80f9fc:	df000a15 	stw	fp,40(sp)
  80fa00:	df000a04 	addi	fp,sp,40
  80fa04:	e13ffc15 	stw	r4,-16(fp)
  80fa08:	e17ffd15 	stw	r5,-12(fp)
  80fa0c:	e1bffe15 	stw	r6,-8(fp)
  80fa10:	e1ffff15 	stw	r7,-4(fp)
  alt_irq_context irq_context;
  alt_u32 current_nticks = 0;
  80fa14:	e03ff615 	stw	zero,-40(fp)
 * Obtain the system clock rate in ticks/s. 
 */

static ALT_INLINE alt_u32 ALT_ALWAYS_INLINE alt_ticks_per_second (void)
{
  return _alt_tick_rate;
  80fa18:	d0a78f17 	ldw	r2,-25028(gp)
  
  if (alt_ticks_per_second ())
  80fa1c:	10003c26 	beq	r2,zero,80fb10 <alt_alarm_start+0x118>
  {
    if (alarm)
  80fa20:	e0bffc17 	ldw	r2,-16(fp)
  80fa24:	10003826 	beq	r2,zero,80fb08 <alt_alarm_start+0x110>
    {
      alarm->callback = callback;
  80fa28:	e0bffc17 	ldw	r2,-16(fp)
  80fa2c:	e0fffe17 	ldw	r3,-8(fp)
  80fa30:	10c00315 	stw	r3,12(r2)
      alarm->context  = context;
  80fa34:	e0bffc17 	ldw	r2,-16(fp)
  80fa38:	e0ffff17 	ldw	r3,-4(fp)
  80fa3c:	10c00515 	stw	r3,20(r2)
static ALT_INLINE alt_irq_context ALT_ALWAYS_INLINE 
       alt_irq_disable_all (void)
{
  alt_irq_context context;

  NIOS2_READ_STATUS (context);
  80fa40:	0005303a 	rdctl	r2,status
  80fa44:	e0bff915 	stw	r2,-28(fp)

  NIOS2_WRITE_STATUS (context & ~NIOS2_STATUS_PIE_MSK);
  80fa48:	e0fff917 	ldw	r3,-28(fp)
  80fa4c:	00bfff84 	movi	r2,-2
  80fa50:	1884703a 	and	r2,r3,r2
  80fa54:	1001703a 	wrctl	status,r2
  
  return context;
  80fa58:	e0bff917 	ldw	r2,-28(fp)
 
      irq_context = alt_irq_disable_all ();
  80fa5c:	e0bff815 	stw	r2,-32(fp)
 * alt_nticks() returns the elapsed number of system clock ticks since reset.
 */

static ALT_INLINE alt_u32 ALT_ALWAYS_INLINE alt_nticks (void)
{
  return _alt_nticks;
  80fa60:	d0a79017 	ldw	r2,-25024(gp)
      
      current_nticks = alt_nticks();
  80fa64:	e0bff615 	stw	r2,-40(fp)
      
      alarm->time = nticks + current_nticks + 1; 
  80fa68:	e0fffd17 	ldw	r3,-12(fp)
  80fa6c:	e0bff617 	ldw	r2,-40(fp)
  80fa70:	1885883a 	add	r2,r3,r2
  80fa74:	10c00044 	addi	r3,r2,1
  80fa78:	e0bffc17 	ldw	r2,-16(fp)
  80fa7c:	10c00215 	stw	r3,8(r2)
      /* 
       * If the desired alarm time causes a roll-over, set the rollover
       * flag. This will prevent the subsequent tick event from causing
       * an alarm too early.
       */
      if(alarm->time < current_nticks)
  80fa80:	e0bffc17 	ldw	r2,-16(fp)
  80fa84:	10c00217 	ldw	r3,8(r2)
  80fa88:	e0bff617 	ldw	r2,-40(fp)
  80fa8c:	1880042e 	bgeu	r3,r2,80faa0 <alt_alarm_start+0xa8>
      {
        alarm->rollover = 1;
  80fa90:	e0bffc17 	ldw	r2,-16(fp)
  80fa94:	00c00044 	movi	r3,1
  80fa98:	10c00405 	stb	r3,16(r2)
  80fa9c:	00000206 	br	80faa8 <alt_alarm_start+0xb0>
      }
      else
      {
        alarm->rollover = 0;
  80faa0:	e0bffc17 	ldw	r2,-16(fp)
  80faa4:	10000405 	stb	zero,16(r2)
      }
    
      alt_llist_insert (&alt_alarm_list, &alarm->llist);
  80faa8:	e0bffc17 	ldw	r2,-16(fp)
  80faac:	d0e00e04 	addi	r3,gp,-32712
  80fab0:	e0fffa15 	stw	r3,-24(fp)
  80fab4:	e0bffb15 	stw	r2,-20(fp)
 */

static ALT_INLINE void ALT_ALWAYS_INLINE alt_llist_insert(alt_llist* list, 
                alt_llist* entry)
{
  entry->previous = list;
  80fab8:	e0bffb17 	ldw	r2,-20(fp)
  80fabc:	e0fffa17 	ldw	r3,-24(fp)
  80fac0:	10c00115 	stw	r3,4(r2)
  entry->next     = list->next;
  80fac4:	e0bffa17 	ldw	r2,-24(fp)
  80fac8:	10c00017 	ldw	r3,0(r2)
  80facc:	e0bffb17 	ldw	r2,-20(fp)
  80fad0:	10c00015 	stw	r3,0(r2)

  list->next->previous = entry;
  80fad4:	e0bffa17 	ldw	r2,-24(fp)
  80fad8:	10800017 	ldw	r2,0(r2)
  80fadc:	e0fffb17 	ldw	r3,-20(fp)
  80fae0:	10c00115 	stw	r3,4(r2)
  list->next           = entry;
  80fae4:	e0bffa17 	ldw	r2,-24(fp)
  80fae8:	e0fffb17 	ldw	r3,-20(fp)
  80faec:	10c00015 	stw	r3,0(r2)
  80faf0:	e0bff817 	ldw	r2,-32(fp)
  80faf4:	e0bff715 	stw	r2,-36(fp)
  status &= ~NIOS2_STATUS_PIE_MSK;
  status |= (context & NIOS2_STATUS_PIE_MSK);
  
  NIOS2_WRITE_STATUS (status);
#else
  NIOS2_WRITE_STATUS (context);
  80faf8:	e0bff717 	ldw	r2,-36(fp)
  80fafc:	1001703a 	wrctl	status,r2
      alt_irq_enable_all (irq_context);

      return 0;
  80fb00:	0005883a 	mov	r2,zero
  80fb04:	00000306 	br	80fb14 <alt_alarm_start+0x11c>
    }
    else
    {
      return -EINVAL;
  80fb08:	00bffa84 	movi	r2,-22
  80fb0c:	00000106 	br	80fb14 <alt_alarm_start+0x11c>
    }
  }
  else
  {
    return -ENOTSUP;
  80fb10:	00bfde84 	movi	r2,-134
  }
}
  80fb14:	e037883a 	mov	sp,fp
  80fb18:	df000017 	ldw	fp,0(sp)
  80fb1c:	dec00104 	addi	sp,sp,4
  80fb20:	f800283a 	ret

0080fb24 <alt_get_errno>:
#undef errno

extern int errno;

static ALT_INLINE int* alt_get_errno(void)
{
  80fb24:	defffe04 	addi	sp,sp,-8
  80fb28:	dfc00115 	stw	ra,4(sp)
  80fb2c:	df000015 	stw	fp,0(sp)
  80fb30:	d839883a 	mov	fp,sp
  return ((alt_errno) ? alt_errno() : &errno);
  80fb34:	d0a00c17 	ldw	r2,-32720(gp)
  80fb38:	10000326 	beq	r2,zero,80fb48 <alt_get_errno+0x24>
  80fb3c:	d0a00c17 	ldw	r2,-32720(gp)
  80fb40:	103ee83a 	callr	r2
  80fb44:	00000106 	br	80fb4c <alt_get_errno+0x28>
  80fb48:	d0a78504 	addi	r2,gp,-25068
}
  80fb4c:	e037883a 	mov	sp,fp
  80fb50:	dfc00117 	ldw	ra,4(sp)
  80fb54:	df000017 	ldw	fp,0(sp)
  80fb58:	dec00204 	addi	sp,sp,8
  80fb5c:	f800283a 	ret

0080fb60 <close>:
 *
 * ALT_CLOSE is mapped onto the close() system call in alt_syscall.h
 */
 
int ALT_CLOSE (int fildes)
{
  80fb60:	defffb04 	addi	sp,sp,-20
  80fb64:	dfc00415 	stw	ra,16(sp)
  80fb68:	df000315 	stw	fp,12(sp)
  80fb6c:	df000304 	addi	fp,sp,12
  80fb70:	e13fff15 	stw	r4,-4(fp)
   * A common error case is that when the file descriptor was created, the call
   * to open() failed resulting in a negative file descriptor. This is trapped
   * below so that we don't try and process an invalid file descriptor.
   */

  fd = (fildes < 0) ? NULL : &alt_fd_list[fildes];
  80fb74:	e0bfff17 	ldw	r2,-4(fp)
  80fb78:	10000616 	blt	r2,zero,80fb94 <close+0x34>
  80fb7c:	e0bfff17 	ldw	r2,-4(fp)
  80fb80:	10c00324 	muli	r3,r2,12
  80fb84:	00802074 	movhi	r2,129
  80fb88:	1092a504 	addi	r2,r2,19092
  80fb8c:	1885883a 	add	r2,r3,r2
  80fb90:	00000106 	br	80fb98 <close+0x38>
  80fb94:	0005883a 	mov	r2,zero
  80fb98:	e0bffd15 	stw	r2,-12(fp)

  if (fd)
  80fb9c:	e0bffd17 	ldw	r2,-12(fp)
  80fba0:	10001926 	beq	r2,zero,80fc08 <close+0xa8>
    /*
     * If the associated file system/device has a close function, call it so 
     * that any necessary cleanup code can run.
     */

    rval = (fd->dev->close) ? fd->dev->close(fd) : 0;
  80fba4:	e0bffd17 	ldw	r2,-12(fp)
  80fba8:	10800017 	ldw	r2,0(r2)
  80fbac:	10800417 	ldw	r2,16(r2)
  80fbb0:	10000626 	beq	r2,zero,80fbcc <close+0x6c>
  80fbb4:	e0bffd17 	ldw	r2,-12(fp)
  80fbb8:	10800017 	ldw	r2,0(r2)
  80fbbc:	10800417 	ldw	r2,16(r2)
  80fbc0:	e13ffd17 	ldw	r4,-12(fp)
  80fbc4:	103ee83a 	callr	r2
  80fbc8:	00000106 	br	80fbd0 <close+0x70>
  80fbcc:	0005883a 	mov	r2,zero
  80fbd0:	e0bffe15 	stw	r2,-8(fp)

    /* Free the file descriptor structure and return. */

    alt_release_fd (fildes);
  80fbd4:	e13fff17 	ldw	r4,-4(fp)
  80fbd8:	08104740 	call	810474 <alt_release_fd>
    if (rval < 0)
  80fbdc:	e0bffe17 	ldw	r2,-8(fp)
  80fbe0:	1000070e 	bge	r2,zero,80fc00 <close+0xa0>
    {
      ALT_ERRNO = -rval;
  80fbe4:	080fb240 	call	80fb24 <alt_get_errno>
  80fbe8:	1007883a 	mov	r3,r2
  80fbec:	e0bffe17 	ldw	r2,-8(fp)
  80fbf0:	0085c83a 	sub	r2,zero,r2
  80fbf4:	18800015 	stw	r2,0(r3)
      return -1;
  80fbf8:	00bfffc4 	movi	r2,-1
  80fbfc:	00000706 	br	80fc1c <close+0xbc>
    }
    return 0;
  80fc00:	0005883a 	mov	r2,zero
  80fc04:	00000506 	br	80fc1c <close+0xbc>
  }
  else
  {
    ALT_ERRNO = EBADFD;
  80fc08:	080fb240 	call	80fb24 <alt_get_errno>
  80fc0c:	1007883a 	mov	r3,r2
  80fc10:	00801444 	movi	r2,81
  80fc14:	18800015 	stw	r2,0(r3)
    return -1;
  80fc18:	00bfffc4 	movi	r2,-1
  }
}
  80fc1c:	e037883a 	mov	sp,fp
  80fc20:	dfc00117 	ldw	ra,4(sp)
  80fc24:	df000017 	ldw	fp,0(sp)
  80fc28:	dec00204 	addi	sp,sp,8
  80fc2c:	f800283a 	ret

0080fc30 <alt_dev_null_write>:
 * by the alt_dev_null device. It simple discards all data passed to it, and
 * indicates that the data has been successfully transmitted.
 */

static int alt_dev_null_write (alt_fd* fd, const char* ptr, int len)
{
  80fc30:	defffc04 	addi	sp,sp,-16
  80fc34:	df000315 	stw	fp,12(sp)
  80fc38:	df000304 	addi	fp,sp,12
  80fc3c:	e13ffd15 	stw	r4,-12(fp)
  80fc40:	e17ffe15 	stw	r5,-8(fp)
  80fc44:	e1bfff15 	stw	r6,-4(fp)
  return len;
  80fc48:	e0bfff17 	ldw	r2,-4(fp)
}
  80fc4c:	e037883a 	mov	sp,fp
  80fc50:	df000017 	ldw	fp,0(sp)
  80fc54:	dec00104 	addi	sp,sp,4
  80fc58:	f800283a 	ret

0080fc5c <alt_get_errno>:
#undef errno

extern int errno;

static ALT_INLINE int* alt_get_errno(void)
{
  80fc5c:	defffe04 	addi	sp,sp,-8
  80fc60:	dfc00115 	stw	ra,4(sp)
  80fc64:	df000015 	stw	fp,0(sp)
  80fc68:	d839883a 	mov	fp,sp
  return ((alt_errno) ? alt_errno() : &errno);
  80fc6c:	d0a00c17 	ldw	r2,-32720(gp)
  80fc70:	10000326 	beq	r2,zero,80fc80 <alt_get_errno+0x24>
  80fc74:	d0a00c17 	ldw	r2,-32720(gp)
  80fc78:	103ee83a 	callr	r2
  80fc7c:	00000106 	br	80fc84 <alt_get_errno+0x28>
  80fc80:	d0a78504 	addi	r2,gp,-25068
}
  80fc84:	e037883a 	mov	sp,fp
  80fc88:	dfc00117 	ldw	ra,4(sp)
  80fc8c:	df000017 	ldw	fp,0(sp)
  80fc90:	dec00204 	addi	sp,sp,8
  80fc94:	f800283a 	ret

0080fc98 <fstat>:
}

#else /* !ALT_USE_DIRECT_DRIVERS */

int ALT_FSTAT (int file, struct stat *st)
{
  80fc98:	defffb04 	addi	sp,sp,-20
  80fc9c:	dfc00415 	stw	ra,16(sp)
  80fca0:	df000315 	stw	fp,12(sp)
  80fca4:	df000304 	addi	fp,sp,12
  80fca8:	e13ffe15 	stw	r4,-8(fp)
  80fcac:	e17fff15 	stw	r5,-4(fp)
   * A common error case is that when the file descriptor was created, the call
   * to open() failed resulting in a negative file descriptor. This is trapped
   * below so that we don't try and process an invalid file descriptor.
   */

  fd = (file < 0) ? NULL : &alt_fd_list[file];
  80fcb0:	e0bffe17 	ldw	r2,-8(fp)
  80fcb4:	10000616 	blt	r2,zero,80fcd0 <fstat+0x38>
  80fcb8:	e0bffe17 	ldw	r2,-8(fp)
  80fcbc:	10c00324 	muli	r3,r2,12
  80fcc0:	00802074 	movhi	r2,129
  80fcc4:	1092a504 	addi	r2,r2,19092
  80fcc8:	1885883a 	add	r2,r3,r2
  80fccc:	00000106 	br	80fcd4 <fstat+0x3c>
  80fcd0:	0005883a 	mov	r2,zero
  80fcd4:	e0bffd15 	stw	r2,-12(fp)
  
  if (fd)
  80fcd8:	e0bffd17 	ldw	r2,-12(fp)
  80fcdc:	10001026 	beq	r2,zero,80fd20 <fstat+0x88>
  {
    /* Call the drivers fstat() function to fill out the "st" structure. */

    if (fd->dev->fstat)
  80fce0:	e0bffd17 	ldw	r2,-12(fp)
  80fce4:	10800017 	ldw	r2,0(r2)
  80fce8:	10800817 	ldw	r2,32(r2)
  80fcec:	10000726 	beq	r2,zero,80fd0c <fstat+0x74>
    {
      return fd->dev->fstat(fd, st);
  80fcf0:	e0bffd17 	ldw	r2,-12(fp)
  80fcf4:	10800017 	ldw	r2,0(r2)
  80fcf8:	10800817 	ldw	r2,32(r2)
  80fcfc:	e17fff17 	ldw	r5,-4(fp)
  80fd00:	e13ffd17 	ldw	r4,-12(fp)
  80fd04:	103ee83a 	callr	r2
  80fd08:	00000a06 	br	80fd34 <fstat+0x9c>
     * device.
     */
 
    else
    {
      st->st_mode = _IFCHR;
  80fd0c:	e0bfff17 	ldw	r2,-4(fp)
  80fd10:	00c80004 	movi	r3,8192
  80fd14:	10c00115 	stw	r3,4(r2)
      return 0;
  80fd18:	0005883a 	mov	r2,zero
  80fd1c:	00000506 	br	80fd34 <fstat+0x9c>
    }
  }
  else
  {
    ALT_ERRNO = EBADFD;
  80fd20:	080fc5c0 	call	80fc5c <alt_get_errno>
  80fd24:	1007883a 	mov	r3,r2
  80fd28:	00801444 	movi	r2,81
  80fd2c:	18800015 	stw	r2,0(r3)
    return -1;
  80fd30:	00bfffc4 	movi	r2,-1
  }
}
  80fd34:	e037883a 	mov	sp,fp
  80fd38:	dfc00117 	ldw	ra,4(sp)
  80fd3c:	df000017 	ldw	fp,0(sp)
  80fd40:	dec00204 	addi	sp,sp,8
  80fd44:	f800283a 	ret

0080fd48 <alt_get_errno>:
#undef errno

extern int errno;

static ALT_INLINE int* alt_get_errno(void)
{
  80fd48:	defffe04 	addi	sp,sp,-8
  80fd4c:	dfc00115 	stw	ra,4(sp)
  80fd50:	df000015 	stw	fp,0(sp)
  80fd54:	d839883a 	mov	fp,sp
  return ((alt_errno) ? alt_errno() : &errno);
  80fd58:	d0a00c17 	ldw	r2,-32720(gp)
  80fd5c:	10000326 	beq	r2,zero,80fd6c <alt_get_errno+0x24>
  80fd60:	d0a00c17 	ldw	r2,-32720(gp)
  80fd64:	103ee83a 	callr	r2
  80fd68:	00000106 	br	80fd70 <alt_get_errno+0x28>
  80fd6c:	d0a78504 	addi	r2,gp,-25068
}
  80fd70:	e037883a 	mov	sp,fp
  80fd74:	dfc00117 	ldw	ra,4(sp)
  80fd78:	df000017 	ldw	fp,0(sp)
  80fd7c:	dec00204 	addi	sp,sp,8
  80fd80:	f800283a 	ret

0080fd84 <isatty>:
 *
 * ALT_ISATTY is mapped onto the isatty() system call in alt_syscall.h
 */
 
int ALT_ISATTY (int file)
{
  80fd84:	deffed04 	addi	sp,sp,-76
  80fd88:	dfc01215 	stw	ra,72(sp)
  80fd8c:	df001115 	stw	fp,68(sp)
  80fd90:	df001104 	addi	fp,sp,68
  80fd94:	e13fff15 	stw	r4,-4(fp)
   * A common error case is that when the file descriptor was created, the call
   * to open() failed resulting in a negative file descriptor. This is trapped
   * below so that we don't try and process an invalid file descriptor.
   */

  fd = (file < 0) ? NULL : &alt_fd_list[file];
  80fd98:	e0bfff17 	ldw	r2,-4(fp)
  80fd9c:	10000616 	blt	r2,zero,80fdb8 <isatty+0x34>
  80fda0:	e0bfff17 	ldw	r2,-4(fp)
  80fda4:	10c00324 	muli	r3,r2,12
  80fda8:	00802074 	movhi	r2,129
  80fdac:	1092a504 	addi	r2,r2,19092
  80fdb0:	1885883a 	add	r2,r3,r2
  80fdb4:	00000106 	br	80fdbc <isatty+0x38>
  80fdb8:	0005883a 	mov	r2,zero
  80fdbc:	e0bfef15 	stw	r2,-68(fp)
  
  if (fd)
  80fdc0:	e0bfef17 	ldw	r2,-68(fp)
  80fdc4:	10000e26 	beq	r2,zero,80fe00 <isatty+0x7c>
    /*
     * If a device driver does not provide an fstat() function, then it is 
     * treated as a terminal device by default.
     */

    if (!fd->dev->fstat)
  80fdc8:	e0bfef17 	ldw	r2,-68(fp)
  80fdcc:	10800017 	ldw	r2,0(r2)
  80fdd0:	10800817 	ldw	r2,32(r2)
  80fdd4:	1000021e 	bne	r2,zero,80fde0 <isatty+0x5c>
    {
      return 1;
  80fdd8:	00800044 	movi	r2,1
  80fddc:	00000d06 	br	80fe14 <isatty+0x90>
     * this is called so that the device can identify itself.
     */ 

    else
    {
      fstat (file, &stat);
  80fde0:	e0bff004 	addi	r2,fp,-64
  80fde4:	100b883a 	mov	r5,r2
  80fde8:	e13fff17 	ldw	r4,-4(fp)
  80fdec:	080fc980 	call	80fc98 <fstat>
      return (stat.st_mode == _IFCHR) ? 1 : 0;
  80fdf0:	e0bff117 	ldw	r2,-60(fp)
  80fdf4:	10880020 	cmpeqi	r2,r2,8192
  80fdf8:	10803fcc 	andi	r2,r2,255
  80fdfc:	00000506 	br	80fe14 <isatty+0x90>
    }
  }
  else
  {
    ALT_ERRNO = EBADFD;
  80fe00:	080fd480 	call	80fd48 <alt_get_errno>
  80fe04:	1007883a 	mov	r3,r2
  80fe08:	00801444 	movi	r2,81
  80fe0c:	18800015 	stw	r2,0(r3)
    return 0;
  80fe10:	0005883a 	mov	r2,zero
  }
}
  80fe14:	e037883a 	mov	sp,fp
  80fe18:	dfc00117 	ldw	ra,4(sp)
  80fe1c:	df000017 	ldw	fp,0(sp)
  80fe20:	dec00204 	addi	sp,sp,8
  80fe24:	f800283a 	ret

0080fe28 <alt_load_section>:
 */

static void ALT_INLINE alt_load_section (alt_u32* from, 
                                         alt_u32* to, 
                                         alt_u32* end)
{
  80fe28:	defffc04 	addi	sp,sp,-16
  80fe2c:	df000315 	stw	fp,12(sp)
  80fe30:	df000304 	addi	fp,sp,12
  80fe34:	e13ffd15 	stw	r4,-12(fp)
  80fe38:	e17ffe15 	stw	r5,-8(fp)
  80fe3c:	e1bfff15 	stw	r6,-4(fp)
  if (to != from)
  80fe40:	e0fffe17 	ldw	r3,-8(fp)
  80fe44:	e0bffd17 	ldw	r2,-12(fp)
  80fe48:	18800c26 	beq	r3,r2,80fe7c <alt_load_section+0x54>
  {
    while( to != end )
  80fe4c:	00000806 	br	80fe70 <alt_load_section+0x48>
    {
      *to++ = *from++;
  80fe50:	e0bffe17 	ldw	r2,-8(fp)
  80fe54:	10c00104 	addi	r3,r2,4
  80fe58:	e0fffe15 	stw	r3,-8(fp)
  80fe5c:	e0fffd17 	ldw	r3,-12(fp)
  80fe60:	19000104 	addi	r4,r3,4
  80fe64:	e13ffd15 	stw	r4,-12(fp)
  80fe68:	18c00017 	ldw	r3,0(r3)
  80fe6c:	10c00015 	stw	r3,0(r2)
                                         alt_u32* to, 
                                         alt_u32* end)
{
  if (to != from)
  {
    while( to != end )
  80fe70:	e0fffe17 	ldw	r3,-8(fp)
  80fe74:	e0bfff17 	ldw	r2,-4(fp)
  80fe78:	18bff51e 	bne	r3,r2,80fe50 <__alt_mem_onchip_mem+0xff78fe50>
    {
      *to++ = *from++;
    }
  }
}
  80fe7c:	0001883a 	nop
  80fe80:	e037883a 	mov	sp,fp
  80fe84:	df000017 	ldw	fp,0(sp)
  80fe88:	dec00104 	addi	sp,sp,4
  80fe8c:	f800283a 	ret

0080fe90 <alt_load>:
 * there is no bootloader, so this application is responsible for loading to
 * RAM any sections that are required.
 */  

void alt_load (void)
{
  80fe90:	defffe04 	addi	sp,sp,-8
  80fe94:	dfc00115 	stw	ra,4(sp)
  80fe98:	df000015 	stw	fp,0(sp)
  80fe9c:	d839883a 	mov	fp,sp
  /* 
   * Copy the .rwdata section. 
   */

  alt_load_section (&__flash_rwdata_start, 
  80fea0:	01802074 	movhi	r6,129
  80fea4:	3197a904 	addi	r6,r6,24228
  80fea8:	01402074 	movhi	r5,129
  80feac:	29507204 	addi	r5,r5,16840
  80feb0:	01002074 	movhi	r4,129
  80feb4:	2117a904 	addi	r4,r4,24228
  80feb8:	080fe280 	call	80fe28 <alt_load_section>

  /*
   * Copy the exception handler.
   */

  alt_load_section (&__flash_exceptions_start, 
  80febc:	01802034 	movhi	r6,128
  80fec0:	31809104 	addi	r6,r6,580
  80fec4:	01402034 	movhi	r5,128
  80fec8:	29400804 	addi	r5,r5,32
  80fecc:	01002034 	movhi	r4,128
  80fed0:	21000804 	addi	r4,r4,32
  80fed4:	080fe280 	call	80fe28 <alt_load_section>

  /*
   * Copy the .rodata section.
   */

  alt_load_section (&__flash_rodata_start, 
  80fed8:	01802074 	movhi	r6,129
  80fedc:	31907204 	addi	r6,r6,16840
  80fee0:	01402074 	movhi	r5,129
  80fee4:	294ec704 	addi	r5,r5,15132
  80fee8:	01002074 	movhi	r4,129
  80feec:	210ec704 	addi	r4,r4,15132
  80fef0:	080fe280 	call	80fe28 <alt_load_section>
  
  /*
   * Now ensure that the caches are in synch.
   */
  
  alt_dcache_flush_all();
  80fef4:	0812c780 	call	812c78 <alt_dcache_flush_all>
  alt_icache_flush_all();
  80fef8:	081309c0 	call	81309c <alt_icache_flush_all>
}
  80fefc:	0001883a 	nop
  80ff00:	e037883a 	mov	sp,fp
  80ff04:	dfc00117 	ldw	ra,4(sp)
  80ff08:	df000017 	ldw	fp,0(sp)
  80ff0c:	dec00204 	addi	sp,sp,8
  80ff10:	f800283a 	ret

0080ff14 <alt_get_errno>:
#undef errno

extern int errno;

static ALT_INLINE int* alt_get_errno(void)
{
  80ff14:	defffe04 	addi	sp,sp,-8
  80ff18:	dfc00115 	stw	ra,4(sp)
  80ff1c:	df000015 	stw	fp,0(sp)
  80ff20:	d839883a 	mov	fp,sp
  return ((alt_errno) ? alt_errno() : &errno);
  80ff24:	d0a00c17 	ldw	r2,-32720(gp)
  80ff28:	10000326 	beq	r2,zero,80ff38 <alt_get_errno+0x24>
  80ff2c:	d0a00c17 	ldw	r2,-32720(gp)
  80ff30:	103ee83a 	callr	r2
  80ff34:	00000106 	br	80ff3c <alt_get_errno+0x28>
  80ff38:	d0a78504 	addi	r2,gp,-25068
}
  80ff3c:	e037883a 	mov	sp,fp
  80ff40:	dfc00117 	ldw	ra,4(sp)
  80ff44:	df000017 	ldw	fp,0(sp)
  80ff48:	dec00204 	addi	sp,sp,8
  80ff4c:	f800283a 	ret

0080ff50 <lseek>:
 * ALT_LSEEK is mapped onto the lseek() system call in alt_syscall.h
 *
 */

off_t ALT_LSEEK (int file, off_t ptr, int dir)
{
  80ff50:	defff904 	addi	sp,sp,-28
  80ff54:	dfc00615 	stw	ra,24(sp)
  80ff58:	df000515 	stw	fp,20(sp)
  80ff5c:	df000504 	addi	fp,sp,20
  80ff60:	e13ffd15 	stw	r4,-12(fp)
  80ff64:	e17ffe15 	stw	r5,-8(fp)
  80ff68:	e1bfff15 	stw	r6,-4(fp)
  alt_fd* fd;
  off_t   rc = 0; 
  80ff6c:	e03ffb15 	stw	zero,-20(fp)
   * A common error case is that when the file descriptor was created, the call
   * to open() failed resulting in a negative file descriptor. This is trapped
   * below so that we don't try and process an invalid file descriptor.
   */

  fd = (file < 0) ? NULL : &alt_fd_list[file];
  80ff70:	e0bffd17 	ldw	r2,-12(fp)
  80ff74:	10000616 	blt	r2,zero,80ff90 <lseek+0x40>
  80ff78:	e0bffd17 	ldw	r2,-12(fp)
  80ff7c:	10c00324 	muli	r3,r2,12
  80ff80:	00802074 	movhi	r2,129
  80ff84:	1092a504 	addi	r2,r2,19092
  80ff88:	1885883a 	add	r2,r3,r2
  80ff8c:	00000106 	br	80ff94 <lseek+0x44>
  80ff90:	0005883a 	mov	r2,zero
  80ff94:	e0bffc15 	stw	r2,-16(fp)
  
  if (fd) 
  80ff98:	e0bffc17 	ldw	r2,-16(fp)
  80ff9c:	10001026 	beq	r2,zero,80ffe0 <lseek+0x90>
    /*
     * If the device driver provides an implementation of the lseek() function,
     * then call that to process the request.
     */
 
    if (fd->dev->lseek)
  80ffa0:	e0bffc17 	ldw	r2,-16(fp)
  80ffa4:	10800017 	ldw	r2,0(r2)
  80ffa8:	10800717 	ldw	r2,28(r2)
  80ffac:	10000926 	beq	r2,zero,80ffd4 <lseek+0x84>
    {
      rc = fd->dev->lseek(fd, ptr, dir);
  80ffb0:	e0bffc17 	ldw	r2,-16(fp)
  80ffb4:	10800017 	ldw	r2,0(r2)
  80ffb8:	10800717 	ldw	r2,28(r2)
  80ffbc:	e1bfff17 	ldw	r6,-4(fp)
  80ffc0:	e17ffe17 	ldw	r5,-8(fp)
  80ffc4:	e13ffc17 	ldw	r4,-16(fp)
  80ffc8:	103ee83a 	callr	r2
  80ffcc:	e0bffb15 	stw	r2,-20(fp)
  80ffd0:	00000506 	br	80ffe8 <lseek+0x98>
     * Otherwise return an error.
     */

    else
    {
      rc = -ENOTSUP;
  80ffd4:	00bfde84 	movi	r2,-134
  80ffd8:	e0bffb15 	stw	r2,-20(fp)
  80ffdc:	00000206 	br	80ffe8 <lseek+0x98>
    }
  }
  else  
  {
    rc = -EBADFD;
  80ffe0:	00bfebc4 	movi	r2,-81
  80ffe4:	e0bffb15 	stw	r2,-20(fp)
  }

  if (rc < 0)
  80ffe8:	e0bffb17 	ldw	r2,-20(fp)
  80ffec:	1000070e 	bge	r2,zero,81000c <lseek+0xbc>
  {
    ALT_ERRNO = -rc;
  80fff0:	080ff140 	call	80ff14 <alt_get_errno>
  80fff4:	1007883a 	mov	r3,r2
  80fff8:	e0bffb17 	ldw	r2,-20(fp)
  80fffc:	0085c83a 	sub	r2,zero,r2
  810000:	18800015 	stw	r2,0(r3)
    rc = -1;
  810004:	00bfffc4 	movi	r2,-1
  810008:	e0bffb15 	stw	r2,-20(fp)
  }

  return rc;
  81000c:	e0bffb17 	ldw	r2,-20(fp)
}
  810010:	e037883a 	mov	sp,fp
  810014:	dfc00117 	ldw	ra,4(sp)
  810018:	df000017 	ldw	fp,0(sp)
  81001c:	dec00204 	addi	sp,sp,8
  810020:	f800283a 	ret

00810024 <alt_main>:
 * devices/filesystems/components in the system; and call the entry point for
 * the users application, i.e. main().
 */

void alt_main (void)
{
  810024:	defffd04 	addi	sp,sp,-12
  810028:	dfc00215 	stw	ra,8(sp)
  81002c:	df000115 	stw	fp,4(sp)
  810030:	df000104 	addi	fp,sp,4
#endif

  /* ALT LOG - please see HAL/sys/alt_log_printf.h for details */
  ALT_LOG_PRINT_BOOT("[alt_main.c] Entering alt_main, calling alt_irq_init.\r\n");
  /* Initialize the interrupt controller. */
  alt_irq_init (NULL);
  810034:	0009883a 	mov	r4,zero
  810038:	08108940 	call	810894 <alt_irq_init>

  /* Initialize the operating system */
  ALT_LOG_PRINT_BOOT("[alt_main.c] Done alt_irq_init, calling alt_os_init.\r\n");
  ALT_OS_INIT();
  81003c:	0001883a 	nop
  ALT_LOG_PRINT_BOOT("[alt_main.c] Done OS Init, calling alt_sem_create.\r\n");
  ALT_SEM_CREATE (&alt_fd_list_lock, 1);

  /* Initialize the device drivers/software components. */
  ALT_LOG_PRINT_BOOT("[alt_main.c] Calling alt_sys_init.\r\n");
  alt_sys_init();
  810040:	08108cc0 	call	8108cc <alt_sys_init>
   * devices be present (not equal to /dev/null) and if direct drivers
   * aren't being used.
   */

    ALT_LOG_PRINT_BOOT("[alt_main.c] Redirecting IO.\r\n");
    alt_io_redirect(ALT_STDOUT, ALT_STDIN, ALT_STDERR);
  810044:	01802074 	movhi	r6,129
  810048:	318fc404 	addi	r6,r6,16144
  81004c:	01402074 	movhi	r5,129
  810050:	294fc404 	addi	r5,r5,16144
  810054:	01002074 	movhi	r4,129
  810058:	210fc404 	addi	r4,r4,16144
  81005c:	08134340 	call	813434 <alt_io_redirect>
  /* 
   * Call the C++ constructors 
   */

  ALT_LOG_PRINT_BOOT("[alt_main.c] Calling C++ constructors.\r\n");
  _do_ctors ();
  810060:	0812da00 	call	812da0 <_do_ctors>
   * redefined as _exit()). This is in the interest of reducing code footprint,
   * in that the atexit() overhead is removed when it's not needed.
   */

  ALT_LOG_PRINT_BOOT("[alt_main.c] Calling atexit.\r\n");
  atexit (_do_dtors);
  810064:	01002074 	movhi	r4,129
  810068:	210b8004 	addi	r4,r4,11776
  81006c:	08137880 	call	813788 <atexit>
  ALT_LOG_PRINT_BOOT("[alt_main.c] Calling main.\r\n");

#ifdef ALT_NO_EXIT
  main (alt_argc, alt_argv, alt_envp);
#else
  result = main (alt_argc, alt_argv, alt_envp);
  810070:	d0a78c17 	ldw	r2,-25040(gp)
  810074:	d0e78d17 	ldw	r3,-25036(gp)
  810078:	d1278e17 	ldw	r4,-25032(gp)
  81007c:	200d883a 	mov	r6,r4
  810080:	180b883a 	mov	r5,r3
  810084:	1009883a 	mov	r4,r2
  810088:	0800dc40 	call	800dc4 <main>
  81008c:	e0bfff15 	stw	r2,-4(fp)
  close(STDOUT_FILENO);
  810090:	01000044 	movi	r4,1
  810094:	080fb600 	call	80fb60 <close>
  exit (result);
  810098:	e13fff17 	ldw	r4,-4(fp)
  81009c:	081379c0 	call	81379c <exit>

008100a0 <__malloc_lock>:
 * configuration is single threaded, so there is nothing to do here. Note that 
 * this requires that malloc is never called by an interrupt service routine.
 */

void __malloc_lock ( struct _reent *_r )
{
  8100a0:	defffe04 	addi	sp,sp,-8
  8100a4:	df000115 	stw	fp,4(sp)
  8100a8:	df000104 	addi	fp,sp,4
  8100ac:	e13fff15 	stw	r4,-4(fp)
}
  8100b0:	0001883a 	nop
  8100b4:	e037883a 	mov	sp,fp
  8100b8:	df000017 	ldw	fp,0(sp)
  8100bc:	dec00104 	addi	sp,sp,4
  8100c0:	f800283a 	ret

008100c4 <__malloc_unlock>:
/*
 *
 */

void __malloc_unlock ( struct _reent *_r )
{
  8100c4:	defffe04 	addi	sp,sp,-8
  8100c8:	df000115 	stw	fp,4(sp)
  8100cc:	df000104 	addi	fp,sp,4
  8100d0:	e13fff15 	stw	r4,-4(fp)
}
  8100d4:	0001883a 	nop
  8100d8:	e037883a 	mov	sp,fp
  8100dc:	df000017 	ldw	fp,0(sp)
  8100e0:	dec00104 	addi	sp,sp,4
  8100e4:	f800283a 	ret

008100e8 <alt_get_errno>:
#undef errno

extern int errno;

static ALT_INLINE int* alt_get_errno(void)
{
  8100e8:	defffe04 	addi	sp,sp,-8
  8100ec:	dfc00115 	stw	ra,4(sp)
  8100f0:	df000015 	stw	fp,0(sp)
  8100f4:	d839883a 	mov	fp,sp
  return ((alt_errno) ? alt_errno() : &errno);
  8100f8:	d0a00c17 	ldw	r2,-32720(gp)
  8100fc:	10000326 	beq	r2,zero,81010c <alt_get_errno+0x24>
  810100:	d0a00c17 	ldw	r2,-32720(gp)
  810104:	103ee83a 	callr	r2
  810108:	00000106 	br	810110 <alt_get_errno+0x28>
  81010c:	d0a78504 	addi	r2,gp,-25068
}
  810110:	e037883a 	mov	sp,fp
  810114:	dfc00117 	ldw	ra,4(sp)
  810118:	df000017 	ldw	fp,0(sp)
  81011c:	dec00204 	addi	sp,sp,8
  810120:	f800283a 	ret

00810124 <alt_file_locked>:
 * performed for devices. Filesystems are required to handle the ioctl() call
 * themselves, and report the error from the filesystems open() function. 
 */ 

static int alt_file_locked (alt_fd* fd)
{
  810124:	defffd04 	addi	sp,sp,-12
  810128:	df000215 	stw	fp,8(sp)
  81012c:	df000204 	addi	fp,sp,8
  810130:	e13fff15 	stw	r4,-4(fp)

  /*
   * Mark the file descriptor as belonging to a device.
   */

  fd->fd_flags |= ALT_FD_DEV;
  810134:	e0bfff17 	ldw	r2,-4(fp)
  810138:	10800217 	ldw	r2,8(r2)
  81013c:	10d00034 	orhi	r3,r2,16384
  810140:	e0bfff17 	ldw	r2,-4(fp)
  810144:	10c00215 	stw	r3,8(r2)
  /*
   * Loop through all current file descriptors searching for one that's locked
   * for exclusive access. If a match is found, generate an error.
   */

  for (i = 0; i <= alt_max_fd; i++)
  810148:	e03ffe15 	stw	zero,-8(fp)
  81014c:	00001d06 	br	8101c4 <alt_file_locked+0xa0>
  {
    if ((alt_fd_list[i].dev == fd->dev) &&
  810150:	00802074 	movhi	r2,129
  810154:	1092a504 	addi	r2,r2,19092
  810158:	e0fffe17 	ldw	r3,-8(fp)
  81015c:	18c00324 	muli	r3,r3,12
  810160:	10c5883a 	add	r2,r2,r3
  810164:	10c00017 	ldw	r3,0(r2)
  810168:	e0bfff17 	ldw	r2,-4(fp)
  81016c:	10800017 	ldw	r2,0(r2)
  810170:	1880111e 	bne	r3,r2,8101b8 <alt_file_locked+0x94>
        (alt_fd_list[i].fd_flags & ALT_FD_EXCL) &&
  810174:	00802074 	movhi	r2,129
  810178:	1092a504 	addi	r2,r2,19092
  81017c:	e0fffe17 	ldw	r3,-8(fp)
  810180:	18c00324 	muli	r3,r3,12
  810184:	10c5883a 	add	r2,r2,r3
  810188:	10800204 	addi	r2,r2,8
  81018c:	10800017 	ldw	r2,0(r2)
   * for exclusive access. If a match is found, generate an error.
   */

  for (i = 0; i <= alt_max_fd; i++)
  {
    if ((alt_fd_list[i].dev == fd->dev) &&
  810190:	1000090e 	bge	r2,zero,8101b8 <alt_file_locked+0x94>
        (alt_fd_list[i].fd_flags & ALT_FD_EXCL) &&
        (&alt_fd_list[i] != fd))
  810194:	e0bffe17 	ldw	r2,-8(fp)
  810198:	10c00324 	muli	r3,r2,12
  81019c:	00802074 	movhi	r2,129
  8101a0:	1092a504 	addi	r2,r2,19092
  8101a4:	1887883a 	add	r3,r3,r2
   */

  for (i = 0; i <= alt_max_fd; i++)
  {
    if ((alt_fd_list[i].dev == fd->dev) &&
        (alt_fd_list[i].fd_flags & ALT_FD_EXCL) &&
  8101a8:	e0bfff17 	ldw	r2,-4(fp)
  8101ac:	18800226 	beq	r3,r2,8101b8 <alt_file_locked+0x94>
        (&alt_fd_list[i] != fd))
    {
      return -EACCES;
  8101b0:	00bffcc4 	movi	r2,-13
  8101b4:	00000806 	br	8101d8 <alt_file_locked+0xb4>
  /*
   * Loop through all current file descriptors searching for one that's locked
   * for exclusive access. If a match is found, generate an error.
   */

  for (i = 0; i <= alt_max_fd; i++)
  8101b8:	e0bffe17 	ldw	r2,-8(fp)
  8101bc:	10800044 	addi	r2,r2,1
  8101c0:	e0bffe15 	stw	r2,-8(fp)
  8101c4:	d0a00b17 	ldw	r2,-32724(gp)
  8101c8:	1007883a 	mov	r3,r2
  8101cc:	e0bffe17 	ldw	r2,-8(fp)
  8101d0:	18bfdf2e 	bgeu	r3,r2,810150 <__alt_mem_onchip_mem+0xff790150>
    }
  }
  
  /* The device is not locked */
 
  return 0;
  8101d4:	0005883a 	mov	r2,zero
}
  8101d8:	e037883a 	mov	sp,fp
  8101dc:	df000017 	ldw	fp,0(sp)
  8101e0:	dec00104 	addi	sp,sp,4
  8101e4:	f800283a 	ret

008101e8 <open>:
 *
 * ALT_OPEN is mapped onto the open() system call in alt_syscall.h
 */
 
int ALT_OPEN (const char* file, int flags, int mode)
{ 
  8101e8:	defff604 	addi	sp,sp,-40
  8101ec:	dfc00915 	stw	ra,36(sp)
  8101f0:	df000815 	stw	fp,32(sp)
  8101f4:	df000804 	addi	fp,sp,32
  8101f8:	e13ffd15 	stw	r4,-12(fp)
  8101fc:	e17ffe15 	stw	r5,-8(fp)
  810200:	e1bfff15 	stw	r6,-4(fp)
  alt_dev* dev;
  alt_fd*  fd;
  int index  = -1;
  810204:	00bfffc4 	movi	r2,-1
  810208:	e0bff915 	stw	r2,-28(fp)
  int status = -ENODEV;
  81020c:	00bffb44 	movi	r2,-19
  810210:	e0bffa15 	stw	r2,-24(fp)
  int isafs = 0;
  810214:	e03ffb15 	stw	zero,-20(fp)
  /* 
   * Check the device list, to see if a device with a matching name is 
   * registered.
   */
  
  if (!(dev = alt_find_dev (file, &alt_dev_list)))
  810218:	d1600904 	addi	r5,gp,-32732
  81021c:	e13ffd17 	ldw	r4,-12(fp)
  810220:	0812e600 	call	812e60 <alt_find_dev>
  810224:	e0bff815 	stw	r2,-32(fp)
  810228:	e0bff817 	ldw	r2,-32(fp)
  81022c:	1000051e 	bne	r2,zero,810244 <open+0x5c>
  {
    /* No matching device, so try the filesystem list */

    dev   = alt_find_file (file);
  810230:	e13ffd17 	ldw	r4,-12(fp)
  810234:	0812ef00 	call	812ef0 <alt_find_file>
  810238:	e0bff815 	stw	r2,-32(fp)
    isafs = 1;
  81023c:	00800044 	movi	r2,1
  810240:	e0bffb15 	stw	r2,-20(fp)

  /* 
   * If a matching device or filesystem is found, allocate a file descriptor. 
   */

  if (dev)
  810244:	e0bff817 	ldw	r2,-32(fp)
  810248:	10002926 	beq	r2,zero,8102f0 <open+0x108>
  {
    if ((index = alt_get_fd (dev)) < 0)
  81024c:	e13ff817 	ldw	r4,-32(fp)
  810250:	0812ff80 	call	812ff8 <alt_get_fd>
  810254:	e0bff915 	stw	r2,-28(fp)
  810258:	e0bff917 	ldw	r2,-28(fp)
  81025c:	1000030e 	bge	r2,zero,81026c <open+0x84>
    {
      status = index;
  810260:	e0bff917 	ldw	r2,-28(fp)
  810264:	e0bffa15 	stw	r2,-24(fp)
  810268:	00002306 	br	8102f8 <open+0x110>
    }
    else
    {
      fd = &alt_fd_list[index];
  81026c:	e0bff917 	ldw	r2,-28(fp)
  810270:	10c00324 	muli	r3,r2,12
  810274:	00802074 	movhi	r2,129
  810278:	1092a504 	addi	r2,r2,19092
  81027c:	1885883a 	add	r2,r3,r2
  810280:	e0bffc15 	stw	r2,-16(fp)
      fd->fd_flags = (flags & ~ALT_FD_FLAGS_MASK);
  810284:	e0fffe17 	ldw	r3,-8(fp)
  810288:	00900034 	movhi	r2,16384
  81028c:	10bfffc4 	addi	r2,r2,-1
  810290:	1886703a 	and	r3,r3,r2
  810294:	e0bffc17 	ldw	r2,-16(fp)
  810298:	10c00215 	stw	r3,8(r2)
      
      /* If this is a device, ensure it isn't already locked */

      if (isafs || ((status = alt_file_locked (fd)) >= 0))
  81029c:	e0bffb17 	ldw	r2,-20(fp)
  8102a0:	1000051e 	bne	r2,zero,8102b8 <open+0xd0>
  8102a4:	e13ffc17 	ldw	r4,-16(fp)
  8102a8:	08101240 	call	810124 <alt_file_locked>
  8102ac:	e0bffa15 	stw	r2,-24(fp)
  8102b0:	e0bffa17 	ldw	r2,-24(fp)
  8102b4:	10001016 	blt	r2,zero,8102f8 <open+0x110>
        /* 
         * If the device or filesystem provides an open() callback function,
         * call it now to perform any device/filesystem specific operations.
         */
    
        status = (dev->open) ? dev->open(fd, file, flags, mode): 0;
  8102b8:	e0bff817 	ldw	r2,-32(fp)
  8102bc:	10800317 	ldw	r2,12(r2)
  8102c0:	10000826 	beq	r2,zero,8102e4 <open+0xfc>
  8102c4:	e0bff817 	ldw	r2,-32(fp)
  8102c8:	10800317 	ldw	r2,12(r2)
  8102cc:	e1ffff17 	ldw	r7,-4(fp)
  8102d0:	e1bffe17 	ldw	r6,-8(fp)
  8102d4:	e17ffd17 	ldw	r5,-12(fp)
  8102d8:	e13ffc17 	ldw	r4,-16(fp)
  8102dc:	103ee83a 	callr	r2
  8102e0:	00000106 	br	8102e8 <open+0x100>
  8102e4:	0005883a 	mov	r2,zero
  8102e8:	e0bffa15 	stw	r2,-24(fp)
  8102ec:	00000206 	br	8102f8 <open+0x110>
      }
    }
  }
  else
  {
    status = -ENODEV;
  8102f0:	00bffb44 	movi	r2,-19
  8102f4:	e0bffa15 	stw	r2,-24(fp)
  }

  /* Allocation failed, so clean up and return an error */ 

  if (status < 0)
  8102f8:	e0bffa17 	ldw	r2,-24(fp)
  8102fc:	1000090e 	bge	r2,zero,810324 <open+0x13c>
  {
    alt_release_fd (index);  
  810300:	e13ff917 	ldw	r4,-28(fp)
  810304:	08104740 	call	810474 <alt_release_fd>
    ALT_ERRNO = -status;
  810308:	08100e80 	call	8100e8 <alt_get_errno>
  81030c:	1007883a 	mov	r3,r2
  810310:	e0bffa17 	ldw	r2,-24(fp)
  810314:	0085c83a 	sub	r2,zero,r2
  810318:	18800015 	stw	r2,0(r3)
    return -1;
  81031c:	00bfffc4 	movi	r2,-1
  810320:	00000106 	br	810328 <open+0x140>
  }
  
  /* return the reference upon success */

  return index;
  810324:	e0bff917 	ldw	r2,-28(fp)
}
  810328:	e037883a 	mov	sp,fp
  81032c:	dfc00117 	ldw	ra,4(sp)
  810330:	df000017 	ldw	fp,0(sp)
  810334:	dec00204 	addi	sp,sp,8
  810338:	f800283a 	ret

0081033c <alt_get_errno>:
#undef errno

extern int errno;

static ALT_INLINE int* alt_get_errno(void)
{
  81033c:	defffe04 	addi	sp,sp,-8
  810340:	dfc00115 	stw	ra,4(sp)
  810344:	df000015 	stw	fp,0(sp)
  810348:	d839883a 	mov	fp,sp
  return ((alt_errno) ? alt_errno() : &errno);
  81034c:	d0a00c17 	ldw	r2,-32720(gp)
  810350:	10000326 	beq	r2,zero,810360 <alt_get_errno+0x24>
  810354:	d0a00c17 	ldw	r2,-32720(gp)
  810358:	103ee83a 	callr	r2
  81035c:	00000106 	br	810364 <alt_get_errno+0x28>
  810360:	d0a78504 	addi	r2,gp,-25068
}
  810364:	e037883a 	mov	sp,fp
  810368:	dfc00117 	ldw	ra,4(sp)
  81036c:	df000017 	ldw	fp,0(sp)
  810370:	dec00204 	addi	sp,sp,8
  810374:	f800283a 	ret

00810378 <read>:
}

#else /* !ALT_USE_DIRECT_DRIVERS */

int ALT_READ (int file, void *ptr, size_t len)
{
  810378:	defff904 	addi	sp,sp,-28
  81037c:	dfc00615 	stw	ra,24(sp)
  810380:	df000515 	stw	fp,20(sp)
  810384:	df000504 	addi	fp,sp,20
  810388:	e13ffd15 	stw	r4,-12(fp)
  81038c:	e17ffe15 	stw	r5,-8(fp)
  810390:	e1bfff15 	stw	r6,-4(fp)
   * A common error case is that when the file descriptor was created, the call
   * to open() failed resulting in a negative file descriptor. This is trapped
   * below so that we don't try and process an invalid file descriptor.
   */

  fd = (file < 0) ? NULL : &alt_fd_list[file];
  810394:	e0bffd17 	ldw	r2,-12(fp)
  810398:	10000616 	blt	r2,zero,8103b4 <read+0x3c>
  81039c:	e0bffd17 	ldw	r2,-12(fp)
  8103a0:	10c00324 	muli	r3,r2,12
  8103a4:	00802074 	movhi	r2,129
  8103a8:	1092a504 	addi	r2,r2,19092
  8103ac:	1885883a 	add	r2,r3,r2
  8103b0:	00000106 	br	8103b8 <read+0x40>
  8103b4:	0005883a 	mov	r2,zero
  8103b8:	e0bffb15 	stw	r2,-20(fp)
  
  if (fd)
  8103bc:	e0bffb17 	ldw	r2,-20(fp)
  8103c0:	10002226 	beq	r2,zero,81044c <read+0xd4>
     * If the file has not been opened with read access, or if the driver does
     * not provide an implementation of read(), generate an error. Otherwise
     * call the drivers read() function to process the request.
     */

    if (((fd->fd_flags & O_ACCMODE) != O_WRONLY) && 
  8103c4:	e0bffb17 	ldw	r2,-20(fp)
  8103c8:	10800217 	ldw	r2,8(r2)
  8103cc:	108000cc 	andi	r2,r2,3
  8103d0:	10800060 	cmpeqi	r2,r2,1
  8103d4:	1000181e 	bne	r2,zero,810438 <read+0xc0>
        (fd->dev->read))
  8103d8:	e0bffb17 	ldw	r2,-20(fp)
  8103dc:	10800017 	ldw	r2,0(r2)
  8103e0:	10800517 	ldw	r2,20(r2)
     * If the file has not been opened with read access, or if the driver does
     * not provide an implementation of read(), generate an error. Otherwise
     * call the drivers read() function to process the request.
     */

    if (((fd->fd_flags & O_ACCMODE) != O_WRONLY) && 
  8103e4:	10001426 	beq	r2,zero,810438 <read+0xc0>
        (fd->dev->read))
      {
        if ((rval = fd->dev->read(fd, ptr, len)) < 0)
  8103e8:	e0bffb17 	ldw	r2,-20(fp)
  8103ec:	10800017 	ldw	r2,0(r2)
  8103f0:	10800517 	ldw	r2,20(r2)
  8103f4:	e0ffff17 	ldw	r3,-4(fp)
  8103f8:	180d883a 	mov	r6,r3
  8103fc:	e17ffe17 	ldw	r5,-8(fp)
  810400:	e13ffb17 	ldw	r4,-20(fp)
  810404:	103ee83a 	callr	r2
  810408:	e0bffc15 	stw	r2,-16(fp)
  81040c:	e0bffc17 	ldw	r2,-16(fp)
  810410:	1000070e 	bge	r2,zero,810430 <read+0xb8>
        {
          ALT_ERRNO = -rval;
  810414:	081033c0 	call	81033c <alt_get_errno>
  810418:	1007883a 	mov	r3,r2
  81041c:	e0bffc17 	ldw	r2,-16(fp)
  810420:	0085c83a 	sub	r2,zero,r2
  810424:	18800015 	stw	r2,0(r3)
          return -1;
  810428:	00bfffc4 	movi	r2,-1
  81042c:	00000c06 	br	810460 <read+0xe8>
        }
        return rval;
  810430:	e0bffc17 	ldw	r2,-16(fp)
  810434:	00000a06 	br	810460 <read+0xe8>
      }
      else
      {
        ALT_ERRNO = EACCES;
  810438:	081033c0 	call	81033c <alt_get_errno>
  81043c:	1007883a 	mov	r3,r2
  810440:	00800344 	movi	r2,13
  810444:	18800015 	stw	r2,0(r3)
  810448:	00000406 	br	81045c <read+0xe4>
      }
    }
  else
  {
    ALT_ERRNO = EBADFD;
  81044c:	081033c0 	call	81033c <alt_get_errno>
  810450:	1007883a 	mov	r3,r2
  810454:	00801444 	movi	r2,81
  810458:	18800015 	stw	r2,0(r3)
  }
  return -1;
  81045c:	00bfffc4 	movi	r2,-1
}
  810460:	e037883a 	mov	sp,fp
  810464:	dfc00117 	ldw	ra,4(sp)
  810468:	df000017 	ldw	fp,0(sp)
  81046c:	dec00204 	addi	sp,sp,8
  810470:	f800283a 	ret

00810474 <alt_release_fd>:
 * File descriptors correcponding to standard in, standard out and standard 
 * error cannont be released backed to the pool. They are always reserved.
 */

void alt_release_fd (int fd)
{
  810474:	defffe04 	addi	sp,sp,-8
  810478:	df000115 	stw	fp,4(sp)
  81047c:	df000104 	addi	fp,sp,4
  810480:	e13fff15 	stw	r4,-4(fp)
  if (fd > 2)
  810484:	e0bfff17 	ldw	r2,-4(fp)
  810488:	108000d0 	cmplti	r2,r2,3
  81048c:	10000d1e 	bne	r2,zero,8104c4 <alt_release_fd+0x50>
  {
    alt_fd_list[fd].fd_flags = 0;
  810490:	00802074 	movhi	r2,129
  810494:	1092a504 	addi	r2,r2,19092
  810498:	e0ffff17 	ldw	r3,-4(fp)
  81049c:	18c00324 	muli	r3,r3,12
  8104a0:	10c5883a 	add	r2,r2,r3
  8104a4:	10800204 	addi	r2,r2,8
  8104a8:	10000015 	stw	zero,0(r2)
    alt_fd_list[fd].dev      = 0;
  8104ac:	00802074 	movhi	r2,129
  8104b0:	1092a504 	addi	r2,r2,19092
  8104b4:	e0ffff17 	ldw	r3,-4(fp)
  8104b8:	18c00324 	muli	r3,r3,12
  8104bc:	10c5883a 	add	r2,r2,r3
  8104c0:	10000015 	stw	zero,0(r2)
  }
}
  8104c4:	0001883a 	nop
  8104c8:	e037883a 	mov	sp,fp
  8104cc:	df000017 	ldw	fp,0(sp)
  8104d0:	dec00104 	addi	sp,sp,4
  8104d4:	f800283a 	ret

008104d8 <sbrk>:
#endif
 
caddr_t ALT_SBRK (int incr) __attribute__ ((no_instrument_function ));

caddr_t ALT_SBRK (int incr)
{ 
  8104d8:	defff904 	addi	sp,sp,-28
  8104dc:	df000615 	stw	fp,24(sp)
  8104e0:	df000604 	addi	fp,sp,24
  8104e4:	e13fff15 	stw	r4,-4(fp)
static ALT_INLINE alt_irq_context ALT_ALWAYS_INLINE 
       alt_irq_disable_all (void)
{
  alt_irq_context context;

  NIOS2_READ_STATUS (context);
  8104e8:	0005303a 	rdctl	r2,status
  8104ec:	e0bffe15 	stw	r2,-8(fp)

  NIOS2_WRITE_STATUS (context & ~NIOS2_STATUS_PIE_MSK);
  8104f0:	e0fffe17 	ldw	r3,-8(fp)
  8104f4:	00bfff84 	movi	r2,-2
  8104f8:	1884703a 	and	r2,r3,r2
  8104fc:	1001703a 	wrctl	status,r2
  
  return context;
  810500:	e0bffe17 	ldw	r2,-8(fp)
  alt_irq_context context;
  char *prev_heap_end; 

  context = alt_irq_disable_all();
  810504:	e0bffb15 	stw	r2,-20(fp)

  /* Always return data aligned on a word boundary */
  heap_end = (char *)(((unsigned int)heap_end + 3) & ~3);
  810508:	d0a00d17 	ldw	r2,-32716(gp)
  81050c:	10c000c4 	addi	r3,r2,3
  810510:	00bfff04 	movi	r2,-4
  810514:	1884703a 	and	r2,r3,r2
  810518:	d0a00d15 	stw	r2,-32716(gp)
  if (((heap_end + incr) - __alt_heap_start) > ALT_MAX_HEAP_BYTES) {
    alt_irq_enable_all(context);
    return (caddr_t)-1;
  }
#else
  if ((heap_end + incr) > __alt_heap_limit) {
  81051c:	d0e00d17 	ldw	r3,-32716(gp)
  810520:	e0bfff17 	ldw	r2,-4(fp)
  810524:	1887883a 	add	r3,r3,r2
  810528:	00804034 	movhi	r2,256
  81052c:	10800004 	addi	r2,r2,0
  810530:	10c0062e 	bgeu	r2,r3,81054c <sbrk+0x74>
  810534:	e0bffb17 	ldw	r2,-20(fp)
  810538:	e0bffa15 	stw	r2,-24(fp)
  status &= ~NIOS2_STATUS_PIE_MSK;
  status |= (context & NIOS2_STATUS_PIE_MSK);
  
  NIOS2_WRITE_STATUS (status);
#else
  NIOS2_WRITE_STATUS (context);
  81053c:	e0bffa17 	ldw	r2,-24(fp)
  810540:	1001703a 	wrctl	status,r2
    alt_irq_enable_all(context);
    return (caddr_t)-1;
  810544:	00bfffc4 	movi	r2,-1
  810548:	00000b06 	br	810578 <sbrk+0xa0>
  }
#endif

  prev_heap_end = heap_end; 
  81054c:	d0a00d17 	ldw	r2,-32716(gp)
  810550:	e0bffd15 	stw	r2,-12(fp)
  heap_end += incr; 
  810554:	d0e00d17 	ldw	r3,-32716(gp)
  810558:	e0bfff17 	ldw	r2,-4(fp)
  81055c:	1885883a 	add	r2,r3,r2
  810560:	d0a00d15 	stw	r2,-32716(gp)
  810564:	e0bffb17 	ldw	r2,-20(fp)
  810568:	e0bffc15 	stw	r2,-16(fp)
  81056c:	e0bffc17 	ldw	r2,-16(fp)
  810570:	1001703a 	wrctl	status,r2

#endif

  alt_irq_enable_all(context);

  return (caddr_t) prev_heap_end; 
  810574:	e0bffd17 	ldw	r2,-12(fp)
} 
  810578:	e037883a 	mov	sp,fp
  81057c:	df000017 	ldw	fp,0(sp)
  810580:	dec00104 	addi	sp,sp,4
  810584:	f800283a 	ret

00810588 <alt_alarm_stop>:
 * alarms. Alternatively an alarm can unregister itself by returning zero when 
 * the alarm executes.
 */

void alt_alarm_stop (alt_alarm* alarm)
{
  810588:	defffa04 	addi	sp,sp,-24
  81058c:	df000515 	stw	fp,20(sp)
  810590:	df000504 	addi	fp,sp,20
  810594:	e13fff15 	stw	r4,-4(fp)
static ALT_INLINE alt_irq_context ALT_ALWAYS_INLINE 
       alt_irq_disable_all (void)
{
  alt_irq_context context;

  NIOS2_READ_STATUS (context);
  810598:	0005303a 	rdctl	r2,status
  81059c:	e0bffc15 	stw	r2,-16(fp)

  NIOS2_WRITE_STATUS (context & ~NIOS2_STATUS_PIE_MSK);
  8105a0:	e0fffc17 	ldw	r3,-16(fp)
  8105a4:	00bfff84 	movi	r2,-2
  8105a8:	1884703a 	and	r2,r3,r2
  8105ac:	1001703a 	wrctl	status,r2
  
  return context;
  8105b0:	e0bffc17 	ldw	r2,-16(fp)
  alt_irq_context irq_context;

  irq_context = alt_irq_disable_all();
  8105b4:	e0bffb15 	stw	r2,-20(fp)
  alt_llist_remove (&alarm->llist);
  8105b8:	e0bfff17 	ldw	r2,-4(fp)
  8105bc:	e0bffd15 	stw	r2,-12(fp)
 * input argument is the element to remove.
 */
     
static ALT_INLINE void ALT_ALWAYS_INLINE alt_llist_remove(alt_llist* entry)
{
  entry->next->previous = entry->previous;
  8105c0:	e0bffd17 	ldw	r2,-12(fp)
  8105c4:	10800017 	ldw	r2,0(r2)
  8105c8:	e0fffd17 	ldw	r3,-12(fp)
  8105cc:	18c00117 	ldw	r3,4(r3)
  8105d0:	10c00115 	stw	r3,4(r2)
  entry->previous->next = entry->next;
  8105d4:	e0bffd17 	ldw	r2,-12(fp)
  8105d8:	10800117 	ldw	r2,4(r2)
  8105dc:	e0fffd17 	ldw	r3,-12(fp)
  8105e0:	18c00017 	ldw	r3,0(r3)
  8105e4:	10c00015 	stw	r3,0(r2)
  /* 
   * Set the entry to point to itself, so that any further calls to
   * alt_llist_remove() are harmless.
   */

  entry->previous = entry;
  8105e8:	e0bffd17 	ldw	r2,-12(fp)
  8105ec:	e0fffd17 	ldw	r3,-12(fp)
  8105f0:	10c00115 	stw	r3,4(r2)
  entry->next     = entry;
  8105f4:	e0bffd17 	ldw	r2,-12(fp)
  8105f8:	e0fffd17 	ldw	r3,-12(fp)
  8105fc:	10c00015 	stw	r3,0(r2)
  810600:	e0bffb17 	ldw	r2,-20(fp)
  810604:	e0bffe15 	stw	r2,-8(fp)
  status &= ~NIOS2_STATUS_PIE_MSK;
  status |= (context & NIOS2_STATUS_PIE_MSK);
  
  NIOS2_WRITE_STATUS (status);
#else
  NIOS2_WRITE_STATUS (context);
  810608:	e0bffe17 	ldw	r2,-8(fp)
  81060c:	1001703a 	wrctl	status,r2
  alt_irq_enable_all (irq_context);
}
  810610:	0001883a 	nop
  810614:	e037883a 	mov	sp,fp
  810618:	df000017 	ldw	fp,0(sp)
  81061c:	dec00104 	addi	sp,sp,4
  810620:	f800283a 	ret

00810624 <alt_tick>:
 * 
 * alt_tick() is expected to run at interrupt level.
 */

void alt_tick (void)
{
  810624:	defffb04 	addi	sp,sp,-20
  810628:	dfc00415 	stw	ra,16(sp)
  81062c:	df000315 	stw	fp,12(sp)
  810630:	df000304 	addi	fp,sp,12
  alt_alarm* next;
  alt_alarm* alarm = (alt_alarm*) alt_alarm_list.next;
  810634:	d0a00e17 	ldw	r2,-32712(gp)
  810638:	e0bffd15 	stw	r2,-12(fp)

  alt_u32    next_callback;

  /* update the tick counter */

  _alt_nticks++;
  81063c:	d0a79017 	ldw	r2,-25024(gp)
  810640:	10800044 	addi	r2,r2,1
  810644:	d0a79015 	stw	r2,-25024(gp)

  /* process the registered callbacks */

  while (alarm != (alt_alarm*) &alt_alarm_list)
  810648:	00002e06 	br	810704 <alt_tick+0xe0>
  {
    next = (alt_alarm*) alarm->llist.next;
  81064c:	e0bffd17 	ldw	r2,-12(fp)
  810650:	10800017 	ldw	r2,0(r2)
  810654:	e0bffe15 	stw	r2,-8(fp)
    /* 
     * Upon the tick-counter rolling over it is safe to clear the 
     * roll-over flag; once the flag is cleared this (or subsequnt)
     * tick events are enabled to generate an alarm event. 
     */
    if ((alarm->rollover) && (_alt_nticks == 0))
  810658:	e0bffd17 	ldw	r2,-12(fp)
  81065c:	10800403 	ldbu	r2,16(r2)
  810660:	10803fcc 	andi	r2,r2,255
  810664:	10000426 	beq	r2,zero,810678 <alt_tick+0x54>
  810668:	d0a79017 	ldw	r2,-25024(gp)
  81066c:	1000021e 	bne	r2,zero,810678 <alt_tick+0x54>
    {
      alarm->rollover = 0;
  810670:	e0bffd17 	ldw	r2,-12(fp)
  810674:	10000405 	stb	zero,16(r2)
    }
    
    /* if the alarm period has expired, make the callback */    
    if ((alarm->time <= _alt_nticks) && (alarm->rollover == 0))
  810678:	e0bffd17 	ldw	r2,-12(fp)
  81067c:	10800217 	ldw	r2,8(r2)
  810680:	d0e79017 	ldw	r3,-25024(gp)
  810684:	18801d36 	bltu	r3,r2,8106fc <alt_tick+0xd8>
  810688:	e0bffd17 	ldw	r2,-12(fp)
  81068c:	10800403 	ldbu	r2,16(r2)
  810690:	10803fcc 	andi	r2,r2,255
  810694:	1000191e 	bne	r2,zero,8106fc <alt_tick+0xd8>
    {
      next_callback = alarm->callback (alarm->context);
  810698:	e0bffd17 	ldw	r2,-12(fp)
  81069c:	10800317 	ldw	r2,12(r2)
  8106a0:	e0fffd17 	ldw	r3,-12(fp)
  8106a4:	18c00517 	ldw	r3,20(r3)
  8106a8:	1809883a 	mov	r4,r3
  8106ac:	103ee83a 	callr	r2
  8106b0:	e0bfff15 	stw	r2,-4(fp)

      /* deactivate the alarm if the return value is zero */

      if (next_callback == 0)
  8106b4:	e0bfff17 	ldw	r2,-4(fp)
  8106b8:	1000031e 	bne	r2,zero,8106c8 <alt_tick+0xa4>
      {
        alt_alarm_stop (alarm);
  8106bc:	e13ffd17 	ldw	r4,-12(fp)
  8106c0:	08105880 	call	810588 <alt_alarm_stop>
  8106c4:	00000d06 	br	8106fc <alt_tick+0xd8>
      }
      else
      {
        alarm->time += next_callback;
  8106c8:	e0bffd17 	ldw	r2,-12(fp)
  8106cc:	10c00217 	ldw	r3,8(r2)
  8106d0:	e0bfff17 	ldw	r2,-4(fp)
  8106d4:	1887883a 	add	r3,r3,r2
  8106d8:	e0bffd17 	ldw	r2,-12(fp)
  8106dc:	10c00215 	stw	r3,8(r2)
        /* 
         * If the desired alarm time causes a roll-over, set the rollover
         * flag. This will prevent the subsequent tick event from causing
         * an alarm too early.
         */
        if(alarm->time < _alt_nticks)
  8106e0:	e0bffd17 	ldw	r2,-12(fp)
  8106e4:	10c00217 	ldw	r3,8(r2)
  8106e8:	d0a79017 	ldw	r2,-25024(gp)
  8106ec:	1880032e 	bgeu	r3,r2,8106fc <alt_tick+0xd8>
        {
          alarm->rollover = 1;
  8106f0:	e0bffd17 	ldw	r2,-12(fp)
  8106f4:	00c00044 	movi	r3,1
  8106f8:	10c00405 	stb	r3,16(r2)
        }
      }
    }
    alarm = next;
  8106fc:	e0bffe17 	ldw	r2,-8(fp)
  810700:	e0bffd15 	stw	r2,-12(fp)

  _alt_nticks++;

  /* process the registered callbacks */

  while (alarm != (alt_alarm*) &alt_alarm_list)
  810704:	e0fffd17 	ldw	r3,-12(fp)
  810708:	d0a00e04 	addi	r2,gp,-32712
  81070c:	18bfcf1e 	bne	r3,r2,81064c <__alt_mem_onchip_mem+0xff79064c>

  /* 
   * Update the operating system specific timer facilities.
   */

  ALT_OS_TIME_TICK();
  810710:	0001883a 	nop
}
  810714:	0001883a 	nop
  810718:	e037883a 	mov	sp,fp
  81071c:	dfc00117 	ldw	ra,4(sp)
  810720:	df000017 	ldw	fp,0(sp)
  810724:	dec00204 	addi	sp,sp,8
  810728:	f800283a 	ret

0081072c <alt_get_errno>:
#undef errno

extern int errno;

static ALT_INLINE int* alt_get_errno(void)
{
  81072c:	defffe04 	addi	sp,sp,-8
  810730:	dfc00115 	stw	ra,4(sp)
  810734:	df000015 	stw	fp,0(sp)
  810738:	d839883a 	mov	fp,sp
  return ((alt_errno) ? alt_errno() : &errno);
  81073c:	d0a00c17 	ldw	r2,-32720(gp)
  810740:	10000326 	beq	r2,zero,810750 <alt_get_errno+0x24>
  810744:	d0a00c17 	ldw	r2,-32720(gp)
  810748:	103ee83a 	callr	r2
  81074c:	00000106 	br	810754 <alt_get_errno+0x28>
  810750:	d0a78504 	addi	r2,gp,-25068
}
  810754:	e037883a 	mov	sp,fp
  810758:	dfc00117 	ldw	ra,4(sp)
  81075c:	df000017 	ldw	fp,0(sp)
  810760:	dec00204 	addi	sp,sp,8
  810764:	f800283a 	ret

00810768 <write>:
}

#else /* !ALT_USE_DIRECT_DRIVERS */

int ALT_WRITE (int file, const void *ptr, size_t len)
{
  810768:	defff904 	addi	sp,sp,-28
  81076c:	dfc00615 	stw	ra,24(sp)
  810770:	df000515 	stw	fp,20(sp)
  810774:	df000504 	addi	fp,sp,20
  810778:	e13ffd15 	stw	r4,-12(fp)
  81077c:	e17ffe15 	stw	r5,-8(fp)
  810780:	e1bfff15 	stw	r6,-4(fp)
   * A common error case is that when the file descriptor was created, the call
   * to open() failed resulting in a negative file descriptor. This is trapped
   * below so that we don't try and process an invalid file descriptor.
   */

  fd = (file < 0) ? NULL : &alt_fd_list[file];
  810784:	e0bffd17 	ldw	r2,-12(fp)
  810788:	10000616 	blt	r2,zero,8107a4 <write+0x3c>
  81078c:	e0bffd17 	ldw	r2,-12(fp)
  810790:	10c00324 	muli	r3,r2,12
  810794:	00802074 	movhi	r2,129
  810798:	1092a504 	addi	r2,r2,19092
  81079c:	1885883a 	add	r2,r3,r2
  8107a0:	00000106 	br	8107a8 <write+0x40>
  8107a4:	0005883a 	mov	r2,zero
  8107a8:	e0bffb15 	stw	r2,-20(fp)
  
  if (fd)
  8107ac:	e0bffb17 	ldw	r2,-20(fp)
  8107b0:	10002126 	beq	r2,zero,810838 <write+0xd0>
     * If the file has not been opened with write access, or if the driver does
     * not provide an implementation of write(), generate an error. Otherwise
     * call the drivers write() function to process the request.
     */

    if (((fd->fd_flags & O_ACCMODE) != O_RDONLY) && fd->dev->write)
  8107b4:	e0bffb17 	ldw	r2,-20(fp)
  8107b8:	10800217 	ldw	r2,8(r2)
  8107bc:	108000cc 	andi	r2,r2,3
  8107c0:	10001826 	beq	r2,zero,810824 <write+0xbc>
  8107c4:	e0bffb17 	ldw	r2,-20(fp)
  8107c8:	10800017 	ldw	r2,0(r2)
  8107cc:	10800617 	ldw	r2,24(r2)
  8107d0:	10001426 	beq	r2,zero,810824 <write+0xbc>
    {
      
      /* ALT_LOG - see altera_hal/HAL/inc/sys/alt_log_printf.h */
      ALT_LOG_WRITE_FUNCTION(ptr,len);

      if ((rval = fd->dev->write(fd, ptr, len)) < 0)
  8107d4:	e0bffb17 	ldw	r2,-20(fp)
  8107d8:	10800017 	ldw	r2,0(r2)
  8107dc:	10800617 	ldw	r2,24(r2)
  8107e0:	e0ffff17 	ldw	r3,-4(fp)
  8107e4:	180d883a 	mov	r6,r3
  8107e8:	e17ffe17 	ldw	r5,-8(fp)
  8107ec:	e13ffb17 	ldw	r4,-20(fp)
  8107f0:	103ee83a 	callr	r2
  8107f4:	e0bffc15 	stw	r2,-16(fp)
  8107f8:	e0bffc17 	ldw	r2,-16(fp)
  8107fc:	1000070e 	bge	r2,zero,81081c <write+0xb4>
      {
        ALT_ERRNO = -rval;
  810800:	081072c0 	call	81072c <alt_get_errno>
  810804:	1007883a 	mov	r3,r2
  810808:	e0bffc17 	ldw	r2,-16(fp)
  81080c:	0085c83a 	sub	r2,zero,r2
  810810:	18800015 	stw	r2,0(r3)
        return -1;
  810814:	00bfffc4 	movi	r2,-1
  810818:	00000c06 	br	81084c <write+0xe4>
      }
      return rval;
  81081c:	e0bffc17 	ldw	r2,-16(fp)
  810820:	00000a06 	br	81084c <write+0xe4>
    }
    else
    {
      ALT_ERRNO = EACCES;
  810824:	081072c0 	call	81072c <alt_get_errno>
  810828:	1007883a 	mov	r3,r2
  81082c:	00800344 	movi	r2,13
  810830:	18800015 	stw	r2,0(r3)
  810834:	00000406 	br	810848 <write+0xe0>
    }
  }
  else  
  {
    ALT_ERRNO = EBADFD;
  810838:	081072c0 	call	81072c <alt_get_errno>
  81083c:	1007883a 	mov	r3,r2
  810840:	00801444 	movi	r2,81
  810844:	18800015 	stw	r2,0(r3)
  }
  return -1;
  810848:	00bfffc4 	movi	r2,-1
}
  81084c:	e037883a 	mov	sp,fp
  810850:	dfc00117 	ldw	ra,4(sp)
  810854:	df000017 	ldw	fp,0(sp)
  810858:	dec00204 	addi	sp,sp,8
  81085c:	f800283a 	ret

00810860 <alt_dev_reg>:
 */

extern int alt_fs_reg  (alt_dev* dev); 

static ALT_INLINE int alt_dev_reg (alt_dev* dev)
{
  810860:	defffd04 	addi	sp,sp,-12
  810864:	dfc00215 	stw	ra,8(sp)
  810868:	df000115 	stw	fp,4(sp)
  81086c:	df000104 	addi	fp,sp,4
  810870:	e13fff15 	stw	r4,-4(fp)
  extern alt_llist alt_dev_list;

  return alt_dev_llist_insert ((alt_dev_llist*) dev, &alt_dev_list);
  810874:	d1600904 	addi	r5,gp,-32732
  810878:	e13fff17 	ldw	r4,-4(fp)
  81087c:	0812cfc0 	call	812cfc <alt_dev_llist_insert>
}
  810880:	e037883a 	mov	sp,fp
  810884:	dfc00117 	ldw	ra,4(sp)
  810888:	df000017 	ldw	fp,0(sp)
  81088c:	dec00204 	addi	sp,sp,8
  810890:	f800283a 	ret

00810894 <alt_irq_init>:
 * The "base" parameter is ignored and only
 * present for backwards-compatibility.
 */

void alt_irq_init ( const void* base )
{
  810894:	defffd04 	addi	sp,sp,-12
  810898:	dfc00215 	stw	ra,8(sp)
  81089c:	df000115 	stw	fp,4(sp)
  8108a0:	df000104 	addi	fp,sp,4
  8108a4:	e13fff15 	stw	r4,-4(fp)
    ALTERA_NIOS2_GEN2_IRQ_INIT ( CPU, cpu);
  8108a8:	08134e00 	call	8134e0 <altera_nios2_gen2_irq_init>
 * alt_irq_cpu_enable_interrupts() enables the CPU to start taking interrupts.
 */
static ALT_INLINE void ALT_ALWAYS_INLINE 
       alt_irq_cpu_enable_interrupts (void)
{
    NIOS2_WRITE_STATUS(NIOS2_STATUS_PIE_MSK
  8108ac:	00800044 	movi	r2,1
  8108b0:	1001703a 	wrctl	status,r2
    alt_irq_cpu_enable_interrupts();
}
  8108b4:	0001883a 	nop
  8108b8:	e037883a 	mov	sp,fp
  8108bc:	dfc00117 	ldw	ra,4(sp)
  8108c0:	df000017 	ldw	fp,0(sp)
  8108c4:	dec00204 	addi	sp,sp,8
  8108c8:	f800283a 	ret

008108cc <alt_sys_init>:
 * Initialize the non-interrupt controller devices.
 * Called after alt_irq_init().
 */

void alt_sys_init( void )
{
  8108cc:	defffe04 	addi	sp,sp,-8
  8108d0:	dfc00115 	stw	ra,4(sp)
  8108d4:	df000015 	stw	fp,0(sp)
  8108d8:	d839883a 	mov	fp,sp
    ALTERA_AVALON_TIMER_INIT ( TIMER1, timer1);
  8108dc:	01c0fa04 	movi	r7,1000
  8108e0:	01800084 	movi	r6,2
  8108e4:	000b883a 	mov	r5,zero
  8108e8:	01004434 	movhi	r4,272
  8108ec:	21040804 	addi	r4,r4,4128
  8108f0:	08123240 	call	812324 <alt_avalon_timer_sc_init>
    ALTERA_AVALON_TIMER_INIT ( TIMER2, timer2);
    ALTERA_AVALON_JTAG_UART_INIT ( JTAG_UART, jtag_uart);
  8108f4:	01800044 	movi	r6,1
  8108f8:	000b883a 	mov	r5,zero
  8108fc:	01002074 	movhi	r4,129
  810900:	21130f04 	addi	r4,r4,19516
  810904:	0810acc0 	call	810acc <altera_avalon_jtag_uart_init>
  810908:	01002074 	movhi	r4,129
  81090c:	21130504 	addi	r4,r4,19476
  810910:	08108600 	call	810860 <alt_dev_reg>
    ALTERA_AVALON_LCD_16207_INIT ( LCD, lcd);
  810914:	01002074 	movhi	r4,129
  810918:	21172704 	addi	r4,r4,23708
  81091c:	08121180 	call	812118 <altera_avalon_lcd_16207_init>
  810920:	01002074 	movhi	r4,129
  810924:	21171d04 	addi	r4,r4,23668
  810928:	08108600 	call	810860 <alt_dev_reg>
    ALTERA_AVALON_SYSID_QSYS_INIT ( CPU_SYSID, cpu_sysid);
  81092c:	0001883a 	nop
    ALTERA_AVALON_UART_INIT ( UART, uart);
  810930:	000d883a 	mov	r6,zero
  810934:	000b883a 	mov	r5,zero
  810938:	01002074 	movhi	r4,129
  81093c:	21176f04 	addi	r4,r4,23996
  810940:	08124b00 	call	8124b0 <altera_avalon_uart_init>
  810944:	01002074 	movhi	r4,129
  810948:	21176504 	addi	r4,r4,23956
  81094c:	08108600 	call	810860 <alt_dev_reg>
}
  810950:	0001883a 	nop
  810954:	e037883a 	mov	sp,fp
  810958:	dfc00117 	ldw	ra,4(sp)
  81095c:	df000017 	ldw	fp,0(sp)
  810960:	dec00204 	addi	sp,sp,8
  810964:	f800283a 	ret

00810968 <altera_avalon_jtag_uart_read_fd>:
 *
 */

int 
altera_avalon_jtag_uart_read_fd(alt_fd* fd, char* buffer, int space)
{
  810968:	defffa04 	addi	sp,sp,-24
  81096c:	dfc00515 	stw	ra,20(sp)
  810970:	df000415 	stw	fp,16(sp)
  810974:	df000404 	addi	fp,sp,16
  810978:	e13ffd15 	stw	r4,-12(fp)
  81097c:	e17ffe15 	stw	r5,-8(fp)
  810980:	e1bfff15 	stw	r6,-4(fp)
    altera_avalon_jtag_uart_dev* dev = (altera_avalon_jtag_uart_dev*) fd->dev; 
  810984:	e0bffd17 	ldw	r2,-12(fp)
  810988:	10800017 	ldw	r2,0(r2)
  81098c:	e0bffc15 	stw	r2,-16(fp)

    return altera_avalon_jtag_uart_read(&dev->state, buffer, space,
  810990:	e0bffc17 	ldw	r2,-16(fp)
  810994:	10c00a04 	addi	r3,r2,40
  810998:	e0bffd17 	ldw	r2,-12(fp)
  81099c:	10800217 	ldw	r2,8(r2)
  8109a0:	100f883a 	mov	r7,r2
  8109a4:	e1bfff17 	ldw	r6,-4(fp)
  8109a8:	e17ffe17 	ldw	r5,-8(fp)
  8109ac:	1809883a 	mov	r4,r3
  8109b0:	0810f900 	call	810f90 <altera_avalon_jtag_uart_read>
      fd->fd_flags);
}
  8109b4:	e037883a 	mov	sp,fp
  8109b8:	dfc00117 	ldw	ra,4(sp)
  8109bc:	df000017 	ldw	fp,0(sp)
  8109c0:	dec00204 	addi	sp,sp,8
  8109c4:	f800283a 	ret

008109c8 <altera_avalon_jtag_uart_write_fd>:

int 
altera_avalon_jtag_uart_write_fd(alt_fd* fd, const char* buffer, int space)
{
  8109c8:	defffa04 	addi	sp,sp,-24
  8109cc:	dfc00515 	stw	ra,20(sp)
  8109d0:	df000415 	stw	fp,16(sp)
  8109d4:	df000404 	addi	fp,sp,16
  8109d8:	e13ffd15 	stw	r4,-12(fp)
  8109dc:	e17ffe15 	stw	r5,-8(fp)
  8109e0:	e1bfff15 	stw	r6,-4(fp)
    altera_avalon_jtag_uart_dev* dev = (altera_avalon_jtag_uart_dev*) fd->dev; 
  8109e4:	e0bffd17 	ldw	r2,-12(fp)
  8109e8:	10800017 	ldw	r2,0(r2)
  8109ec:	e0bffc15 	stw	r2,-16(fp)

    return altera_avalon_jtag_uart_write(&dev->state, buffer, space,
  8109f0:	e0bffc17 	ldw	r2,-16(fp)
  8109f4:	10c00a04 	addi	r3,r2,40
  8109f8:	e0bffd17 	ldw	r2,-12(fp)
  8109fc:	10800217 	ldw	r2,8(r2)
  810a00:	100f883a 	mov	r7,r2
  810a04:	e1bfff17 	ldw	r6,-4(fp)
  810a08:	e17ffe17 	ldw	r5,-8(fp)
  810a0c:	1809883a 	mov	r4,r3
  810a10:	08111ac0 	call	8111ac <altera_avalon_jtag_uart_write>
      fd->fd_flags);
}
  810a14:	e037883a 	mov	sp,fp
  810a18:	dfc00117 	ldw	ra,4(sp)
  810a1c:	df000017 	ldw	fp,0(sp)
  810a20:	dec00204 	addi	sp,sp,8
  810a24:	f800283a 	ret

00810a28 <altera_avalon_jtag_uart_close_fd>:

#ifndef ALTERA_AVALON_JTAG_UART_SMALL

int 
altera_avalon_jtag_uart_close_fd(alt_fd* fd)
{
  810a28:	defffc04 	addi	sp,sp,-16
  810a2c:	dfc00315 	stw	ra,12(sp)
  810a30:	df000215 	stw	fp,8(sp)
  810a34:	df000204 	addi	fp,sp,8
  810a38:	e13fff15 	stw	r4,-4(fp)
    altera_avalon_jtag_uart_dev* dev = (altera_avalon_jtag_uart_dev*) fd->dev; 
  810a3c:	e0bfff17 	ldw	r2,-4(fp)
  810a40:	10800017 	ldw	r2,0(r2)
  810a44:	e0bffe15 	stw	r2,-8(fp)

    return altera_avalon_jtag_uart_close(&dev->state, fd->fd_flags);
  810a48:	e0bffe17 	ldw	r2,-8(fp)
  810a4c:	10c00a04 	addi	r3,r2,40
  810a50:	e0bfff17 	ldw	r2,-4(fp)
  810a54:	10800217 	ldw	r2,8(r2)
  810a58:	100b883a 	mov	r5,r2
  810a5c:	1809883a 	mov	r4,r3
  810a60:	0810e380 	call	810e38 <altera_avalon_jtag_uart_close>
}
  810a64:	e037883a 	mov	sp,fp
  810a68:	dfc00117 	ldw	ra,4(sp)
  810a6c:	df000017 	ldw	fp,0(sp)
  810a70:	dec00204 	addi	sp,sp,8
  810a74:	f800283a 	ret

00810a78 <altera_avalon_jtag_uart_ioctl_fd>:

int 
altera_avalon_jtag_uart_ioctl_fd(alt_fd* fd, int req, void* arg)
{
  810a78:	defffa04 	addi	sp,sp,-24
  810a7c:	dfc00515 	stw	ra,20(sp)
  810a80:	df000415 	stw	fp,16(sp)
  810a84:	df000404 	addi	fp,sp,16
  810a88:	e13ffd15 	stw	r4,-12(fp)
  810a8c:	e17ffe15 	stw	r5,-8(fp)
  810a90:	e1bfff15 	stw	r6,-4(fp)
    altera_avalon_jtag_uart_dev* dev = (altera_avalon_jtag_uart_dev*) fd->dev;
  810a94:	e0bffd17 	ldw	r2,-12(fp)
  810a98:	10800017 	ldw	r2,0(r2)
  810a9c:	e0bffc15 	stw	r2,-16(fp)

    return altera_avalon_jtag_uart_ioctl(&dev->state, req, arg);
  810aa0:	e0bffc17 	ldw	r2,-16(fp)
  810aa4:	10800a04 	addi	r2,r2,40
  810aa8:	e1bfff17 	ldw	r6,-4(fp)
  810aac:	e17ffe17 	ldw	r5,-8(fp)
  810ab0:	1009883a 	mov	r4,r2
  810ab4:	0810ea00 	call	810ea0 <altera_avalon_jtag_uart_ioctl>
}
  810ab8:	e037883a 	mov	sp,fp
  810abc:	dfc00117 	ldw	ra,4(sp)
  810ac0:	df000017 	ldw	fp,0(sp)
  810ac4:	dec00204 	addi	sp,sp,8
  810ac8:	f800283a 	ret

00810acc <altera_avalon_jtag_uart_init>:
 * Return 1 on sucessful IRQ register and 0 on failure.
 */

void altera_avalon_jtag_uart_init(altera_avalon_jtag_uart_state* sp, 
                                  int irq_controller_id, int irq)
{
  810acc:	defffa04 	addi	sp,sp,-24
  810ad0:	dfc00515 	stw	ra,20(sp)
  810ad4:	df000415 	stw	fp,16(sp)
  810ad8:	df000404 	addi	fp,sp,16
  810adc:	e13ffd15 	stw	r4,-12(fp)
  810ae0:	e17ffe15 	stw	r5,-8(fp)
  810ae4:	e1bfff15 	stw	r6,-4(fp)
  ALT_FLAG_CREATE(&sp->events, 0);
  ALT_SEM_CREATE(&sp->read_lock, 1);
  ALT_SEM_CREATE(&sp->write_lock, 1);

  /* enable read interrupts at the device */
  sp->irq_enable = ALTERA_AVALON_JTAG_UART_CONTROL_RE_MSK;
  810ae8:	e0bffd17 	ldw	r2,-12(fp)
  810aec:	00c00044 	movi	r3,1
  810af0:	10c00815 	stw	r3,32(r2)

  IOWR_ALTERA_AVALON_JTAG_UART_CONTROL(sp->base, sp->irq_enable); 
  810af4:	e0bffd17 	ldw	r2,-12(fp)
  810af8:	10800017 	ldw	r2,0(r2)
  810afc:	10800104 	addi	r2,r2,4
  810b00:	1007883a 	mov	r3,r2
  810b04:	e0bffd17 	ldw	r2,-12(fp)
  810b08:	10800817 	ldw	r2,32(r2)
  810b0c:	18800035 	stwio	r2,0(r3)
  
  /* register the interrupt handler */
#ifdef ALT_ENHANCED_INTERRUPT_API_PRESENT
  alt_ic_isr_register(irq_controller_id, irq, altera_avalon_jtag_uart_irq, 
  810b10:	e0bffe17 	ldw	r2,-8(fp)
  810b14:	e0ffff17 	ldw	r3,-4(fp)
  810b18:	d8000015 	stw	zero,0(sp)
  810b1c:	e1fffd17 	ldw	r7,-12(fp)
  810b20:	01802074 	movhi	r6,129
  810b24:	3182e304 	addi	r6,r6,2956
  810b28:	180b883a 	mov	r5,r3
  810b2c:	1009883a 	mov	r4,r2
  810b30:	08130d00 	call	8130d0 <alt_ic_isr_register>
#else
  alt_irq_register(irq, sp, altera_avalon_jtag_uart_irq);
#endif  

  /* Register an alarm to go off every second to check for presence of host */
  sp->host_inactive = 0;
  810b34:	e0bffd17 	ldw	r2,-12(fp)
  810b38:	10000915 	stw	zero,36(r2)

  if (alt_alarm_start(&sp->alarm, alt_ticks_per_second(), 
  810b3c:	e0bffd17 	ldw	r2,-12(fp)
  810b40:	10800204 	addi	r2,r2,8
 * Obtain the system clock rate in ticks/s. 
 */

static ALT_INLINE alt_u32 ALT_ALWAYS_INLINE alt_ticks_per_second (void)
{
  return _alt_tick_rate;
  810b44:	d0e78f17 	ldw	r3,-25028(gp)
  810b48:	e1fffd17 	ldw	r7,-12(fp)
  810b4c:	01802074 	movhi	r6,129
  810b50:	31836604 	addi	r6,r6,3480
  810b54:	180b883a 	mov	r5,r3
  810b58:	1009883a 	mov	r4,r2
  810b5c:	080f9f80 	call	80f9f8 <alt_alarm_start>
  810b60:	1000040e 	bge	r2,zero,810b74 <altera_avalon_jtag_uart_init+0xa8>
    &altera_avalon_jtag_uart_timeout, sp) < 0)
  {
    /* If we can't set the alarm then record "don't know if host present" 
     * and behave as though the host is present.
     */
    sp->timeout = INT_MAX;
  810b64:	e0fffd17 	ldw	r3,-12(fp)
  810b68:	00a00034 	movhi	r2,32768
  810b6c:	10bfffc4 	addi	r2,r2,-1
  810b70:	18800115 	stw	r2,4(r3)
  }

  /* ALT_LOG - see altera_hal/HAL/inc/sys/alt_log_printf.h */ 
  ALT_LOG_JTAG_UART_ALARM_REGISTER(sp, sp->base);
}
  810b74:	0001883a 	nop
  810b78:	e037883a 	mov	sp,fp
  810b7c:	dfc00117 	ldw	ra,4(sp)
  810b80:	df000017 	ldw	fp,0(sp)
  810b84:	dec00204 	addi	sp,sp,8
  810b88:	f800283a 	ret

00810b8c <altera_avalon_jtag_uart_irq>:
#ifdef ALT_ENHANCED_INTERRUPT_API_PRESENT
static void altera_avalon_jtag_uart_irq(void* context)
#else
static void altera_avalon_jtag_uart_irq(void* context, alt_u32 id)
#endif
{
  810b8c:	defff804 	addi	sp,sp,-32
  810b90:	df000715 	stw	fp,28(sp)
  810b94:	df000704 	addi	fp,sp,28
  810b98:	e13fff15 	stw	r4,-4(fp)
  altera_avalon_jtag_uart_state* sp = (altera_avalon_jtag_uart_state*) context;
  810b9c:	e0bfff17 	ldw	r2,-4(fp)
  810ba0:	e0bffb15 	stw	r2,-20(fp)
  unsigned int base = sp->base;
  810ba4:	e0bffb17 	ldw	r2,-20(fp)
  810ba8:	10800017 	ldw	r2,0(r2)
  810bac:	e0bffc15 	stw	r2,-16(fp)
  /* ALT_LOG - see altera_hal/HAL/inc/sys/alt_log_printf.h */ 
  ALT_LOG_JTAG_UART_ISR_FUNCTION(base, sp);

  for ( ; ; )
  {
    unsigned int control = IORD_ALTERA_AVALON_JTAG_UART_CONTROL(base);
  810bb0:	e0bffc17 	ldw	r2,-16(fp)
  810bb4:	10800104 	addi	r2,r2,4
  810bb8:	10800037 	ldwio	r2,0(r2)
  810bbc:	e0bffd15 	stw	r2,-12(fp)

    /* Return once nothing more to do */
    if ((control & (ALTERA_AVALON_JTAG_UART_CONTROL_RI_MSK | ALTERA_AVALON_JTAG_UART_CONTROL_WI_MSK)) == 0)
  810bc0:	e0bffd17 	ldw	r2,-12(fp)
  810bc4:	1080c00c 	andi	r2,r2,768
  810bc8:	10006d26 	beq	r2,zero,810d80 <altera_avalon_jtag_uart_irq+0x1f4>
      break;

    if (control & ALTERA_AVALON_JTAG_UART_CONTROL_RI_MSK)
  810bcc:	e0bffd17 	ldw	r2,-12(fp)
  810bd0:	1080400c 	andi	r2,r2,256
  810bd4:	10003526 	beq	r2,zero,810cac <altera_avalon_jtag_uart_irq+0x120>
    {
      /* process a read irq.  Start by assuming that there is data in the
       * receive FIFO (otherwise why would we have been interrupted?)
       */
      unsigned int data = 1 << ALTERA_AVALON_JTAG_UART_DATA_RAVAIL_OFST;
  810bd8:	00800074 	movhi	r2,1
  810bdc:	e0bff915 	stw	r2,-28(fp)
      for ( ; ; )
      {
        /* Check whether there is space in the buffer.  If not then we must not
         * read any characters from the buffer as they will be lost.
         */
        unsigned int next = (sp->rx_in + 1) % ALTERA_AVALON_JTAG_UART_BUF_LEN;
  810be0:	e0bffb17 	ldw	r2,-20(fp)
  810be4:	10800a17 	ldw	r2,40(r2)
  810be8:	10800044 	addi	r2,r2,1
  810bec:	1081ffcc 	andi	r2,r2,2047
  810bf0:	e0bffe15 	stw	r2,-8(fp)
        if (next == sp->rx_out)
  810bf4:	e0bffb17 	ldw	r2,-20(fp)
  810bf8:	10c00b17 	ldw	r3,44(r2)
  810bfc:	e0bffe17 	ldw	r2,-8(fp)
  810c00:	18801526 	beq	r3,r2,810c58 <altera_avalon_jtag_uart_irq+0xcc>
          break;

        /* Try to remove a character from the FIFO and find out whether there
         * are any more characters remaining.
         */
        data = IORD_ALTERA_AVALON_JTAG_UART_DATA(base);
  810c04:	e0bffc17 	ldw	r2,-16(fp)
  810c08:	10800037 	ldwio	r2,0(r2)
  810c0c:	e0bff915 	stw	r2,-28(fp)
        
        if ((data & ALTERA_AVALON_JTAG_UART_DATA_RVALID_MSK) == 0)
  810c10:	e0bff917 	ldw	r2,-28(fp)
  810c14:	10a0000c 	andi	r2,r2,32768
  810c18:	10001126 	beq	r2,zero,810c60 <altera_avalon_jtag_uart_irq+0xd4>
          break;

        sp->rx_buf[sp->rx_in] = (data & ALTERA_AVALON_JTAG_UART_DATA_DATA_MSK) >> ALTERA_AVALON_JTAG_UART_DATA_DATA_OFST;
  810c1c:	e0bffb17 	ldw	r2,-20(fp)
  810c20:	10800a17 	ldw	r2,40(r2)
  810c24:	e0fff917 	ldw	r3,-28(fp)
  810c28:	1809883a 	mov	r4,r3
  810c2c:	e0fffb17 	ldw	r3,-20(fp)
  810c30:	1885883a 	add	r2,r3,r2
  810c34:	10800e04 	addi	r2,r2,56
  810c38:	11000005 	stb	r4,0(r2)
        sp->rx_in = (sp->rx_in + 1) % ALTERA_AVALON_JTAG_UART_BUF_LEN;
  810c3c:	e0bffb17 	ldw	r2,-20(fp)
  810c40:	10800a17 	ldw	r2,40(r2)
  810c44:	10800044 	addi	r2,r2,1
  810c48:	10c1ffcc 	andi	r3,r2,2047
  810c4c:	e0bffb17 	ldw	r2,-20(fp)
  810c50:	10c00a15 	stw	r3,40(r2)

        /* Post an event to notify jtag_uart_read that a character has been read */
        ALT_FLAG_POST (sp->events, ALT_JTAG_UART_READ_RDY, OS_FLAG_SET);
      }
  810c54:	003fe206 	br	810be0 <__alt_mem_onchip_mem+0xff790be0>
        /* Check whether there is space in the buffer.  If not then we must not
         * read any characters from the buffer as they will be lost.
         */
        unsigned int next = (sp->rx_in + 1) % ALTERA_AVALON_JTAG_UART_BUF_LEN;
        if (next == sp->rx_out)
          break;
  810c58:	0001883a 	nop
  810c5c:	00000106 	br	810c64 <altera_avalon_jtag_uart_irq+0xd8>
         * are any more characters remaining.
         */
        data = IORD_ALTERA_AVALON_JTAG_UART_DATA(base);
        
        if ((data & ALTERA_AVALON_JTAG_UART_DATA_RVALID_MSK) == 0)
          break;
  810c60:	0001883a 	nop

        /* Post an event to notify jtag_uart_read that a character has been read */
        ALT_FLAG_POST (sp->events, ALT_JTAG_UART_READ_RDY, OS_FLAG_SET);
      }

      if (data & ALTERA_AVALON_JTAG_UART_DATA_RAVAIL_MSK)
  810c64:	e0bff917 	ldw	r2,-28(fp)
  810c68:	10bfffec 	andhi	r2,r2,65535
  810c6c:	10000f26 	beq	r2,zero,810cac <altera_avalon_jtag_uart_irq+0x120>
      {
        /* If there is still data available here then the buffer is full 
         * so turn off receive interrupts until some space becomes available.
         */
        sp->irq_enable &= ~ALTERA_AVALON_JTAG_UART_CONTROL_RE_MSK;
  810c70:	e0bffb17 	ldw	r2,-20(fp)
  810c74:	10c00817 	ldw	r3,32(r2)
  810c78:	00bfff84 	movi	r2,-2
  810c7c:	1886703a 	and	r3,r3,r2
  810c80:	e0bffb17 	ldw	r2,-20(fp)
  810c84:	10c00815 	stw	r3,32(r2)
        IOWR_ALTERA_AVALON_JTAG_UART_CONTROL(base, sp->irq_enable);
  810c88:	e0bffc17 	ldw	r2,-16(fp)
  810c8c:	10800104 	addi	r2,r2,4
  810c90:	1007883a 	mov	r3,r2
  810c94:	e0bffb17 	ldw	r2,-20(fp)
  810c98:	10800817 	ldw	r2,32(r2)
  810c9c:	18800035 	stwio	r2,0(r3)
        
        /* Dummy read to ensure IRQ is cleared prior to ISR completion */
        IORD_ALTERA_AVALON_JTAG_UART_CONTROL(base);
  810ca0:	e0bffc17 	ldw	r2,-16(fp)
  810ca4:	10800104 	addi	r2,r2,4
  810ca8:	10800037 	ldwio	r2,0(r2)
      }
    }

    if (control & ALTERA_AVALON_JTAG_UART_CONTROL_WI_MSK)
  810cac:	e0bffd17 	ldw	r2,-12(fp)
  810cb0:	1080800c 	andi	r2,r2,512
  810cb4:	103fbe26 	beq	r2,zero,810bb0 <__alt_mem_onchip_mem+0xff790bb0>
    {
      /* process a write irq */
      unsigned int space = (control & ALTERA_AVALON_JTAG_UART_CONTROL_WSPACE_MSK) >> ALTERA_AVALON_JTAG_UART_CONTROL_WSPACE_OFST;
  810cb8:	e0bffd17 	ldw	r2,-12(fp)
  810cbc:	1004d43a 	srli	r2,r2,16
  810cc0:	e0bffa15 	stw	r2,-24(fp)

      while (space > 0 && sp->tx_out != sp->tx_in)
  810cc4:	00001406 	br	810d18 <altera_avalon_jtag_uart_irq+0x18c>
      {
        IOWR_ALTERA_AVALON_JTAG_UART_DATA(base, sp->tx_buf[sp->tx_out]);
  810cc8:	e0bffc17 	ldw	r2,-16(fp)
  810ccc:	e0fffb17 	ldw	r3,-20(fp)
  810cd0:	18c00d17 	ldw	r3,52(r3)
  810cd4:	e13ffb17 	ldw	r4,-20(fp)
  810cd8:	20c7883a 	add	r3,r4,r3
  810cdc:	18c20e04 	addi	r3,r3,2104
  810ce0:	18c00003 	ldbu	r3,0(r3)
  810ce4:	18c03fcc 	andi	r3,r3,255
  810ce8:	18c0201c 	xori	r3,r3,128
  810cec:	18ffe004 	addi	r3,r3,-128
  810cf0:	10c00035 	stwio	r3,0(r2)

        sp->tx_out = (sp->tx_out + 1) % ALTERA_AVALON_JTAG_UART_BUF_LEN;
  810cf4:	e0bffb17 	ldw	r2,-20(fp)
  810cf8:	10800d17 	ldw	r2,52(r2)
  810cfc:	10800044 	addi	r2,r2,1
  810d00:	10c1ffcc 	andi	r3,r2,2047
  810d04:	e0bffb17 	ldw	r2,-20(fp)
  810d08:	10c00d15 	stw	r3,52(r2)

        /* Post an event to notify jtag_uart_write that a character has been written */
        ALT_FLAG_POST (sp->events, ALT_JTAG_UART_WRITE_RDY, OS_FLAG_SET);

        space--;
  810d0c:	e0bffa17 	ldw	r2,-24(fp)
  810d10:	10bfffc4 	addi	r2,r2,-1
  810d14:	e0bffa15 	stw	r2,-24(fp)
    if (control & ALTERA_AVALON_JTAG_UART_CONTROL_WI_MSK)
    {
      /* process a write irq */
      unsigned int space = (control & ALTERA_AVALON_JTAG_UART_CONTROL_WSPACE_MSK) >> ALTERA_AVALON_JTAG_UART_CONTROL_WSPACE_OFST;

      while (space > 0 && sp->tx_out != sp->tx_in)
  810d18:	e0bffa17 	ldw	r2,-24(fp)
  810d1c:	10000526 	beq	r2,zero,810d34 <altera_avalon_jtag_uart_irq+0x1a8>
  810d20:	e0bffb17 	ldw	r2,-20(fp)
  810d24:	10c00d17 	ldw	r3,52(r2)
  810d28:	e0bffb17 	ldw	r2,-20(fp)
  810d2c:	10800c17 	ldw	r2,48(r2)
  810d30:	18bfe51e 	bne	r3,r2,810cc8 <__alt_mem_onchip_mem+0xff790cc8>
        ALT_FLAG_POST (sp->events, ALT_JTAG_UART_WRITE_RDY, OS_FLAG_SET);

        space--;
      }

      if (space > 0)
  810d34:	e0bffa17 	ldw	r2,-24(fp)
  810d38:	103f9d26 	beq	r2,zero,810bb0 <__alt_mem_onchip_mem+0xff790bb0>
      {
        /* If we don't have any more data available then turn off the TX interrupt */
        sp->irq_enable &= ~ALTERA_AVALON_JTAG_UART_CONTROL_WE_MSK;
  810d3c:	e0bffb17 	ldw	r2,-20(fp)
  810d40:	10c00817 	ldw	r3,32(r2)
  810d44:	00bfff44 	movi	r2,-3
  810d48:	1886703a 	and	r3,r3,r2
  810d4c:	e0bffb17 	ldw	r2,-20(fp)
  810d50:	10c00815 	stw	r3,32(r2)
        IOWR_ALTERA_AVALON_JTAG_UART_CONTROL(sp->base, sp->irq_enable);
  810d54:	e0bffb17 	ldw	r2,-20(fp)
  810d58:	10800017 	ldw	r2,0(r2)
  810d5c:	10800104 	addi	r2,r2,4
  810d60:	1007883a 	mov	r3,r2
  810d64:	e0bffb17 	ldw	r2,-20(fp)
  810d68:	10800817 	ldw	r2,32(r2)
  810d6c:	18800035 	stwio	r2,0(r3)
        
        /* Dummy read to ensure IRQ is cleared prior to ISR completion */
        IORD_ALTERA_AVALON_JTAG_UART_CONTROL(base);
  810d70:	e0bffc17 	ldw	r2,-16(fp)
  810d74:	10800104 	addi	r2,r2,4
  810d78:	10800037 	ldwio	r2,0(r2)
      }
    }
  }
  810d7c:	003f8c06 	br	810bb0 <__alt_mem_onchip_mem+0xff790bb0>
  {
    unsigned int control = IORD_ALTERA_AVALON_JTAG_UART_CONTROL(base);

    /* Return once nothing more to do */
    if ((control & (ALTERA_AVALON_JTAG_UART_CONTROL_RI_MSK | ALTERA_AVALON_JTAG_UART_CONTROL_WI_MSK)) == 0)
      break;
  810d80:	0001883a 	nop
        /* Dummy read to ensure IRQ is cleared prior to ISR completion */
        IORD_ALTERA_AVALON_JTAG_UART_CONTROL(base);
      }
    }
  }
}
  810d84:	0001883a 	nop
  810d88:	e037883a 	mov	sp,fp
  810d8c:	df000017 	ldw	fp,0(sp)
  810d90:	dec00104 	addi	sp,sp,4
  810d94:	f800283a 	ret

00810d98 <altera_avalon_jtag_uart_timeout>:
 * Timeout routine is called every second
 */

static alt_u32 
altera_avalon_jtag_uart_timeout(void* context) 
{
  810d98:	defff804 	addi	sp,sp,-32
  810d9c:	df000715 	stw	fp,28(sp)
  810da0:	df000704 	addi	fp,sp,28
  810da4:	e13ffb15 	stw	r4,-20(fp)
  altera_avalon_jtag_uart_state* sp = (altera_avalon_jtag_uart_state *) context;
  810da8:	e0bffb17 	ldw	r2,-20(fp)
  810dac:	e0bff915 	stw	r2,-28(fp)

  unsigned int control = IORD_ALTERA_AVALON_JTAG_UART_CONTROL(sp->base);
  810db0:	e0bff917 	ldw	r2,-28(fp)
  810db4:	10800017 	ldw	r2,0(r2)
  810db8:	10800104 	addi	r2,r2,4
  810dbc:	10800037 	ldwio	r2,0(r2)
  810dc0:	e0bffa15 	stw	r2,-24(fp)

  if (control & ALTERA_AVALON_JTAG_UART_CONTROL_AC_MSK)
  810dc4:	e0bffa17 	ldw	r2,-24(fp)
  810dc8:	1081000c 	andi	r2,r2,1024
  810dcc:	10000b26 	beq	r2,zero,810dfc <altera_avalon_jtag_uart_timeout+0x64>
  {
    IOWR_ALTERA_AVALON_JTAG_UART_CONTROL(sp->base, sp->irq_enable | ALTERA_AVALON_JTAG_UART_CONTROL_AC_MSK);
  810dd0:	e0bff917 	ldw	r2,-28(fp)
  810dd4:	10800017 	ldw	r2,0(r2)
  810dd8:	10800104 	addi	r2,r2,4
  810ddc:	1007883a 	mov	r3,r2
  810de0:	e0bff917 	ldw	r2,-28(fp)
  810de4:	10800817 	ldw	r2,32(r2)
  810de8:	10810014 	ori	r2,r2,1024
  810dec:	18800035 	stwio	r2,0(r3)
    sp->host_inactive = 0;
  810df0:	e0bff917 	ldw	r2,-28(fp)
  810df4:	10000915 	stw	zero,36(r2)
  810df8:	00000a06 	br	810e24 <altera_avalon_jtag_uart_timeout+0x8c>
  }
  else if (sp->host_inactive < INT_MAX - 2) {
  810dfc:	e0bff917 	ldw	r2,-28(fp)
  810e00:	10c00917 	ldw	r3,36(r2)
  810e04:	00a00034 	movhi	r2,32768
  810e08:	10bfff04 	addi	r2,r2,-4
  810e0c:	10c00536 	bltu	r2,r3,810e24 <altera_avalon_jtag_uart_timeout+0x8c>
    sp->host_inactive++;
  810e10:	e0bff917 	ldw	r2,-28(fp)
  810e14:	10800917 	ldw	r2,36(r2)
  810e18:	10c00044 	addi	r3,r2,1
  810e1c:	e0bff917 	ldw	r2,-28(fp)
  810e20:	10c00915 	stw	r3,36(r2)
  810e24:	d0a78f17 	ldw	r2,-25028(gp)
      ALT_FLAG_POST (sp->events, ALT_JTAG_UART_TIMEOUT, OS_FLAG_SET);
    }
  }

  return alt_ticks_per_second();
}
  810e28:	e037883a 	mov	sp,fp
  810e2c:	df000017 	ldw	fp,0(sp)
  810e30:	dec00104 	addi	sp,sp,4
  810e34:	f800283a 	ret

00810e38 <altera_avalon_jtag_uart_close>:
 * The close routine is not implemented for the small driver; instead it will
 * map to null. This is because the small driver simply waits while characters
 * are transmitted; there is no interrupt-serviced buffer to empty 
 */
int altera_avalon_jtag_uart_close(altera_avalon_jtag_uart_state* sp, int flags)
{
  810e38:	defffd04 	addi	sp,sp,-12
  810e3c:	df000215 	stw	fp,8(sp)
  810e40:	df000204 	addi	fp,sp,8
  810e44:	e13ffe15 	stw	r4,-8(fp)
  810e48:	e17fff15 	stw	r5,-4(fp)
  /* 
   * Wait for all transmit data to be emptied by the JTAG UART ISR, or
   * for a host-inactivity timeout, in which case transmit data will be lost
   */
  while ( (sp->tx_out != sp->tx_in) && (sp->host_inactive < sp->timeout) ) {
  810e4c:	00000506 	br	810e64 <altera_avalon_jtag_uart_close+0x2c>
    if (flags & O_NONBLOCK) {
  810e50:	e0bfff17 	ldw	r2,-4(fp)
  810e54:	1090000c 	andi	r2,r2,16384
  810e58:	10000226 	beq	r2,zero,810e64 <altera_avalon_jtag_uart_close+0x2c>
      return -EWOULDBLOCK; 
  810e5c:	00bffd44 	movi	r2,-11
  810e60:	00000b06 	br	810e90 <altera_avalon_jtag_uart_close+0x58>
{
  /* 
   * Wait for all transmit data to be emptied by the JTAG UART ISR, or
   * for a host-inactivity timeout, in which case transmit data will be lost
   */
  while ( (sp->tx_out != sp->tx_in) && (sp->host_inactive < sp->timeout) ) {
  810e64:	e0bffe17 	ldw	r2,-8(fp)
  810e68:	10c00d17 	ldw	r3,52(r2)
  810e6c:	e0bffe17 	ldw	r2,-8(fp)
  810e70:	10800c17 	ldw	r2,48(r2)
  810e74:	18800526 	beq	r3,r2,810e8c <altera_avalon_jtag_uart_close+0x54>
  810e78:	e0bffe17 	ldw	r2,-8(fp)
  810e7c:	10c00917 	ldw	r3,36(r2)
  810e80:	e0bffe17 	ldw	r2,-8(fp)
  810e84:	10800117 	ldw	r2,4(r2)
  810e88:	18bff136 	bltu	r3,r2,810e50 <__alt_mem_onchip_mem+0xff790e50>
    if (flags & O_NONBLOCK) {
      return -EWOULDBLOCK; 
    }
  }

  return 0;
  810e8c:	0005883a 	mov	r2,zero
}
  810e90:	e037883a 	mov	sp,fp
  810e94:	df000017 	ldw	fp,0(sp)
  810e98:	dec00104 	addi	sp,sp,4
  810e9c:	f800283a 	ret

00810ea0 <altera_avalon_jtag_uart_ioctl>:
/* ----------------------------------------------------------- */

int 
altera_avalon_jtag_uart_ioctl(altera_avalon_jtag_uart_state* sp, int req,
  void* arg)
{
  810ea0:	defffa04 	addi	sp,sp,-24
  810ea4:	df000515 	stw	fp,20(sp)
  810ea8:	df000504 	addi	fp,sp,20
  810eac:	e13ffd15 	stw	r4,-12(fp)
  810eb0:	e17ffe15 	stw	r5,-8(fp)
  810eb4:	e1bfff15 	stw	r6,-4(fp)
  int rc = -ENOTTY;
  810eb8:	00bff9c4 	movi	r2,-25
  810ebc:	e0bffb15 	stw	r2,-20(fp)

  switch (req)
  810ec0:	e0bffe17 	ldw	r2,-8(fp)
  810ec4:	10da8060 	cmpeqi	r3,r2,27137
  810ec8:	1800031e 	bne	r3,zero,810ed8 <altera_avalon_jtag_uart_ioctl+0x38>
  810ecc:	109a80a0 	cmpeqi	r2,r2,27138
  810ed0:	1000181e 	bne	r2,zero,810f34 <altera_avalon_jtag_uart_ioctl+0x94>
      rc = 0;
    }
    break;

  default:
    break;
  810ed4:	00002906 	br	810f7c <altera_avalon_jtag_uart_ioctl+0xdc>

  switch (req)
  {
  case TIOCSTIMEOUT:
    /* Set the time to wait until assuming host is not connected */
    if (sp->timeout != INT_MAX)
  810ed8:	e0bffd17 	ldw	r2,-12(fp)
  810edc:	10c00117 	ldw	r3,4(r2)
  810ee0:	00a00034 	movhi	r2,32768
  810ee4:	10bfffc4 	addi	r2,r2,-1
  810ee8:	18802126 	beq	r3,r2,810f70 <altera_avalon_jtag_uart_ioctl+0xd0>
    {
      int timeout = *((int *)arg);
  810eec:	e0bfff17 	ldw	r2,-4(fp)
  810ef0:	10800017 	ldw	r2,0(r2)
  810ef4:	e0bffc15 	stw	r2,-16(fp)
      sp->timeout = (timeout >= 2 && timeout < INT_MAX) ? timeout : INT_MAX - 1;
  810ef8:	e0bffc17 	ldw	r2,-16(fp)
  810efc:	10800090 	cmplti	r2,r2,2
  810f00:	1000061e 	bne	r2,zero,810f1c <altera_avalon_jtag_uart_ioctl+0x7c>
  810f04:	e0fffc17 	ldw	r3,-16(fp)
  810f08:	00a00034 	movhi	r2,32768
  810f0c:	10bfffc4 	addi	r2,r2,-1
  810f10:	18800226 	beq	r3,r2,810f1c <altera_avalon_jtag_uart_ioctl+0x7c>
  810f14:	e0bffc17 	ldw	r2,-16(fp)
  810f18:	00000206 	br	810f24 <altera_avalon_jtag_uart_ioctl+0x84>
  810f1c:	00a00034 	movhi	r2,32768
  810f20:	10bfff84 	addi	r2,r2,-2
  810f24:	e0fffd17 	ldw	r3,-12(fp)
  810f28:	18800115 	stw	r2,4(r3)
      rc = 0;
  810f2c:	e03ffb15 	stw	zero,-20(fp)
    }
    break;
  810f30:	00000f06 	br	810f70 <altera_avalon_jtag_uart_ioctl+0xd0>

  case TIOCGCONNECTED:
    /* Find out whether host is connected */
    if (sp->timeout != INT_MAX)
  810f34:	e0bffd17 	ldw	r2,-12(fp)
  810f38:	10c00117 	ldw	r3,4(r2)
  810f3c:	00a00034 	movhi	r2,32768
  810f40:	10bfffc4 	addi	r2,r2,-1
  810f44:	18800c26 	beq	r3,r2,810f78 <altera_avalon_jtag_uart_ioctl+0xd8>
    {
      *((int *)arg) = (sp->host_inactive < sp->timeout) ? 1 : 0;
  810f48:	e0bffd17 	ldw	r2,-12(fp)
  810f4c:	10c00917 	ldw	r3,36(r2)
  810f50:	e0bffd17 	ldw	r2,-12(fp)
  810f54:	10800117 	ldw	r2,4(r2)
  810f58:	1885803a 	cmpltu	r2,r3,r2
  810f5c:	10c03fcc 	andi	r3,r2,255
  810f60:	e0bfff17 	ldw	r2,-4(fp)
  810f64:	10c00015 	stw	r3,0(r2)
      rc = 0;
  810f68:	e03ffb15 	stw	zero,-20(fp)
    }
    break;
  810f6c:	00000206 	br	810f78 <altera_avalon_jtag_uart_ioctl+0xd8>
    {
      int timeout = *((int *)arg);
      sp->timeout = (timeout >= 2 && timeout < INT_MAX) ? timeout : INT_MAX - 1;
      rc = 0;
    }
    break;
  810f70:	0001883a 	nop
  810f74:	00000106 	br	810f7c <altera_avalon_jtag_uart_ioctl+0xdc>
    if (sp->timeout != INT_MAX)
    {
      *((int *)arg) = (sp->host_inactive < sp->timeout) ? 1 : 0;
      rc = 0;
    }
    break;
  810f78:	0001883a 	nop

  default:
    break;
  }

  return rc;
  810f7c:	e0bffb17 	ldw	r2,-20(fp)
}
  810f80:	e037883a 	mov	sp,fp
  810f84:	df000017 	ldw	fp,0(sp)
  810f88:	dec00104 	addi	sp,sp,4
  810f8c:	f800283a 	ret

00810f90 <altera_avalon_jtag_uart_read>:
/* ----------------------------------------------------------- */

int 
altera_avalon_jtag_uart_read(altera_avalon_jtag_uart_state* sp, 
  char * buffer, int space, int flags)
{
  810f90:	defff304 	addi	sp,sp,-52
  810f94:	dfc00c15 	stw	ra,48(sp)
  810f98:	df000b15 	stw	fp,44(sp)
  810f9c:	df000b04 	addi	fp,sp,44
  810fa0:	e13ffc15 	stw	r4,-16(fp)
  810fa4:	e17ffd15 	stw	r5,-12(fp)
  810fa8:	e1bffe15 	stw	r6,-8(fp)
  810fac:	e1ffff15 	stw	r7,-4(fp)
  char * ptr = buffer;
  810fb0:	e0bffd17 	ldw	r2,-12(fp)
  810fb4:	e0bff515 	stw	r2,-44(fp)
   * When running in a multi threaded environment, obtain the "read_lock"
   * semaphore. This ensures that reading from the device is thread-safe.
   */
  ALT_SEM_PEND (sp->read_lock, 0);

  while (space > 0)
  810fb8:	00004706 	br	8110d8 <altera_avalon_jtag_uart_read+0x148>
    unsigned int in, out;

    /* Read as much data as possible */
    do
    {
      in  = sp->rx_in;
  810fbc:	e0bffc17 	ldw	r2,-16(fp)
  810fc0:	10800a17 	ldw	r2,40(r2)
  810fc4:	e0bff715 	stw	r2,-36(fp)
      out = sp->rx_out;
  810fc8:	e0bffc17 	ldw	r2,-16(fp)
  810fcc:	10800b17 	ldw	r2,44(r2)
  810fd0:	e0bff815 	stw	r2,-32(fp)

      if (in >= out)
  810fd4:	e0fff717 	ldw	r3,-36(fp)
  810fd8:	e0bff817 	ldw	r2,-32(fp)
  810fdc:	18800536 	bltu	r3,r2,810ff4 <altera_avalon_jtag_uart_read+0x64>
        n = in - out;
  810fe0:	e0fff717 	ldw	r3,-36(fp)
  810fe4:	e0bff817 	ldw	r2,-32(fp)
  810fe8:	1885c83a 	sub	r2,r3,r2
  810fec:	e0bff615 	stw	r2,-40(fp)
  810ff0:	00000406 	br	811004 <altera_avalon_jtag_uart_read+0x74>
      else
        n = ALTERA_AVALON_JTAG_UART_BUF_LEN - out;
  810ff4:	00c20004 	movi	r3,2048
  810ff8:	e0bff817 	ldw	r2,-32(fp)
  810ffc:	1885c83a 	sub	r2,r3,r2
  811000:	e0bff615 	stw	r2,-40(fp)

      if (n == 0)
  811004:	e0bff617 	ldw	r2,-40(fp)
  811008:	10001e26 	beq	r2,zero,811084 <altera_avalon_jtag_uart_read+0xf4>
        break; /* No more data available */

      if (n > space)
  81100c:	e0fffe17 	ldw	r3,-8(fp)
  811010:	e0bff617 	ldw	r2,-40(fp)
  811014:	1880022e 	bgeu	r3,r2,811020 <altera_avalon_jtag_uart_read+0x90>
        n = space;
  811018:	e0bffe17 	ldw	r2,-8(fp)
  81101c:	e0bff615 	stw	r2,-40(fp)

      memcpy(ptr, sp->rx_buf + out, n);
  811020:	e0bffc17 	ldw	r2,-16(fp)
  811024:	10c00e04 	addi	r3,r2,56
  811028:	e0bff817 	ldw	r2,-32(fp)
  81102c:	1885883a 	add	r2,r3,r2
  811030:	e1bff617 	ldw	r6,-40(fp)
  811034:	100b883a 	mov	r5,r2
  811038:	e13ff517 	ldw	r4,-44(fp)
  81103c:	08091240 	call	809124 <memcpy>
      ptr   += n;
  811040:	e0fff517 	ldw	r3,-44(fp)
  811044:	e0bff617 	ldw	r2,-40(fp)
  811048:	1885883a 	add	r2,r3,r2
  81104c:	e0bff515 	stw	r2,-44(fp)
      space -= n;
  811050:	e0fffe17 	ldw	r3,-8(fp)
  811054:	e0bff617 	ldw	r2,-40(fp)
  811058:	1885c83a 	sub	r2,r3,r2
  81105c:	e0bffe15 	stw	r2,-8(fp)

      sp->rx_out = (out + n) % ALTERA_AVALON_JTAG_UART_BUF_LEN;
  811060:	e0fff817 	ldw	r3,-32(fp)
  811064:	e0bff617 	ldw	r2,-40(fp)
  811068:	1885883a 	add	r2,r3,r2
  81106c:	10c1ffcc 	andi	r3,r2,2047
  811070:	e0bffc17 	ldw	r2,-16(fp)
  811074:	10c00b15 	stw	r3,44(r2)
    }
    while (space > 0);
  811078:	e0bffe17 	ldw	r2,-8(fp)
  81107c:	00bfcf16 	blt	zero,r2,810fbc <__alt_mem_onchip_mem+0xff790fbc>
  811080:	00000106 	br	811088 <altera_avalon_jtag_uart_read+0xf8>
        n = in - out;
      else
        n = ALTERA_AVALON_JTAG_UART_BUF_LEN - out;

      if (n == 0)
        break; /* No more data available */
  811084:	0001883a 	nop
      sp->rx_out = (out + n) % ALTERA_AVALON_JTAG_UART_BUF_LEN;
    }
    while (space > 0);

    /* If we read any data then return it */
    if (ptr != buffer)
  811088:	e0fff517 	ldw	r3,-44(fp)
  81108c:	e0bffd17 	ldw	r2,-12(fp)
  811090:	1880141e 	bne	r3,r2,8110e4 <altera_avalon_jtag_uart_read+0x154>
      break;

    /* If in non-blocking mode then return error */
    if (flags & O_NONBLOCK)
  811094:	e0bfff17 	ldw	r2,-4(fp)
  811098:	1090000c 	andi	r2,r2,16384
  81109c:	1000131e 	bne	r2,zero,8110ec <altera_avalon_jtag_uart_read+0x15c>
      while (in == sp->rx_in && sp->host_inactive < sp->timeout)
        ;
    }
#else
    /* No OS: Always spin */
    while (in == sp->rx_in && sp->host_inactive < sp->timeout)
  8110a0:	0001883a 	nop
  8110a4:	e0bffc17 	ldw	r2,-16(fp)
  8110a8:	10c00a17 	ldw	r3,40(r2)
  8110ac:	e0bff717 	ldw	r2,-36(fp)
  8110b0:	1880051e 	bne	r3,r2,8110c8 <altera_avalon_jtag_uart_read+0x138>
  8110b4:	e0bffc17 	ldw	r2,-16(fp)
  8110b8:	10c00917 	ldw	r3,36(r2)
  8110bc:	e0bffc17 	ldw	r2,-16(fp)
  8110c0:	10800117 	ldw	r2,4(r2)
  8110c4:	18bff736 	bltu	r3,r2,8110a4 <__alt_mem_onchip_mem+0xff7910a4>
      ;
#endif /* __ucosii__ */

    if (in == sp->rx_in)
  8110c8:	e0bffc17 	ldw	r2,-16(fp)
  8110cc:	10c00a17 	ldw	r3,40(r2)
  8110d0:	e0bff717 	ldw	r2,-36(fp)
  8110d4:	18800726 	beq	r3,r2,8110f4 <altera_avalon_jtag_uart_read+0x164>
   * When running in a multi threaded environment, obtain the "read_lock"
   * semaphore. This ensures that reading from the device is thread-safe.
   */
  ALT_SEM_PEND (sp->read_lock, 0);

  while (space > 0)
  8110d8:	e0bffe17 	ldw	r2,-8(fp)
  8110dc:	00bfb716 	blt	zero,r2,810fbc <__alt_mem_onchip_mem+0xff790fbc>
  8110e0:	00000506 	br	8110f8 <altera_avalon_jtag_uart_read+0x168>
    }
    while (space > 0);

    /* If we read any data then return it */
    if (ptr != buffer)
      break;
  8110e4:	0001883a 	nop
  8110e8:	00000306 	br	8110f8 <altera_avalon_jtag_uart_read+0x168>

    /* If in non-blocking mode then return error */
    if (flags & O_NONBLOCK)
      break;
  8110ec:	0001883a 	nop
  8110f0:	00000106 	br	8110f8 <altera_avalon_jtag_uart_read+0x168>
    while (in == sp->rx_in && sp->host_inactive < sp->timeout)
      ;
#endif /* __ucosii__ */

    if (in == sp->rx_in)
      break;
  8110f4:	0001883a 	nop
   * semaphore so that other threads can access the buffer.
   */

  ALT_SEM_POST (sp->read_lock);

  if (ptr != buffer)
  8110f8:	e0fff517 	ldw	r3,-44(fp)
  8110fc:	e0bffd17 	ldw	r2,-12(fp)
  811100:	18801826 	beq	r3,r2,811164 <altera_avalon_jtag_uart_read+0x1d4>
static ALT_INLINE alt_irq_context ALT_ALWAYS_INLINE 
       alt_irq_disable_all (void)
{
  alt_irq_context context;

  NIOS2_READ_STATUS (context);
  811104:	0005303a 	rdctl	r2,status
  811108:	e0bffb15 	stw	r2,-20(fp)

  NIOS2_WRITE_STATUS (context & ~NIOS2_STATUS_PIE_MSK);
  81110c:	e0fffb17 	ldw	r3,-20(fp)
  811110:	00bfff84 	movi	r2,-2
  811114:	1884703a 	and	r2,r3,r2
  811118:	1001703a 	wrctl	status,r2
  
  return context;
  81111c:	e0bffb17 	ldw	r2,-20(fp)
  {
    /* If we read any data then there is space in the buffer so enable interrupts */
    context = alt_irq_disable_all();
  811120:	e0bffa15 	stw	r2,-24(fp)
    sp->irq_enable |= ALTERA_AVALON_JTAG_UART_CONTROL_RE_MSK;
  811124:	e0bffc17 	ldw	r2,-16(fp)
  811128:	10800817 	ldw	r2,32(r2)
  81112c:	10c00054 	ori	r3,r2,1
  811130:	e0bffc17 	ldw	r2,-16(fp)
  811134:	10c00815 	stw	r3,32(r2)
    IOWR_ALTERA_AVALON_JTAG_UART_CONTROL(sp->base, sp->irq_enable);
  811138:	e0bffc17 	ldw	r2,-16(fp)
  81113c:	10800017 	ldw	r2,0(r2)
  811140:	10800104 	addi	r2,r2,4
  811144:	1007883a 	mov	r3,r2
  811148:	e0bffc17 	ldw	r2,-16(fp)
  81114c:	10800817 	ldw	r2,32(r2)
  811150:	18800035 	stwio	r2,0(r3)
  811154:	e0bffa17 	ldw	r2,-24(fp)
  811158:	e0bff915 	stw	r2,-28(fp)
  status &= ~NIOS2_STATUS_PIE_MSK;
  status |= (context & NIOS2_STATUS_PIE_MSK);
  
  NIOS2_WRITE_STATUS (status);
#else
  NIOS2_WRITE_STATUS (context);
  81115c:	e0bff917 	ldw	r2,-28(fp)
  811160:	1001703a 	wrctl	status,r2
    alt_irq_enable_all(context);
  }

  if (ptr != buffer)
  811164:	e0fff517 	ldw	r3,-44(fp)
  811168:	e0bffd17 	ldw	r2,-12(fp)
  81116c:	18800426 	beq	r3,r2,811180 <altera_avalon_jtag_uart_read+0x1f0>
    return ptr - buffer;
  811170:	e0fff517 	ldw	r3,-44(fp)
  811174:	e0bffd17 	ldw	r2,-12(fp)
  811178:	1885c83a 	sub	r2,r3,r2
  81117c:	00000606 	br	811198 <altera_avalon_jtag_uart_read+0x208>
  else if (flags & O_NONBLOCK)
  811180:	e0bfff17 	ldw	r2,-4(fp)
  811184:	1090000c 	andi	r2,r2,16384
  811188:	10000226 	beq	r2,zero,811194 <altera_avalon_jtag_uart_read+0x204>
    return -EWOULDBLOCK;
  81118c:	00bffd44 	movi	r2,-11
  811190:	00000106 	br	811198 <altera_avalon_jtag_uart_read+0x208>
  else
    return -EIO;
  811194:	00bffec4 	movi	r2,-5
}
  811198:	e037883a 	mov	sp,fp
  81119c:	dfc00117 	ldw	ra,4(sp)
  8111a0:	df000017 	ldw	fp,0(sp)
  8111a4:	dec00204 	addi	sp,sp,8
  8111a8:	f800283a 	ret

008111ac <altera_avalon_jtag_uart_write>:
/* ----------------------------------------------------------- */

int 
altera_avalon_jtag_uart_write(altera_avalon_jtag_uart_state* sp, 
  const char * ptr, int count, int flags)
{
  8111ac:	defff304 	addi	sp,sp,-52
  8111b0:	dfc00c15 	stw	ra,48(sp)
  8111b4:	df000b15 	stw	fp,44(sp)
  8111b8:	df000b04 	addi	fp,sp,44
  8111bc:	e13ffc15 	stw	r4,-16(fp)
  8111c0:	e17ffd15 	stw	r5,-12(fp)
  8111c4:	e1bffe15 	stw	r6,-8(fp)
  8111c8:	e1ffff15 	stw	r7,-4(fp)
  /* Remove warning at optimisation level 03 by seting out to 0 */
  unsigned int in, out=0;
  8111cc:	e03ff515 	stw	zero,-44(fp)
  unsigned int n;
  alt_irq_context context;

  const char * start = ptr;
  8111d0:	e0bffd17 	ldw	r2,-12(fp)
  8111d4:	e0bff715 	stw	r2,-36(fp)
  ALT_SEM_PEND (sp->write_lock, 0);

  do
  {
    /* Copy as much as we can into the transmit buffer */
    while (count > 0)
  8111d8:	00003706 	br	8112b8 <altera_avalon_jtag_uart_write+0x10c>
    {
      /* We need a stable value of the out pointer to calculate the space available */
      in  = sp->tx_in;
  8111dc:	e0bffc17 	ldw	r2,-16(fp)
  8111e0:	10800c17 	ldw	r2,48(r2)
  8111e4:	e0bff915 	stw	r2,-28(fp)
      out = sp->tx_out;
  8111e8:	e0bffc17 	ldw	r2,-16(fp)
  8111ec:	10800d17 	ldw	r2,52(r2)
  8111f0:	e0bff515 	stw	r2,-44(fp)

      if (in < out)
  8111f4:	e0fff917 	ldw	r3,-28(fp)
  8111f8:	e0bff517 	ldw	r2,-44(fp)
  8111fc:	1880062e 	bgeu	r3,r2,811218 <altera_avalon_jtag_uart_write+0x6c>
        n = out - 1 - in;
  811200:	e0fff517 	ldw	r3,-44(fp)
  811204:	e0bff917 	ldw	r2,-28(fp)
  811208:	1885c83a 	sub	r2,r3,r2
  81120c:	10bfffc4 	addi	r2,r2,-1
  811210:	e0bff615 	stw	r2,-40(fp)
  811214:	00000b06 	br	811244 <altera_avalon_jtag_uart_write+0x98>
      else if (out > 0)
  811218:	e0bff517 	ldw	r2,-44(fp)
  81121c:	10000526 	beq	r2,zero,811234 <altera_avalon_jtag_uart_write+0x88>
        n = ALTERA_AVALON_JTAG_UART_BUF_LEN - in;
  811220:	00c20004 	movi	r3,2048
  811224:	e0bff917 	ldw	r2,-28(fp)
  811228:	1885c83a 	sub	r2,r3,r2
  81122c:	e0bff615 	stw	r2,-40(fp)
  811230:	00000406 	br	811244 <altera_avalon_jtag_uart_write+0x98>
      else
        n = ALTERA_AVALON_JTAG_UART_BUF_LEN - 1 - in;
  811234:	00c1ffc4 	movi	r3,2047
  811238:	e0bff917 	ldw	r2,-28(fp)
  81123c:	1885c83a 	sub	r2,r3,r2
  811240:	e0bff615 	stw	r2,-40(fp)

      if (n == 0)
  811244:	e0bff617 	ldw	r2,-40(fp)
  811248:	10001e26 	beq	r2,zero,8112c4 <altera_avalon_jtag_uart_write+0x118>
        break;

      if (n > count)
  81124c:	e0fffe17 	ldw	r3,-8(fp)
  811250:	e0bff617 	ldw	r2,-40(fp)
  811254:	1880022e 	bgeu	r3,r2,811260 <altera_avalon_jtag_uart_write+0xb4>
        n = count;
  811258:	e0bffe17 	ldw	r2,-8(fp)
  81125c:	e0bff615 	stw	r2,-40(fp)

      memcpy(sp->tx_buf + in, ptr, n);
  811260:	e0bffc17 	ldw	r2,-16(fp)
  811264:	10c20e04 	addi	r3,r2,2104
  811268:	e0bff917 	ldw	r2,-28(fp)
  81126c:	1885883a 	add	r2,r3,r2
  811270:	e1bff617 	ldw	r6,-40(fp)
  811274:	e17ffd17 	ldw	r5,-12(fp)
  811278:	1009883a 	mov	r4,r2
  81127c:	08091240 	call	809124 <memcpy>
      ptr   += n;
  811280:	e0fffd17 	ldw	r3,-12(fp)
  811284:	e0bff617 	ldw	r2,-40(fp)
  811288:	1885883a 	add	r2,r3,r2
  81128c:	e0bffd15 	stw	r2,-12(fp)
      count -= n;
  811290:	e0fffe17 	ldw	r3,-8(fp)
  811294:	e0bff617 	ldw	r2,-40(fp)
  811298:	1885c83a 	sub	r2,r3,r2
  81129c:	e0bffe15 	stw	r2,-8(fp)

      sp->tx_in = (in + n) % ALTERA_AVALON_JTAG_UART_BUF_LEN;
  8112a0:	e0fff917 	ldw	r3,-28(fp)
  8112a4:	e0bff617 	ldw	r2,-40(fp)
  8112a8:	1885883a 	add	r2,r3,r2
  8112ac:	10c1ffcc 	andi	r3,r2,2047
  8112b0:	e0bffc17 	ldw	r2,-16(fp)
  8112b4:	10c00c15 	stw	r3,48(r2)
  ALT_SEM_PEND (sp->write_lock, 0);

  do
  {
    /* Copy as much as we can into the transmit buffer */
    while (count > 0)
  8112b8:	e0bffe17 	ldw	r2,-8(fp)
  8112bc:	00bfc716 	blt	zero,r2,8111dc <__alt_mem_onchip_mem+0xff7911dc>
  8112c0:	00000106 	br	8112c8 <altera_avalon_jtag_uart_write+0x11c>
        n = ALTERA_AVALON_JTAG_UART_BUF_LEN - in;
      else
        n = ALTERA_AVALON_JTAG_UART_BUF_LEN - 1 - in;

      if (n == 0)
        break;
  8112c4:	0001883a 	nop
static ALT_INLINE alt_irq_context ALT_ALWAYS_INLINE 
       alt_irq_disable_all (void)
{
  alt_irq_context context;

  NIOS2_READ_STATUS (context);
  8112c8:	0005303a 	rdctl	r2,status
  8112cc:	e0bffb15 	stw	r2,-20(fp)

  NIOS2_WRITE_STATUS (context & ~NIOS2_STATUS_PIE_MSK);
  8112d0:	e0fffb17 	ldw	r3,-20(fp)
  8112d4:	00bfff84 	movi	r2,-2
  8112d8:	1884703a 	and	r2,r3,r2
  8112dc:	1001703a 	wrctl	status,r2
  
  return context;
  8112e0:	e0bffb17 	ldw	r2,-20(fp)
     * to enable interrupts if there is no space left in the FIFO
     *
     * For now kick the interrupt routine every time to make it transmit 
     * the data 
     */
    context = alt_irq_disable_all();
  8112e4:	e0bffa15 	stw	r2,-24(fp)
    sp->irq_enable |= ALTERA_AVALON_JTAG_UART_CONTROL_WE_MSK;
  8112e8:	e0bffc17 	ldw	r2,-16(fp)
  8112ec:	10800817 	ldw	r2,32(r2)
  8112f0:	10c00094 	ori	r3,r2,2
  8112f4:	e0bffc17 	ldw	r2,-16(fp)
  8112f8:	10c00815 	stw	r3,32(r2)
    IOWR_ALTERA_AVALON_JTAG_UART_CONTROL(sp->base, sp->irq_enable);
  8112fc:	e0bffc17 	ldw	r2,-16(fp)
  811300:	10800017 	ldw	r2,0(r2)
  811304:	10800104 	addi	r2,r2,4
  811308:	1007883a 	mov	r3,r2
  81130c:	e0bffc17 	ldw	r2,-16(fp)
  811310:	10800817 	ldw	r2,32(r2)
  811314:	18800035 	stwio	r2,0(r3)
  811318:	e0bffa17 	ldw	r2,-24(fp)
  81131c:	e0bff815 	stw	r2,-32(fp)
  status &= ~NIOS2_STATUS_PIE_MSK;
  status |= (context & NIOS2_STATUS_PIE_MSK);
  
  NIOS2_WRITE_STATUS (status);
#else
  NIOS2_WRITE_STATUS (context);
  811320:	e0bff817 	ldw	r2,-32(fp)
  811324:	1001703a 	wrctl	status,r2
    /* 
     * If there is any data left then either return now or block until 
     * some has been sent 
     */
    /* consider: test whether there is anything there while doing this and delay for at most 2s. */
    if (count > 0)
  811328:	e0bffe17 	ldw	r2,-8(fp)
  81132c:	0080100e 	bge	zero,r2,811370 <altera_avalon_jtag_uart_write+0x1c4>
    {
      if (flags & O_NONBLOCK)
  811330:	e0bfff17 	ldw	r2,-4(fp)
  811334:	1090000c 	andi	r2,r2,16384
  811338:	1000101e 	bne	r2,zero,81137c <altera_avalon_jtag_uart_write+0x1d0>
      /*
       * No OS present: Always wait for data to be removed from buffer.  Once
       * the interrupt routine has removed some data then we will be able to
       * insert some more.
       */
      while (out == sp->tx_out && sp->host_inactive < sp->timeout)
  81133c:	0001883a 	nop
  811340:	e0bffc17 	ldw	r2,-16(fp)
  811344:	10c00d17 	ldw	r3,52(r2)
  811348:	e0bff517 	ldw	r2,-44(fp)
  81134c:	1880051e 	bne	r3,r2,811364 <altera_avalon_jtag_uart_write+0x1b8>
  811350:	e0bffc17 	ldw	r2,-16(fp)
  811354:	10c00917 	ldw	r3,36(r2)
  811358:	e0bffc17 	ldw	r2,-16(fp)
  81135c:	10800117 	ldw	r2,4(r2)
  811360:	18bff736 	bltu	r3,r2,811340 <__alt_mem_onchip_mem+0xff791340>
        ;
#endif /* __ucosii__ */

      if  (sp->host_inactive)
  811364:	e0bffc17 	ldw	r2,-16(fp)
  811368:	10800917 	ldw	r2,36(r2)
  81136c:	1000051e 	bne	r2,zero,811384 <altera_avalon_jtag_uart_write+0x1d8>
         break;
    }
  }
  while (count > 0);
  811370:	e0bffe17 	ldw	r2,-8(fp)
  811374:	00bfd016 	blt	zero,r2,8112b8 <__alt_mem_onchip_mem+0xff7912b8>
  811378:	00000306 	br	811388 <altera_avalon_jtag_uart_write+0x1dc>
     */
    /* consider: test whether there is anything there while doing this and delay for at most 2s. */
    if (count > 0)
    {
      if (flags & O_NONBLOCK)
        break;
  81137c:	0001883a 	nop
  811380:	00000106 	br	811388 <altera_avalon_jtag_uart_write+0x1dc>
      while (out == sp->tx_out && sp->host_inactive < sp->timeout)
        ;
#endif /* __ucosii__ */

      if  (sp->host_inactive)
         break;
  811384:	0001883a 	nop
   * Now that access to the circular buffer is complete, release the write
   * semaphore so that other threads can access the buffer.
   */
  ALT_SEM_POST (sp->write_lock);

  if (ptr != start)
  811388:	e0fffd17 	ldw	r3,-12(fp)
  81138c:	e0bff717 	ldw	r2,-36(fp)
  811390:	18800426 	beq	r3,r2,8113a4 <altera_avalon_jtag_uart_write+0x1f8>
    return ptr - start;
  811394:	e0fffd17 	ldw	r3,-12(fp)
  811398:	e0bff717 	ldw	r2,-36(fp)
  81139c:	1885c83a 	sub	r2,r3,r2
  8113a0:	00000606 	br	8113bc <altera_avalon_jtag_uart_write+0x210>
  else if (flags & O_NONBLOCK)
  8113a4:	e0bfff17 	ldw	r2,-4(fp)
  8113a8:	1090000c 	andi	r2,r2,16384
  8113ac:	10000226 	beq	r2,zero,8113b8 <altera_avalon_jtag_uart_write+0x20c>
    return -EWOULDBLOCK;
  8113b0:	00bffd44 	movi	r2,-11
  8113b4:	00000106 	br	8113bc <altera_avalon_jtag_uart_write+0x210>
    sp->tx_out = sp->tx_in = 0;
    return ptr - start + count;
  }
#endif
  else
    return -EIO; /* Host not connected */
  8113b8:	00bffec4 	movi	r2,-5
}
  8113bc:	e037883a 	mov	sp,fp
  8113c0:	dfc00117 	ldw	ra,4(sp)
  8113c4:	df000017 	ldw	fp,0(sp)
  8113c8:	dec00204 	addi	sp,sp,8
  8113cc:	f800283a 	ret

008113d0 <lcd_write_command>:

/* --------------------------------------------------------------------- */

static void lcd_write_command(altera_avalon_lcd_16207_state* sp, 
  unsigned char command)
{
  8113d0:	defffa04 	addi	sp,sp,-24
  8113d4:	dfc00515 	stw	ra,20(sp)
  8113d8:	df000415 	stw	fp,16(sp)
  8113dc:	df000404 	addi	fp,sp,16
  8113e0:	e13ffe15 	stw	r4,-8(fp)
  8113e4:	2805883a 	mov	r2,r5
  8113e8:	e0bfff05 	stb	r2,-4(fp)
  unsigned int base = sp->base;
  8113ec:	e0bffe17 	ldw	r2,-8(fp)
  8113f0:	10800017 	ldw	r2,0(r2)
  8113f4:	e0bffd15 	stw	r2,-12(fp)
  /* We impose a timeout on the driver in case the LCD panel isn't connected.
   * The first time we call this function the timeout is approx 25ms 
   * (assuming 5 cycles per loop and a 200MHz clock).  Obviously systems
   * with slower clocks, or debug builds, or slower memory will take longer.
   */
  int i = 1000000;
  8113f8:	008003f4 	movhi	r2,15
  8113fc:	10909004 	addi	r2,r2,16960
  811400:	e0bffc15 	stw	r2,-16(fp)

  /* Don't bother if the LCD panel didn't work before */
  if (sp->broken)
  811404:	e0bffe17 	ldw	r2,-8(fp)
  811408:	10800803 	ldbu	r2,32(r2)
  81140c:	10803fcc 	andi	r2,r2,255
  811410:	1080201c 	xori	r2,r2,128
  811414:	10bfe004 	addi	r2,r2,-128
  811418:	1000151e 	bne	r2,zero,811470 <lcd_write_command+0xa0>
    return;

  /* Wait until LCD isn't busy. */
  while (IORD_ALTERA_AVALON_LCD_16207_STATUS(base) & ALTERA_AVALON_LCD_16207_STATUS_BUSY_MSK)
  81141c:	00000906 	br	811444 <lcd_write_command+0x74>
    if (--i == 0)
  811420:	e0bffc17 	ldw	r2,-16(fp)
  811424:	10bfffc4 	addi	r2,r2,-1
  811428:	e0bffc15 	stw	r2,-16(fp)
  81142c:	e0bffc17 	ldw	r2,-16(fp)
  811430:	1000041e 	bne	r2,zero,811444 <lcd_write_command+0x74>
    {
      sp->broken = 1;
  811434:	e0bffe17 	ldw	r2,-8(fp)
  811438:	00c00044 	movi	r3,1
  81143c:	10c00805 	stb	r3,32(r2)
      return;
  811440:	00000c06 	br	811474 <lcd_write_command+0xa4>
  /* Don't bother if the LCD panel didn't work before */
  if (sp->broken)
    return;

  /* Wait until LCD isn't busy. */
  while (IORD_ALTERA_AVALON_LCD_16207_STATUS(base) & ALTERA_AVALON_LCD_16207_STATUS_BUSY_MSK)
  811444:	e0bffd17 	ldw	r2,-12(fp)
  811448:	10800104 	addi	r2,r2,4
  81144c:	10800037 	ldwio	r2,0(r2)
  811450:	1080200c 	andi	r2,r2,128
  811454:	103ff21e 	bne	r2,zero,811420 <__alt_mem_onchip_mem+0xff791420>
    }

  /* Despite what it says in the datasheet, the LCD isn't ready to accept
   * a write immediately after it returns BUSY=0.  Wait for 100us more.
   */
  usleep(100);
  811458:	01001904 	movi	r4,100
  81145c:	08134b00 	call	8134b0 <usleep>

  IOWR_ALTERA_AVALON_LCD_16207_COMMAND(base, command);
  811460:	e0bffd17 	ldw	r2,-12(fp)
  811464:	e0ffff03 	ldbu	r3,-4(fp)
  811468:	10c00035 	stwio	r3,0(r2)
  81146c:	00000106 	br	811474 <lcd_write_command+0xa4>
   */
  int i = 1000000;

  /* Don't bother if the LCD panel didn't work before */
  if (sp->broken)
    return;
  811470:	0001883a 	nop
   * a write immediately after it returns BUSY=0.  Wait for 100us more.
   */
  usleep(100);

  IOWR_ALTERA_AVALON_LCD_16207_COMMAND(base, command);
}
  811474:	e037883a 	mov	sp,fp
  811478:	dfc00117 	ldw	ra,4(sp)
  81147c:	df000017 	ldw	fp,0(sp)
  811480:	dec00204 	addi	sp,sp,8
  811484:	f800283a 	ret

00811488 <lcd_write_data>:

/* --------------------------------------------------------------------- */

static void lcd_write_data(altera_avalon_lcd_16207_state* sp, 
  unsigned char data)
{
  811488:	defffa04 	addi	sp,sp,-24
  81148c:	dfc00515 	stw	ra,20(sp)
  811490:	df000415 	stw	fp,16(sp)
  811494:	df000404 	addi	fp,sp,16
  811498:	e13ffe15 	stw	r4,-8(fp)
  81149c:	2805883a 	mov	r2,r5
  8114a0:	e0bfff05 	stb	r2,-4(fp)
  unsigned int base = sp->base;
  8114a4:	e0bffe17 	ldw	r2,-8(fp)
  8114a8:	10800017 	ldw	r2,0(r2)
  8114ac:	e0bffd15 	stw	r2,-12(fp)
  /* We impose a timeout on the driver in case the LCD panel isn't connected.
   * The first time we call this function the timeout is approx 25ms 
   * (assuming 5 cycles per loop and a 200MHz clock).  Obviously systems
   * with slower clocks, or debug builds, or slower memory will take longer.
   */
  int i = 1000000;
  8114b0:	008003f4 	movhi	r2,15
  8114b4:	10909004 	addi	r2,r2,16960
  8114b8:	e0bffc15 	stw	r2,-16(fp)

  /* Don't bother if the LCD panel didn't work before */
  if (sp->broken)
  8114bc:	e0bffe17 	ldw	r2,-8(fp)
  8114c0:	10800803 	ldbu	r2,32(r2)
  8114c4:	10803fcc 	andi	r2,r2,255
  8114c8:	1080201c 	xori	r2,r2,128
  8114cc:	10bfe004 	addi	r2,r2,-128
  8114d0:	10001d1e 	bne	r2,zero,811548 <lcd_write_data+0xc0>
    return;

  /* Wait until LCD isn't busy. */
  while (IORD_ALTERA_AVALON_LCD_16207_STATUS(base) & ALTERA_AVALON_LCD_16207_STATUS_BUSY_MSK)
  8114d4:	00000906 	br	8114fc <lcd_write_data+0x74>
    if (--i == 0)
  8114d8:	e0bffc17 	ldw	r2,-16(fp)
  8114dc:	10bfffc4 	addi	r2,r2,-1
  8114e0:	e0bffc15 	stw	r2,-16(fp)
  8114e4:	e0bffc17 	ldw	r2,-16(fp)
  8114e8:	1000041e 	bne	r2,zero,8114fc <lcd_write_data+0x74>
    {
      sp->broken = 1;
  8114ec:	e0bffe17 	ldw	r2,-8(fp)
  8114f0:	00c00044 	movi	r3,1
  8114f4:	10c00805 	stb	r3,32(r2)
      return;
  8114f8:	00001406 	br	81154c <lcd_write_data+0xc4>
  /* Don't bother if the LCD panel didn't work before */
  if (sp->broken)
    return;

  /* Wait until LCD isn't busy. */
  while (IORD_ALTERA_AVALON_LCD_16207_STATUS(base) & ALTERA_AVALON_LCD_16207_STATUS_BUSY_MSK)
  8114fc:	e0bffd17 	ldw	r2,-12(fp)
  811500:	10800104 	addi	r2,r2,4
  811504:	10800037 	ldwio	r2,0(r2)
  811508:	1080200c 	andi	r2,r2,128
  81150c:	103ff21e 	bne	r2,zero,8114d8 <__alt_mem_onchip_mem+0xff7914d8>
    }

  /* Despite what it says in the datasheet, the LCD isn't ready to accept
   * a write immediately after it returns BUSY=0.  Wait for 100us more.
   */
  usleep(100);
  811510:	01001904 	movi	r4,100
  811514:	08134b00 	call	8134b0 <usleep>

  IOWR_ALTERA_AVALON_LCD_16207_DATA(base, data);
  811518:	e0bffd17 	ldw	r2,-12(fp)
  81151c:	10800204 	addi	r2,r2,8
  811520:	1007883a 	mov	r3,r2
  811524:	e0bfff03 	ldbu	r2,-4(fp)
  811528:	18800035 	stwio	r2,0(r3)

  sp->address++;
  81152c:	e0bffe17 	ldw	r2,-8(fp)
  811530:	108008c3 	ldbu	r2,35(r2)
  811534:	10800044 	addi	r2,r2,1
  811538:	1007883a 	mov	r3,r2
  81153c:	e0bffe17 	ldw	r2,-8(fp)
  811540:	10c008c5 	stb	r3,35(r2)
  811544:	00000106 	br	81154c <lcd_write_data+0xc4>
   */
  int i = 1000000;

  /* Don't bother if the LCD panel didn't work before */
  if (sp->broken)
    return;
  811548:	0001883a 	nop
  usleep(100);

  IOWR_ALTERA_AVALON_LCD_16207_DATA(base, data);

  sp->address++;
}
  81154c:	e037883a 	mov	sp,fp
  811550:	dfc00117 	ldw	ra,4(sp)
  811554:	df000017 	ldw	fp,0(sp)
  811558:	dec00204 	addi	sp,sp,8
  81155c:	f800283a 	ret

00811560 <lcd_clear_screen>:

/* --------------------------------------------------------------------- */

static void lcd_clear_screen(altera_avalon_lcd_16207_state* sp)
{
  811560:	defffc04 	addi	sp,sp,-16
  811564:	dfc00315 	stw	ra,12(sp)
  811568:	df000215 	stw	fp,8(sp)
  81156c:	df000204 	addi	fp,sp,8
  811570:	e13fff15 	stw	r4,-4(fp)
  int y;

  lcd_write_command(sp, LCD_CMD_CLEAR);
  811574:	01400044 	movi	r5,1
  811578:	e13fff17 	ldw	r4,-4(fp)
  81157c:	08113d00 	call	8113d0 <lcd_write_command>

  sp->x = 0;
  811580:	e0bfff17 	ldw	r2,-4(fp)
  811584:	10000845 	stb	zero,33(r2)
  sp->y = 0;
  811588:	e0bfff17 	ldw	r2,-4(fp)
  81158c:	10000885 	stb	zero,34(r2)
  sp->address = 0;
  811590:	e0bfff17 	ldw	r2,-4(fp)
  811594:	100008c5 	stb	zero,35(r2)

  for (y = 0 ; y < ALT_LCD_HEIGHT ; y++)
  811598:	e03ffe15 	stw	zero,-8(fp)
  81159c:	00001b06 	br	81160c <lcd_clear_screen+0xac>
  {
    memset(sp->line[y].data, ' ', sizeof(sp->line[0].data));
  8115a0:	e0bffe17 	ldw	r2,-8(fp)
  8115a4:	108018e4 	muli	r2,r2,99
  8115a8:	10801004 	addi	r2,r2,64
  8115ac:	e0ffff17 	ldw	r3,-4(fp)
  8115b0:	1885883a 	add	r2,r3,r2
  8115b4:	01801444 	movi	r6,81
  8115b8:	01400804 	movi	r5,32
  8115bc:	1009883a 	mov	r4,r2
  8115c0:	08044040 	call	804404 <memset>
    memset(sp->line[y].visible, ' ', sizeof(sp->line[0].visible));
  8115c4:	e0bffe17 	ldw	r2,-8(fp)
  8115c8:	108018e4 	muli	r2,r2,99
  8115cc:	10800c04 	addi	r2,r2,48
  8115d0:	e0ffff17 	ldw	r3,-4(fp)
  8115d4:	1885883a 	add	r2,r3,r2
  8115d8:	01800404 	movi	r6,16
  8115dc:	01400804 	movi	r5,32
  8115e0:	1009883a 	mov	r4,r2
  8115e4:	08044040 	call	804404 <memset>
    sp->line[y].width = 0;
  8115e8:	e0ffff17 	ldw	r3,-4(fp)
  8115ec:	e0bffe17 	ldw	r2,-8(fp)
  8115f0:	108018e4 	muli	r2,r2,99
  8115f4:	1885883a 	add	r2,r3,r2
  8115f8:	10802444 	addi	r2,r2,145
  8115fc:	10000005 	stb	zero,0(r2)

  sp->x = 0;
  sp->y = 0;
  sp->address = 0;

  for (y = 0 ; y < ALT_LCD_HEIGHT ; y++)
  811600:	e0bffe17 	ldw	r2,-8(fp)
  811604:	10800044 	addi	r2,r2,1
  811608:	e0bffe15 	stw	r2,-8(fp)
  81160c:	e0bffe17 	ldw	r2,-8(fp)
  811610:	10800090 	cmplti	r2,r2,2
  811614:	103fe21e 	bne	r2,zero,8115a0 <__alt_mem_onchip_mem+0xff7915a0>
  {
    memset(sp->line[y].data, ' ', sizeof(sp->line[0].data));
    memset(sp->line[y].visible, ' ', sizeof(sp->line[0].visible));
    sp->line[y].width = 0;
  }
}
  811618:	0001883a 	nop
  81161c:	e037883a 	mov	sp,fp
  811620:	dfc00117 	ldw	ra,4(sp)
  811624:	df000017 	ldw	fp,0(sp)
  811628:	dec00204 	addi	sp,sp,8
  81162c:	f800283a 	ret

00811630 <lcd_repaint_screen>:

/* --------------------------------------------------------------------- */

static void lcd_repaint_screen(altera_avalon_lcd_16207_state* sp)
{
  811630:	defff704 	addi	sp,sp,-36
  811634:	dfc00815 	stw	ra,32(sp)
  811638:	df000715 	stw	fp,28(sp)
  81163c:	df000704 	addi	fp,sp,28
  811640:	e13fff15 	stw	r4,-4(fp)
  /* scrollpos controls how much the lines have scrolled round.  The speed
   * each line scrolls at is controlled by its speed variable - while
   * scrolline lines will wrap at the position set by width
   */

  int scrollpos = sp->scrollpos;
  811644:	e0bfff17 	ldw	r2,-4(fp)
  811648:	10800943 	ldbu	r2,37(r2)
  81164c:	10803fcc 	andi	r2,r2,255
  811650:	e0bffc15 	stw	r2,-16(fp)

  for (y = 0 ; y < ALT_LCD_HEIGHT ; y++)
  811654:	e03ff915 	stw	zero,-28(fp)
  811658:	00006706 	br	8117f8 <lcd_repaint_screen+0x1c8>
  {
    int width  = sp->line[y].width;
  81165c:	e0ffff17 	ldw	r3,-4(fp)
  811660:	e0bff917 	ldw	r2,-28(fp)
  811664:	108018e4 	muli	r2,r2,99
  811668:	1885883a 	add	r2,r3,r2
  81166c:	10802444 	addi	r2,r2,145
  811670:	10800003 	ldbu	r2,0(r2)
  811674:	10803fcc 	andi	r2,r2,255
  811678:	1080201c 	xori	r2,r2,128
  81167c:	10bfe004 	addi	r2,r2,-128
  811680:	e0bffd15 	stw	r2,-12(fp)
    int offset = (scrollpos * sp->line[y].speed) >> 8;
  811684:	e0ffff17 	ldw	r3,-4(fp)
  811688:	e0bff917 	ldw	r2,-28(fp)
  81168c:	108018e4 	muli	r2,r2,99
  811690:	1885883a 	add	r2,r3,r2
  811694:	10802484 	addi	r2,r2,146
  811698:	10800003 	ldbu	r2,0(r2)
  81169c:	10c03fcc 	andi	r3,r2,255
  8116a0:	e0bffc17 	ldw	r2,-16(fp)
  8116a4:	1885383a 	mul	r2,r3,r2
  8116a8:	1005d23a 	srai	r2,r2,8
  8116ac:	e0bffb15 	stw	r2,-20(fp)
    if (offset >= width)
  8116b0:	e0fffb17 	ldw	r3,-20(fp)
  8116b4:	e0bffd17 	ldw	r2,-12(fp)
  8116b8:	18800116 	blt	r3,r2,8116c0 <lcd_repaint_screen+0x90>
      offset = 0;
  8116bc:	e03ffb15 	stw	zero,-20(fp)

    for (x = 0 ; x < ALT_LCD_WIDTH ; x++)
  8116c0:	e03ffa15 	stw	zero,-24(fp)
  8116c4:	00004606 	br	8117e0 <lcd_repaint_screen+0x1b0>
    {
      char c = sp->line[y].data[(x + offset) % width];
  8116c8:	e0fffa17 	ldw	r3,-24(fp)
  8116cc:	e0bffb17 	ldw	r2,-20(fp)
  8116d0:	1885883a 	add	r2,r3,r2
  8116d4:	e17ffd17 	ldw	r5,-12(fp)
  8116d8:	1009883a 	mov	r4,r2
  8116dc:	080d2600 	call	80d260 <__modsi3>
  8116e0:	1009883a 	mov	r4,r2
  8116e4:	e0ffff17 	ldw	r3,-4(fp)
  8116e8:	e0bff917 	ldw	r2,-28(fp)
  8116ec:	108018e4 	muli	r2,r2,99
  8116f0:	1885883a 	add	r2,r3,r2
  8116f4:	1105883a 	add	r2,r2,r4
  8116f8:	10801004 	addi	r2,r2,64
  8116fc:	10800003 	ldbu	r2,0(r2)
  811700:	e0bffe05 	stb	r2,-8(fp)

      /* Writing data takes 40us, so don't do it unless required */
      if (sp->line[y].visible[x] != c)
  811704:	e0ffff17 	ldw	r3,-4(fp)
  811708:	e0bff917 	ldw	r2,-28(fp)
  81170c:	108018e4 	muli	r2,r2,99
  811710:	1887883a 	add	r3,r3,r2
  811714:	e0bffa17 	ldw	r2,-24(fp)
  811718:	1885883a 	add	r2,r3,r2
  81171c:	10800c04 	addi	r2,r2,48
  811720:	10800003 	ldbu	r2,0(r2)
  811724:	10c03fcc 	andi	r3,r2,255
  811728:	18c0201c 	xori	r3,r3,128
  81172c:	18ffe004 	addi	r3,r3,-128
  811730:	e0bffe07 	ldb	r2,-8(fp)
  811734:	18802726 	beq	r3,r2,8117d4 <lcd_repaint_screen+0x1a4>
      {
        unsigned char address = x + colstart[y];
  811738:	e0fff917 	ldw	r3,-28(fp)
  81173c:	d0a01004 	addi	r2,gp,-32704
  811740:	1885883a 	add	r2,r3,r2
  811744:	10800003 	ldbu	r2,0(r2)
  811748:	1007883a 	mov	r3,r2
  81174c:	e0bffa17 	ldw	r2,-24(fp)
  811750:	1885883a 	add	r2,r3,r2
  811754:	e0bffe45 	stb	r2,-7(fp)

        if (address != sp->address)
  811758:	e0fffe43 	ldbu	r3,-7(fp)
  81175c:	e0bfff17 	ldw	r2,-4(fp)
  811760:	108008c3 	ldbu	r2,35(r2)
  811764:	10803fcc 	andi	r2,r2,255
  811768:	1080201c 	xori	r2,r2,128
  81176c:	10bfe004 	addi	r2,r2,-128
  811770:	18800a26 	beq	r3,r2,81179c <lcd_repaint_screen+0x16c>
        {
          lcd_write_command(sp, LCD_CMD_WRITE_DATA | address);
  811774:	e0fffe43 	ldbu	r3,-7(fp)
  811778:	00bfe004 	movi	r2,-128
  81177c:	1884b03a 	or	r2,r3,r2
  811780:	10803fcc 	andi	r2,r2,255
  811784:	100b883a 	mov	r5,r2
  811788:	e13fff17 	ldw	r4,-4(fp)
  81178c:	08113d00 	call	8113d0 <lcd_write_command>
          sp->address = address;
  811790:	e0fffe43 	ldbu	r3,-7(fp)
  811794:	e0bfff17 	ldw	r2,-4(fp)
  811798:	10c008c5 	stb	r3,35(r2)
        }

        lcd_write_data(sp, c);
  81179c:	e0bffe03 	ldbu	r2,-8(fp)
  8117a0:	10803fcc 	andi	r2,r2,255
  8117a4:	100b883a 	mov	r5,r2
  8117a8:	e13fff17 	ldw	r4,-4(fp)
  8117ac:	08114880 	call	811488 <lcd_write_data>
        sp->line[y].visible[x] = c;
  8117b0:	e0ffff17 	ldw	r3,-4(fp)
  8117b4:	e0bff917 	ldw	r2,-28(fp)
  8117b8:	108018e4 	muli	r2,r2,99
  8117bc:	1887883a 	add	r3,r3,r2
  8117c0:	e0bffa17 	ldw	r2,-24(fp)
  8117c4:	1885883a 	add	r2,r3,r2
  8117c8:	10800c04 	addi	r2,r2,48
  8117cc:	e0fffe03 	ldbu	r3,-8(fp)
  8117d0:	10c00005 	stb	r3,0(r2)
    int width  = sp->line[y].width;
    int offset = (scrollpos * sp->line[y].speed) >> 8;
    if (offset >= width)
      offset = 0;

    for (x = 0 ; x < ALT_LCD_WIDTH ; x++)
  8117d4:	e0bffa17 	ldw	r2,-24(fp)
  8117d8:	10800044 	addi	r2,r2,1
  8117dc:	e0bffa15 	stw	r2,-24(fp)
  8117e0:	e0bffa17 	ldw	r2,-24(fp)
  8117e4:	10800410 	cmplti	r2,r2,16
  8117e8:	103fb71e 	bne	r2,zero,8116c8 <__alt_mem_onchip_mem+0xff7916c8>
   * scrolline lines will wrap at the position set by width
   */

  int scrollpos = sp->scrollpos;

  for (y = 0 ; y < ALT_LCD_HEIGHT ; y++)
  8117ec:	e0bff917 	ldw	r2,-28(fp)
  8117f0:	10800044 	addi	r2,r2,1
  8117f4:	e0bff915 	stw	r2,-28(fp)
  8117f8:	e0bff917 	ldw	r2,-28(fp)
  8117fc:	10800090 	cmplti	r2,r2,2
  811800:	103f961e 	bne	r2,zero,81165c <__alt_mem_onchip_mem+0xff79165c>
        lcd_write_data(sp, c);
        sp->line[y].visible[x] = c;
      }
    }
  }
}
  811804:	0001883a 	nop
  811808:	e037883a 	mov	sp,fp
  81180c:	dfc00117 	ldw	ra,4(sp)
  811810:	df000017 	ldw	fp,0(sp)
  811814:	dec00204 	addi	sp,sp,8
  811818:	f800283a 	ret

0081181c <lcd_scroll_up>:

/* --------------------------------------------------------------------- */

static void lcd_scroll_up(altera_avalon_lcd_16207_state* sp)
{
  81181c:	defffc04 	addi	sp,sp,-16
  811820:	dfc00315 	stw	ra,12(sp)
  811824:	df000215 	stw	fp,8(sp)
  811828:	df000204 	addi	fp,sp,8
  81182c:	e13fff15 	stw	r4,-4(fp)
  int y;

  for (y = 0 ; y < ALT_LCD_HEIGHT ; y++)
  811830:	e03ffe15 	stw	zero,-8(fp)
  811834:	00001d06 	br	8118ac <lcd_scroll_up+0x90>
  {
    if (y < ALT_LCD_HEIGHT-1)
  811838:	e0bffe17 	ldw	r2,-8(fp)
  81183c:	00800f16 	blt	zero,r2,81187c <lcd_scroll_up+0x60>
      memcpy(sp->line[y].data, sp->line[y+1].data, ALT_LCD_VIRTUAL_WIDTH);
  811840:	e0bffe17 	ldw	r2,-8(fp)
  811844:	108018e4 	muli	r2,r2,99
  811848:	10801004 	addi	r2,r2,64
  81184c:	e0ffff17 	ldw	r3,-4(fp)
  811850:	1889883a 	add	r4,r3,r2
  811854:	e0bffe17 	ldw	r2,-8(fp)
  811858:	10800044 	addi	r2,r2,1
  81185c:	108018e4 	muli	r2,r2,99
  811860:	10801004 	addi	r2,r2,64
  811864:	e0ffff17 	ldw	r3,-4(fp)
  811868:	1885883a 	add	r2,r3,r2
  81186c:	01801404 	movi	r6,80
  811870:	100b883a 	mov	r5,r2
  811874:	08091240 	call	809124 <memcpy>
  811878:	00000906 	br	8118a0 <lcd_scroll_up+0x84>
    else
      memset(sp->line[y].data, ' ', ALT_LCD_VIRTUAL_WIDTH);
  81187c:	e0bffe17 	ldw	r2,-8(fp)
  811880:	108018e4 	muli	r2,r2,99
  811884:	10801004 	addi	r2,r2,64
  811888:	e0ffff17 	ldw	r3,-4(fp)
  81188c:	1885883a 	add	r2,r3,r2
  811890:	01801404 	movi	r6,80
  811894:	01400804 	movi	r5,32
  811898:	1009883a 	mov	r4,r2
  81189c:	08044040 	call	804404 <memset>

static void lcd_scroll_up(altera_avalon_lcd_16207_state* sp)
{
  int y;

  for (y = 0 ; y < ALT_LCD_HEIGHT ; y++)
  8118a0:	e0bffe17 	ldw	r2,-8(fp)
  8118a4:	10800044 	addi	r2,r2,1
  8118a8:	e0bffe15 	stw	r2,-8(fp)
  8118ac:	e0bffe17 	ldw	r2,-8(fp)
  8118b0:	10800090 	cmplti	r2,r2,2
  8118b4:	103fe01e 	bne	r2,zero,811838 <__alt_mem_onchip_mem+0xff791838>
      memcpy(sp->line[y].data, sp->line[y+1].data, ALT_LCD_VIRTUAL_WIDTH);
    else
      memset(sp->line[y].data, ' ', ALT_LCD_VIRTUAL_WIDTH);
  }

  sp->y--;
  8118b8:	e0bfff17 	ldw	r2,-4(fp)
  8118bc:	10800883 	ldbu	r2,34(r2)
  8118c0:	10bfffc4 	addi	r2,r2,-1
  8118c4:	1007883a 	mov	r3,r2
  8118c8:	e0bfff17 	ldw	r2,-4(fp)
  8118cc:	10c00885 	stb	r3,34(r2)
}
  8118d0:	0001883a 	nop
  8118d4:	e037883a 	mov	sp,fp
  8118d8:	dfc00117 	ldw	ra,4(sp)
  8118dc:	df000017 	ldw	fp,0(sp)
  8118e0:	dec00204 	addi	sp,sp,8
  8118e4:	f800283a 	ret

008118e8 <lcd_handle_escape>:

/* --------------------------------------------------------------------- */

static void lcd_handle_escape(altera_avalon_lcd_16207_state* sp, char c)
{
  8118e8:	defff904 	addi	sp,sp,-28
  8118ec:	dfc00615 	stw	ra,24(sp)
  8118f0:	df000515 	stw	fp,20(sp)
  8118f4:	df000504 	addi	fp,sp,20
  8118f8:	e13ffe15 	stw	r4,-8(fp)
  8118fc:	2805883a 	mov	r2,r5
  811900:	e0bfff05 	stb	r2,-4(fp)
  int parm1 = 0, parm2 = 0;
  811904:	e03ffb15 	stw	zero,-20(fp)
  811908:	e03ffc15 	stw	zero,-16(fp)

  if (sp->escape[0] == '[')
  81190c:	e0bffe17 	ldw	r2,-8(fp)
  811910:	10800a03 	ldbu	r2,40(r2)
  811914:	10803fcc 	andi	r2,r2,255
  811918:	1080201c 	xori	r2,r2,128
  81191c:	10bfe004 	addi	r2,r2,-128
  811920:	108016d8 	cmpnei	r2,r2,91
  811924:	1000411e 	bne	r2,zero,811a2c <lcd_handle_escape+0x144>
  {
    char * ptr = sp->escape+1;
  811928:	e0bffe17 	ldw	r2,-8(fp)
  81192c:	10800a04 	addi	r2,r2,40
  811930:	10800044 	addi	r2,r2,1
  811934:	e0bffd15 	stw	r2,-12(fp)
    while (isdigit(*ptr))
  811938:	00000c06 	br	81196c <lcd_handle_escape+0x84>
      parm1 = (parm1 * 10) + (*ptr++ - '0');
  81193c:	e0bffb17 	ldw	r2,-20(fp)
  811940:	10c002a4 	muli	r3,r2,10
  811944:	e0bffd17 	ldw	r2,-12(fp)
  811948:	11000044 	addi	r4,r2,1
  81194c:	e13ffd15 	stw	r4,-12(fp)
  811950:	10800003 	ldbu	r2,0(r2)
  811954:	10803fcc 	andi	r2,r2,255
  811958:	1080201c 	xori	r2,r2,128
  81195c:	10bfe004 	addi	r2,r2,-128
  811960:	10bff404 	addi	r2,r2,-48
  811964:	1885883a 	add	r2,r3,r2
  811968:	e0bffb15 	stw	r2,-20(fp)
  int parm1 = 0, parm2 = 0;

  if (sp->escape[0] == '[')
  {
    char * ptr = sp->escape+1;
    while (isdigit(*ptr))
  81196c:	d0e01217 	ldw	r3,-32696(gp)
  811970:	e0bffd17 	ldw	r2,-12(fp)
  811974:	10800003 	ldbu	r2,0(r2)
  811978:	10803fcc 	andi	r2,r2,255
  81197c:	1080201c 	xori	r2,r2,128
  811980:	10bfe004 	addi	r2,r2,-128
  811984:	10800044 	addi	r2,r2,1
  811988:	1885883a 	add	r2,r3,r2
  81198c:	10800003 	ldbu	r2,0(r2)
  811990:	10803fcc 	andi	r2,r2,255
  811994:	1080010c 	andi	r2,r2,4
  811998:	103fe81e 	bne	r2,zero,81193c <__alt_mem_onchip_mem+0xff79193c>
      parm1 = (parm1 * 10) + (*ptr++ - '0');

    if (*ptr == ';')
  81199c:	e0bffd17 	ldw	r2,-12(fp)
  8119a0:	10800003 	ldbu	r2,0(r2)
  8119a4:	10803fcc 	andi	r2,r2,255
  8119a8:	1080201c 	xori	r2,r2,128
  8119ac:	10bfe004 	addi	r2,r2,-128
  8119b0:	10800ed8 	cmpnei	r2,r2,59
  8119b4:	10001f1e 	bne	r2,zero,811a34 <lcd_handle_escape+0x14c>
    {
      ptr++;
  8119b8:	e0bffd17 	ldw	r2,-12(fp)
  8119bc:	10800044 	addi	r2,r2,1
  8119c0:	e0bffd15 	stw	r2,-12(fp)
      while (isdigit(*ptr))
  8119c4:	00000c06 	br	8119f8 <lcd_handle_escape+0x110>
        parm2 = (parm2 * 10) + (*ptr++ - '0');
  8119c8:	e0bffc17 	ldw	r2,-16(fp)
  8119cc:	10c002a4 	muli	r3,r2,10
  8119d0:	e0bffd17 	ldw	r2,-12(fp)
  8119d4:	11000044 	addi	r4,r2,1
  8119d8:	e13ffd15 	stw	r4,-12(fp)
  8119dc:	10800003 	ldbu	r2,0(r2)
  8119e0:	10803fcc 	andi	r2,r2,255
  8119e4:	1080201c 	xori	r2,r2,128
  8119e8:	10bfe004 	addi	r2,r2,-128
  8119ec:	10bff404 	addi	r2,r2,-48
  8119f0:	1885883a 	add	r2,r3,r2
  8119f4:	e0bffc15 	stw	r2,-16(fp)
      parm1 = (parm1 * 10) + (*ptr++ - '0');

    if (*ptr == ';')
    {
      ptr++;
      while (isdigit(*ptr))
  8119f8:	d0e01217 	ldw	r3,-32696(gp)
  8119fc:	e0bffd17 	ldw	r2,-12(fp)
  811a00:	10800003 	ldbu	r2,0(r2)
  811a04:	10803fcc 	andi	r2,r2,255
  811a08:	1080201c 	xori	r2,r2,128
  811a0c:	10bfe004 	addi	r2,r2,-128
  811a10:	10800044 	addi	r2,r2,1
  811a14:	1885883a 	add	r2,r3,r2
  811a18:	10800003 	ldbu	r2,0(r2)
  811a1c:	10803fcc 	andi	r2,r2,255
  811a20:	1080010c 	andi	r2,r2,4
  811a24:	103fe81e 	bne	r2,zero,8119c8 <__alt_mem_onchip_mem+0xff7919c8>
  811a28:	00000206 	br	811a34 <lcd_handle_escape+0x14c>
        parm2 = (parm2 * 10) + (*ptr++ - '0');
    }
  }
  else
    parm1 = -1;
  811a2c:	00bfffc4 	movi	r2,-1
  811a30:	e0bffb15 	stw	r2,-20(fp)

  switch (c)
  811a34:	e0bfff07 	ldb	r2,-4(fp)
  811a38:	10c012a0 	cmpeqi	r3,r2,74
  811a3c:	1800291e 	bne	r3,zero,811ae4 <lcd_handle_escape+0x1fc>
  811a40:	10c012c8 	cmpgei	r3,r2,75
  811a44:	1800031e 	bne	r3,zero,811a54 <lcd_handle_escape+0x16c>
  811a48:	10801220 	cmpeqi	r2,r2,72
  811a4c:	1000061e 	bne	r2,zero,811a68 <lcd_handle_escape+0x180>
      if (sp->x < ALT_LCD_VIRTUAL_WIDTH)
        memset(sp->line[sp->y].data + sp->x, ' ', ALT_LCD_VIRTUAL_WIDTH - sp->x);
    }
    break;
  }
}
  811a50:	00004a06 	br	811b7c <lcd_handle_escape+0x294>
    }
  }
  else
    parm1 = -1;

  switch (c)
  811a54:	10c012e0 	cmpeqi	r3,r2,75
  811a58:	1800281e 	bne	r3,zero,811afc <lcd_handle_escape+0x214>
  811a5c:	108019a0 	cmpeqi	r2,r2,102
  811a60:	1000011e 	bne	r2,zero,811a68 <lcd_handle_escape+0x180>
      if (sp->x < ALT_LCD_VIRTUAL_WIDTH)
        memset(sp->line[sp->y].data + sp->x, ' ', ALT_LCD_VIRTUAL_WIDTH - sp->x);
    }
    break;
  }
}
  811a64:	00004506 	br	811b7c <lcd_handle_escape+0x294>

  switch (c)
  {
  case 'H': /* ESC '[' <y> ';' <x> 'H'  : Move cursor to location */
  case 'f': /* Same as above */
    if (parm2 > 0)
  811a68:	e0bffc17 	ldw	r2,-16(fp)
  811a6c:	0080050e 	bge	zero,r2,811a84 <lcd_handle_escape+0x19c>
      sp->x = parm2 - 1;
  811a70:	e0bffc17 	ldw	r2,-16(fp)
  811a74:	10bfffc4 	addi	r2,r2,-1
  811a78:	1007883a 	mov	r3,r2
  811a7c:	e0bffe17 	ldw	r2,-8(fp)
  811a80:	10c00845 	stb	r3,33(r2)
    if (parm1 > 0)
  811a84:	e0bffb17 	ldw	r2,-20(fp)
  811a88:	0080370e 	bge	zero,r2,811b68 <lcd_handle_escape+0x280>
    {
      sp->y = parm1 - 1;
  811a8c:	e0bffb17 	ldw	r2,-20(fp)
  811a90:	10bfffc4 	addi	r2,r2,-1
  811a94:	1007883a 	mov	r3,r2
  811a98:	e0bffe17 	ldw	r2,-8(fp)
  811a9c:	10c00885 	stb	r3,34(r2)
      if (sp->y > ALT_LCD_HEIGHT * 2)
  811aa0:	e0bffe17 	ldw	r2,-8(fp)
  811aa4:	10800883 	ldbu	r2,34(r2)
  811aa8:	10803fcc 	andi	r2,r2,255
  811aac:	10800170 	cmpltui	r2,r2,5
  811ab0:	1000061e 	bne	r2,zero,811acc <lcd_handle_escape+0x1e4>
        sp->y = ALT_LCD_HEIGHT * 2;
  811ab4:	e0bffe17 	ldw	r2,-8(fp)
  811ab8:	00c00104 	movi	r3,4
  811abc:	10c00885 	stb	r3,34(r2)
      while (sp->y > ALT_LCD_HEIGHT)
  811ac0:	00000206 	br	811acc <lcd_handle_escape+0x1e4>
        lcd_scroll_up(sp);
  811ac4:	e13ffe17 	ldw	r4,-8(fp)
  811ac8:	081181c0 	call	81181c <lcd_scroll_up>
    if (parm1 > 0)
    {
      sp->y = parm1 - 1;
      if (sp->y > ALT_LCD_HEIGHT * 2)
        sp->y = ALT_LCD_HEIGHT * 2;
      while (sp->y > ALT_LCD_HEIGHT)
  811acc:	e0bffe17 	ldw	r2,-8(fp)
  811ad0:	10800883 	ldbu	r2,34(r2)
  811ad4:	10803fcc 	andi	r2,r2,255
  811ad8:	108000e8 	cmpgeui	r2,r2,3
  811adc:	103ff91e 	bne	r2,zero,811ac4 <__alt_mem_onchip_mem+0xff791ac4>
        lcd_scroll_up(sp);
    }
    break;
  811ae0:	00002106 	br	811b68 <lcd_handle_escape+0x280>
    /*   ESC J      is clear to beginning of line    [unimplemented]
     *   ESC [ 0 J  is clear to bottom of screen     [unimplemented]
     *   ESC [ 1 J  is clear to beginning of screen  [unimplemented]
     *   ESC [ 2 J  is clear screen
     */
    if (parm1 == 2)
  811ae4:	e0bffb17 	ldw	r2,-20(fp)
  811ae8:	10800098 	cmpnei	r2,r2,2
  811aec:	1000201e 	bne	r2,zero,811b70 <lcd_handle_escape+0x288>
      lcd_clear_screen(sp);
  811af0:	e13ffe17 	ldw	r4,-8(fp)
  811af4:	08115600 	call	811560 <lcd_clear_screen>
    break;
  811af8:	00001d06 	br	811b70 <lcd_handle_escape+0x288>
    /*   ESC K      is clear to end of line
     *   ESC [ 0 K  is clear to end of line
     *   ESC [ 1 K  is clear to beginning of line    [unimplemented]
     *   ESC [ 2 K  is clear line                    [unimplemented]
     */
    if (parm1 < 1)
  811afc:	e0bffb17 	ldw	r2,-20(fp)
  811b00:	00801d16 	blt	zero,r2,811b78 <lcd_handle_escape+0x290>
    {
      if (sp->x < ALT_LCD_VIRTUAL_WIDTH)
  811b04:	e0bffe17 	ldw	r2,-8(fp)
  811b08:	10800843 	ldbu	r2,33(r2)
  811b0c:	10803fcc 	andi	r2,r2,255
  811b10:	10801428 	cmpgeui	r2,r2,80
  811b14:	1000181e 	bne	r2,zero,811b78 <lcd_handle_escape+0x290>
        memset(sp->line[sp->y].data + sp->x, ' ', ALT_LCD_VIRTUAL_WIDTH - sp->x);
  811b18:	e0bffe17 	ldw	r2,-8(fp)
  811b1c:	10800883 	ldbu	r2,34(r2)
  811b20:	10803fcc 	andi	r2,r2,255
  811b24:	108018e4 	muli	r2,r2,99
  811b28:	10801004 	addi	r2,r2,64
  811b2c:	e0fffe17 	ldw	r3,-8(fp)
  811b30:	1887883a 	add	r3,r3,r2
  811b34:	e0bffe17 	ldw	r2,-8(fp)
  811b38:	10800843 	ldbu	r2,33(r2)
  811b3c:	10803fcc 	andi	r2,r2,255
  811b40:	1889883a 	add	r4,r3,r2
  811b44:	e0bffe17 	ldw	r2,-8(fp)
  811b48:	10800843 	ldbu	r2,33(r2)
  811b4c:	10803fcc 	andi	r2,r2,255
  811b50:	00c01404 	movi	r3,80
  811b54:	1885c83a 	sub	r2,r3,r2
  811b58:	100d883a 	mov	r6,r2
  811b5c:	01400804 	movi	r5,32
  811b60:	08044040 	call	804404 <memset>
    }
    break;
  811b64:	00000406 	br	811b78 <lcd_handle_escape+0x290>
      if (sp->y > ALT_LCD_HEIGHT * 2)
        sp->y = ALT_LCD_HEIGHT * 2;
      while (sp->y > ALT_LCD_HEIGHT)
        lcd_scroll_up(sp);
    }
    break;
  811b68:	0001883a 	nop
  811b6c:	00000306 	br	811b7c <lcd_handle_escape+0x294>
     *   ESC [ 1 J  is clear to beginning of screen  [unimplemented]
     *   ESC [ 2 J  is clear screen
     */
    if (parm1 == 2)
      lcd_clear_screen(sp);
    break;
  811b70:	0001883a 	nop
  811b74:	00000106 	br	811b7c <lcd_handle_escape+0x294>
    if (parm1 < 1)
    {
      if (sp->x < ALT_LCD_VIRTUAL_WIDTH)
        memset(sp->line[sp->y].data + sp->x, ' ', ALT_LCD_VIRTUAL_WIDTH - sp->x);
    }
    break;
  811b78:	0001883a 	nop
  }
}
  811b7c:	0001883a 	nop
  811b80:	e037883a 	mov	sp,fp
  811b84:	dfc00117 	ldw	ra,4(sp)
  811b88:	df000017 	ldw	fp,0(sp)
  811b8c:	dec00204 	addi	sp,sp,8
  811b90:	f800283a 	ret

00811b94 <altera_avalon_lcd_16207_write>:

/* --------------------------------------------------------------------- */

int altera_avalon_lcd_16207_write(altera_avalon_lcd_16207_state* sp, 
  const char* ptr, int len, int flags)
{
  811b94:	defff304 	addi	sp,sp,-52
  811b98:	dfc00c15 	stw	ra,48(sp)
  811b9c:	df000b15 	stw	fp,44(sp)
  811ba0:	df000b04 	addi	fp,sp,44
  811ba4:	e13ffc15 	stw	r4,-16(fp)
  811ba8:	e17ffd15 	stw	r5,-12(fp)
  811bac:	e1bffe15 	stw	r6,-8(fp)
  811bb0:	e1ffff15 	stw	r7,-4(fp)
  const char* end = ptr + len;
  811bb4:	e0bffe17 	ldw	r2,-8(fp)
  811bb8:	e0fffd17 	ldw	r3,-12(fp)
  811bbc:	1885883a 	add	r2,r3,r2
  811bc0:	e0bff815 	stw	r2,-32(fp)

  ALT_SEM_PEND (sp->write_lock, 0);

  /* Tell the routine which is called off the timer interrupt that the
   * foreground routines are active so it must not repaint the display. */
  sp->active = 1;
  811bc4:	e0bffc17 	ldw	r2,-16(fp)
  811bc8:	00c00044 	movi	r3,1
  811bcc:	10c009c5 	stb	r3,39(r2)

  for ( ; ptr < end ; ptr++)
  811bd0:	00009906 	br	811e38 <altera_avalon_lcd_16207_write+0x2a4>
  {
    char c = *ptr;
  811bd4:	e0bffd17 	ldw	r2,-12(fp)
  811bd8:	10800003 	ldbu	r2,0(r2)
  811bdc:	e0bff905 	stb	r2,-28(fp)

    if (sp->esccount >= 0)
  811be0:	e0bffc17 	ldw	r2,-16(fp)
  811be4:	10800903 	ldbu	r2,36(r2)
  811be8:	10803fcc 	andi	r2,r2,255
  811bec:	1080201c 	xori	r2,r2,128
  811bf0:	10bfe004 	addi	r2,r2,-128
  811bf4:	10003716 	blt	r2,zero,811cd4 <altera_avalon_lcd_16207_write+0x140>
    {
      unsigned int esccount = sp->esccount;
  811bf8:	e0bffc17 	ldw	r2,-16(fp)
  811bfc:	10800903 	ldbu	r2,36(r2)
  811c00:	10803fcc 	andi	r2,r2,255
  811c04:	1080201c 	xori	r2,r2,128
  811c08:	10bfe004 	addi	r2,r2,-128
  811c0c:	e0bffa15 	stw	r2,-24(fp)

      /* Single character escape sequences can end with any character
       * Multi character escape sequences start with '[' and contain
       * digits and semicolons before terminating
       */
      if ((esccount == 0 && c != '[') ||
  811c10:	e0bffa17 	ldw	r2,-24(fp)
  811c14:	1000031e 	bne	r2,zero,811c24 <altera_avalon_lcd_16207_write+0x90>
  811c18:	e0bff907 	ldb	r2,-28(fp)
  811c1c:	108016d8 	cmpnei	r2,r2,91
  811c20:	10000d1e 	bne	r2,zero,811c58 <altera_avalon_lcd_16207_write+0xc4>
  811c24:	e0bffa17 	ldw	r2,-24(fp)
  811c28:	10001826 	beq	r2,zero,811c8c <altera_avalon_lcd_16207_write+0xf8>
          (esccount > 0 && !isdigit(c) && c != ';'))
  811c2c:	d0e01217 	ldw	r3,-32696(gp)
  811c30:	e0bff907 	ldb	r2,-28(fp)
  811c34:	10800044 	addi	r2,r2,1
  811c38:	1885883a 	add	r2,r3,r2
  811c3c:	10800003 	ldbu	r2,0(r2)
  811c40:	10803fcc 	andi	r2,r2,255
  811c44:	1080010c 	andi	r2,r2,4
  811c48:	1000101e 	bne	r2,zero,811c8c <altera_avalon_lcd_16207_write+0xf8>
  811c4c:	e0bff907 	ldb	r2,-28(fp)
  811c50:	10800ee0 	cmpeqi	r2,r2,59
  811c54:	10000d1e 	bne	r2,zero,811c8c <altera_avalon_lcd_16207_write+0xf8>
      {
        sp->escape[esccount] = 0;
  811c58:	e0fffc17 	ldw	r3,-16(fp)
  811c5c:	e0bffa17 	ldw	r2,-24(fp)
  811c60:	1885883a 	add	r2,r3,r2
  811c64:	10800a04 	addi	r2,r2,40
  811c68:	10000005 	stb	zero,0(r2)

        lcd_handle_escape(sp, c);
  811c6c:	e0bff907 	ldb	r2,-28(fp)
  811c70:	100b883a 	mov	r5,r2
  811c74:	e13ffc17 	ldw	r4,-16(fp)
  811c78:	08118e80 	call	8118e8 <lcd_handle_escape>

        sp->esccount = -1;
  811c7c:	e0bffc17 	ldw	r2,-16(fp)
  811c80:	00ffffc4 	movi	r3,-1
  811c84:	10c00905 	stb	r3,36(r2)
  811c88:	00006806 	br	811e2c <altera_avalon_lcd_16207_write+0x298>
      }
      else if (sp->esccount < sizeof(sp->escape)-1)
  811c8c:	e0bffc17 	ldw	r2,-16(fp)
  811c90:	10800903 	ldbu	r2,36(r2)
  811c94:	10803fcc 	andi	r2,r2,255
  811c98:	108001e8 	cmpgeui	r2,r2,7
  811c9c:	1000631e 	bne	r2,zero,811e2c <altera_avalon_lcd_16207_write+0x298>
      {
        sp->escape[esccount] = c;
  811ca0:	e0fffc17 	ldw	r3,-16(fp)
  811ca4:	e0bffa17 	ldw	r2,-24(fp)
  811ca8:	1885883a 	add	r2,r3,r2
  811cac:	10800a04 	addi	r2,r2,40
  811cb0:	e0fff903 	ldbu	r3,-28(fp)
  811cb4:	10c00005 	stb	r3,0(r2)
        sp->esccount++;
  811cb8:	e0bffc17 	ldw	r2,-16(fp)
  811cbc:	10800903 	ldbu	r2,36(r2)
  811cc0:	10800044 	addi	r2,r2,1
  811cc4:	1007883a 	mov	r3,r2
  811cc8:	e0bffc17 	ldw	r2,-16(fp)
  811ccc:	10c00905 	stb	r3,36(r2)
  811cd0:	00005606 	br	811e2c <altera_avalon_lcd_16207_write+0x298>
      }
    }
    else if (c == 27) /* ESC */
  811cd4:	e0bff907 	ldb	r2,-28(fp)
  811cd8:	108006d8 	cmpnei	r2,r2,27
  811cdc:	1000031e 	bne	r2,zero,811cec <altera_avalon_lcd_16207_write+0x158>
    {
      sp->esccount = 0;
  811ce0:	e0bffc17 	ldw	r2,-16(fp)
  811ce4:	10000905 	stb	zero,36(r2)
  811ce8:	00005006 	br	811e2c <altera_avalon_lcd_16207_write+0x298>
    }
    else if (c == '\r')
  811cec:	e0bff907 	ldb	r2,-28(fp)
  811cf0:	10800358 	cmpnei	r2,r2,13
  811cf4:	1000031e 	bne	r2,zero,811d04 <altera_avalon_lcd_16207_write+0x170>
    {
      sp->x = 0;
  811cf8:	e0bffc17 	ldw	r2,-16(fp)
  811cfc:	10000845 	stb	zero,33(r2)
  811d00:	00004a06 	br	811e2c <altera_avalon_lcd_16207_write+0x298>
    }
    else if (c == '\n')
  811d04:	e0bff907 	ldb	r2,-28(fp)
  811d08:	10800298 	cmpnei	r2,r2,10
  811d0c:	1000101e 	bne	r2,zero,811d50 <altera_avalon_lcd_16207_write+0x1bc>
    {
      sp->x = 0;
  811d10:	e0bffc17 	ldw	r2,-16(fp)
  811d14:	10000845 	stb	zero,33(r2)
      sp->y++;
  811d18:	e0bffc17 	ldw	r2,-16(fp)
  811d1c:	10800883 	ldbu	r2,34(r2)
  811d20:	10800044 	addi	r2,r2,1
  811d24:	1007883a 	mov	r3,r2
  811d28:	e0bffc17 	ldw	r2,-16(fp)
  811d2c:	10c00885 	stb	r3,34(r2)

      /* Let the cursor sit at X=0, Y=HEIGHT without scrolling so the user
       * can print two lines of data without losing one.
       */
      if (sp->y > ALT_LCD_HEIGHT)
  811d30:	e0bffc17 	ldw	r2,-16(fp)
  811d34:	10800883 	ldbu	r2,34(r2)
  811d38:	10803fcc 	andi	r2,r2,255
  811d3c:	108000f0 	cmpltui	r2,r2,3
  811d40:	10003a1e 	bne	r2,zero,811e2c <altera_avalon_lcd_16207_write+0x298>
        lcd_scroll_up(sp);
  811d44:	e13ffc17 	ldw	r4,-16(fp)
  811d48:	081181c0 	call	81181c <lcd_scroll_up>
  811d4c:	00003706 	br	811e2c <altera_avalon_lcd_16207_write+0x298>
    }
    else if (c == '\b')
  811d50:	e0bff907 	ldb	r2,-28(fp)
  811d54:	10800218 	cmpnei	r2,r2,8
  811d58:	10000b1e 	bne	r2,zero,811d88 <altera_avalon_lcd_16207_write+0x1f4>
    {
      if (sp->x > 0)
  811d5c:	e0bffc17 	ldw	r2,-16(fp)
  811d60:	10800843 	ldbu	r2,33(r2)
  811d64:	10803fcc 	andi	r2,r2,255
  811d68:	10003026 	beq	r2,zero,811e2c <altera_avalon_lcd_16207_write+0x298>
        sp->x--;
  811d6c:	e0bffc17 	ldw	r2,-16(fp)
  811d70:	10800843 	ldbu	r2,33(r2)
  811d74:	10bfffc4 	addi	r2,r2,-1
  811d78:	1007883a 	mov	r3,r2
  811d7c:	e0bffc17 	ldw	r2,-16(fp)
  811d80:	10c00845 	stb	r3,33(r2)
  811d84:	00002906 	br	811e2c <altera_avalon_lcd_16207_write+0x298>
    }
    else if (isprint(c))
  811d88:	d0e01217 	ldw	r3,-32696(gp)
  811d8c:	e0bff907 	ldb	r2,-28(fp)
  811d90:	10800044 	addi	r2,r2,1
  811d94:	1885883a 	add	r2,r3,r2
  811d98:	10800003 	ldbu	r2,0(r2)
  811d9c:	10803fcc 	andi	r2,r2,255
  811da0:	1080201c 	xori	r2,r2,128
  811da4:	10bfe004 	addi	r2,r2,-128
  811da8:	108025cc 	andi	r2,r2,151
  811dac:	10001f26 	beq	r2,zero,811e2c <altera_avalon_lcd_16207_write+0x298>
    {
      /* If we didn't scroll on the last linefeed then we might need to do
       * it now. */
      if (sp->y >= ALT_LCD_HEIGHT)
  811db0:	e0bffc17 	ldw	r2,-16(fp)
  811db4:	10800883 	ldbu	r2,34(r2)
  811db8:	10803fcc 	andi	r2,r2,255
  811dbc:	108000b0 	cmpltui	r2,r2,2
  811dc0:	1000021e 	bne	r2,zero,811dcc <altera_avalon_lcd_16207_write+0x238>
        lcd_scroll_up(sp);
  811dc4:	e13ffc17 	ldw	r4,-16(fp)
  811dc8:	081181c0 	call	81181c <lcd_scroll_up>

      if (sp->x < ALT_LCD_VIRTUAL_WIDTH)
  811dcc:	e0bffc17 	ldw	r2,-16(fp)
  811dd0:	10800843 	ldbu	r2,33(r2)
  811dd4:	10803fcc 	andi	r2,r2,255
  811dd8:	10801428 	cmpgeui	r2,r2,80
  811ddc:	10000d1e 	bne	r2,zero,811e14 <altera_avalon_lcd_16207_write+0x280>
        sp->line[sp->y].data[sp->x] = c;
  811de0:	e0bffc17 	ldw	r2,-16(fp)
  811de4:	10800883 	ldbu	r2,34(r2)
  811de8:	10c03fcc 	andi	r3,r2,255
  811dec:	e0bffc17 	ldw	r2,-16(fp)
  811df0:	10800843 	ldbu	r2,33(r2)
  811df4:	10803fcc 	andi	r2,r2,255
  811df8:	e13ffc17 	ldw	r4,-16(fp)
  811dfc:	18c018e4 	muli	r3,r3,99
  811e00:	20c7883a 	add	r3,r4,r3
  811e04:	1885883a 	add	r2,r3,r2
  811e08:	10801004 	addi	r2,r2,64
  811e0c:	e0fff903 	ldbu	r3,-28(fp)
  811e10:	10c00005 	stb	r3,0(r2)

      sp->x++;
  811e14:	e0bffc17 	ldw	r2,-16(fp)
  811e18:	10800843 	ldbu	r2,33(r2)
  811e1c:	10800044 	addi	r2,r2,1
  811e20:	1007883a 	mov	r3,r2
  811e24:	e0bffc17 	ldw	r2,-16(fp)
  811e28:	10c00845 	stb	r3,33(r2)

  /* Tell the routine which is called off the timer interrupt that the
   * foreground routines are active so it must not repaint the display. */
  sp->active = 1;

  for ( ; ptr < end ; ptr++)
  811e2c:	e0bffd17 	ldw	r2,-12(fp)
  811e30:	10800044 	addi	r2,r2,1
  811e34:	e0bffd15 	stw	r2,-12(fp)
  811e38:	e0fffd17 	ldw	r3,-12(fp)
  811e3c:	e0bff817 	ldw	r2,-32(fp)
  811e40:	18bf6436 	bltu	r3,r2,811bd4 <__alt_mem_onchip_mem+0xff791bd4>
      sp->x++;
    }
  }

  /* Recalculate the scrolling parameters */
  widthmax = ALT_LCD_WIDTH;
  811e44:	00800404 	movi	r2,16
  811e48:	e0bff615 	stw	r2,-40(fp)
  for (y = 0 ; y < ALT_LCD_HEIGHT ; y++)
  811e4c:	e03ff515 	stw	zero,-44(fp)
  811e50:	00003706 	br	811f30 <altera_avalon_lcd_16207_write+0x39c>
  {
    int width;
    for (width = ALT_LCD_VIRTUAL_WIDTH ; width > 0 ; width--)
  811e54:	00801404 	movi	r2,80
  811e58:	e0bff715 	stw	r2,-36(fp)
  811e5c:	00001106 	br	811ea4 <altera_avalon_lcd_16207_write+0x310>
      if (sp->line[y].data[width-1] != ' ')
  811e60:	e0bff717 	ldw	r2,-36(fp)
  811e64:	10bfffc4 	addi	r2,r2,-1
  811e68:	e13ffc17 	ldw	r4,-16(fp)
  811e6c:	e0fff517 	ldw	r3,-44(fp)
  811e70:	18c018e4 	muli	r3,r3,99
  811e74:	20c7883a 	add	r3,r4,r3
  811e78:	1885883a 	add	r2,r3,r2
  811e7c:	10801004 	addi	r2,r2,64
  811e80:	10800003 	ldbu	r2,0(r2)
  811e84:	10803fcc 	andi	r2,r2,255
  811e88:	1080201c 	xori	r2,r2,128
  811e8c:	10bfe004 	addi	r2,r2,-128
  811e90:	10800820 	cmpeqi	r2,r2,32
  811e94:	10000626 	beq	r2,zero,811eb0 <altera_avalon_lcd_16207_write+0x31c>
  /* Recalculate the scrolling parameters */
  widthmax = ALT_LCD_WIDTH;
  for (y = 0 ; y < ALT_LCD_HEIGHT ; y++)
  {
    int width;
    for (width = ALT_LCD_VIRTUAL_WIDTH ; width > 0 ; width--)
  811e98:	e0bff717 	ldw	r2,-36(fp)
  811e9c:	10bfffc4 	addi	r2,r2,-1
  811ea0:	e0bff715 	stw	r2,-36(fp)
  811ea4:	e0bff717 	ldw	r2,-36(fp)
  811ea8:	00bfed16 	blt	zero,r2,811e60 <__alt_mem_onchip_mem+0xff791e60>
  811eac:	00000106 	br	811eb4 <altera_avalon_lcd_16207_write+0x320>
      if (sp->line[y].data[width-1] != ' ')
        break;
  811eb0:	0001883a 	nop

    /* The minimum width is the size of the LCD panel.  If the real width
     * is long enough to require scrolling then add an extra space so the
     * end of the message doesn't run into the beginning of it.
     */
    if (width <= ALT_LCD_WIDTH)
  811eb4:	e0bff717 	ldw	r2,-36(fp)
  811eb8:	10800448 	cmpgei	r2,r2,17
  811ebc:	1000031e 	bne	r2,zero,811ecc <altera_avalon_lcd_16207_write+0x338>
      width = ALT_LCD_WIDTH;
  811ec0:	00800404 	movi	r2,16
  811ec4:	e0bff715 	stw	r2,-36(fp)
  811ec8:	00000306 	br	811ed8 <altera_avalon_lcd_16207_write+0x344>
    else
      width++;
  811ecc:	e0bff717 	ldw	r2,-36(fp)
  811ed0:	10800044 	addi	r2,r2,1
  811ed4:	e0bff715 	stw	r2,-36(fp)

    sp->line[y].width = width;
  811ed8:	e0bff717 	ldw	r2,-36(fp)
  811edc:	1009883a 	mov	r4,r2
  811ee0:	e0fffc17 	ldw	r3,-16(fp)
  811ee4:	e0bff517 	ldw	r2,-44(fp)
  811ee8:	108018e4 	muli	r2,r2,99
  811eec:	1885883a 	add	r2,r3,r2
  811ef0:	10802444 	addi	r2,r2,145
  811ef4:	11000005 	stb	r4,0(r2)
    if (widthmax < width)
  811ef8:	e0fff617 	ldw	r3,-40(fp)
  811efc:	e0bff717 	ldw	r2,-36(fp)
  811f00:	1880020e 	bge	r3,r2,811f0c <altera_avalon_lcd_16207_write+0x378>
      widthmax = width;
  811f04:	e0bff717 	ldw	r2,-36(fp)
  811f08:	e0bff615 	stw	r2,-40(fp)
    sp->line[y].speed = 0; /* By default lines don't scroll */
  811f0c:	e0fffc17 	ldw	r3,-16(fp)
  811f10:	e0bff517 	ldw	r2,-44(fp)
  811f14:	108018e4 	muli	r2,r2,99
  811f18:	1885883a 	add	r2,r3,r2
  811f1c:	10802484 	addi	r2,r2,146
  811f20:	10000005 	stb	zero,0(r2)
    }
  }

  /* Recalculate the scrolling parameters */
  widthmax = ALT_LCD_WIDTH;
  for (y = 0 ; y < ALT_LCD_HEIGHT ; y++)
  811f24:	e0bff517 	ldw	r2,-44(fp)
  811f28:	10800044 	addi	r2,r2,1
  811f2c:	e0bff515 	stw	r2,-44(fp)
  811f30:	e0bff517 	ldw	r2,-44(fp)
  811f34:	10800090 	cmplti	r2,r2,2
  811f38:	103fc61e 	bne	r2,zero,811e54 <__alt_mem_onchip_mem+0xff791e54>
    if (widthmax < width)
      widthmax = width;
    sp->line[y].speed = 0; /* By default lines don't scroll */
  }

  if (widthmax <= ALT_LCD_WIDTH)
  811f3c:	e0bff617 	ldw	r2,-40(fp)
  811f40:	10800448 	cmpgei	r2,r2,17
  811f44:	1000031e 	bne	r2,zero,811f54 <altera_avalon_lcd_16207_write+0x3c0>
    sp->scrollmax = 0;
  811f48:	e0bffc17 	ldw	r2,-16(fp)
  811f4c:	10000985 	stb	zero,38(r2)
  811f50:	00002e06 	br	81200c <altera_avalon_lcd_16207_write+0x478>
  else
  {
    widthmax *= 2;
  811f54:	e0bff617 	ldw	r2,-40(fp)
  811f58:	1085883a 	add	r2,r2,r2
  811f5c:	e0bff615 	stw	r2,-40(fp)
    sp->scrollmax = widthmax;
  811f60:	e0bff617 	ldw	r2,-40(fp)
  811f64:	1007883a 	mov	r3,r2
  811f68:	e0bffc17 	ldw	r2,-16(fp)
  811f6c:	10c00985 	stb	r3,38(r2)

    /* Now calculate how fast each of the other lines should go */
    for (y = 0 ; y < ALT_LCD_HEIGHT ; y++)
  811f70:	e03ff515 	stw	zero,-44(fp)
  811f74:	00002206 	br	812000 <altera_avalon_lcd_16207_write+0x46c>
      if (sp->line[y].width > ALT_LCD_WIDTH)
  811f78:	e0fffc17 	ldw	r3,-16(fp)
  811f7c:	e0bff517 	ldw	r2,-44(fp)
  811f80:	108018e4 	muli	r2,r2,99
  811f84:	1885883a 	add	r2,r3,r2
  811f88:	10802444 	addi	r2,r2,145
  811f8c:	10800003 	ldbu	r2,0(r2)
  811f90:	10803fcc 	andi	r2,r2,255
  811f94:	1080201c 	xori	r2,r2,128
  811f98:	10bfe004 	addi	r2,r2,-128
  811f9c:	10800450 	cmplti	r2,r2,17
  811fa0:	1000141e 	bne	r2,zero,811ff4 <altera_avalon_lcd_16207_write+0x460>
         */
#if 1
        /* This option makes all the lines scroll round at different speeds
         * which are chosen so that all the scrolls finish at the same time.
         */
        sp->line[y].speed = 256 * sp->line[y].width / widthmax;
  811fa4:	e0fffc17 	ldw	r3,-16(fp)
  811fa8:	e0bff517 	ldw	r2,-44(fp)
  811fac:	108018e4 	muli	r2,r2,99
  811fb0:	1885883a 	add	r2,r3,r2
  811fb4:	10802444 	addi	r2,r2,145
  811fb8:	10800003 	ldbu	r2,0(r2)
  811fbc:	10803fcc 	andi	r2,r2,255
  811fc0:	1080201c 	xori	r2,r2,128
  811fc4:	10bfe004 	addi	r2,r2,-128
  811fc8:	1004923a 	slli	r2,r2,8
  811fcc:	e17ff617 	ldw	r5,-40(fp)
  811fd0:	1009883a 	mov	r4,r2
  811fd4:	080d1dc0 	call	80d1dc <__divsi3>
  811fd8:	1009883a 	mov	r4,r2
  811fdc:	e0fffc17 	ldw	r3,-16(fp)
  811fe0:	e0bff517 	ldw	r2,-44(fp)
  811fe4:	108018e4 	muli	r2,r2,99
  811fe8:	1885883a 	add	r2,r3,r2
  811fec:	10802484 	addi	r2,r2,146
  811ff0:	11000005 	stb	r4,0(r2)
  {
    widthmax *= 2;
    sp->scrollmax = widthmax;

    /* Now calculate how fast each of the other lines should go */
    for (y = 0 ; y < ALT_LCD_HEIGHT ; y++)
  811ff4:	e0bff517 	ldw	r2,-44(fp)
  811ff8:	10800044 	addi	r2,r2,1
  811ffc:	e0bff515 	stw	r2,-44(fp)
  812000:	e0bff517 	ldw	r2,-44(fp)
  812004:	10800090 	cmplti	r2,r2,2
  812008:	103fdb1e 	bne	r2,zero,811f78 <__alt_mem_onchip_mem+0xff791f78>
   * (because active was set when the timer interrupt occurred).  If there
   * has been a missed repaint then paint again.  And again.  etc.
   */
  for ( ; ; )
  {
    int old_scrollpos = sp->scrollpos;
  81200c:	e0bffc17 	ldw	r2,-16(fp)
  812010:	10800943 	ldbu	r2,37(r2)
  812014:	10803fcc 	andi	r2,r2,255
  812018:	e0bffb15 	stw	r2,-20(fp)

    lcd_repaint_screen(sp);
  81201c:	e13ffc17 	ldw	r4,-16(fp)
  812020:	08116300 	call	811630 <lcd_repaint_screen>

    /* Let the timer routines repaint the display again */
    sp->active = 0;
  812024:	e0bffc17 	ldw	r2,-16(fp)
  812028:	100009c5 	stb	zero,39(r2)

    /* Have the timer routines tried to scroll while we were painting?
     * If not then we can exit */
    if (sp->scrollpos == old_scrollpos)
  81202c:	e0bffc17 	ldw	r2,-16(fp)
  812030:	10800943 	ldbu	r2,37(r2)
  812034:	10c03fcc 	andi	r3,r2,255
  812038:	e0bffb17 	ldw	r2,-20(fp)
  81203c:	18800426 	beq	r3,r2,812050 <altera_avalon_lcd_16207_write+0x4bc>
      break;

    /* We need to repaint again since the display scrolled while we were
     * painting last time */
    sp->active = 1;
  812040:	e0bffc17 	ldw	r2,-16(fp)
  812044:	00c00044 	movi	r3,1
  812048:	10c009c5 	stb	r3,39(r2)
  }
  81204c:	003fef06 	br	81200c <__alt_mem_onchip_mem+0xff79200c>
    sp->active = 0;

    /* Have the timer routines tried to scroll while we were painting?
     * If not then we can exit */
    if (sp->scrollpos == old_scrollpos)
      break;
  812050:	0001883a 	nop
   * semaphore so that other threads can access the buffer.
   */

  ALT_SEM_POST (sp->write_lock);

  return len;
  812054:	e0bffe17 	ldw	r2,-8(fp)
}
  812058:	e037883a 	mov	sp,fp
  81205c:	dfc00117 	ldw	ra,4(sp)
  812060:	df000017 	ldw	fp,0(sp)
  812064:	dec00204 	addi	sp,sp,8
  812068:	f800283a 	ret

0081206c <alt_lcd_16207_timeout>:
/*
 * Timeout routine is called every second
 */

static alt_u32 alt_lcd_16207_timeout(void* context) 
{
  81206c:	defffc04 	addi	sp,sp,-16
  812070:	dfc00315 	stw	ra,12(sp)
  812074:	df000215 	stw	fp,8(sp)
  812078:	df000204 	addi	fp,sp,8
  81207c:	e13fff15 	stw	r4,-4(fp)
  altera_avalon_lcd_16207_state* sp = (altera_avalon_lcd_16207_state*)context;
  812080:	e0bfff17 	ldw	r2,-4(fp)
  812084:	e0bffe15 	stw	r2,-8(fp)

  /* Update the scrolling position */
  if (sp->scrollpos + 1 >= sp->scrollmax)
  812088:	e0bffe17 	ldw	r2,-8(fp)
  81208c:	10800943 	ldbu	r2,37(r2)
  812090:	10803fcc 	andi	r2,r2,255
  812094:	10c00044 	addi	r3,r2,1
  812098:	e0bffe17 	ldw	r2,-8(fp)
  81209c:	10800983 	ldbu	r2,38(r2)
  8120a0:	10803fcc 	andi	r2,r2,255
  8120a4:	18800316 	blt	r3,r2,8120b4 <alt_lcd_16207_timeout+0x48>
    sp->scrollpos = 0;
  8120a8:	e0bffe17 	ldw	r2,-8(fp)
  8120ac:	10000945 	stb	zero,37(r2)
  8120b0:	00000606 	br	8120cc <alt_lcd_16207_timeout+0x60>
  else
    sp->scrollpos = sp->scrollpos + 1;
  8120b4:	e0bffe17 	ldw	r2,-8(fp)
  8120b8:	10800943 	ldbu	r2,37(r2)
  8120bc:	10800044 	addi	r2,r2,1
  8120c0:	1007883a 	mov	r3,r2
  8120c4:	e0bffe17 	ldw	r2,-8(fp)
  8120c8:	10c00945 	stb	r3,37(r2)

  /* Repaint the panel unless the foreground will do it again soon */
  if (sp->scrollmax > 0 && !sp->active)
  8120cc:	e0bffe17 	ldw	r2,-8(fp)
  8120d0:	10800983 	ldbu	r2,38(r2)
  8120d4:	10803fcc 	andi	r2,r2,255
  8120d8:	10000826 	beq	r2,zero,8120fc <alt_lcd_16207_timeout+0x90>
  8120dc:	e0bffe17 	ldw	r2,-8(fp)
  8120e0:	108009c3 	ldbu	r2,39(r2)
  8120e4:	10803fcc 	andi	r2,r2,255
  8120e8:	1080201c 	xori	r2,r2,128
  8120ec:	10bfe004 	addi	r2,r2,-128
  8120f0:	1000021e 	bne	r2,zero,8120fc <alt_lcd_16207_timeout+0x90>
    lcd_repaint_screen(sp);
  8120f4:	e13ffe17 	ldw	r4,-8(fp)
  8120f8:	08116300 	call	811630 <lcd_repaint_screen>

  return sp->period;
  8120fc:	e0bffe17 	ldw	r2,-8(fp)
  812100:	10800717 	ldw	r2,28(r2)
}
  812104:	e037883a 	mov	sp,fp
  812108:	dfc00117 	ldw	ra,4(sp)
  81210c:	df000017 	ldw	fp,0(sp)
  812110:	dec00204 	addi	sp,sp,8
  812114:	f800283a 	ret

00812118 <altera_avalon_lcd_16207_init>:

/*
 * Called at boot time to initialise the LCD driver
 */
void altera_avalon_lcd_16207_init(altera_avalon_lcd_16207_state* sp)
{
  812118:	defffc04 	addi	sp,sp,-16
  81211c:	dfc00315 	stw	ra,12(sp)
  812120:	df000215 	stw	fp,8(sp)
  812124:	df000204 	addi	fp,sp,8
  812128:	e13fff15 	stw	r4,-4(fp)
  unsigned int base = sp->base;
  81212c:	e0bfff17 	ldw	r2,-4(fp)
  812130:	10800017 	ldw	r2,0(r2)
  812134:	e0bffe15 	stw	r2,-8(fp)

  /* Mark the device as functional */
  sp->broken = 0;
  812138:	e0bfff17 	ldw	r2,-4(fp)
  81213c:	10000805 	stb	zero,32(r2)
   * the BUSY bit in the status register doesn't work until the display
   * has been reset three times.
   */

  /* Wait for 15 ms then reset */
  usleep(15000);
  812140:	010ea604 	movi	r4,15000
  812144:	08134b00 	call	8134b0 <usleep>
  IOWR_ALTERA_AVALON_LCD_16207_COMMAND(base, LCD_CMD_FUNCTION_SET | LCD_CMD_8BIT);
  812148:	e0bffe17 	ldw	r2,-8(fp)
  81214c:	00c00c04 	movi	r3,48
  812150:	10c00035 	stwio	r3,0(r2)

  /* Wait for another 4.1ms and reset again */
  usleep(4100);  
  812154:	01040104 	movi	r4,4100
  812158:	08134b00 	call	8134b0 <usleep>
  IOWR_ALTERA_AVALON_LCD_16207_COMMAND(base, LCD_CMD_FUNCTION_SET | LCD_CMD_8BIT);
  81215c:	e0bffe17 	ldw	r2,-8(fp)
  812160:	00c00c04 	movi	r3,48
  812164:	10c00035 	stwio	r3,0(r2)

  /* Wait a further 1 ms and reset a third time */
  usleep(1000);
  812168:	0100fa04 	movi	r4,1000
  81216c:	08134b00 	call	8134b0 <usleep>
  IOWR_ALTERA_AVALON_LCD_16207_COMMAND(base, LCD_CMD_FUNCTION_SET | LCD_CMD_8BIT);
  812170:	e0bffe17 	ldw	r2,-8(fp)
  812174:	00c00c04 	movi	r3,48
  812178:	10c00035 	stwio	r3,0(r2)

  /* Setup interface parameters: 8 bit bus, 2 rows, 5x7 font */
  lcd_write_command(sp, LCD_CMD_FUNCTION_SET | LCD_CMD_8BIT | LCD_CMD_TWO_LINE);
  81217c:	01400e04 	movi	r5,56
  812180:	e13fff17 	ldw	r4,-4(fp)
  812184:	08113d00 	call	8113d0 <lcd_write_command>
  
  /* Turn display off */
  lcd_write_command(sp, LCD_CMD_ONOFF);
  812188:	01400204 	movi	r5,8
  81218c:	e13fff17 	ldw	r4,-4(fp)
  812190:	08113d00 	call	8113d0 <lcd_write_command>

  /* Clear display */
  lcd_clear_screen(sp);
  812194:	e13fff17 	ldw	r4,-4(fp)
  812198:	08115600 	call	811560 <lcd_clear_screen>
  
  /* Set mode: increment after writing, don't shift display */
  lcd_write_command(sp, LCD_CMD_MODES | LCD_CMD_MODE_INC);
  81219c:	01400184 	movi	r5,6
  8121a0:	e13fff17 	ldw	r4,-4(fp)
  8121a4:	08113d00 	call	8113d0 <lcd_write_command>

  /* Turn display on */
  lcd_write_command(sp, LCD_CMD_ONOFF | LCD_CMD_ENABLE_DISP);
  8121a8:	01400304 	movi	r5,12
  8121ac:	e13fff17 	ldw	r4,-4(fp)
  8121b0:	08113d00 	call	8113d0 <lcd_write_command>

  sp->esccount = -1;
  8121b4:	e0bfff17 	ldw	r2,-4(fp)
  8121b8:	00ffffc4 	movi	r3,-1
  8121bc:	10c00905 	stb	r3,36(r2)
  memset(sp->escape, 0, sizeof(sp->escape));
  8121c0:	e0bfff17 	ldw	r2,-4(fp)
  8121c4:	10800a04 	addi	r2,r2,40
  8121c8:	01800204 	movi	r6,8
  8121cc:	000b883a 	mov	r5,zero
  8121d0:	1009883a 	mov	r4,r2
  8121d4:	08044040 	call	804404 <memset>

  sp->scrollpos = 0;
  8121d8:	e0bfff17 	ldw	r2,-4(fp)
  8121dc:	10000945 	stb	zero,37(r2)
  sp->scrollmax = 0;
  8121e0:	e0bfff17 	ldw	r2,-4(fp)
  8121e4:	10000985 	stb	zero,38(r2)
  sp->active = 0;
  8121e8:	e0bfff17 	ldw	r2,-4(fp)
  8121ec:	100009c5 	stb	zero,39(r2)
  8121f0:	d0a78f17 	ldw	r2,-25028(gp)

  sp->period = alt_ticks_per_second() / 10; /* Call every 100ms */
  8121f4:	01400284 	movi	r5,10
  8121f8:	1009883a 	mov	r4,r2
  8121fc:	080d2d40 	call	80d2d4 <__udivsi3>
  812200:	1007883a 	mov	r3,r2
  812204:	e0bfff17 	ldw	r2,-4(fp)
  812208:	10c00715 	stw	r3,28(r2)

  alt_alarm_start(&sp->alarm, sp->period, &alt_lcd_16207_timeout, sp);
  81220c:	e0bfff17 	ldw	r2,-4(fp)
  812210:	10c00104 	addi	r3,r2,4
  812214:	e0bfff17 	ldw	r2,-4(fp)
  812218:	10800717 	ldw	r2,28(r2)
  81221c:	e1ffff17 	ldw	r7,-4(fp)
  812220:	01802074 	movhi	r6,129
  812224:	31881b04 	addi	r6,r6,8300
  812228:	100b883a 	mov	r5,r2
  81222c:	1809883a 	mov	r4,r3
  812230:	080f9f80 	call	80f9f8 <alt_alarm_start>
}
  812234:	0001883a 	nop
  812238:	e037883a 	mov	sp,fp
  81223c:	dfc00117 	ldw	ra,4(sp)
  812240:	df000017 	ldw	fp,0(sp)
  812244:	dec00204 	addi	sp,sp,8
  812248:	f800283a 	ret

0081224c <altera_avalon_lcd_16207_write_fd>:
extern int altera_avalon_lcd_16207_write(altera_avalon_lcd_16207_state* sp,
  const char* ptr, int count, int flags);

int 
altera_avalon_lcd_16207_write_fd(alt_fd* fd, const char* buffer, int space)
{
  81224c:	defffa04 	addi	sp,sp,-24
  812250:	dfc00515 	stw	ra,20(sp)
  812254:	df000415 	stw	fp,16(sp)
  812258:	df000404 	addi	fp,sp,16
  81225c:	e13ffd15 	stw	r4,-12(fp)
  812260:	e17ffe15 	stw	r5,-8(fp)
  812264:	e1bfff15 	stw	r6,-4(fp)
    altera_avalon_lcd_16207_dev* dev = (altera_avalon_lcd_16207_dev*) fd->dev; 
  812268:	e0bffd17 	ldw	r2,-12(fp)
  81226c:	10800017 	ldw	r2,0(r2)
  812270:	e0bffc15 	stw	r2,-16(fp)

    return altera_avalon_lcd_16207_write(&dev->state, buffer, space,
  812274:	e0bffc17 	ldw	r2,-16(fp)
  812278:	10c00a04 	addi	r3,r2,40
  81227c:	e0bffd17 	ldw	r2,-12(fp)
  812280:	10800217 	ldw	r2,8(r2)
  812284:	100f883a 	mov	r7,r2
  812288:	e1bfff17 	ldw	r6,-4(fp)
  81228c:	e17ffe17 	ldw	r5,-8(fp)
  812290:	1809883a 	mov	r4,r3
  812294:	0811b940 	call	811b94 <altera_avalon_lcd_16207_write>
      fd->fd_flags);
}
  812298:	e037883a 	mov	sp,fp
  81229c:	dfc00117 	ldw	ra,4(sp)
  8122a0:	df000017 	ldw	fp,0(sp)
  8122a4:	dec00204 	addi	sp,sp,8
  8122a8:	f800283a 	ret

008122ac <alt_avalon_timer_sc_irq>:
#ifdef ALT_ENHANCED_INTERRUPT_API_PRESENT
static void alt_avalon_timer_sc_irq (void* base)
#else
static void alt_avalon_timer_sc_irq (void* base, alt_u32 id)
#endif
{
  8122ac:	defffa04 	addi	sp,sp,-24
  8122b0:	dfc00515 	stw	ra,20(sp)
  8122b4:	df000415 	stw	fp,16(sp)
  8122b8:	df000404 	addi	fp,sp,16
  8122bc:	e13fff15 	stw	r4,-4(fp)
  alt_irq_context cpu_sr;
  
  /* clear the interrupt */
  IOWR_ALTERA_AVALON_TIMER_STATUS (base, 0);
  8122c0:	0007883a 	mov	r3,zero
  8122c4:	e0bfff17 	ldw	r2,-4(fp)
  8122c8:	10c00035 	stwio	r3,0(r2)
  /* 
   * Dummy read to ensure IRQ is negated before the ISR returns.
   * The control register is read because reading the status
   * register has side-effects per the register map documentation.
   */
  IORD_ALTERA_AVALON_TIMER_CONTROL (base);
  8122cc:	e0bfff17 	ldw	r2,-4(fp)
  8122d0:	10800104 	addi	r2,r2,4
  8122d4:	10800037 	ldwio	r2,0(r2)
static ALT_INLINE alt_irq_context ALT_ALWAYS_INLINE 
       alt_irq_disable_all (void)
{
  alt_irq_context context;

  NIOS2_READ_STATUS (context);
  8122d8:	0005303a 	rdctl	r2,status
  8122dc:	e0bffd15 	stw	r2,-12(fp)

  NIOS2_WRITE_STATUS (context & ~NIOS2_STATUS_PIE_MSK);
  8122e0:	e0fffd17 	ldw	r3,-12(fp)
  8122e4:	00bfff84 	movi	r2,-2
  8122e8:	1884703a 	and	r2,r3,r2
  8122ec:	1001703a 	wrctl	status,r2
  
  return context;
  8122f0:	e0bffd17 	ldw	r2,-12(fp)

  /* 
   * Notify the system of a clock tick. disable interrupts 
   * during this time to safely support ISR preemption
   */
  cpu_sr = alt_irq_disable_all();
  8122f4:	e0bffc15 	stw	r2,-16(fp)
  alt_tick ();
  8122f8:	08106240 	call	810624 <alt_tick>
  8122fc:	e0bffc17 	ldw	r2,-16(fp)
  812300:	e0bffe15 	stw	r2,-8(fp)
  status &= ~NIOS2_STATUS_PIE_MSK;
  status |= (context & NIOS2_STATUS_PIE_MSK);
  
  NIOS2_WRITE_STATUS (status);
#else
  NIOS2_WRITE_STATUS (context);
  812304:	e0bffe17 	ldw	r2,-8(fp)
  812308:	1001703a 	wrctl	status,r2
  alt_irq_enable_all(cpu_sr);
}
  81230c:	0001883a 	nop
  812310:	e037883a 	mov	sp,fp
  812314:	dfc00117 	ldw	ra,4(sp)
  812318:	df000017 	ldw	fp,0(sp)
  81231c:	dec00204 	addi	sp,sp,8
  812320:	f800283a 	ret

00812324 <alt_avalon_timer_sc_init>:
 * auto-generated alt_sys_init() function.
 */

void alt_avalon_timer_sc_init (void* base, alt_u32 irq_controller_id, 
                                alt_u32 irq, alt_u32 freq)
{
  812324:	defff804 	addi	sp,sp,-32
  812328:	dfc00715 	stw	ra,28(sp)
  81232c:	df000615 	stw	fp,24(sp)
  812330:	df000604 	addi	fp,sp,24
  812334:	e13ffc15 	stw	r4,-16(fp)
  812338:	e17ffd15 	stw	r5,-12(fp)
  81233c:	e1bffe15 	stw	r6,-8(fp)
  812340:	e1ffff15 	stw	r7,-4(fp)
  812344:	e0bfff17 	ldw	r2,-4(fp)
  812348:	e0bffb15 	stw	r2,-20(fp)
 * in order to initialise the value of the clock frequency.
 */

static ALT_INLINE int ALT_ALWAYS_INLINE alt_sysclk_init (alt_u32 nticks)
{
  if (! _alt_tick_rate)
  81234c:	d0a78f17 	ldw	r2,-25028(gp)
  812350:	1000021e 	bne	r2,zero,81235c <alt_avalon_timer_sc_init+0x38>
  {
    _alt_tick_rate = nticks;
  812354:	e0bffb17 	ldw	r2,-20(fp)
  812358:	d0a78f15 	stw	r2,-25028(gp)
  
  alt_sysclk_init (freq);
  
  /* set to free running mode */
  
  IOWR_ALTERA_AVALON_TIMER_CONTROL (base, 
  81235c:	e0bffc17 	ldw	r2,-16(fp)
  812360:	10800104 	addi	r2,r2,4
  812364:	00c001c4 	movi	r3,7
  812368:	10c00035 	stwio	r3,0(r2)
            ALTERA_AVALON_TIMER_CONTROL_CONT_MSK |
            ALTERA_AVALON_TIMER_CONTROL_START_MSK);

  /* register the interrupt handler, and enable the interrupt */
#ifdef ALT_ENHANCED_INTERRUPT_API_PRESENT
  alt_ic_isr_register(irq_controller_id, irq, alt_avalon_timer_sc_irq, 
  81236c:	d8000015 	stw	zero,0(sp)
  812370:	e1fffc17 	ldw	r7,-16(fp)
  812374:	01802074 	movhi	r6,129
  812378:	3188ab04 	addi	r6,r6,8876
  81237c:	e17ffe17 	ldw	r5,-8(fp)
  812380:	e13ffd17 	ldw	r4,-12(fp)
  812384:	08130d00 	call	8130d0 <alt_ic_isr_register>
                      base, NULL);
#else
  alt_irq_register (irq, base, alt_avalon_timer_sc_irq);
#endif  
}
  812388:	0001883a 	nop
  81238c:	e037883a 	mov	sp,fp
  812390:	dfc00117 	ldw	ra,4(sp)
  812394:	df000017 	ldw	fp,0(sp)
  812398:	dec00204 	addi	sp,sp,8
  81239c:	f800283a 	ret

008123a0 <altera_avalon_uart_read_fd>:
 *
 */

int 
altera_avalon_uart_read_fd(alt_fd* fd, char* buffer, int space)
{
  8123a0:	defffa04 	addi	sp,sp,-24
  8123a4:	dfc00515 	stw	ra,20(sp)
  8123a8:	df000415 	stw	fp,16(sp)
  8123ac:	df000404 	addi	fp,sp,16
  8123b0:	e13ffd15 	stw	r4,-12(fp)
  8123b4:	e17ffe15 	stw	r5,-8(fp)
  8123b8:	e1bfff15 	stw	r6,-4(fp)
    altera_avalon_uart_dev* dev = (altera_avalon_uart_dev*) fd->dev; 
  8123bc:	e0bffd17 	ldw	r2,-12(fp)
  8123c0:	10800017 	ldw	r2,0(r2)
  8123c4:	e0bffc15 	stw	r2,-16(fp)

    return altera_avalon_uart_read(&dev->state, buffer, space,
  8123c8:	e0bffc17 	ldw	r2,-16(fp)
  8123cc:	10c00a04 	addi	r3,r2,40
  8123d0:	e0bffd17 	ldw	r2,-12(fp)
  8123d4:	10800217 	ldw	r2,8(r2)
  8123d8:	100f883a 	mov	r7,r2
  8123dc:	e1bfff17 	ldw	r6,-4(fp)
  8123e0:	e17ffe17 	ldw	r5,-8(fp)
  8123e4:	1809883a 	mov	r4,r3
  8123e8:	08128b40 	call	8128b4 <altera_avalon_uart_read>
      fd->fd_flags);
}
  8123ec:	e037883a 	mov	sp,fp
  8123f0:	dfc00117 	ldw	ra,4(sp)
  8123f4:	df000017 	ldw	fp,0(sp)
  8123f8:	dec00204 	addi	sp,sp,8
  8123fc:	f800283a 	ret

00812400 <altera_avalon_uart_write_fd>:

int 
altera_avalon_uart_write_fd(alt_fd* fd, const char* buffer, int space)
{
  812400:	defffa04 	addi	sp,sp,-24
  812404:	dfc00515 	stw	ra,20(sp)
  812408:	df000415 	stw	fp,16(sp)
  81240c:	df000404 	addi	fp,sp,16
  812410:	e13ffd15 	stw	r4,-12(fp)
  812414:	e17ffe15 	stw	r5,-8(fp)
  812418:	e1bfff15 	stw	r6,-4(fp)
    altera_avalon_uart_dev* dev = (altera_avalon_uart_dev*) fd->dev; 
  81241c:	e0bffd17 	ldw	r2,-12(fp)
  812420:	10800017 	ldw	r2,0(r2)
  812424:	e0bffc15 	stw	r2,-16(fp)

    return altera_avalon_uart_write(&dev->state, buffer, space,
  812428:	e0bffc17 	ldw	r2,-16(fp)
  81242c:	10c00a04 	addi	r3,r2,40
  812430:	e0bffd17 	ldw	r2,-12(fp)
  812434:	10800217 	ldw	r2,8(r2)
  812438:	100f883a 	mov	r7,r2
  81243c:	e1bfff17 	ldw	r6,-4(fp)
  812440:	e17ffe17 	ldw	r5,-8(fp)
  812444:	1809883a 	mov	r4,r3
  812448:	0812acc0 	call	812acc <altera_avalon_uart_write>
      fd->fd_flags);
}
  81244c:	e037883a 	mov	sp,fp
  812450:	dfc00117 	ldw	ra,4(sp)
  812454:	df000017 	ldw	fp,0(sp)
  812458:	dec00204 	addi	sp,sp,8
  81245c:	f800283a 	ret

00812460 <altera_avalon_uart_close_fd>:

#endif /* ALTERA_AVALON_UART_USE_IOCTL */

int 
altera_avalon_uart_close_fd(alt_fd* fd)
{
  812460:	defffc04 	addi	sp,sp,-16
  812464:	dfc00315 	stw	ra,12(sp)
  812468:	df000215 	stw	fp,8(sp)
  81246c:	df000204 	addi	fp,sp,8
  812470:	e13fff15 	stw	r4,-4(fp)
    altera_avalon_uart_dev* dev = (altera_avalon_uart_dev*) fd->dev; 
  812474:	e0bfff17 	ldw	r2,-4(fp)
  812478:	10800017 	ldw	r2,0(r2)
  81247c:	e0bffe15 	stw	r2,-8(fp)

    return altera_avalon_uart_close(&dev->state, fd->fd_flags);
  812480:	e0bffe17 	ldw	r2,-8(fp)
  812484:	10c00a04 	addi	r3,r2,40
  812488:	e0bfff17 	ldw	r2,-4(fp)
  81248c:	10800217 	ldw	r2,8(r2)
  812490:	100b883a 	mov	r5,r2
  812494:	1809883a 	mov	r4,r3
  812498:	08128240 	call	812824 <altera_avalon_uart_close>
}
  81249c:	e037883a 	mov	sp,fp
  8124a0:	dfc00117 	ldw	ra,4(sp)
  8124a4:	df000017 	ldw	fp,0(sp)
  8124a8:	dec00204 	addi	sp,sp,8
  8124ac:	f800283a 	ret

008124b0 <altera_avalon_uart_init>:
  alt_u32 status);

void 
altera_avalon_uart_init(altera_avalon_uart_state* sp, 
  alt_u32 irq_controller_id,  alt_u32 irq)
{
  8124b0:	defff804 	addi	sp,sp,-32
  8124b4:	dfc00715 	stw	ra,28(sp)
  8124b8:	df000615 	stw	fp,24(sp)
  8124bc:	df000604 	addi	fp,sp,24
  8124c0:	e13ffd15 	stw	r4,-12(fp)
  8124c4:	e17ffe15 	stw	r5,-8(fp)
  8124c8:	e1bfff15 	stw	r6,-4(fp)
  void* base = sp->base;
  8124cc:	e0bffd17 	ldw	r2,-12(fp)
  8124d0:	10800017 	ldw	r2,0(r2)
  8124d4:	e0bffb15 	stw	r2,-20(fp)
 * HAL.
 */

static ALT_INLINE int ALT_ALWAYS_INLINE alt_no_error (void)
{
  return 0;
  8124d8:	0005883a 	mov	r2,zero
   * Initialise the read and write flags and the semaphores used to 
   * protect access to the circular buffers when running in a multi-threaded
   * environment.
   */
  error = ALT_FLAG_CREATE (&sp->events, 0)    || 
          ALT_SEM_CREATE (&sp->read_lock, 1)  ||
  8124dc:	1000041e 	bne	r2,zero,8124f0 <altera_avalon_uart_init+0x40>
  8124e0:	0005883a 	mov	r2,zero
  /* 
   * Initialise the read and write flags and the semaphores used to 
   * protect access to the circular buffers when running in a multi-threaded
   * environment.
   */
  error = ALT_FLAG_CREATE (&sp->events, 0)    || 
  8124e4:	1000021e 	bne	r2,zero,8124f0 <altera_avalon_uart_init+0x40>
  8124e8:	0005883a 	mov	r2,zero
          ALT_SEM_CREATE (&sp->read_lock, 1)  ||
  8124ec:	10000226 	beq	r2,zero,8124f8 <altera_avalon_uart_init+0x48>
  8124f0:	00800044 	movi	r2,1
  8124f4:	00000106 	br	8124fc <altera_avalon_uart_init+0x4c>
  8124f8:	0005883a 	mov	r2,zero
  /* 
   * Initialise the read and write flags and the semaphores used to 
   * protect access to the circular buffers when running in a multi-threaded
   * environment.
   */
  error = ALT_FLAG_CREATE (&sp->events, 0)    || 
  8124fc:	e0bffc15 	stw	r2,-16(fp)
          ALT_SEM_CREATE (&sp->read_lock, 1)  ||
          ALT_SEM_CREATE (&sp->write_lock, 1);

  if (!error)
  812500:	e0bffc17 	ldw	r2,-16(fp)
  812504:	10000f1e 	bne	r2,zero,812544 <altera_avalon_uart_init+0x94>
  {
    /* enable interrupts at the device */
    sp->ctrl = ALTERA_AVALON_UART_CONTROL_RTS_MSK  |
  812508:	e0bffd17 	ldw	r2,-12(fp)
  81250c:	00c32004 	movi	r3,3200
  812510:	10c00115 	stw	r3,4(r2)
                ALTERA_AVALON_UART_CONTROL_RRDY_MSK |
                ALTERA_AVALON_UART_CONTROL_DCTS_MSK;

    IOWR_ALTERA_AVALON_UART_CONTROL(base, sp->ctrl); 
  812514:	e0bffb17 	ldw	r2,-20(fp)
  812518:	10800304 	addi	r2,r2,12
  81251c:	e0fffd17 	ldw	r3,-12(fp)
  812520:	18c00117 	ldw	r3,4(r3)
  812524:	10c00035 	stwio	r3,0(r2)
  
    /* register the interrupt handler */
#ifdef ALT_ENHANCED_INTERRUPT_API_PRESENT
    alt_ic_isr_register(irq_controller_id, irq, altera_avalon_uart_irq, sp, 
  812528:	d8000015 	stw	zero,0(sp)
  81252c:	e1fffd17 	ldw	r7,-12(fp)
  812530:	01802074 	movhi	r6,129
  812534:	31895704 	addi	r6,r6,9564
  812538:	e17fff17 	ldw	r5,-4(fp)
  81253c:	e13ffe17 	ldw	r4,-8(fp)
  812540:	08130d00 	call	8130d0 <alt_ic_isr_register>
      0x0);
#else
    alt_irq_register (irq, sp, altera_avalon_uart_irq);
#endif  
  }
}
  812544:	0001883a 	nop
  812548:	e037883a 	mov	sp,fp
  81254c:	dfc00117 	ldw	ra,4(sp)
  812550:	df000017 	ldw	fp,0(sp)
  812554:	dec00204 	addi	sp,sp,8
  812558:	f800283a 	ret

0081255c <altera_avalon_uart_irq>:
#ifdef ALT_ENHANCED_INTERRUPT_API_PRESENT
static void altera_avalon_uart_irq(void* context)
#else
static void altera_avalon_uart_irq(void* context, alt_u32 id)
#endif
{
  81255c:	defffa04 	addi	sp,sp,-24
  812560:	dfc00515 	stw	ra,20(sp)
  812564:	df000415 	stw	fp,16(sp)
  812568:	df000404 	addi	fp,sp,16
  81256c:	e13fff15 	stw	r4,-4(fp)
  alt_u32 status;

  altera_avalon_uart_state* sp = (altera_avalon_uart_state*) context;
  812570:	e0bfff17 	ldw	r2,-4(fp)
  812574:	e0bffc15 	stw	r2,-16(fp)
  void* base               = sp->base;
  812578:	e0bffc17 	ldw	r2,-16(fp)
  81257c:	10800017 	ldw	r2,0(r2)
  812580:	e0bffd15 	stw	r2,-12(fp)
  /*
   * Read the status register in order to determine the cause of the
   * interrupt.
   */

  status = IORD_ALTERA_AVALON_UART_STATUS(base);
  812584:	e0bffd17 	ldw	r2,-12(fp)
  812588:	10800204 	addi	r2,r2,8
  81258c:	10800037 	ldwio	r2,0(r2)
  812590:	e0bffe15 	stw	r2,-8(fp)

  /* Clear any error flags set at the device */
  IOWR_ALTERA_AVALON_UART_STATUS(base, 0);
  812594:	e0bffd17 	ldw	r2,-12(fp)
  812598:	10800204 	addi	r2,r2,8
  81259c:	0007883a 	mov	r3,zero
  8125a0:	10c00035 	stwio	r3,0(r2)

  /* Dummy read to ensure IRQ is negated before ISR returns */
  IORD_ALTERA_AVALON_UART_STATUS(base);
  8125a4:	e0bffd17 	ldw	r2,-12(fp)
  8125a8:	10800204 	addi	r2,r2,8
  8125ac:	10800037 	ldwio	r2,0(r2)
  
  /* process a read irq */
  if (status & ALTERA_AVALON_UART_STATUS_RRDY_MSK)
  8125b0:	e0bffe17 	ldw	r2,-8(fp)
  8125b4:	1080200c 	andi	r2,r2,128
  8125b8:	10000326 	beq	r2,zero,8125c8 <altera_avalon_uart_irq+0x6c>
  {
    altera_avalon_uart_rxirq(sp, status);
  8125bc:	e17ffe17 	ldw	r5,-8(fp)
  8125c0:	e13ffc17 	ldw	r4,-16(fp)
  8125c4:	08125f80 	call	8125f8 <altera_avalon_uart_rxirq>
  }

  /* process a write irq */
  if (status & (ALTERA_AVALON_UART_STATUS_TRDY_MSK | 
  8125c8:	e0bffe17 	ldw	r2,-8(fp)
  8125cc:	1081100c 	andi	r2,r2,1088
  8125d0:	10000326 	beq	r2,zero,8125e0 <altera_avalon_uart_irq+0x84>
                  ALTERA_AVALON_UART_STATUS_DCTS_MSK))
  {
    altera_avalon_uart_txirq(sp, status);
  8125d4:	e17ffe17 	ldw	r5,-8(fp)
  8125d8:	e13ffc17 	ldw	r4,-16(fp)
  8125dc:	08126dc0 	call	8126dc <altera_avalon_uart_txirq>
  }
  

}
  8125e0:	0001883a 	nop
  8125e4:	e037883a 	mov	sp,fp
  8125e8:	dfc00117 	ldw	ra,4(sp)
  8125ec:	df000017 	ldw	fp,0(sp)
  8125f0:	dec00204 	addi	sp,sp,8
  8125f4:	f800283a 	ret

008125f8 <altera_avalon_uart_rxirq>:
 * the receive circular buffer, and sets the apropriate flags to indicate 
 * that there is data ready to be processed.
 */
static void 
altera_avalon_uart_rxirq(altera_avalon_uart_state* sp, alt_u32 status)
{
  8125f8:	defffc04 	addi	sp,sp,-16
  8125fc:	df000315 	stw	fp,12(sp)
  812600:	df000304 	addi	fp,sp,12
  812604:	e13ffe15 	stw	r4,-8(fp)
  812608:	e17fff15 	stw	r5,-4(fp)
  alt_u32 next;
  
  /* If there was an error, discard the data */

  if (status & (ALTERA_AVALON_UART_STATUS_PE_MSK | 
  81260c:	e0bfff17 	ldw	r2,-4(fp)
  812610:	108000cc 	andi	r2,r2,3
  812614:	10002c1e 	bne	r2,zero,8126c8 <altera_avalon_uart_rxirq+0xd0>
   * In a multi-threaded environment, set the read event flag to indicate
   * that there is data ready. This is only done if the circular buffer was
   * previously empty.
   */

  if (sp->rx_end == sp->rx_start)
  812618:	e0bffe17 	ldw	r2,-8(fp)
  81261c:	10800317 	ldw	r2,12(r2)
  812620:	e0bffe17 	ldw	r2,-8(fp)
  812624:	10800217 	ldw	r2,8(r2)
    ALT_FLAG_POST (sp->events, ALT_UART_READ_RDY, OS_FLAG_SET);
  }

  /* Determine which slot to use next in the circular buffer */

  next = (sp->rx_end + 1) & ALT_AVALON_UART_BUF_MSK;
  812628:	e0bffe17 	ldw	r2,-8(fp)
  81262c:	10800317 	ldw	r2,12(r2)
  812630:	10800044 	addi	r2,r2,1
  812634:	10800fcc 	andi	r2,r2,63
  812638:	e0bffd15 	stw	r2,-12(fp)

  /* Transfer data from the device to the circular buffer */

  sp->rx_buf[sp->rx_end] = IORD_ALTERA_AVALON_UART_RXDATA(sp->base);
  81263c:	e0bffe17 	ldw	r2,-8(fp)
  812640:	10800317 	ldw	r2,12(r2)
  812644:	e0fffe17 	ldw	r3,-8(fp)
  812648:	18c00017 	ldw	r3,0(r3)
  81264c:	18c00037 	ldwio	r3,0(r3)
  812650:	1809883a 	mov	r4,r3
  812654:	e0fffe17 	ldw	r3,-8(fp)
  812658:	1885883a 	add	r2,r3,r2
  81265c:	10800704 	addi	r2,r2,28
  812660:	11000005 	stb	r4,0(r2)

  sp->rx_end = next;
  812664:	e0bffe17 	ldw	r2,-8(fp)
  812668:	e0fffd17 	ldw	r3,-12(fp)
  81266c:	10c00315 	stw	r3,12(r2)

  next = (sp->rx_end + 1) & ALT_AVALON_UART_BUF_MSK;
  812670:	e0bffe17 	ldw	r2,-8(fp)
  812674:	10800317 	ldw	r2,12(r2)
  812678:	10800044 	addi	r2,r2,1
  81267c:	10800fcc 	andi	r2,r2,63
  812680:	e0bffd15 	stw	r2,-12(fp)
  /*
   * If the cicular buffer was full, disable interrupts. Interrupts will be
   * re-enabled when data is removed from the buffer.
   */

  if (next == sp->rx_start)
  812684:	e0bffe17 	ldw	r2,-8(fp)
  812688:	10c00217 	ldw	r3,8(r2)
  81268c:	e0bffd17 	ldw	r2,-12(fp)
  812690:	18800e1e 	bne	r3,r2,8126cc <altera_avalon_uart_rxirq+0xd4>
  {
    sp->ctrl &= ~ALTERA_AVALON_UART_CONTROL_RRDY_MSK;
  812694:	e0bffe17 	ldw	r2,-8(fp)
  812698:	10c00117 	ldw	r3,4(r2)
  81269c:	00bfdfc4 	movi	r2,-129
  8126a0:	1886703a 	and	r3,r3,r2
  8126a4:	e0bffe17 	ldw	r2,-8(fp)
  8126a8:	10c00115 	stw	r3,4(r2)
    IOWR_ALTERA_AVALON_UART_CONTROL(sp->base, sp->ctrl); 
  8126ac:	e0bffe17 	ldw	r2,-8(fp)
  8126b0:	10800017 	ldw	r2,0(r2)
  8126b4:	10800304 	addi	r2,r2,12
  8126b8:	e0fffe17 	ldw	r3,-8(fp)
  8126bc:	18c00117 	ldw	r3,4(r3)
  8126c0:	10c00035 	stwio	r3,0(r2)
  8126c4:	00000106 	br	8126cc <altera_avalon_uart_rxirq+0xd4>
  /* If there was an error, discard the data */

  if (status & (ALTERA_AVALON_UART_STATUS_PE_MSK | 
                  ALTERA_AVALON_UART_STATUS_FE_MSK))
  {
    return;
  8126c8:	0001883a 	nop
  if (next == sp->rx_start)
  {
    sp->ctrl &= ~ALTERA_AVALON_UART_CONTROL_RRDY_MSK;
    IOWR_ALTERA_AVALON_UART_CONTROL(sp->base, sp->ctrl); 
  }   
}
  8126cc:	e037883a 	mov	sp,fp
  8126d0:	df000017 	ldw	fp,0(sp)
  8126d4:	dec00104 	addi	sp,sp,4
  8126d8:	f800283a 	ret

008126dc <altera_avalon_uart_txirq>:
 * buffer to the device, and sets the apropriate flags to indicate that 
 * there is data ready to be processed.
 */
static void 
altera_avalon_uart_txirq(altera_avalon_uart_state* sp, alt_u32 status)
{
  8126dc:	defffb04 	addi	sp,sp,-20
  8126e0:	df000415 	stw	fp,16(sp)
  8126e4:	df000404 	addi	fp,sp,16
  8126e8:	e13ffc15 	stw	r4,-16(fp)
  8126ec:	e17ffd15 	stw	r5,-12(fp)
  /* Transfer data if there is some ready to be transfered */

  if (sp->tx_start != sp->tx_end)
  8126f0:	e0bffc17 	ldw	r2,-16(fp)
  8126f4:	10c00417 	ldw	r3,16(r2)
  8126f8:	e0bffc17 	ldw	r2,-16(fp)
  8126fc:	10800517 	ldw	r2,20(r2)
  812700:	18803226 	beq	r3,r2,8127cc <altera_avalon_uart_txirq+0xf0>
    /* 
     * If the device is using flow control (i.e. RTS/CTS), then the
     * transmitter is required to throttle if CTS is high.
     */

    if (!(sp->flags & ALT_AVALON_UART_FC) ||
  812704:	e0bffc17 	ldw	r2,-16(fp)
  812708:	10800617 	ldw	r2,24(r2)
  81270c:	1080008c 	andi	r2,r2,2
  812710:	10000326 	beq	r2,zero,812720 <altera_avalon_uart_txirq+0x44>
      (status & ALTERA_AVALON_UART_STATUS_CTS_MSK))
  812714:	e0bffd17 	ldw	r2,-12(fp)
  812718:	1082000c 	andi	r2,r2,2048
    /* 
     * If the device is using flow control (i.e. RTS/CTS), then the
     * transmitter is required to throttle if CTS is high.
     */

    if (!(sp->flags & ALT_AVALON_UART_FC) ||
  81271c:	10001d26 	beq	r2,zero,812794 <altera_avalon_uart_txirq+0xb8>
       * In a multi-threaded environment, set the write event flag to indicate
       * that there is space in the circular buffer. This is only done if the
       * buffer was previously empty.
       */

      if (sp->tx_start == ((sp->tx_end + 1) & ALT_AVALON_UART_BUF_MSK))
  812720:	e0bffc17 	ldw	r2,-16(fp)
  812724:	10800417 	ldw	r2,16(r2)
  812728:	e0bffc17 	ldw	r2,-16(fp)
  81272c:	10800517 	ldw	r2,20(r2)
                       OS_FLAG_SET);
      }

      /* Write the data to the device */

      IOWR_ALTERA_AVALON_UART_TXDATA(sp->base, sp->tx_buf[sp->tx_start]);
  812730:	e0bffc17 	ldw	r2,-16(fp)
  812734:	10800017 	ldw	r2,0(r2)
  812738:	10800104 	addi	r2,r2,4
  81273c:	e0fffc17 	ldw	r3,-16(fp)
  812740:	18c00417 	ldw	r3,16(r3)
  812744:	e13ffc17 	ldw	r4,-16(fp)
  812748:	20c7883a 	add	r3,r4,r3
  81274c:	18c01704 	addi	r3,r3,92
  812750:	18c00003 	ldbu	r3,0(r3)
  812754:	18c03fcc 	andi	r3,r3,255
  812758:	10c00035 	stwio	r3,0(r2)

      sp->tx_start = (++sp->tx_start) & ALT_AVALON_UART_BUF_MSK;
  81275c:	e0bffc17 	ldw	r2,-16(fp)
  812760:	10800417 	ldw	r2,16(r2)
  812764:	10800044 	addi	r2,r2,1
  812768:	e0fffc17 	ldw	r3,-16(fp)
  81276c:	18800415 	stw	r2,16(r3)
  812770:	10c00fcc 	andi	r3,r2,63
  812774:	e0bffc17 	ldw	r2,-16(fp)
  812778:	10c00415 	stw	r3,16(r2)
      /*
       * In case the tranmit interrupt had previously been disabled by 
       * detecting a low value on CTS, it is reenabled here.
       */ 

      sp->ctrl |= ALTERA_AVALON_UART_CONTROL_TRDY_MSK;
  81277c:	e0bffc17 	ldw	r2,-16(fp)
  812780:	10800117 	ldw	r2,4(r2)
  812784:	10c01014 	ori	r3,r2,64
  812788:	e0bffc17 	ldw	r2,-16(fp)
  81278c:	10c00115 	stw	r3,4(r2)
  812790:	00000e06 	br	8127cc <altera_avalon_uart_txirq+0xf0>
       * the last write to the status register. To avoid this resulting in
       * deadlock, it's necessary to re-check the status register here
       * before throttling.
       */
 
      status = IORD_ALTERA_AVALON_UART_STATUS(sp->base); 
  812794:	e0bffc17 	ldw	r2,-16(fp)
  812798:	10800017 	ldw	r2,0(r2)
  81279c:	10800204 	addi	r2,r2,8
  8127a0:	10800037 	ldwio	r2,0(r2)
  8127a4:	e0bffd15 	stw	r2,-12(fp)

      if (!(status & ALTERA_AVALON_UART_STATUS_CTS_MSK))
  8127a8:	e0bffd17 	ldw	r2,-12(fp)
  8127ac:	1082000c 	andi	r2,r2,2048
  8127b0:	1000061e 	bne	r2,zero,8127cc <altera_avalon_uart_txirq+0xf0>
      {
        sp->ctrl &= ~ALTERA_AVALON_UART_CONTROL_TRDY_MSK;
  8127b4:	e0bffc17 	ldw	r2,-16(fp)
  8127b8:	10c00117 	ldw	r3,4(r2)
  8127bc:	00bfefc4 	movi	r2,-65
  8127c0:	1886703a 	and	r3,r3,r2
  8127c4:	e0bffc17 	ldw	r2,-16(fp)
  8127c8:	10c00115 	stw	r3,4(r2)
  /*
   * If the circular buffer is empty, disable the interrupt. This will be
   * re-enabled when new data is placed in the buffer.
   */

  if (sp->tx_start == sp->tx_end)
  8127cc:	e0bffc17 	ldw	r2,-16(fp)
  8127d0:	10c00417 	ldw	r3,16(r2)
  8127d4:	e0bffc17 	ldw	r2,-16(fp)
  8127d8:	10800517 	ldw	r2,20(r2)
  8127dc:	1880061e 	bne	r3,r2,8127f8 <altera_avalon_uart_txirq+0x11c>
  {
    sp->ctrl &= ~(ALTERA_AVALON_UART_CONTROL_TRDY_MSK |
  8127e0:	e0bffc17 	ldw	r2,-16(fp)
  8127e4:	10c00117 	ldw	r3,4(r2)
  8127e8:	00beefc4 	movi	r2,-1089
  8127ec:	1886703a 	and	r3,r3,r2
  8127f0:	e0bffc17 	ldw	r2,-16(fp)
  8127f4:	10c00115 	stw	r3,4(r2)
                    ALTERA_AVALON_UART_CONTROL_DCTS_MSK);
  }

  IOWR_ALTERA_AVALON_UART_CONTROL(sp->base, sp->ctrl);
  8127f8:	e0bffc17 	ldw	r2,-16(fp)
  8127fc:	10800017 	ldw	r2,0(r2)
  812800:	10800304 	addi	r2,r2,12
  812804:	e0fffc17 	ldw	r3,-16(fp)
  812808:	18c00117 	ldw	r3,4(r3)
  81280c:	10c00035 	stwio	r3,0(r2)
}
  812810:	0001883a 	nop
  812814:	e037883a 	mov	sp,fp
  812818:	df000017 	ldw	fp,0(sp)
  81281c:	dec00104 	addi	sp,sp,4
  812820:	f800283a 	ret

00812824 <altera_avalon_uart_close>:
 * The close routine is not implemented for the small driver; instead it will
 * map to null. This is because the small driver simply waits while characters
 * are transmitted; there is no interrupt-serviced buffer to empty 
 */
int altera_avalon_uart_close(altera_avalon_uart_state* sp, int flags)
{
  812824:	defffd04 	addi	sp,sp,-12
  812828:	df000215 	stw	fp,8(sp)
  81282c:	df000204 	addi	fp,sp,8
  812830:	e13ffe15 	stw	r4,-8(fp)
  812834:	e17fff15 	stw	r5,-4(fp)
  /* 
   * Wait for all transmit data to be emptied by the UART ISR.
   */
  while (sp->tx_start != sp->tx_end) {
  812838:	00000506 	br	812850 <altera_avalon_uart_close+0x2c>
    if (flags & O_NONBLOCK) {
  81283c:	e0bfff17 	ldw	r2,-4(fp)
  812840:	1090000c 	andi	r2,r2,16384
  812844:	10000226 	beq	r2,zero,812850 <altera_avalon_uart_close+0x2c>
      return -EWOULDBLOCK; 
  812848:	00bffd44 	movi	r2,-11
  81284c:	00000606 	br	812868 <altera_avalon_uart_close+0x44>
int altera_avalon_uart_close(altera_avalon_uart_state* sp, int flags)
{
  /* 
   * Wait for all transmit data to be emptied by the UART ISR.
   */
  while (sp->tx_start != sp->tx_end) {
  812850:	e0bffe17 	ldw	r2,-8(fp)
  812854:	10c00417 	ldw	r3,16(r2)
  812858:	e0bffe17 	ldw	r2,-8(fp)
  81285c:	10800517 	ldw	r2,20(r2)
  812860:	18bff61e 	bne	r3,r2,81283c <__alt_mem_onchip_mem+0xff79283c>
    if (flags & O_NONBLOCK) {
      return -EWOULDBLOCK; 
    }
  }

  return 0;
  812864:	0005883a 	mov	r2,zero
}
  812868:	e037883a 	mov	sp,fp
  81286c:	df000017 	ldw	fp,0(sp)
  812870:	dec00104 	addi	sp,sp,4
  812874:	f800283a 	ret

00812878 <alt_get_errno>:
#undef errno

extern int errno;

static ALT_INLINE int* alt_get_errno(void)
{
  812878:	defffe04 	addi	sp,sp,-8
  81287c:	dfc00115 	stw	ra,4(sp)
  812880:	df000015 	stw	fp,0(sp)
  812884:	d839883a 	mov	fp,sp
  return ((alt_errno) ? alt_errno() : &errno);
  812888:	d0a00c17 	ldw	r2,-32720(gp)
  81288c:	10000326 	beq	r2,zero,81289c <alt_get_errno+0x24>
  812890:	d0a00c17 	ldw	r2,-32720(gp)
  812894:	103ee83a 	callr	r2
  812898:	00000106 	br	8128a0 <alt_get_errno+0x28>
  81289c:	d0a78504 	addi	r2,gp,-25068
}
  8128a0:	e037883a 	mov	sp,fp
  8128a4:	dfc00117 	ldw	ra,4(sp)
  8128a8:	df000017 	ldw	fp,0(sp)
  8128ac:	dec00204 	addi	sp,sp,8
  8128b0:	f800283a 	ret

008128b4 <altera_avalon_uart_read>:
 */

int 
altera_avalon_uart_read(altera_avalon_uart_state* sp, char* ptr, int len,
  int flags)
{
  8128b4:	defff204 	addi	sp,sp,-56
  8128b8:	dfc00d15 	stw	ra,52(sp)
  8128bc:	df000c15 	stw	fp,48(sp)
  8128c0:	df000c04 	addi	fp,sp,48
  8128c4:	e13ffc15 	stw	r4,-16(fp)
  8128c8:	e17ffd15 	stw	r5,-12(fp)
  8128cc:	e1bffe15 	stw	r6,-8(fp)
  8128d0:	e1ffff15 	stw	r7,-4(fp)
  alt_irq_context context;
  int             block;
  alt_u8          read_would_block = 0;
  8128d4:	e03ff405 	stb	zero,-48(fp)
  int             count = 0;
  8128d8:	e03ff515 	stw	zero,-44(fp)
  /* 
   * Construct a flag to indicate whether the device is being accessed in
   * blocking or non-blocking mode.
   */

  block = !(flags & O_NONBLOCK);
  8128dc:	e0bfff17 	ldw	r2,-4(fp)
  8128e0:	1090000c 	andi	r2,r2,16384
  8128e4:	1005003a 	cmpeq	r2,r2,zero
  8128e8:	10803fcc 	andi	r2,r2,255
  8128ec:	e0bff615 	stw	r2,-40(fp)
    /*
     * Read the required amount of data, until the circular buffer runs
     * empty
     */

    while ((count < len) && (sp->rx_start != sp->rx_end))
  8128f0:	00001306 	br	812940 <altera_avalon_uart_read+0x8c>
    {
      count++;
  8128f4:	e0bff517 	ldw	r2,-44(fp)
  8128f8:	10800044 	addi	r2,r2,1
  8128fc:	e0bff515 	stw	r2,-44(fp)
      *ptr++ = sp->rx_buf[sp->rx_start];
  812900:	e0bffd17 	ldw	r2,-12(fp)
  812904:	10c00044 	addi	r3,r2,1
  812908:	e0fffd15 	stw	r3,-12(fp)
  81290c:	e0fffc17 	ldw	r3,-16(fp)
  812910:	18c00217 	ldw	r3,8(r3)
  812914:	e13ffc17 	ldw	r4,-16(fp)
  812918:	20c7883a 	add	r3,r4,r3
  81291c:	18c00704 	addi	r3,r3,28
  812920:	18c00003 	ldbu	r3,0(r3)
  812924:	10c00005 	stb	r3,0(r2)
      
      sp->rx_start = (sp->rx_start+1) & ALT_AVALON_UART_BUF_MSK;
  812928:	e0bffc17 	ldw	r2,-16(fp)
  81292c:	10800217 	ldw	r2,8(r2)
  812930:	10800044 	addi	r2,r2,1
  812934:	10c00fcc 	andi	r3,r2,63
  812938:	e0bffc17 	ldw	r2,-16(fp)
  81293c:	10c00215 	stw	r3,8(r2)
    /*
     * Read the required amount of data, until the circular buffer runs
     * empty
     */

    while ((count < len) && (sp->rx_start != sp->rx_end))
  812940:	e0fff517 	ldw	r3,-44(fp)
  812944:	e0bffe17 	ldw	r2,-8(fp)
  812948:	1880050e 	bge	r3,r2,812960 <altera_avalon_uart_read+0xac>
  81294c:	e0bffc17 	ldw	r2,-16(fp)
  812950:	10c00217 	ldw	r3,8(r2)
  812954:	e0bffc17 	ldw	r2,-16(fp)
  812958:	10800317 	ldw	r2,12(r2)
  81295c:	18bfe51e 	bne	r3,r2,8128f4 <__alt_mem_onchip_mem+0xff7928f4>
    /*
     * If no data has been transferred, the circular buffer is empty, and
     * this is not a non-blocking access, block waiting for data to arrive.
     */

    if (!count && (sp->rx_start == sp->rx_end))
  812960:	e0bff517 	ldw	r2,-44(fp)
  812964:	1000251e 	bne	r2,zero,8129fc <altera_avalon_uart_read+0x148>
  812968:	e0bffc17 	ldw	r2,-16(fp)
  81296c:	10c00217 	ldw	r3,8(r2)
  812970:	e0bffc17 	ldw	r2,-16(fp)
  812974:	10800317 	ldw	r2,12(r2)
  812978:	1880201e 	bne	r3,r2,8129fc <altera_avalon_uart_read+0x148>
    {
      if (!block)
  81297c:	e0bff617 	ldw	r2,-40(fp)
  812980:	1000071e 	bne	r2,zero,8129a0 <altera_avalon_uart_read+0xec>
      {
        /* Set errno to indicate the reason we're not returning any data */

        ALT_ERRNO = EWOULDBLOCK;
  812984:	08128780 	call	812878 <alt_get_errno>
  812988:	1007883a 	mov	r3,r2
  81298c:	008002c4 	movi	r2,11
  812990:	18800015 	stw	r2,0(r3)
        read_would_block = 1;
  812994:	00800044 	movi	r2,1
  812998:	e0bff405 	stb	r2,-48(fp)
        break;
  81299c:	00001b06 	br	812a0c <altera_avalon_uart_read+0x158>
static ALT_INLINE alt_irq_context ALT_ALWAYS_INLINE 
       alt_irq_disable_all (void)
{
  alt_irq_context context;

  NIOS2_READ_STATUS (context);
  8129a0:	0005303a 	rdctl	r2,status
  8129a4:	e0bff915 	stw	r2,-28(fp)

  NIOS2_WRITE_STATUS (context & ~NIOS2_STATUS_PIE_MSK);
  8129a8:	e0fff917 	ldw	r3,-28(fp)
  8129ac:	00bfff84 	movi	r2,-2
  8129b0:	1884703a 	and	r2,r3,r2
  8129b4:	1001703a 	wrctl	status,r2
  
  return context;
  8129b8:	e0bff917 	ldw	r2,-28(fp)
      {
       /* Block waiting for some data to arrive */

       /* First, ensure read interrupts are enabled to avoid deadlock */

       context = alt_irq_disable_all ();
  8129bc:	e0bff815 	stw	r2,-32(fp)
       sp->ctrl |= ALTERA_AVALON_UART_CONTROL_RRDY_MSK;
  8129c0:	e0bffc17 	ldw	r2,-16(fp)
  8129c4:	10800117 	ldw	r2,4(r2)
  8129c8:	10c02014 	ori	r3,r2,128
  8129cc:	e0bffc17 	ldw	r2,-16(fp)
  8129d0:	10c00115 	stw	r3,4(r2)
       IOWR_ALTERA_AVALON_UART_CONTROL(sp->base, sp->ctrl);
  8129d4:	e0bffc17 	ldw	r2,-16(fp)
  8129d8:	10800017 	ldw	r2,0(r2)
  8129dc:	10800304 	addi	r2,r2,12
  8129e0:	e0fffc17 	ldw	r3,-16(fp)
  8129e4:	18c00117 	ldw	r3,4(r3)
  8129e8:	10c00035 	stwio	r3,0(r2)
  8129ec:	e0bff817 	ldw	r2,-32(fp)
  8129f0:	e0bffa15 	stw	r2,-24(fp)
  status &= ~NIOS2_STATUS_PIE_MSK;
  status |= (context & NIOS2_STATUS_PIE_MSK);
  
  NIOS2_WRITE_STATUS (status);
#else
  NIOS2_WRITE_STATUS (context);
  8129f4:	e0bffa17 	ldw	r2,-24(fp)
  8129f8:	1001703a 	wrctl	status,r2
                      OS_FLAG_WAIT_SET_ANY + OS_FLAG_CONSUME,
                      0);
      }
    }
  }
  while (!count && len);
  8129fc:	e0bff517 	ldw	r2,-44(fp)
  812a00:	1000021e 	bne	r2,zero,812a0c <altera_avalon_uart_read+0x158>
  812a04:	e0bffe17 	ldw	r2,-8(fp)
  812a08:	103fcd1e 	bne	r2,zero,812940 <__alt_mem_onchip_mem+0xff792940>
static ALT_INLINE alt_irq_context ALT_ALWAYS_INLINE 
       alt_irq_disable_all (void)
{
  alt_irq_context context;

  NIOS2_READ_STATUS (context);
  812a0c:	0005303a 	rdctl	r2,status
  812a10:	e0bffb15 	stw	r2,-20(fp)

  NIOS2_WRITE_STATUS (context & ~NIOS2_STATUS_PIE_MSK);
  812a14:	e0fffb17 	ldw	r3,-20(fp)
  812a18:	00bfff84 	movi	r2,-2
  812a1c:	1884703a 	and	r2,r3,r2
  812a20:	1001703a 	wrctl	status,r2
  
  return context;
  812a24:	e0bffb17 	ldw	r2,-20(fp)
  /*
   * Ensure that interrupts are enabled, so that the circular buffer can
   * re-fill.
   */

  context = alt_irq_disable_all ();
  812a28:	e0bff815 	stw	r2,-32(fp)
  sp->ctrl |= ALTERA_AVALON_UART_CONTROL_RRDY_MSK;
  812a2c:	e0bffc17 	ldw	r2,-16(fp)
  812a30:	10800117 	ldw	r2,4(r2)
  812a34:	10c02014 	ori	r3,r2,128
  812a38:	e0bffc17 	ldw	r2,-16(fp)
  812a3c:	10c00115 	stw	r3,4(r2)
  IOWR_ALTERA_AVALON_UART_CONTROL(sp->base, sp->ctrl);
  812a40:	e0bffc17 	ldw	r2,-16(fp)
  812a44:	10800017 	ldw	r2,0(r2)
  812a48:	10800304 	addi	r2,r2,12
  812a4c:	e0fffc17 	ldw	r3,-16(fp)
  812a50:	18c00117 	ldw	r3,4(r3)
  812a54:	10c00035 	stwio	r3,0(r2)
  812a58:	e0bff817 	ldw	r2,-32(fp)
  812a5c:	e0bff715 	stw	r2,-36(fp)
  status &= ~NIOS2_STATUS_PIE_MSK;
  status |= (context & NIOS2_STATUS_PIE_MSK);
  
  NIOS2_WRITE_STATUS (status);
#else
  NIOS2_WRITE_STATUS (context);
  812a60:	e0bff717 	ldw	r2,-36(fp)
  812a64:	1001703a 	wrctl	status,r2
  alt_irq_enable_all (context);

  /* Return the number of bytes read */
  if(read_would_block) {
  812a68:	e0bff403 	ldbu	r2,-48(fp)
  812a6c:	10000226 	beq	r2,zero,812a78 <altera_avalon_uart_read+0x1c4>
    return -EWOULDBLOCK;
  812a70:	00bffd44 	movi	r2,-11
  812a74:	00000106 	br	812a7c <altera_avalon_uart_read+0x1c8>
  }
  else {
    return count;
  812a78:	e0bff517 	ldw	r2,-44(fp)
  }
}
  812a7c:	e037883a 	mov	sp,fp
  812a80:	dfc00117 	ldw	ra,4(sp)
  812a84:	df000017 	ldw	fp,0(sp)
  812a88:	dec00204 	addi	sp,sp,8
  812a8c:	f800283a 	ret

00812a90 <alt_get_errno>:
#undef errno

extern int errno;

static ALT_INLINE int* alt_get_errno(void)
{
  812a90:	defffe04 	addi	sp,sp,-8
  812a94:	dfc00115 	stw	ra,4(sp)
  812a98:	df000015 	stw	fp,0(sp)
  812a9c:	d839883a 	mov	fp,sp
  return ((alt_errno) ? alt_errno() : &errno);
  812aa0:	d0a00c17 	ldw	r2,-32720(gp)
  812aa4:	10000326 	beq	r2,zero,812ab4 <alt_get_errno+0x24>
  812aa8:	d0a00c17 	ldw	r2,-32720(gp)
  812aac:	103ee83a 	callr	r2
  812ab0:	00000106 	br	812ab8 <alt_get_errno+0x28>
  812ab4:	d0a78504 	addi	r2,gp,-25068
}
  812ab8:	e037883a 	mov	sp,fp
  812abc:	dfc00117 	ldw	ra,4(sp)
  812ac0:	df000017 	ldw	fp,0(sp)
  812ac4:	dec00204 	addi	sp,sp,8
  812ac8:	f800283a 	ret

00812acc <altera_avalon_uart_write>:
 */

int
altera_avalon_uart_write(altera_avalon_uart_state* sp, const char* ptr, int len,
  int flags)
{
  812acc:	defff204 	addi	sp,sp,-56
  812ad0:	dfc00d15 	stw	ra,52(sp)
  812ad4:	df000c15 	stw	fp,48(sp)
  812ad8:	df000c04 	addi	fp,sp,48
  812adc:	e13ffc15 	stw	r4,-16(fp)
  812ae0:	e17ffd15 	stw	r5,-12(fp)
  812ae4:	e1bffe15 	stw	r6,-8(fp)
  812ae8:	e1ffff15 	stw	r7,-4(fp)
  alt_irq_context context;
  int             no_block;
  alt_u32         next;
  int             count = len;
  812aec:	e0bffe17 	ldw	r2,-8(fp)
  812af0:	e0bff415 	stw	r2,-48(fp)
  /* 
   * Construct a flag to indicate whether the device is being accessed in
   * blocking or non-blocking mode.
   */

  no_block = (flags & O_NONBLOCK);
  812af4:	e0bfff17 	ldw	r2,-4(fp)
  812af8:	1090000c 	andi	r2,r2,16384
  812afc:	e0bff515 	stw	r2,-44(fp)
   * Loop transferring data from the input buffer to the transmit circular
   * buffer. The loop is terminated once all the data has been transferred,
   * or, (if in non-blocking mode) the buffer becomes full.
   */

  while (count)
  812b00:	00003c06 	br	812bf4 <altera_avalon_uart_write+0x128>
  {
    /* Determine the next slot in the buffer to access */

    next = (sp->tx_end + 1) & ALT_AVALON_UART_BUF_MSK;
  812b04:	e0bffc17 	ldw	r2,-16(fp)
  812b08:	10800517 	ldw	r2,20(r2)
  812b0c:	10800044 	addi	r2,r2,1
  812b10:	10800fcc 	andi	r2,r2,63
  812b14:	e0bff715 	stw	r2,-36(fp)

    /* block waiting for space if necessary */

    if (next == sp->tx_start)
  812b18:	e0bffc17 	ldw	r2,-16(fp)
  812b1c:	10c00417 	ldw	r3,16(r2)
  812b20:	e0bff717 	ldw	r2,-36(fp)
  812b24:	1880221e 	bne	r3,r2,812bb0 <altera_avalon_uart_write+0xe4>
    {
      if (no_block)
  812b28:	e0bff517 	ldw	r2,-44(fp)
  812b2c:	10000526 	beq	r2,zero,812b44 <altera_avalon_uart_write+0x78>
      {
        /* Set errno to indicate why this function returned early */
 
        ALT_ERRNO = EWOULDBLOCK;
  812b30:	0812a900 	call	812a90 <alt_get_errno>
  812b34:	1007883a 	mov	r3,r2
  812b38:	008002c4 	movi	r2,11
  812b3c:	18800015 	stw	r2,0(r3)
        break;
  812b40:	00002e06 	br	812bfc <altera_avalon_uart_write+0x130>
static ALT_INLINE alt_irq_context ALT_ALWAYS_INLINE 
       alt_irq_disable_all (void)
{
  alt_irq_context context;

  NIOS2_READ_STATUS (context);
  812b44:	0005303a 	rdctl	r2,status
  812b48:	e0bff915 	stw	r2,-28(fp)

  NIOS2_WRITE_STATUS (context & ~NIOS2_STATUS_PIE_MSK);
  812b4c:	e0fff917 	ldw	r3,-28(fp)
  812b50:	00bfff84 	movi	r2,-2
  812b54:	1884703a 	and	r2,r3,r2
  812b58:	1001703a 	wrctl	status,r2
  
  return context;
  812b5c:	e0bff917 	ldw	r2,-28(fp)
      {
        /* Block waiting for space in the circular buffer */

        /* First, ensure transmit interrupts are enabled to avoid deadlock */

        context = alt_irq_disable_all ();
  812b60:	e0bff815 	stw	r2,-32(fp)
        sp->ctrl |= (ALTERA_AVALON_UART_CONTROL_TRDY_MSK |
  812b64:	e0bffc17 	ldw	r2,-16(fp)
  812b68:	10800117 	ldw	r2,4(r2)
  812b6c:	10c11014 	ori	r3,r2,1088
  812b70:	e0bffc17 	ldw	r2,-16(fp)
  812b74:	10c00115 	stw	r3,4(r2)
                        ALTERA_AVALON_UART_CONTROL_DCTS_MSK);
        IOWR_ALTERA_AVALON_UART_CONTROL(sp->base, sp->ctrl);
  812b78:	e0bffc17 	ldw	r2,-16(fp)
  812b7c:	10800017 	ldw	r2,0(r2)
  812b80:	10800304 	addi	r2,r2,12
  812b84:	e0fffc17 	ldw	r3,-16(fp)
  812b88:	18c00117 	ldw	r3,4(r3)
  812b8c:	10c00035 	stwio	r3,0(r2)
  812b90:	e0bff817 	ldw	r2,-32(fp)
  812b94:	e0bff615 	stw	r2,-40(fp)
  status &= ~NIOS2_STATUS_PIE_MSK;
  status |= (context & NIOS2_STATUS_PIE_MSK);
  
  NIOS2_WRITE_STATUS (status);
#else
  NIOS2_WRITE_STATUS (context);
  812b98:	e0bff617 	ldw	r2,-40(fp)
  812b9c:	1001703a 	wrctl	status,r2
          ALT_FLAG_PEND (sp->events, 
                         ALT_UART_WRITE_RDY,
                         OS_FLAG_WAIT_SET_ANY + OS_FLAG_CONSUME,
                         0);
        }
        while ((next == sp->tx_start));
  812ba0:	e0bffc17 	ldw	r2,-16(fp)
  812ba4:	10c00417 	ldw	r3,16(r2)
  812ba8:	e0bff717 	ldw	r2,-36(fp)
  812bac:	18bffc26 	beq	r3,r2,812ba0 <__alt_mem_onchip_mem+0xff792ba0>
      }
    }

    count--;
  812bb0:	e0bff417 	ldw	r2,-48(fp)
  812bb4:	10bfffc4 	addi	r2,r2,-1
  812bb8:	e0bff415 	stw	r2,-48(fp)

    /* Add the next character to the transmit buffer */

    sp->tx_buf[sp->tx_end] = *ptr++;
  812bbc:	e0bffc17 	ldw	r2,-16(fp)
  812bc0:	10c00517 	ldw	r3,20(r2)
  812bc4:	e0bffd17 	ldw	r2,-12(fp)
  812bc8:	11000044 	addi	r4,r2,1
  812bcc:	e13ffd15 	stw	r4,-12(fp)
  812bd0:	10800003 	ldbu	r2,0(r2)
  812bd4:	1009883a 	mov	r4,r2
  812bd8:	e0bffc17 	ldw	r2,-16(fp)
  812bdc:	10c5883a 	add	r2,r2,r3
  812be0:	10801704 	addi	r2,r2,92
  812be4:	11000005 	stb	r4,0(r2)
    sp->tx_end = next;
  812be8:	e0bffc17 	ldw	r2,-16(fp)
  812bec:	e0fff717 	ldw	r3,-36(fp)
  812bf0:	10c00515 	stw	r3,20(r2)
   * Loop transferring data from the input buffer to the transmit circular
   * buffer. The loop is terminated once all the data has been transferred,
   * or, (if in non-blocking mode) the buffer becomes full.
   */

  while (count)
  812bf4:	e0bff417 	ldw	r2,-48(fp)
  812bf8:	103fc21e 	bne	r2,zero,812b04 <__alt_mem_onchip_mem+0xff792b04>
static ALT_INLINE alt_irq_context ALT_ALWAYS_INLINE 
       alt_irq_disable_all (void)
{
  alt_irq_context context;

  NIOS2_READ_STATUS (context);
  812bfc:	0005303a 	rdctl	r2,status
  812c00:	e0bffb15 	stw	r2,-20(fp)

  NIOS2_WRITE_STATUS (context & ~NIOS2_STATUS_PIE_MSK);
  812c04:	e0fffb17 	ldw	r3,-20(fp)
  812c08:	00bfff84 	movi	r2,-2
  812c0c:	1884703a 	and	r2,r3,r2
  812c10:	1001703a 	wrctl	status,r2
  
  return context;
  812c14:	e0bffb17 	ldw	r2,-20(fp)
  /* 
   * Ensure that interrupts are enabled, so that the circular buffer can 
   * drain.
   */

  context = alt_irq_disable_all ();
  812c18:	e0bff815 	stw	r2,-32(fp)
  sp->ctrl |= ALTERA_AVALON_UART_CONTROL_TRDY_MSK |
  812c1c:	e0bffc17 	ldw	r2,-16(fp)
  812c20:	10800117 	ldw	r2,4(r2)
  812c24:	10c11014 	ori	r3,r2,1088
  812c28:	e0bffc17 	ldw	r2,-16(fp)
  812c2c:	10c00115 	stw	r3,4(r2)
                 ALTERA_AVALON_UART_CONTROL_DCTS_MSK;
  IOWR_ALTERA_AVALON_UART_CONTROL(sp->base, sp->ctrl);
  812c30:	e0bffc17 	ldw	r2,-16(fp)
  812c34:	10800017 	ldw	r2,0(r2)
  812c38:	10800304 	addi	r2,r2,12
  812c3c:	e0fffc17 	ldw	r3,-16(fp)
  812c40:	18c00117 	ldw	r3,4(r3)
  812c44:	10c00035 	stwio	r3,0(r2)
  812c48:	e0bff817 	ldw	r2,-32(fp)
  812c4c:	e0bffa15 	stw	r2,-24(fp)
  status &= ~NIOS2_STATUS_PIE_MSK;
  status |= (context & NIOS2_STATUS_PIE_MSK);
  
  NIOS2_WRITE_STATUS (status);
#else
  NIOS2_WRITE_STATUS (context);
  812c50:	e0bffa17 	ldw	r2,-24(fp)
  812c54:	1001703a 	wrctl	status,r2
  alt_irq_enable_all (context);

  /* return the number of bytes written */

  return (len - count);
  812c58:	e0fffe17 	ldw	r3,-8(fp)
  812c5c:	e0bff417 	ldw	r2,-48(fp)
  812c60:	1885c83a 	sub	r2,r3,r2
}
  812c64:	e037883a 	mov	sp,fp
  812c68:	dfc00117 	ldw	ra,4(sp)
  812c6c:	df000017 	ldw	fp,0(sp)
  812c70:	dec00204 	addi	sp,sp,8
  812c74:	f800283a 	ret

00812c78 <alt_dcache_flush_all>:
/*
 * alt_dcache_flush_all() is called to flush the entire data cache.
 */

void alt_dcache_flush_all (void)
{
  812c78:	defffe04 	addi	sp,sp,-8
  812c7c:	df000115 	stw	fp,4(sp)
  812c80:	df000104 	addi	fp,sp,4
#if NIOS2_DCACHE_SIZE > 0
  char* i;
  
  for (i = (char*) 0; i < (char*) NIOS2_DCACHE_SIZE; i+= NIOS2_DCACHE_LINE_SIZE)
  812c84:	e03fff15 	stw	zero,-4(fp)
  812c88:	00000506 	br	812ca0 <alt_dcache_flush_all+0x28>
  { 
    __asm__ volatile ("flushd (%0)" :: "r" (i));
  812c8c:	e0bfff17 	ldw	r2,-4(fp)
  812c90:	1000003b 	flushd	0(r2)
void alt_dcache_flush_all (void)
{
#if NIOS2_DCACHE_SIZE > 0
  char* i;
  
  for (i = (char*) 0; i < (char*) NIOS2_DCACHE_SIZE; i+= NIOS2_DCACHE_LINE_SIZE)
  812c94:	e0bfff17 	ldw	r2,-4(fp)
  812c98:	10800804 	addi	r2,r2,32
  812c9c:	e0bfff15 	stw	r2,-4(fp)
  812ca0:	e0bfff17 	ldw	r2,-4(fp)
  812ca4:	10820030 	cmpltui	r2,r2,2048
  812ca8:	103ff81e 	bne	r2,zero,812c8c <__alt_mem_onchip_mem+0xff792c8c>
  { 
    __asm__ volatile ("flushd (%0)" :: "r" (i));
  }
#endif /* NIOS2_DCACHE_SIZE > 0 */
}
  812cac:	0001883a 	nop
  812cb0:	e037883a 	mov	sp,fp
  812cb4:	df000017 	ldw	fp,0(sp)
  812cb8:	dec00104 	addi	sp,sp,4
  812cbc:	f800283a 	ret

00812cc0 <alt_get_errno>:
#undef errno

extern int errno;

static ALT_INLINE int* alt_get_errno(void)
{
  812cc0:	defffe04 	addi	sp,sp,-8
  812cc4:	dfc00115 	stw	ra,4(sp)
  812cc8:	df000015 	stw	fp,0(sp)
  812ccc:	d839883a 	mov	fp,sp
  return ((alt_errno) ? alt_errno() : &errno);
  812cd0:	d0a00c17 	ldw	r2,-32720(gp)
  812cd4:	10000326 	beq	r2,zero,812ce4 <alt_get_errno+0x24>
  812cd8:	d0a00c17 	ldw	r2,-32720(gp)
  812cdc:	103ee83a 	callr	r2
  812ce0:	00000106 	br	812ce8 <alt_get_errno+0x28>
  812ce4:	d0a78504 	addi	r2,gp,-25068
}
  812ce8:	e037883a 	mov	sp,fp
  812cec:	dfc00117 	ldw	ra,4(sp)
  812cf0:	df000017 	ldw	fp,0(sp)
  812cf4:	dec00204 	addi	sp,sp,8
  812cf8:	f800283a 	ret

00812cfc <alt_dev_llist_insert>:
/*
 *
 */

int alt_dev_llist_insert (alt_dev_llist* dev, alt_llist* list)
{
  812cfc:	defffa04 	addi	sp,sp,-24
  812d00:	dfc00515 	stw	ra,20(sp)
  812d04:	df000415 	stw	fp,16(sp)
  812d08:	df000404 	addi	fp,sp,16
  812d0c:	e13ffe15 	stw	r4,-8(fp)
  812d10:	e17fff15 	stw	r5,-4(fp)
  /*
   * check that the device exists, and that it has a valid name.
   */

  if (!dev || !dev->name)
  812d14:	e0bffe17 	ldw	r2,-8(fp)
  812d18:	10000326 	beq	r2,zero,812d28 <alt_dev_llist_insert+0x2c>
  812d1c:	e0bffe17 	ldw	r2,-8(fp)
  812d20:	10800217 	ldw	r2,8(r2)
  812d24:	1000061e 	bne	r2,zero,812d40 <alt_dev_llist_insert+0x44>
  {
    ALT_ERRNO = EINVAL;
  812d28:	0812cc00 	call	812cc0 <alt_get_errno>
  812d2c:	1007883a 	mov	r3,r2
  812d30:	00800584 	movi	r2,22
  812d34:	18800015 	stw	r2,0(r3)
    return -EINVAL;
  812d38:	00bffa84 	movi	r2,-22
  812d3c:	00001306 	br	812d8c <alt_dev_llist_insert+0x90>
  
  /*
   * register the device.
   */
  
  alt_llist_insert(list, &dev->llist);
  812d40:	e0bffe17 	ldw	r2,-8(fp)
  812d44:	e0ffff17 	ldw	r3,-4(fp)
  812d48:	e0fffc15 	stw	r3,-16(fp)
  812d4c:	e0bffd15 	stw	r2,-12(fp)
 */

static ALT_INLINE void ALT_ALWAYS_INLINE alt_llist_insert(alt_llist* list, 
                alt_llist* entry)
{
  entry->previous = list;
  812d50:	e0bffd17 	ldw	r2,-12(fp)
  812d54:	e0fffc17 	ldw	r3,-16(fp)
  812d58:	10c00115 	stw	r3,4(r2)
  entry->next     = list->next;
  812d5c:	e0bffc17 	ldw	r2,-16(fp)
  812d60:	10c00017 	ldw	r3,0(r2)
  812d64:	e0bffd17 	ldw	r2,-12(fp)
  812d68:	10c00015 	stw	r3,0(r2)

  list->next->previous = entry;
  812d6c:	e0bffc17 	ldw	r2,-16(fp)
  812d70:	10800017 	ldw	r2,0(r2)
  812d74:	e0fffd17 	ldw	r3,-12(fp)
  812d78:	10c00115 	stw	r3,4(r2)
  list->next           = entry;
  812d7c:	e0bffc17 	ldw	r2,-16(fp)
  812d80:	e0fffd17 	ldw	r3,-12(fp)
  812d84:	10c00015 	stw	r3,0(r2)

  return 0;  
  812d88:	0005883a 	mov	r2,zero
}
  812d8c:	e037883a 	mov	sp,fp
  812d90:	dfc00117 	ldw	ra,4(sp)
  812d94:	df000017 	ldw	fp,0(sp)
  812d98:	dec00204 	addi	sp,sp,8
  812d9c:	f800283a 	ret

00812da0 <_do_ctors>:
/*
 * Run the C++ static constructors.
 */

void _do_ctors(void)
{
  812da0:	defffd04 	addi	sp,sp,-12
  812da4:	dfc00215 	stw	ra,8(sp)
  812da8:	df000115 	stw	fp,4(sp)
  812dac:	df000104 	addi	fp,sp,4
  constructor* ctor;

  for (ctor = &__CTOR_END__[-1]; ctor >= __CTOR_LIST__; ctor--)
  812db0:	00802074 	movhi	r2,129
  812db4:	108ec604 	addi	r2,r2,15128
  812db8:	e0bfff15 	stw	r2,-4(fp)
  812dbc:	00000606 	br	812dd8 <_do_ctors+0x38>
        (*ctor) (); 
  812dc0:	e0bfff17 	ldw	r2,-4(fp)
  812dc4:	10800017 	ldw	r2,0(r2)
  812dc8:	103ee83a 	callr	r2

void _do_ctors(void)
{
  constructor* ctor;

  for (ctor = &__CTOR_END__[-1]; ctor >= __CTOR_LIST__; ctor--)
  812dcc:	e0bfff17 	ldw	r2,-4(fp)
  812dd0:	10bfff04 	addi	r2,r2,-4
  812dd4:	e0bfff15 	stw	r2,-4(fp)
  812dd8:	e0ffff17 	ldw	r3,-4(fp)
  812ddc:	00802074 	movhi	r2,129
  812de0:	108ec704 	addi	r2,r2,15132
  812de4:	18bff62e 	bgeu	r3,r2,812dc0 <__alt_mem_onchip_mem+0xff792dc0>
        (*ctor) (); 
}
  812de8:	0001883a 	nop
  812dec:	e037883a 	mov	sp,fp
  812df0:	dfc00117 	ldw	ra,4(sp)
  812df4:	df000017 	ldw	fp,0(sp)
  812df8:	dec00204 	addi	sp,sp,8
  812dfc:	f800283a 	ret

00812e00 <_do_dtors>:
/*
 * Run the C++ static destructors.
 */

void _do_dtors(void)
{
  812e00:	defffd04 	addi	sp,sp,-12
  812e04:	dfc00215 	stw	ra,8(sp)
  812e08:	df000115 	stw	fp,4(sp)
  812e0c:	df000104 	addi	fp,sp,4
  destructor* dtor;

  for (dtor = &__DTOR_END__[-1]; dtor >= __DTOR_LIST__; dtor--)
  812e10:	00802074 	movhi	r2,129
  812e14:	108ec604 	addi	r2,r2,15128
  812e18:	e0bfff15 	stw	r2,-4(fp)
  812e1c:	00000606 	br	812e38 <_do_dtors+0x38>
        (*dtor) (); 
  812e20:	e0bfff17 	ldw	r2,-4(fp)
  812e24:	10800017 	ldw	r2,0(r2)
  812e28:	103ee83a 	callr	r2

void _do_dtors(void)
{
  destructor* dtor;

  for (dtor = &__DTOR_END__[-1]; dtor >= __DTOR_LIST__; dtor--)
  812e2c:	e0bfff17 	ldw	r2,-4(fp)
  812e30:	10bfff04 	addi	r2,r2,-4
  812e34:	e0bfff15 	stw	r2,-4(fp)
  812e38:	e0ffff17 	ldw	r3,-4(fp)
  812e3c:	00802074 	movhi	r2,129
  812e40:	108ec704 	addi	r2,r2,15132
  812e44:	18bff62e 	bgeu	r3,r2,812e20 <__alt_mem_onchip_mem+0xff792e20>
        (*dtor) (); 
}
  812e48:	0001883a 	nop
  812e4c:	e037883a 	mov	sp,fp
  812e50:	dfc00117 	ldw	ra,4(sp)
  812e54:	df000017 	ldw	fp,0(sp)
  812e58:	dec00204 	addi	sp,sp,8
  812e5c:	f800283a 	ret

00812e60 <alt_find_dev>:
 * "name" must be an exact match for the devices registered name for a match to
 * be found.
 */
 
alt_dev* alt_find_dev(const char* name, alt_llist* llist)
{
  812e60:	defffa04 	addi	sp,sp,-24
  812e64:	dfc00515 	stw	ra,20(sp)
  812e68:	df000415 	stw	fp,16(sp)
  812e6c:	df000404 	addi	fp,sp,16
  812e70:	e13ffe15 	stw	r4,-8(fp)
  812e74:	e17fff15 	stw	r5,-4(fp)
  alt_dev* next = (alt_dev*) llist->next;
  812e78:	e0bfff17 	ldw	r2,-4(fp)
  812e7c:	10800017 	ldw	r2,0(r2)
  812e80:	e0bffc15 	stw	r2,-16(fp)
  alt_32 len;

  len  = strlen(name) + 1;
  812e84:	e13ffe17 	ldw	r4,-8(fp)
  812e88:	0804a4c0 	call	804a4c <strlen>
  812e8c:	10800044 	addi	r2,r2,1
  812e90:	e0bffd15 	stw	r2,-12(fp)
  /*
   * Check each list entry in turn, until a match is found, or we reach the
   * end of the list (i.e. next winds up pointing back to the list head).
   */ 

  while (next != (alt_dev*) llist)
  812e94:	00000d06 	br	812ecc <alt_find_dev+0x6c>
    /* 
     * memcmp() is used here rather than strcmp() in order to reduce the size
     * of the executable.
     */

    if (!memcmp (next->name, name, len))
  812e98:	e0bffc17 	ldw	r2,-16(fp)
  812e9c:	10800217 	ldw	r2,8(r2)
  812ea0:	e0fffd17 	ldw	r3,-12(fp)
  812ea4:	180d883a 	mov	r6,r3
  812ea8:	e17ffe17 	ldw	r5,-8(fp)
  812eac:	1009883a 	mov	r4,r2
  812eb0:	08137d40 	call	8137d4 <memcmp>
  812eb4:	1000021e 	bne	r2,zero,812ec0 <alt_find_dev+0x60>
    {
      /* match found */

      return next;
  812eb8:	e0bffc17 	ldw	r2,-16(fp)
  812ebc:	00000706 	br	812edc <alt_find_dev+0x7c>
    }
    next = (alt_dev*) next->llist.next;
  812ec0:	e0bffc17 	ldw	r2,-16(fp)
  812ec4:	10800017 	ldw	r2,0(r2)
  812ec8:	e0bffc15 	stw	r2,-16(fp)
  /*
   * Check each list entry in turn, until a match is found, or we reach the
   * end of the list (i.e. next winds up pointing back to the list head).
   */ 

  while (next != (alt_dev*) llist)
  812ecc:	e0fffc17 	ldw	r3,-16(fp)
  812ed0:	e0bfff17 	ldw	r2,-4(fp)
  812ed4:	18bff01e 	bne	r3,r2,812e98 <__alt_mem_onchip_mem+0xff792e98>
    next = (alt_dev*) next->llist.next;
  }
  
  /* No match found */
  
  return NULL;
  812ed8:	0005883a 	mov	r2,zero
}
  812edc:	e037883a 	mov	sp,fp
  812ee0:	dfc00117 	ldw	ra,4(sp)
  812ee4:	df000017 	ldw	fp,0(sp)
  812ee8:	dec00204 	addi	sp,sp,8
  812eec:	f800283a 	ret

00812ef0 <alt_find_file>:
 * either '/' or '\0' is the prefix of the filename. For example the filename:
 * "/myfilesystem/junk.txt" would match: "/myfilesystem", but not: "/myfile". 
 */
 
alt_dev* alt_find_file (const char* name)
{
  812ef0:	defffb04 	addi	sp,sp,-20
  812ef4:	dfc00415 	stw	ra,16(sp)
  812ef8:	df000315 	stw	fp,12(sp)
  812efc:	df000304 	addi	fp,sp,12
  812f00:	e13fff15 	stw	r4,-4(fp)
  alt_dev* next = (alt_dev*) alt_fs_list.next;   
  812f04:	d0a00717 	ldw	r2,-32740(gp)
  812f08:	e0bffd15 	stw	r2,-12(fp)
  /*
   * Check each list entry in turn, until a match is found, or we reach the
   * end of the list (i.e. next winds up pointing back to the list head).
   */ 
 
  while (next != (alt_dev*) &alt_fs_list)
  812f0c:	00003106 	br	812fd4 <alt_find_file+0xe4>
  {
    len = strlen(next->name);
  812f10:	e0bffd17 	ldw	r2,-12(fp)
  812f14:	10800217 	ldw	r2,8(r2)
  812f18:	1009883a 	mov	r4,r2
  812f1c:	0804a4c0 	call	804a4c <strlen>
  812f20:	e0bffe15 	stw	r2,-8(fp)
    
    if (next->name[len-1] == '/')
  812f24:	e0bffd17 	ldw	r2,-12(fp)
  812f28:	10c00217 	ldw	r3,8(r2)
  812f2c:	e0bffe17 	ldw	r2,-8(fp)
  812f30:	10bfffc4 	addi	r2,r2,-1
  812f34:	1885883a 	add	r2,r3,r2
  812f38:	10800003 	ldbu	r2,0(r2)
  812f3c:	10803fcc 	andi	r2,r2,255
  812f40:	1080201c 	xori	r2,r2,128
  812f44:	10bfe004 	addi	r2,r2,-128
  812f48:	10800bd8 	cmpnei	r2,r2,47
  812f4c:	1000031e 	bne	r2,zero,812f5c <alt_find_file+0x6c>
    {
      len -= 1;
  812f50:	e0bffe17 	ldw	r2,-8(fp)
  812f54:	10bfffc4 	addi	r2,r2,-1
  812f58:	e0bffe15 	stw	r2,-8(fp)
    }

    if (((name[len] == '/') || (name[len] == '\0')) && 
  812f5c:	e0bffe17 	ldw	r2,-8(fp)
  812f60:	e0ffff17 	ldw	r3,-4(fp)
  812f64:	1885883a 	add	r2,r3,r2
  812f68:	10800003 	ldbu	r2,0(r2)
  812f6c:	10803fcc 	andi	r2,r2,255
  812f70:	1080201c 	xori	r2,r2,128
  812f74:	10bfe004 	addi	r2,r2,-128
  812f78:	10800be0 	cmpeqi	r2,r2,47
  812f7c:	1000081e 	bne	r2,zero,812fa0 <alt_find_file+0xb0>
  812f80:	e0bffe17 	ldw	r2,-8(fp)
  812f84:	e0ffff17 	ldw	r3,-4(fp)
  812f88:	1885883a 	add	r2,r3,r2
  812f8c:	10800003 	ldbu	r2,0(r2)
  812f90:	10803fcc 	andi	r2,r2,255
  812f94:	1080201c 	xori	r2,r2,128
  812f98:	10bfe004 	addi	r2,r2,-128
  812f9c:	10000a1e 	bne	r2,zero,812fc8 <alt_find_file+0xd8>
        !memcmp (next->name, name, len))
  812fa0:	e0bffd17 	ldw	r2,-12(fp)
  812fa4:	10800217 	ldw	r2,8(r2)
  812fa8:	e0fffe17 	ldw	r3,-8(fp)
  812fac:	180d883a 	mov	r6,r3
  812fb0:	e17fff17 	ldw	r5,-4(fp)
  812fb4:	1009883a 	mov	r4,r2
  812fb8:	08137d40 	call	8137d4 <memcmp>
    if (next->name[len-1] == '/')
    {
      len -= 1;
    }

    if (((name[len] == '/') || (name[len] == '\0')) && 
  812fbc:	1000021e 	bne	r2,zero,812fc8 <alt_find_file+0xd8>
        !memcmp (next->name, name, len))
    {
      /* match found */

      return next;
  812fc0:	e0bffd17 	ldw	r2,-12(fp)
  812fc4:	00000706 	br	812fe4 <alt_find_file+0xf4>
    }
    next = (alt_dev*) next->llist.next;
  812fc8:	e0bffd17 	ldw	r2,-12(fp)
  812fcc:	10800017 	ldw	r2,0(r2)
  812fd0:	e0bffd15 	stw	r2,-12(fp)
  /*
   * Check each list entry in turn, until a match is found, or we reach the
   * end of the list (i.e. next winds up pointing back to the list head).
   */ 
 
  while (next != (alt_dev*) &alt_fs_list)
  812fd4:	e0fffd17 	ldw	r3,-12(fp)
  812fd8:	d0a00704 	addi	r2,gp,-32740
  812fdc:	18bfcc1e 	bne	r3,r2,812f10 <__alt_mem_onchip_mem+0xff792f10>
    next = (alt_dev*) next->llist.next;
  }
  
  /* No match found */
  
  return NULL;     
  812fe0:	0005883a 	mov	r2,zero
}
  812fe4:	e037883a 	mov	sp,fp
  812fe8:	dfc00117 	ldw	ra,4(sp)
  812fec:	df000017 	ldw	fp,0(sp)
  812ff0:	dec00204 	addi	sp,sp,8
  812ff4:	f800283a 	ret

00812ff8 <alt_get_fd>:
 * the offset of the file descriptor within the file descriptor array). A
 * negative value indicates failure.
 */

int alt_get_fd (alt_dev* dev)
{
  812ff8:	defffc04 	addi	sp,sp,-16
  812ffc:	df000315 	stw	fp,12(sp)
  813000:	df000304 	addi	fp,sp,12
  813004:	e13fff15 	stw	r4,-4(fp)
  alt_32 i;
  int rc = -EMFILE;
  813008:	00bffa04 	movi	r2,-24
  81300c:	e0bffe15 	stw	r2,-8(fp)
   * indicates the highest file descriptor ever allocated. This is used to
   * improve efficency when searching the file descriptor list, and 
   * therefore reduce contention on the alt_fd_list_lock semaphore. 
   */

  for (i = 0; i < ALT_MAX_FD; i++)
  813010:	e03ffd15 	stw	zero,-12(fp)
  813014:	00001906 	br	81307c <alt_get_fd+0x84>
  {
    if (!alt_fd_list[i].dev)
  813018:	00802074 	movhi	r2,129
  81301c:	1092a504 	addi	r2,r2,19092
  813020:	e0fffd17 	ldw	r3,-12(fp)
  813024:	18c00324 	muli	r3,r3,12
  813028:	10c5883a 	add	r2,r2,r3
  81302c:	10800017 	ldw	r2,0(r2)
  813030:	10000f1e 	bne	r2,zero,813070 <alt_get_fd+0x78>
    {
      alt_fd_list[i].dev = dev;
  813034:	00802074 	movhi	r2,129
  813038:	1092a504 	addi	r2,r2,19092
  81303c:	e0fffd17 	ldw	r3,-12(fp)
  813040:	18c00324 	muli	r3,r3,12
  813044:	10c5883a 	add	r2,r2,r3
  813048:	e0ffff17 	ldw	r3,-4(fp)
  81304c:	10c00015 	stw	r3,0(r2)
      if (i > alt_max_fd)
  813050:	d0e00b17 	ldw	r3,-32724(gp)
  813054:	e0bffd17 	ldw	r2,-12(fp)
  813058:	1880020e 	bge	r3,r2,813064 <alt_get_fd+0x6c>
      {
        alt_max_fd = i;
  81305c:	e0bffd17 	ldw	r2,-12(fp)
  813060:	d0a00b15 	stw	r2,-32724(gp)
      }
      rc = i;
  813064:	e0bffd17 	ldw	r2,-12(fp)
  813068:	e0bffe15 	stw	r2,-8(fp)
      goto alt_get_fd_exit;
  81306c:	00000606 	br	813088 <alt_get_fd+0x90>
   * indicates the highest file descriptor ever allocated. This is used to
   * improve efficency when searching the file descriptor list, and 
   * therefore reduce contention on the alt_fd_list_lock semaphore. 
   */

  for (i = 0; i < ALT_MAX_FD; i++)
  813070:	e0bffd17 	ldw	r2,-12(fp)
  813074:	10800044 	addi	r2,r2,1
  813078:	e0bffd15 	stw	r2,-12(fp)
  81307c:	e0bffd17 	ldw	r2,-12(fp)
  813080:	10800810 	cmplti	r2,r2,32
  813084:	103fe41e 	bne	r2,zero,813018 <__alt_mem_onchip_mem+0xff793018>
   * file descriptor pool.
   */

  ALT_SEM_POST(alt_fd_list_lock);

  return rc;
  813088:	e0bffe17 	ldw	r2,-8(fp)
}
  81308c:	e037883a 	mov	sp,fp
  813090:	df000017 	ldw	fp,0(sp)
  813094:	dec00104 	addi	sp,sp,4
  813098:	f800283a 	ret

0081309c <alt_icache_flush_all>:
/*
 * alt_icache_flush_all() is called to flush the entire instruction cache.
 */

void alt_icache_flush_all (void)
{
  81309c:	defffe04 	addi	sp,sp,-8
  8130a0:	dfc00115 	stw	ra,4(sp)
  8130a4:	df000015 	stw	fp,0(sp)
  8130a8:	d839883a 	mov	fp,sp
#if NIOS2_ICACHE_SIZE > 0
  alt_icache_flush (0, NIOS2_ICACHE_SIZE);
  8130ac:	01440004 	movi	r5,4096
  8130b0:	0009883a 	mov	r4,zero
  8130b4:	081365c0 	call	81365c <alt_icache_flush>
#endif
}
  8130b8:	0001883a 	nop
  8130bc:	e037883a 	mov	sp,fp
  8130c0:	dfc00117 	ldw	ra,4(sp)
  8130c4:	df000017 	ldw	fp,0(sp)
  8130c8:	dec00204 	addi	sp,sp,8
  8130cc:	f800283a 	ret

008130d0 <alt_ic_isr_register>:
  * @param irq              IRQ number
  * @return                 0 if successful, else error (-1)
  */
int alt_ic_isr_register(alt_u32 ic_id, alt_u32 irq, alt_isr_func isr, 
  void *isr_context, void *flags)
{
  8130d0:	defff904 	addi	sp,sp,-28
  8130d4:	dfc00615 	stw	ra,24(sp)
  8130d8:	df000515 	stw	fp,20(sp)
  8130dc:	df000504 	addi	fp,sp,20
  8130e0:	e13ffc15 	stw	r4,-16(fp)
  8130e4:	e17ffd15 	stw	r5,-12(fp)
  8130e8:	e1bffe15 	stw	r6,-8(fp)
  8130ec:	e1ffff15 	stw	r7,-4(fp)
    return alt_iic_isr_register(ic_id, irq, isr, isr_context, flags);
  8130f0:	e0800217 	ldw	r2,8(fp)
  8130f4:	d8800015 	stw	r2,0(sp)
  8130f8:	e1ffff17 	ldw	r7,-4(fp)
  8130fc:	e1bffe17 	ldw	r6,-8(fp)
  813100:	e17ffd17 	ldw	r5,-12(fp)
  813104:	e13ffc17 	ldw	r4,-16(fp)
  813108:	08132800 	call	813280 <alt_iic_isr_register>
}  
  81310c:	e037883a 	mov	sp,fp
  813110:	dfc00117 	ldw	ra,4(sp)
  813114:	df000017 	ldw	fp,0(sp)
  813118:	dec00204 	addi	sp,sp,8
  81311c:	f800283a 	ret

00813120 <alt_ic_irq_enable>:
  * @param ic_id            Ignored.
  * @param irq              IRQ number
  * @return                 0 if successful, else error (-1)
  */
int alt_ic_irq_enable (alt_u32 ic_id, alt_u32 irq)
{
  813120:	defff904 	addi	sp,sp,-28
  813124:	df000615 	stw	fp,24(sp)
  813128:	df000604 	addi	fp,sp,24
  81312c:	e13ffe15 	stw	r4,-8(fp)
  813130:	e17fff15 	stw	r5,-4(fp)
  813134:	e0bfff17 	ldw	r2,-4(fp)
  813138:	e0bffa15 	stw	r2,-24(fp)
static ALT_INLINE alt_irq_context ALT_ALWAYS_INLINE 
       alt_irq_disable_all (void)
{
  alt_irq_context context;

  NIOS2_READ_STATUS (context);
  81313c:	0005303a 	rdctl	r2,status
  813140:	e0bffb15 	stw	r2,-20(fp)

  NIOS2_WRITE_STATUS (context & ~NIOS2_STATUS_PIE_MSK);
  813144:	e0fffb17 	ldw	r3,-20(fp)
  813148:	00bfff84 	movi	r2,-2
  81314c:	1884703a 	and	r2,r3,r2
  813150:	1001703a 	wrctl	status,r2
  
  return context;
  813154:	e0bffb17 	ldw	r2,-20(fp)
static ALT_INLINE int ALT_ALWAYS_INLINE alt_irq_enable (alt_u32 id)
{
  alt_irq_context  status;
  extern volatile alt_u32 alt_irq_active;

  status = alt_irq_disable_all ();
  813158:	e0bffc15 	stw	r2,-16(fp)

  alt_irq_active |= (1 << id);
  81315c:	00c00044 	movi	r3,1
  813160:	e0bffa17 	ldw	r2,-24(fp)
  813164:	1884983a 	sll	r2,r3,r2
  813168:	1007883a 	mov	r3,r2
  81316c:	d0a79117 	ldw	r2,-25020(gp)
  813170:	1884b03a 	or	r2,r3,r2
  813174:	d0a79115 	stw	r2,-25020(gp)
  NIOS2_WRITE_IENABLE (alt_irq_active);
  813178:	d0a79117 	ldw	r2,-25020(gp)
  81317c:	100170fa 	wrctl	ienable,r2
  813180:	e0bffc17 	ldw	r2,-16(fp)
  813184:	e0bffd15 	stw	r2,-12(fp)
  status &= ~NIOS2_STATUS_PIE_MSK;
  status |= (context & NIOS2_STATUS_PIE_MSK);
  
  NIOS2_WRITE_STATUS (status);
#else
  NIOS2_WRITE_STATUS (context);
  813188:	e0bffd17 	ldw	r2,-12(fp)
  81318c:	1001703a 	wrctl	status,r2

  alt_irq_enable_all(status);

  return 0;
  813190:	0005883a 	mov	r2,zero
    return alt_irq_enable(irq);
  813194:	0001883a 	nop
}
  813198:	e037883a 	mov	sp,fp
  81319c:	df000017 	ldw	fp,0(sp)
  8131a0:	dec00104 	addi	sp,sp,4
  8131a4:	f800283a 	ret

008131a8 <alt_ic_irq_disable>:
  * @param ic_id            Ignored.
  * @param irq              IRQ number
  * @return                 0 if successful, else error (-1)
  */
int alt_ic_irq_disable(alt_u32 ic_id, alt_u32 irq)
{
  8131a8:	defff904 	addi	sp,sp,-28
  8131ac:	df000615 	stw	fp,24(sp)
  8131b0:	df000604 	addi	fp,sp,24
  8131b4:	e13ffe15 	stw	r4,-8(fp)
  8131b8:	e17fff15 	stw	r5,-4(fp)
  8131bc:	e0bfff17 	ldw	r2,-4(fp)
  8131c0:	e0bffa15 	stw	r2,-24(fp)
static ALT_INLINE alt_irq_context ALT_ALWAYS_INLINE 
       alt_irq_disable_all (void)
{
  alt_irq_context context;

  NIOS2_READ_STATUS (context);
  8131c4:	0005303a 	rdctl	r2,status
  8131c8:	e0bffb15 	stw	r2,-20(fp)

  NIOS2_WRITE_STATUS (context & ~NIOS2_STATUS_PIE_MSK);
  8131cc:	e0fffb17 	ldw	r3,-20(fp)
  8131d0:	00bfff84 	movi	r2,-2
  8131d4:	1884703a 	and	r2,r3,r2
  8131d8:	1001703a 	wrctl	status,r2
  
  return context;
  8131dc:	e0bffb17 	ldw	r2,-20(fp)
static ALT_INLINE int ALT_ALWAYS_INLINE alt_irq_disable (alt_u32 id)
{
  alt_irq_context  status;
  extern volatile alt_u32 alt_irq_active;

  status = alt_irq_disable_all ();
  8131e0:	e0bffc15 	stw	r2,-16(fp)

  alt_irq_active &= ~(1 << id);
  8131e4:	00c00044 	movi	r3,1
  8131e8:	e0bffa17 	ldw	r2,-24(fp)
  8131ec:	1884983a 	sll	r2,r3,r2
  8131f0:	0084303a 	nor	r2,zero,r2
  8131f4:	1007883a 	mov	r3,r2
  8131f8:	d0a79117 	ldw	r2,-25020(gp)
  8131fc:	1884703a 	and	r2,r3,r2
  813200:	d0a79115 	stw	r2,-25020(gp)
  NIOS2_WRITE_IENABLE (alt_irq_active);
  813204:	d0a79117 	ldw	r2,-25020(gp)
  813208:	100170fa 	wrctl	ienable,r2
  81320c:	e0bffc17 	ldw	r2,-16(fp)
  813210:	e0bffd15 	stw	r2,-12(fp)
  status &= ~NIOS2_STATUS_PIE_MSK;
  status |= (context & NIOS2_STATUS_PIE_MSK);
  
  NIOS2_WRITE_STATUS (status);
#else
  NIOS2_WRITE_STATUS (context);
  813214:	e0bffd17 	ldw	r2,-12(fp)
  813218:	1001703a 	wrctl	status,r2

  alt_irq_enable_all(status);

  return 0;
  81321c:	0005883a 	mov	r2,zero
    return alt_irq_disable(irq);
  813220:	0001883a 	nop
}
  813224:	e037883a 	mov	sp,fp
  813228:	df000017 	ldw	fp,0(sp)
  81322c:	dec00104 	addi	sp,sp,4
  813230:	f800283a 	ret

00813234 <alt_ic_irq_enabled>:
  * @param irq              IRQ number
  * @return                 Zero if corresponding interrupt is disabled and
  *                         non-zero otherwise.
  */
alt_u32 alt_ic_irq_enabled(alt_u32 ic_id, alt_u32 irq)
{
  813234:	defffc04 	addi	sp,sp,-16
  813238:	df000315 	stw	fp,12(sp)
  81323c:	df000304 	addi	fp,sp,12
  813240:	e13ffe15 	stw	r4,-8(fp)
  813244:	e17fff15 	stw	r5,-4(fp)
    alt_u32 irq_enabled;

    NIOS2_READ_IENABLE(irq_enabled);
  813248:	000530fa 	rdctl	r2,ienable
  81324c:	e0bffd15 	stw	r2,-12(fp)

    return (irq_enabled & (1 << irq)) ? 1: 0;
  813250:	00c00044 	movi	r3,1
  813254:	e0bfff17 	ldw	r2,-4(fp)
  813258:	1884983a 	sll	r2,r3,r2
  81325c:	1007883a 	mov	r3,r2
  813260:	e0bffd17 	ldw	r2,-12(fp)
  813264:	1884703a 	and	r2,r3,r2
  813268:	1004c03a 	cmpne	r2,r2,zero
  81326c:	10803fcc 	andi	r2,r2,255
}
  813270:	e037883a 	mov	sp,fp
  813274:	df000017 	ldw	fp,0(sp)
  813278:	dec00104 	addi	sp,sp,4
  81327c:	f800283a 	ret

00813280 <alt_iic_isr_register>:
  * @param flags            
  * @return                 0 if successful, else error (-1)
  */
int alt_iic_isr_register(alt_u32 ic_id, alt_u32 irq, alt_isr_func isr, 
  void *isr_context, void *flags)
{
  813280:	defff504 	addi	sp,sp,-44
  813284:	dfc00a15 	stw	ra,40(sp)
  813288:	df000915 	stw	fp,36(sp)
  81328c:	df000904 	addi	fp,sp,36
  813290:	e13ffc15 	stw	r4,-16(fp)
  813294:	e17ffd15 	stw	r5,-12(fp)
  813298:	e1bffe15 	stw	r6,-8(fp)
  81329c:	e1ffff15 	stw	r7,-4(fp)
  int rc = -EINVAL;  
  8132a0:	00bffa84 	movi	r2,-22
  8132a4:	e0bff715 	stw	r2,-36(fp)
  int id = irq;             /* IRQ interpreted as the interrupt ID. */
  8132a8:	e0bffd17 	ldw	r2,-12(fp)
  8132ac:	e0bff815 	stw	r2,-32(fp)
  alt_irq_context status;

  if (id < ALT_NIRQ)
  8132b0:	e0bff817 	ldw	r2,-32(fp)
  8132b4:	10800808 	cmpgei	r2,r2,32
  8132b8:	1000271e 	bne	r2,zero,813358 <alt_iic_isr_register+0xd8>
static ALT_INLINE alt_irq_context ALT_ALWAYS_INLINE 
       alt_irq_disable_all (void)
{
  alt_irq_context context;

  NIOS2_READ_STATUS (context);
  8132bc:	0005303a 	rdctl	r2,status
  8132c0:	e0bffb15 	stw	r2,-20(fp)

  NIOS2_WRITE_STATUS (context & ~NIOS2_STATUS_PIE_MSK);
  8132c4:	e0fffb17 	ldw	r3,-20(fp)
  8132c8:	00bfff84 	movi	r2,-2
  8132cc:	1884703a 	and	r2,r3,r2
  8132d0:	1001703a 	wrctl	status,r2
  
  return context;
  8132d4:	e0bffb17 	ldw	r2,-20(fp)
     * interrupts are disabled while the handler tables are updated to ensure
     * that an interrupt doesn't occur while the tables are in an inconsistant
     * state.
     */

    status = alt_irq_disable_all();
  8132d8:	e0bffa15 	stw	r2,-24(fp)

    alt_irq[id].handler = isr;
  8132dc:	00802074 	movhi	r2,129
  8132e0:	109f9304 	addi	r2,r2,32332
  8132e4:	e0fff817 	ldw	r3,-32(fp)
  8132e8:	180690fa 	slli	r3,r3,3
  8132ec:	10c5883a 	add	r2,r2,r3
  8132f0:	e0fffe17 	ldw	r3,-8(fp)
  8132f4:	10c00015 	stw	r3,0(r2)
    alt_irq[id].context = isr_context;
  8132f8:	00802074 	movhi	r2,129
  8132fc:	109f9304 	addi	r2,r2,32332
  813300:	e0fff817 	ldw	r3,-32(fp)
  813304:	180690fa 	slli	r3,r3,3
  813308:	10c5883a 	add	r2,r2,r3
  81330c:	10800104 	addi	r2,r2,4
  813310:	e0ffff17 	ldw	r3,-4(fp)
  813314:	10c00015 	stw	r3,0(r2)

    rc = (isr) ? alt_ic_irq_enable(ic_id, id) : alt_ic_irq_disable(ic_id, id);
  813318:	e0bffe17 	ldw	r2,-8(fp)
  81331c:	10000526 	beq	r2,zero,813334 <alt_iic_isr_register+0xb4>
  813320:	e0bff817 	ldw	r2,-32(fp)
  813324:	100b883a 	mov	r5,r2
  813328:	e13ffc17 	ldw	r4,-16(fp)
  81332c:	08131200 	call	813120 <alt_ic_irq_enable>
  813330:	00000406 	br	813344 <alt_iic_isr_register+0xc4>
  813334:	e0bff817 	ldw	r2,-32(fp)
  813338:	100b883a 	mov	r5,r2
  81333c:	e13ffc17 	ldw	r4,-16(fp)
  813340:	08131a80 	call	8131a8 <alt_ic_irq_disable>
  813344:	e0bff715 	stw	r2,-36(fp)
  813348:	e0bffa17 	ldw	r2,-24(fp)
  81334c:	e0bff915 	stw	r2,-28(fp)
  status &= ~NIOS2_STATUS_PIE_MSK;
  status |= (context & NIOS2_STATUS_PIE_MSK);
  
  NIOS2_WRITE_STATUS (status);
#else
  NIOS2_WRITE_STATUS (context);
  813350:	e0bff917 	ldw	r2,-28(fp)
  813354:	1001703a 	wrctl	status,r2

    alt_irq_enable_all(status);
  }

  return rc; 
  813358:	e0bff717 	ldw	r2,-36(fp)
}
  81335c:	e037883a 	mov	sp,fp
  813360:	dfc00117 	ldw	ra,4(sp)
  813364:	df000017 	ldw	fp,0(sp)
  813368:	dec00204 	addi	sp,sp,8
  81336c:	f800283a 	ret

00813370 <alt_open_fd>:
 * If the device can not be succesfully opened, then the input file descriptor
 * remains unchanged.
 */

static void alt_open_fd(alt_fd* fd, const char* name, int flags, int mode)
{
  813370:	defff904 	addi	sp,sp,-28
  813374:	dfc00615 	stw	ra,24(sp)
  813378:	df000515 	stw	fp,20(sp)
  81337c:	df000504 	addi	fp,sp,20
  813380:	e13ffc15 	stw	r4,-16(fp)
  813384:	e17ffd15 	stw	r5,-12(fp)
  813388:	e1bffe15 	stw	r6,-8(fp)
  81338c:	e1ffff15 	stw	r7,-4(fp)
  int old;

  old = open (name, flags, mode);
  813390:	e1bfff17 	ldw	r6,-4(fp)
  813394:	e17ffe17 	ldw	r5,-8(fp)
  813398:	e13ffd17 	ldw	r4,-12(fp)
  81339c:	08101e80 	call	8101e8 <open>
  8133a0:	e0bffb15 	stw	r2,-20(fp)

  if (old >= 0)
  8133a4:	e0bffb17 	ldw	r2,-20(fp)
  8133a8:	10001c16 	blt	r2,zero,81341c <alt_open_fd+0xac>
  {
    fd->dev      = alt_fd_list[old].dev;
  8133ac:	00802074 	movhi	r2,129
  8133b0:	1092a504 	addi	r2,r2,19092
  8133b4:	e0fffb17 	ldw	r3,-20(fp)
  8133b8:	18c00324 	muli	r3,r3,12
  8133bc:	10c5883a 	add	r2,r2,r3
  8133c0:	10c00017 	ldw	r3,0(r2)
  8133c4:	e0bffc17 	ldw	r2,-16(fp)
  8133c8:	10c00015 	stw	r3,0(r2)
    fd->priv     = alt_fd_list[old].priv;
  8133cc:	00802074 	movhi	r2,129
  8133d0:	1092a504 	addi	r2,r2,19092
  8133d4:	e0fffb17 	ldw	r3,-20(fp)
  8133d8:	18c00324 	muli	r3,r3,12
  8133dc:	10c5883a 	add	r2,r2,r3
  8133e0:	10800104 	addi	r2,r2,4
  8133e4:	10c00017 	ldw	r3,0(r2)
  8133e8:	e0bffc17 	ldw	r2,-16(fp)
  8133ec:	10c00115 	stw	r3,4(r2)
    fd->fd_flags = alt_fd_list[old].fd_flags;
  8133f0:	00802074 	movhi	r2,129
  8133f4:	1092a504 	addi	r2,r2,19092
  8133f8:	e0fffb17 	ldw	r3,-20(fp)
  8133fc:	18c00324 	muli	r3,r3,12
  813400:	10c5883a 	add	r2,r2,r3
  813404:	10800204 	addi	r2,r2,8
  813408:	10c00017 	ldw	r3,0(r2)
  81340c:	e0bffc17 	ldw	r2,-16(fp)
  813410:	10c00215 	stw	r3,8(r2)

    alt_release_fd (old);
  813414:	e13ffb17 	ldw	r4,-20(fp)
  813418:	08104740 	call	810474 <alt_release_fd>
  }
} 
  81341c:	0001883a 	nop
  813420:	e037883a 	mov	sp,fp
  813424:	dfc00117 	ldw	ra,4(sp)
  813428:	df000017 	ldw	fp,0(sp)
  81342c:	dec00204 	addi	sp,sp,8
  813430:	f800283a 	ret

00813434 <alt_io_redirect>:
 */
 
void alt_io_redirect(const char* stdout_dev, 
                     const char* stdin_dev, 
                     const char* stderr_dev)
{
  813434:	defffb04 	addi	sp,sp,-20
  813438:	dfc00415 	stw	ra,16(sp)
  81343c:	df000315 	stw	fp,12(sp)
  813440:	df000304 	addi	fp,sp,12
  813444:	e13ffd15 	stw	r4,-12(fp)
  813448:	e17ffe15 	stw	r5,-8(fp)
  81344c:	e1bfff15 	stw	r6,-4(fp)
  /* Redirect the channels */

  alt_open_fd (&alt_fd_list[STDOUT_FILENO], stdout_dev, O_WRONLY, 0777);
  813450:	01c07fc4 	movi	r7,511
  813454:	01800044 	movi	r6,1
  813458:	e17ffd17 	ldw	r5,-12(fp)
  81345c:	01002074 	movhi	r4,129
  813460:	2112a804 	addi	r4,r4,19104
  813464:	08133700 	call	813370 <alt_open_fd>
  alt_open_fd (&alt_fd_list[STDIN_FILENO], stdin_dev, O_RDONLY, 0777);
  813468:	01c07fc4 	movi	r7,511
  81346c:	000d883a 	mov	r6,zero
  813470:	e17ffe17 	ldw	r5,-8(fp)
  813474:	01002074 	movhi	r4,129
  813478:	2112a504 	addi	r4,r4,19092
  81347c:	08133700 	call	813370 <alt_open_fd>
  alt_open_fd (&alt_fd_list[STDERR_FILENO], stderr_dev, O_WRONLY, 0777);
  813480:	01c07fc4 	movi	r7,511
  813484:	01800044 	movi	r6,1
  813488:	e17fff17 	ldw	r5,-4(fp)
  81348c:	01002074 	movhi	r4,129
  813490:	2112ab04 	addi	r4,r4,19116
  813494:	08133700 	call	813370 <alt_open_fd>
}  
  813498:	0001883a 	nop
  81349c:	e037883a 	mov	sp,fp
  8134a0:	dfc00117 	ldw	ra,4(sp)
  8134a4:	df000017 	ldw	fp,0(sp)
  8134a8:	dec00204 	addi	sp,sp,8
  8134ac:	f800283a 	ret

008134b0 <usleep>:
#if defined (__GNUC__) && __GNUC__ >= 4
int ALT_USLEEP (useconds_t us)
#else
unsigned int ALT_USLEEP (unsigned int us)
#endif
{
  8134b0:	defffd04 	addi	sp,sp,-12
  8134b4:	dfc00215 	stw	ra,8(sp)
  8134b8:	df000115 	stw	fp,4(sp)
  8134bc:	df000104 	addi	fp,sp,4
  8134c0:	e13fff15 	stw	r4,-4(fp)
  return alt_busy_sleep(us);
  8134c4:	e13fff17 	ldw	r4,-4(fp)
  8134c8:	08135040 	call	813504 <alt_busy_sleep>
}
  8134cc:	e037883a 	mov	sp,fp
  8134d0:	dfc00117 	ldw	ra,4(sp)
  8134d4:	df000017 	ldw	fp,0(sp)
  8134d8:	dec00204 	addi	sp,sp,8
  8134dc:	f800283a 	ret

008134e0 <altera_nios2_gen2_irq_init>:
/*
 * To initialize the internal interrupt controller, just clear the IENABLE
 * register so that all possible IRQs are disabled.
 */
void altera_nios2_gen2_irq_init(void) 
{
  8134e0:	deffff04 	addi	sp,sp,-4
  8134e4:	df000015 	stw	fp,0(sp)
  8134e8:	d839883a 	mov	fp,sp
    NIOS2_WRITE_IENABLE(0);
  8134ec:	000170fa 	wrctl	ienable,zero
}
  8134f0:	0001883a 	nop
  8134f4:	e037883a 	mov	sp,fp
  8134f8:	df000017 	ldw	fp,0(sp)
  8134fc:	dec00104 	addi	sp,sp,4
  813500:	f800283a 	ret

00813504 <alt_busy_sleep>:
#include "alt_types.h"

#include "priv/alt_busy_sleep.h"

unsigned int alt_busy_sleep (unsigned int us)
{
  813504:	defffa04 	addi	sp,sp,-24
  813508:	dfc00515 	stw	ra,20(sp)
  81350c:	df000415 	stw	fp,16(sp)
  813510:	df000404 	addi	fp,sp,16
  813514:	e13fff15 	stw	r4,-4(fp)
  {
    cycles_per_loop = 9;
  }
  else  
  {
    cycles_per_loop = 3;
  813518:	008000c4 	movi	r2,3
  81351c:	e0bffd15 	stw	r2,-12(fp)
  }
  

  big_loops = us / (INT_MAX/
  (ALT_CPU_FREQ/(cycles_per_loop * 1000000)));
  813520:	e0fffd17 	ldw	r3,-12(fp)
  813524:	008003f4 	movhi	r2,15
  813528:	10909004 	addi	r2,r2,16960
  81352c:	1885383a 	mul	r2,r3,r2
  813530:	100b883a 	mov	r5,r2
  813534:	0100bef4 	movhi	r4,763
  813538:	213c2004 	addi	r4,r4,-3968
  81353c:	080d2d40 	call	80d2d4 <__udivsi3>
  {
    cycles_per_loop = 3;
  }
  

  big_loops = us / (INT_MAX/
  813540:	100b883a 	mov	r5,r2
  813544:	01200034 	movhi	r4,32768
  813548:	213fffc4 	addi	r4,r4,-1
  81354c:	080d2d40 	call	80d2d4 <__udivsi3>
  813550:	100b883a 	mov	r5,r2
  813554:	e13fff17 	ldw	r4,-4(fp)
  813558:	080d2d40 	call	80d2d4 <__udivsi3>
  81355c:	e0bffe15 	stw	r2,-8(fp)
  (ALT_CPU_FREQ/(cycles_per_loop * 1000000)));

  if (big_loops)
  813560:	e0bffe17 	ldw	r2,-8(fp)
  813564:	10002a26 	beq	r2,zero,813610 <alt_busy_sleep+0x10c>
  {
    for(i=0;i<big_loops;i++)
  813568:	e03ffc15 	stw	zero,-16(fp)
  81356c:	00001706 	br	8135cc <alt_busy_sleep+0xc8>
      /*
      * Do NOT Try to single step the asm statement below 
      * (single step will never return)
      * Step out of this function or set a breakpoint after the asm statements
      */
      __asm__ volatile (
  813570:	00a00034 	movhi	r2,32768
  813574:	10bfffc4 	addi	r2,r2,-1
  813578:	10bfffc4 	addi	r2,r2,-1
  81357c:	103ffe1e 	bne	r2,zero,813578 <__alt_mem_onchip_mem+0xff793578>
        "\n\t.pushsection .debug_alt_sim_info"
        "\n\t.int 4, 0, 0b, 1b"
        "\n\t.popsection"
        :: "r" (INT_MAX));
      us -= (INT_MAX/(ALT_CPU_FREQ/
      (cycles_per_loop * 1000000)));
  813580:	e0fffd17 	ldw	r3,-12(fp)
  813584:	008003f4 	movhi	r2,15
  813588:	10909004 	addi	r2,r2,16960
  81358c:	1885383a 	mul	r2,r3,r2
        "\n1:"
        "\n\t.pushsection .debug_alt_sim_info"
        "\n\t.int 4, 0, 0b, 1b"
        "\n\t.popsection"
        :: "r" (INT_MAX));
      us -= (INT_MAX/(ALT_CPU_FREQ/
  813590:	100b883a 	mov	r5,r2
  813594:	0100bef4 	movhi	r4,763
  813598:	213c2004 	addi	r4,r4,-3968
  81359c:	080d2d40 	call	80d2d4 <__udivsi3>
  8135a0:	100b883a 	mov	r5,r2
  8135a4:	01200034 	movhi	r4,32768
  8135a8:	213fffc4 	addi	r4,r4,-1
  8135ac:	080d2d40 	call	80d2d4 <__udivsi3>
  8135b0:	1007883a 	mov	r3,r2
  8135b4:	e0bfff17 	ldw	r2,-4(fp)
  8135b8:	10c5c83a 	sub	r2,r2,r3
  8135bc:	e0bfff15 	stw	r2,-4(fp)
  big_loops = us / (INT_MAX/
  (ALT_CPU_FREQ/(cycles_per_loop * 1000000)));

  if (big_loops)
  {
    for(i=0;i<big_loops;i++)
  8135c0:	e0bffc17 	ldw	r2,-16(fp)
  8135c4:	10800044 	addi	r2,r2,1
  8135c8:	e0bffc15 	stw	r2,-16(fp)
  8135cc:	e0fffc17 	ldw	r3,-16(fp)
  8135d0:	e0bffe17 	ldw	r2,-8(fp)
  8135d4:	18bfe616 	blt	r3,r2,813570 <__alt_mem_onchip_mem+0xff793570>
      "\n\tbne %0,zero,0b"
      "\n1:"
      "\n\t.pushsection .debug_alt_sim_info"
      "\n\t.int 4, 0, 0b, 1b"
      "\n\t.popsection"
      :: "r" (us*(ALT_CPU_FREQ/(cycles_per_loop * 1000000))));
  8135d8:	e0fffd17 	ldw	r3,-12(fp)
  8135dc:	008003f4 	movhi	r2,15
  8135e0:	10909004 	addi	r2,r2,16960
  8135e4:	1885383a 	mul	r2,r3,r2
  8135e8:	100b883a 	mov	r5,r2
  8135ec:	0100bef4 	movhi	r4,763
  8135f0:	213c2004 	addi	r4,r4,-3968
  8135f4:	080d2d40 	call	80d2d4 <__udivsi3>
  8135f8:	1007883a 	mov	r3,r2
  8135fc:	e0bfff17 	ldw	r2,-4(fp)
  813600:	1885383a 	mul	r2,r3,r2
    /*
    * Do NOT Try to single step the asm statement below 
    * (single step will never return)
    * Step out of this function or set a breakpoint after the asm statements
    */
    __asm__ volatile (
  813604:	10bfffc4 	addi	r2,r2,-1
  813608:	103ffe1e 	bne	r2,zero,813604 <__alt_mem_onchip_mem+0xff793604>
  81360c:	00000d06 	br	813644 <alt_busy_sleep+0x140>
      "\n\tbgt %0,zero,0b"
      "\n1:"
      "\n\t.pushsection .debug_alt_sim_info"
      "\n\t.int 4, 0, 0b, 1b"
      "\n\t.popsection"
      :: "r" (us*(ALT_CPU_FREQ/(cycles_per_loop * 1000000))));
  813610:	e0fffd17 	ldw	r3,-12(fp)
  813614:	008003f4 	movhi	r2,15
  813618:	10909004 	addi	r2,r2,16960
  81361c:	1885383a 	mul	r2,r3,r2
  813620:	100b883a 	mov	r5,r2
  813624:	0100bef4 	movhi	r4,763
  813628:	213c2004 	addi	r4,r4,-3968
  81362c:	080d2d40 	call	80d2d4 <__udivsi3>
  813630:	1007883a 	mov	r3,r2
  813634:	e0bfff17 	ldw	r2,-4(fp)
  813638:	1885383a 	mul	r2,r3,r2
    /*
    * Do NOT Try to single step the asm statement below 
    * (single step will never return)
    * Step out of this function or set a breakpoint after the asm statements
    */
    __asm__ volatile (
  81363c:	10bfffc4 	addi	r2,r2,-1
  813640:	00bffe16 	blt	zero,r2,81363c <__alt_mem_onchip_mem+0xff79363c>
      "\n\t.int 4, 0, 0b, 1b"
      "\n\t.popsection"
      :: "r" (us*(ALT_CPU_FREQ/(cycles_per_loop * 1000000))));
  }
#endif /* #ifndef ALT_SIM_OPTIMIZE */
  return 0;
  813644:	0005883a 	mov	r2,zero
}
  813648:	e037883a 	mov	sp,fp
  81364c:	dfc00117 	ldw	ra,4(sp)
  813650:	df000017 	ldw	fp,0(sp)
  813654:	dec00204 	addi	sp,sp,8
  813658:	f800283a 	ret

0081365c <alt_icache_flush>:
 * alt_icache_flush() is called to flush the instruction cache for a memory
 * region of length "len" bytes, starting at address "start".
 */

void alt_icache_flush (void* start, alt_u32 len)
{
  81365c:	defffb04 	addi	sp,sp,-20
  813660:	df000415 	stw	fp,16(sp)
  813664:	df000404 	addi	fp,sp,16
  813668:	e13ffe15 	stw	r4,-8(fp)
  81366c:	e17fff15 	stw	r5,-4(fp)

  /*
   * This is the most we would ever need to flush.
   */
 
  if (len > NIOS2_ICACHE_SIZE)
  813670:	e0bfff17 	ldw	r2,-4(fp)
  813674:	10840070 	cmpltui	r2,r2,4097
  813678:	1000021e 	bne	r2,zero,813684 <alt_icache_flush+0x28>
  {
    len = NIOS2_ICACHE_SIZE;
  81367c:	00840004 	movi	r2,4096
  813680:	e0bfff15 	stw	r2,-4(fp)
  }

  end = ((char*) start) + len;
  813684:	e0fffe17 	ldw	r3,-8(fp)
  813688:	e0bfff17 	ldw	r2,-4(fp)
  81368c:	1885883a 	add	r2,r3,r2
  813690:	e0bffd15 	stw	r2,-12(fp)

  for (i = start; i < end; i+= NIOS2_ICACHE_LINE_SIZE)
  813694:	e0bffe17 	ldw	r2,-8(fp)
  813698:	e0bffc15 	stw	r2,-16(fp)
  81369c:	00000506 	br	8136b4 <alt_icache_flush+0x58>
  { 
    __asm__ volatile ("flushi %0" :: "r" (i)); 
  8136a0:	e0bffc17 	ldw	r2,-16(fp)
  8136a4:	1000603a 	flushi	r2
    len = NIOS2_ICACHE_SIZE;
  }

  end = ((char*) start) + len;

  for (i = start; i < end; i+= NIOS2_ICACHE_LINE_SIZE)
  8136a8:	e0bffc17 	ldw	r2,-16(fp)
  8136ac:	10800804 	addi	r2,r2,32
  8136b0:	e0bffc15 	stw	r2,-16(fp)
  8136b4:	e0fffc17 	ldw	r3,-16(fp)
  8136b8:	e0bffd17 	ldw	r2,-12(fp)
  8136bc:	18bff836 	bltu	r3,r2,8136a0 <__alt_mem_onchip_mem+0xff7936a0>
   * For an unaligned flush request, we've got one more line left.
   * Note that this is dependent on NIOS2_ICACHE_LINE_SIZE to be a 
   * multiple of 2 (which it always is).
   */

  if (((alt_u32) start) & (NIOS2_ICACHE_LINE_SIZE - 1))
  8136c0:	e0bffe17 	ldw	r2,-8(fp)
  8136c4:	108007cc 	andi	r2,r2,31
  8136c8:	10000226 	beq	r2,zero,8136d4 <alt_icache_flush+0x78>
  {
    __asm__ volatile ("flushi %0" :: "r" (i));
  8136cc:	e0bffc17 	ldw	r2,-16(fp)
  8136d0:	1000603a 	flushi	r2
  /* 
   * Having flushed the cache, flush any stale instructions in the 
   * pipeline 
   */

  __asm__ volatile ("flushp");
  8136d4:	0000203a 	flushp

#endif /* NIOS2_ICACHE_SIZE > 0 */
}
  8136d8:	0001883a 	nop
  8136dc:	e037883a 	mov	sp,fp
  8136e0:	df000017 	ldw	fp,0(sp)
  8136e4:	dec00104 	addi	sp,sp,4
  8136e8:	f800283a 	ret

008136ec <alt_exception_cause_generated_bad_addr>:
 * Return: 1: BADADDR (bad_addr argument to handler) is valid
 *         0: BADADDR is not valid
 */
int 
alt_exception_cause_generated_bad_addr(alt_exception_cause cause)
{
  8136ec:	defffe04 	addi	sp,sp,-8
  8136f0:	df000115 	stw	fp,4(sp)
  8136f4:	df000104 	addi	fp,sp,4
  8136f8:	e13fff15 	stw	r4,-4(fp)
  switch (cause) {
  8136fc:	e0bfff17 	ldw	r2,-4(fp)
  813700:	10bffe84 	addi	r2,r2,-6
  813704:	10c00428 	cmpgeui	r3,r2,16
  813708:	18001a1e 	bne	r3,zero,813774 <alt_exception_cause_generated_bad_addr+0x88>
  81370c:	100690ba 	slli	r3,r2,2
  813710:	00802074 	movhi	r2,129
  813714:	108dc904 	addi	r2,r2,14116
  813718:	1885883a 	add	r2,r3,r2
  81371c:	10800017 	ldw	r2,0(r2)
  813720:	1000683a 	jmp	r2
  813724:	00813764 	muli	r2,zero,1245
  813728:	00813764 	muli	r2,zero,1245
  81372c:	00813774 	movhi	r2,1245
  813730:	00813774 	movhi	r2,1245
  813734:	00813774 	movhi	r2,1245
  813738:	00813764 	muli	r2,zero,1245
  81373c:	0081376c 	andhi	r2,zero,1245
  813740:	00813774 	movhi	r2,1245
  813744:	00813764 	muli	r2,zero,1245
  813748:	00813764 	muli	r2,zero,1245
  81374c:	00813774 	movhi	r2,1245
  813750:	00813764 	muli	r2,zero,1245
  813754:	0081376c 	andhi	r2,zero,1245
  813758:	00813774 	movhi	r2,1245
  81375c:	00813774 	movhi	r2,1245
  813760:	00813764 	muli	r2,zero,1245
  case NIOS2_EXCEPTION_MISALIGNED_TARGET_PC:
  case NIOS2_EXCEPTION_TLB_READ_PERM_VIOLATION:
  case NIOS2_EXCEPTION_TLB_WRITE_PERM_VIOLATION:
  case NIOS2_EXCEPTION_MPU_DATA_REGION_VIOLATION:
  case NIOS2_EXCEPTION_ECC_DATA_ERR:
    return 1;
  813764:	00800044 	movi	r2,1
  813768:	00000306 	br	813778 <alt_exception_cause_generated_bad_addr+0x8c>

  case NIOS2_EXCEPTION_TLB_MISS:
  case NIOS2_EXCEPTION_ECC_TLB_ERR:
    return 0;
  81376c:	0005883a 	mov	r2,zero
  813770:	00000106 	br	813778 <alt_exception_cause_generated_bad_addr+0x8c>

  default:
    return 0;
  813774:	0005883a 	mov	r2,zero
  }
}
  813778:	e037883a 	mov	sp,fp
  81377c:	df000017 	ldw	fp,0(sp)
  813780:	dec00104 	addi	sp,sp,4
  813784:	f800283a 	ret

00813788 <atexit>:
  813788:	200b883a 	mov	r5,r4
  81378c:	000f883a 	mov	r7,zero
  813790:	000d883a 	mov	r6,zero
  813794:	0009883a 	mov	r4,zero
  813798:	08138501 	jmpi	813850 <__register_exitproc>

0081379c <exit>:
  81379c:	defffe04 	addi	sp,sp,-8
  8137a0:	000b883a 	mov	r5,zero
  8137a4:	dc000015 	stw	r16,0(sp)
  8137a8:	dfc00115 	stw	ra,4(sp)
  8137ac:	2021883a 	mov	r16,r4
  8137b0:	08139680 	call	813968 <__call_exitprocs>
  8137b4:	00802074 	movhi	r2,129
  8137b8:	10979704 	addi	r2,r2,24156
  8137bc:	11000017 	ldw	r4,0(r2)
  8137c0:	20800f17 	ldw	r2,60(r4)
  8137c4:	10000126 	beq	r2,zero,8137cc <exit+0x30>
  8137c8:	103ee83a 	callr	r2
  8137cc:	8009883a 	mov	r4,r16
  8137d0:	0813ae80 	call	813ae8 <_exit>

008137d4 <memcmp>:
  8137d4:	01c000c4 	movi	r7,3
  8137d8:	3980192e 	bgeu	r7,r6,813840 <memcmp+0x6c>
  8137dc:	2144b03a 	or	r2,r4,r5
  8137e0:	11c4703a 	and	r2,r2,r7
  8137e4:	10000f26 	beq	r2,zero,813824 <memcmp+0x50>
  8137e8:	20800003 	ldbu	r2,0(r4)
  8137ec:	28c00003 	ldbu	r3,0(r5)
  8137f0:	10c0151e 	bne	r2,r3,813848 <memcmp+0x74>
  8137f4:	31bfff84 	addi	r6,r6,-2
  8137f8:	01ffffc4 	movi	r7,-1
  8137fc:	00000406 	br	813810 <memcmp+0x3c>
  813800:	20800003 	ldbu	r2,0(r4)
  813804:	28c00003 	ldbu	r3,0(r5)
  813808:	31bfffc4 	addi	r6,r6,-1
  81380c:	10c00e1e 	bne	r2,r3,813848 <memcmp+0x74>
  813810:	21000044 	addi	r4,r4,1
  813814:	29400044 	addi	r5,r5,1
  813818:	31fff91e 	bne	r6,r7,813800 <__alt_mem_onchip_mem+0xff793800>
  81381c:	0005883a 	mov	r2,zero
  813820:	f800283a 	ret
  813824:	20c00017 	ldw	r3,0(r4)
  813828:	28800017 	ldw	r2,0(r5)
  81382c:	18bfee1e 	bne	r3,r2,8137e8 <__alt_mem_onchip_mem+0xff7937e8>
  813830:	31bfff04 	addi	r6,r6,-4
  813834:	21000104 	addi	r4,r4,4
  813838:	29400104 	addi	r5,r5,4
  81383c:	39bff936 	bltu	r7,r6,813824 <__alt_mem_onchip_mem+0xff793824>
  813840:	303fe91e 	bne	r6,zero,8137e8 <__alt_mem_onchip_mem+0xff7937e8>
  813844:	003ff506 	br	81381c <__alt_mem_onchip_mem+0xff79381c>
  813848:	10c5c83a 	sub	r2,r2,r3
  81384c:	f800283a 	ret

00813850 <__register_exitproc>:
  813850:	defffa04 	addi	sp,sp,-24
  813854:	dc000315 	stw	r16,12(sp)
  813858:	04002074 	movhi	r16,129
  81385c:	84179704 	addi	r16,r16,24156
  813860:	80c00017 	ldw	r3,0(r16)
  813864:	dc400415 	stw	r17,16(sp)
  813868:	dfc00515 	stw	ra,20(sp)
  81386c:	18805217 	ldw	r2,328(r3)
  813870:	2023883a 	mov	r17,r4
  813874:	10003726 	beq	r2,zero,813954 <__register_exitproc+0x104>
  813878:	10c00117 	ldw	r3,4(r2)
  81387c:	010007c4 	movi	r4,31
  813880:	20c00e16 	blt	r4,r3,8138bc <__register_exitproc+0x6c>
  813884:	1a000044 	addi	r8,r3,1
  813888:	8800221e 	bne	r17,zero,813914 <__register_exitproc+0xc4>
  81388c:	18c00084 	addi	r3,r3,2
  813890:	18c7883a 	add	r3,r3,r3
  813894:	18c7883a 	add	r3,r3,r3
  813898:	12000115 	stw	r8,4(r2)
  81389c:	10c7883a 	add	r3,r2,r3
  8138a0:	19400015 	stw	r5,0(r3)
  8138a4:	0005883a 	mov	r2,zero
  8138a8:	dfc00517 	ldw	ra,20(sp)
  8138ac:	dc400417 	ldw	r17,16(sp)
  8138b0:	dc000317 	ldw	r16,12(sp)
  8138b4:	dec00604 	addi	sp,sp,24
  8138b8:	f800283a 	ret
  8138bc:	00800034 	movhi	r2,0
  8138c0:	10800004 	addi	r2,r2,0
  8138c4:	10002626 	beq	r2,zero,813960 <__register_exitproc+0x110>
  8138c8:	01006404 	movi	r4,400
  8138cc:	d9400015 	stw	r5,0(sp)
  8138d0:	d9800115 	stw	r6,4(sp)
  8138d4:	d9c00215 	stw	r7,8(sp)
  8138d8:	00000000 	call	0 <__alt_mem_sdram-0x800000>
  8138dc:	d9400017 	ldw	r5,0(sp)
  8138e0:	d9800117 	ldw	r6,4(sp)
  8138e4:	d9c00217 	ldw	r7,8(sp)
  8138e8:	10001d26 	beq	r2,zero,813960 <__register_exitproc+0x110>
  8138ec:	81000017 	ldw	r4,0(r16)
  8138f0:	10000115 	stw	zero,4(r2)
  8138f4:	02000044 	movi	r8,1
  8138f8:	22405217 	ldw	r9,328(r4)
  8138fc:	0007883a 	mov	r3,zero
  813900:	12400015 	stw	r9,0(r2)
  813904:	20805215 	stw	r2,328(r4)
  813908:	10006215 	stw	zero,392(r2)
  81390c:	10006315 	stw	zero,396(r2)
  813910:	883fde26 	beq	r17,zero,81388c <__alt_mem_onchip_mem+0xff79388c>
  813914:	18c9883a 	add	r4,r3,r3
  813918:	2109883a 	add	r4,r4,r4
  81391c:	1109883a 	add	r4,r2,r4
  813920:	21802215 	stw	r6,136(r4)
  813924:	01800044 	movi	r6,1
  813928:	12406217 	ldw	r9,392(r2)
  81392c:	30cc983a 	sll	r6,r6,r3
  813930:	4992b03a 	or	r9,r9,r6
  813934:	12406215 	stw	r9,392(r2)
  813938:	21c04215 	stw	r7,264(r4)
  81393c:	01000084 	movi	r4,2
  813940:	893fd21e 	bne	r17,r4,81388c <__alt_mem_onchip_mem+0xff79388c>
  813944:	11006317 	ldw	r4,396(r2)
  813948:	218cb03a 	or	r6,r4,r6
  81394c:	11806315 	stw	r6,396(r2)
  813950:	003fce06 	br	81388c <__alt_mem_onchip_mem+0xff79388c>
  813954:	18805304 	addi	r2,r3,332
  813958:	18805215 	stw	r2,328(r3)
  81395c:	003fc606 	br	813878 <__alt_mem_onchip_mem+0xff793878>
  813960:	00bfffc4 	movi	r2,-1
  813964:	003fd006 	br	8138a8 <__alt_mem_onchip_mem+0xff7938a8>

00813968 <__call_exitprocs>:
  813968:	defff504 	addi	sp,sp,-44
  81396c:	df000915 	stw	fp,36(sp)
  813970:	dd400615 	stw	r21,24(sp)
  813974:	dc800315 	stw	r18,12(sp)
  813978:	dfc00a15 	stw	ra,40(sp)
  81397c:	ddc00815 	stw	r23,32(sp)
  813980:	dd800715 	stw	r22,28(sp)
  813984:	dd000515 	stw	r20,20(sp)
  813988:	dcc00415 	stw	r19,16(sp)
  81398c:	dc400215 	stw	r17,8(sp)
  813990:	dc000115 	stw	r16,4(sp)
  813994:	d9000015 	stw	r4,0(sp)
  813998:	2839883a 	mov	fp,r5
  81399c:	04800044 	movi	r18,1
  8139a0:	057fffc4 	movi	r21,-1
  8139a4:	00802074 	movhi	r2,129
  8139a8:	10979704 	addi	r2,r2,24156
  8139ac:	12000017 	ldw	r8,0(r2)
  8139b0:	45005217 	ldw	r20,328(r8)
  8139b4:	44c05204 	addi	r19,r8,328
  8139b8:	a0001c26 	beq	r20,zero,813a2c <__call_exitprocs+0xc4>
  8139bc:	a0800117 	ldw	r2,4(r20)
  8139c0:	15ffffc4 	addi	r23,r2,-1
  8139c4:	b8000d16 	blt	r23,zero,8139fc <__call_exitprocs+0x94>
  8139c8:	14000044 	addi	r16,r2,1
  8139cc:	8421883a 	add	r16,r16,r16
  8139d0:	8421883a 	add	r16,r16,r16
  8139d4:	84402004 	addi	r17,r16,128
  8139d8:	a463883a 	add	r17,r20,r17
  8139dc:	a421883a 	add	r16,r20,r16
  8139e0:	e0001e26 	beq	fp,zero,813a5c <__call_exitprocs+0xf4>
  8139e4:	80804017 	ldw	r2,256(r16)
  8139e8:	e0801c26 	beq	fp,r2,813a5c <__call_exitprocs+0xf4>
  8139ec:	bdffffc4 	addi	r23,r23,-1
  8139f0:	843fff04 	addi	r16,r16,-4
  8139f4:	8c7fff04 	addi	r17,r17,-4
  8139f8:	bd7ff91e 	bne	r23,r21,8139e0 <__alt_mem_onchip_mem+0xff7939e0>
  8139fc:	00800034 	movhi	r2,0
  813a00:	10800004 	addi	r2,r2,0
  813a04:	10000926 	beq	r2,zero,813a2c <__call_exitprocs+0xc4>
  813a08:	a0800117 	ldw	r2,4(r20)
  813a0c:	1000301e 	bne	r2,zero,813ad0 <__call_exitprocs+0x168>
  813a10:	a0800017 	ldw	r2,0(r20)
  813a14:	10003226 	beq	r2,zero,813ae0 <__call_exitprocs+0x178>
  813a18:	a009883a 	mov	r4,r20
  813a1c:	98800015 	stw	r2,0(r19)
  813a20:	00000000 	call	0 <__alt_mem_sdram-0x800000>
  813a24:	9d000017 	ldw	r20,0(r19)
  813a28:	a03fe41e 	bne	r20,zero,8139bc <__alt_mem_onchip_mem+0xff7939bc>
  813a2c:	dfc00a17 	ldw	ra,40(sp)
  813a30:	df000917 	ldw	fp,36(sp)
  813a34:	ddc00817 	ldw	r23,32(sp)
  813a38:	dd800717 	ldw	r22,28(sp)
  813a3c:	dd400617 	ldw	r21,24(sp)
  813a40:	dd000517 	ldw	r20,20(sp)
  813a44:	dcc00417 	ldw	r19,16(sp)
  813a48:	dc800317 	ldw	r18,12(sp)
  813a4c:	dc400217 	ldw	r17,8(sp)
  813a50:	dc000117 	ldw	r16,4(sp)
  813a54:	dec00b04 	addi	sp,sp,44
  813a58:	f800283a 	ret
  813a5c:	a0800117 	ldw	r2,4(r20)
  813a60:	80c00017 	ldw	r3,0(r16)
  813a64:	10bfffc4 	addi	r2,r2,-1
  813a68:	15c01426 	beq	r2,r23,813abc <__call_exitprocs+0x154>
  813a6c:	80000015 	stw	zero,0(r16)
  813a70:	183fde26 	beq	r3,zero,8139ec <__alt_mem_onchip_mem+0xff7939ec>
  813a74:	95c8983a 	sll	r4,r18,r23
  813a78:	a0806217 	ldw	r2,392(r20)
  813a7c:	a5800117 	ldw	r22,4(r20)
  813a80:	2084703a 	and	r2,r4,r2
  813a84:	10000b26 	beq	r2,zero,813ab4 <__call_exitprocs+0x14c>
  813a88:	a0806317 	ldw	r2,396(r20)
  813a8c:	2088703a 	and	r4,r4,r2
  813a90:	20000c1e 	bne	r4,zero,813ac4 <__call_exitprocs+0x15c>
  813a94:	89400017 	ldw	r5,0(r17)
  813a98:	d9000017 	ldw	r4,0(sp)
  813a9c:	183ee83a 	callr	r3
  813aa0:	a0800117 	ldw	r2,4(r20)
  813aa4:	15bfbf1e 	bne	r2,r22,8139a4 <__alt_mem_onchip_mem+0xff7939a4>
  813aa8:	98800017 	ldw	r2,0(r19)
  813aac:	153fcf26 	beq	r2,r20,8139ec <__alt_mem_onchip_mem+0xff7939ec>
  813ab0:	003fbc06 	br	8139a4 <__alt_mem_onchip_mem+0xff7939a4>
  813ab4:	183ee83a 	callr	r3
  813ab8:	003ff906 	br	813aa0 <__alt_mem_onchip_mem+0xff793aa0>
  813abc:	a5c00115 	stw	r23,4(r20)
  813ac0:	003feb06 	br	813a70 <__alt_mem_onchip_mem+0xff793a70>
  813ac4:	89000017 	ldw	r4,0(r17)
  813ac8:	183ee83a 	callr	r3
  813acc:	003ff406 	br	813aa0 <__alt_mem_onchip_mem+0xff793aa0>
  813ad0:	a0800017 	ldw	r2,0(r20)
  813ad4:	a027883a 	mov	r19,r20
  813ad8:	1029883a 	mov	r20,r2
  813adc:	003fb606 	br	8139b8 <__alt_mem_onchip_mem+0xff7939b8>
  813ae0:	0005883a 	mov	r2,zero
  813ae4:	003ffb06 	br	813ad4 <__alt_mem_onchip_mem+0xff793ad4>

00813ae8 <_exit>:
 *
 * ALT_EXIT is mapped onto the _exit() system call in alt_syscall.h
 */

void ALT_EXIT (int exit_code)
{
  813ae8:	defffd04 	addi	sp,sp,-12
  813aec:	df000215 	stw	fp,8(sp)
  813af0:	df000204 	addi	fp,sp,8
  813af4:	e13fff15 	stw	r4,-4(fp)
  ALT_LOG_PRINT_BOOT("[alt_exit.c] Entering _exit() function.\r\n");
  ALT_LOG_PRINT_BOOT("[alt_exit.c] Exit code from main was %d.\r\n",exit_code);
  /* Stop all other threads */

  ALT_LOG_PRINT_BOOT("[alt_exit.c] Calling ALT_OS_STOP().\r\n");
  ALT_OS_STOP();
  813af8:	0001883a 	nop
  813afc:	e0bfff17 	ldw	r2,-4(fp)
  813b00:	e0bffe15 	stw	r2,-8(fp)
/*
 * Routine called on exit.
 */
static ALT_INLINE ALT_ALWAYS_INLINE void alt_sim_halt(int exit_code)
{
  register int r2 asm ("r2") = exit_code;
  813b04:	e0bffe17 	ldw	r2,-8(fp)
  __asm__ volatile ("\n0:\n\taddi %0,%0, -1\n\tbgt %0,zero,0b" : : "r" (ALT_CPU_FREQ/100) ); /* Delay for >30ms */

  __asm__ volatile ("break 2" : : "r"(r2), "r"(r3) ALT_GMON_DATA );

#else /* !DEBUG_STUB */
  if (r2) {
  813b08:	10000226 	beq	r2,zero,813b14 <_exit+0x2c>
    ALT_SIM_FAIL();
  813b0c:	002af070 	cmpltui	zero,zero,43969
  813b10:	00000106 	br	813b18 <_exit+0x30>
  } else {
    ALT_SIM_PASS();
  813b14:	002af0b0 	cmpltui	zero,zero,43970
  ALT_SIM_HALT(exit_code);

  /* spin forever, since there's no where to go back to */

  ALT_LOG_PRINT_BOOT("[alt_exit.c] Spinning forever.\r\n");
  while (1);
  813b18:	003fff06 	br	813b18 <__alt_mem_onchip_mem+0xff793b18>
